
hello:     file format elf64-littleriscv


Disassembly of section .text:

00000000000100b0 <_start>:
   100b0:	00000517          	auipc	a0,0x0
   100b4:	01050513          	addi	a0,a0,16 # 100c0 <trap_handler>
   100b8:	30551073          	csrw	mtvec,a0
   100bc:	030000ef          	jal	ra,100ec <main>

00000000000100c0 <trap_handler>:
   100c0:	34102f73          	csrr	t5,mepc
   100c4:	0f11                	addi	t5,t5,4
   100c6:	341f1073          	csrw	mepc,t5
   100ca:	04000f13          	li	t5,64
   100ce:	01e88463          	beq	a7,t5,100d6 <handle_write>

00000000000100d2 <exit_trap_handler>:
   100d2:	30200073          	mret

00000000000100d6 <handle_write>:
   100d6:	fe051ee3          	bnez	a0,100d2 <exit_trap_handler>

00000000000100da <handle_write_loop>:
   100da:	fe060ce3          	beqz	a2,100d2 <exit_trap_handler>
   100de:	00058f03          	lb	t5,0(a1)
   100e2:	07e00223          	sb	t5,100(zero) # 64 <_start-0x1004c>
   100e6:	0585                	addi	a1,a1,1
   100e8:	167d                	addi	a2,a2,-1
   100ea:	bfc5                	j	100da <handle_write_loop>

00000000000100ec <main>:
   100ec:	1141                	addi	sp,sp,-16
   100ee:	e406                	sd	ra,8(sp)
   100f0:	e022                	sd	s0,0(sp)
   100f2:	0800                	addi	s0,sp,16
   100f4:	460d                	li	a2,3
   100f6:	67c5                	lui	a5,0x11
   100f8:	a5878593          	addi	a1,a5,-1448 # 10a58 <__errno+0xc>
   100fc:	4501                	li	a0,0
   100fe:	010000ef          	jal	ra,1010e <write>
   10102:	4781                	li	a5,0
   10104:	853e                	mv	a0,a5
   10106:	60a2                	ld	ra,8(sp)
   10108:	6402                	ld	s0,0(sp)
   1010a:	0141                	addi	sp,sp,16
   1010c:	8082                	ret

000000000001010e <write>:
   1010e:	67c9                	lui	a5,0x12
   10110:	86b2                	mv	a3,a2
   10112:	862e                	mv	a2,a1
   10114:	85aa                	mv	a1,a0
   10116:	f607b503          	ld	a0,-160(a5) # 11f60 <_impure_ptr>
   1011a:	0040006f          	j	1011e <_write_r>

000000000001011e <_write_r>:
   1011e:	1101                	addi	sp,sp,-32
   10120:	e822                	sd	s0,16(sp)
   10122:	e426                	sd	s1,8(sp)
   10124:	84aa                	mv	s1,a0
   10126:	852e                	mv	a0,a1
   10128:	85b2                	mv	a1,a2
   1012a:	8636                	mv	a2,a3
   1012c:	ec06                	sd	ra,24(sp)
   1012e:	8601a423          	sw	zero,-1944(gp) # 11fc0 <errno>
   10132:	0eb000ef          	jal	ra,10a1c <_write>
   10136:	57fd                	li	a5,-1
   10138:	00f51663          	bne	a0,a5,10144 <_write_r+0x26>
   1013c:	8681a783          	lw	a5,-1944(gp) # 11fc0 <errno>
   10140:	c391                	beqz	a5,10144 <_write_r+0x26>
   10142:	c09c                	sw	a5,0(s1)
   10144:	60e2                	ld	ra,24(sp)
   10146:	6442                	ld	s0,16(sp)
   10148:	64a2                	ld	s1,8(sp)
   1014a:	6105                	addi	sp,sp,32
   1014c:	8082                	ret

000000000001014e <cleanup_glue>:
   1014e:	1101                	addi	sp,sp,-32
   10150:	e822                	sd	s0,16(sp)
   10152:	842e                	mv	s0,a1
   10154:	618c                	ld	a1,0(a1)
   10156:	e426                	sd	s1,8(sp)
   10158:	ec06                	sd	ra,24(sp)
   1015a:	84aa                	mv	s1,a0
   1015c:	c199                	beqz	a1,10162 <cleanup_glue+0x14>
   1015e:	ff1ff0ef          	jal	ra,1014e <cleanup_glue>
   10162:	85a2                	mv	a1,s0
   10164:	6442                	ld	s0,16(sp)
   10166:	60e2                	ld	ra,24(sp)
   10168:	8526                	mv	a0,s1
   1016a:	64a2                	ld	s1,8(sp)
   1016c:	6105                	addi	sp,sp,32
   1016e:	1660006f          	j	102d4 <_free_r>

0000000000010172 <_reclaim_reent>:
   10172:	67c9                	lui	a5,0x12
   10174:	f607b783          	ld	a5,-160(a5) # 11f60 <_impure_ptr>
   10178:	0aa78063          	beq	a5,a0,10218 <_reclaim_reent+0xa6>
   1017c:	7d3c                	ld	a5,120(a0)
   1017e:	7179                	addi	sp,sp,-48
   10180:	f022                	sd	s0,32(sp)
   10182:	f406                	sd	ra,40(sp)
   10184:	ec26                	sd	s1,24(sp)
   10186:	e84a                	sd	s2,16(sp)
   10188:	e44e                	sd	s3,8(sp)
   1018a:	842a                	mv	s0,a0
   1018c:	cf99                	beqz	a5,101aa <_reclaim_reent+0x38>
   1018e:	4481                	li	s1,0
   10190:	20000913          	li	s2,512
   10194:	7c3c                	ld	a5,120(s0)
   10196:	97a6                	add	a5,a5,s1
   10198:	638c                	ld	a1,0(a5)
   1019a:	e99d                	bnez	a1,101d0 <_reclaim_reent+0x5e>
   1019c:	04a1                	addi	s1,s1,8
   1019e:	ff249be3          	bne	s1,s2,10194 <_reclaim_reent+0x22>
   101a2:	7c2c                	ld	a1,120(s0)
   101a4:	8522                	mv	a0,s0
   101a6:	12e000ef          	jal	ra,102d4 <_free_r>
   101aa:	702c                	ld	a1,96(s0)
   101ac:	c581                	beqz	a1,101b4 <_reclaim_reent+0x42>
   101ae:	8522                	mv	a0,s0
   101b0:	124000ef          	jal	ra,102d4 <_free_r>
   101b4:	1f843583          	ld	a1,504(s0)
   101b8:	c19d                	beqz	a1,101de <_reclaim_reent+0x6c>
   101ba:	20040493          	addi	s1,s0,512
   101be:	02958063          	beq	a1,s1,101de <_reclaim_reent+0x6c>
   101c2:	0005b903          	ld	s2,0(a1)
   101c6:	8522                	mv	a0,s0
   101c8:	10c000ef          	jal	ra,102d4 <_free_r>
   101cc:	85ca                	mv	a1,s2
   101ce:	bfc5                	j	101be <_reclaim_reent+0x4c>
   101d0:	0005b983          	ld	s3,0(a1)
   101d4:	8522                	mv	a0,s0
   101d6:	0fe000ef          	jal	ra,102d4 <_free_r>
   101da:	85ce                	mv	a1,s3
   101dc:	bf7d                	j	1019a <_reclaim_reent+0x28>
   101de:	644c                	ld	a1,136(s0)
   101e0:	c581                	beqz	a1,101e8 <_reclaim_reent+0x76>
   101e2:	8522                	mv	a0,s0
   101e4:	0f0000ef          	jal	ra,102d4 <_free_r>
   101e8:	483c                	lw	a5,80(s0)
   101ea:	c385                	beqz	a5,1020a <_reclaim_reent+0x98>
   101ec:	6c3c                	ld	a5,88(s0)
   101ee:	8522                	mv	a0,s0
   101f0:	9782                	jalr	a5
   101f2:	52043583          	ld	a1,1312(s0)
   101f6:	c991                	beqz	a1,1020a <_reclaim_reent+0x98>
   101f8:	8522                	mv	a0,s0
   101fa:	7402                	ld	s0,32(sp)
   101fc:	70a2                	ld	ra,40(sp)
   101fe:	64e2                	ld	s1,24(sp)
   10200:	6942                	ld	s2,16(sp)
   10202:	69a2                	ld	s3,8(sp)
   10204:	6145                	addi	sp,sp,48
   10206:	f49ff06f          	j	1014e <cleanup_glue>
   1020a:	70a2                	ld	ra,40(sp)
   1020c:	7402                	ld	s0,32(sp)
   1020e:	64e2                	ld	s1,24(sp)
   10210:	6942                	ld	s2,16(sp)
   10212:	69a2                	ld	s3,8(sp)
   10214:	6145                	addi	sp,sp,48
   10216:	8082                	ret
   10218:	8082                	ret

000000000001021a <_malloc_trim_r>:
   1021a:	7179                	addi	sp,sp,-48
   1021c:	e84a                	sd	s2,16(sp)
   1021e:	6945                	lui	s2,0x11
   10220:	f022                	sd	s0,32(sp)
   10222:	ec26                	sd	s1,24(sp)
   10224:	e44e                	sd	s3,8(sp)
   10226:	842e                	mv	s0,a1
   10228:	f406                	sd	ra,40(sp)
   1022a:	89aa                	mv	s3,a0
   1022c:	74890913          	addi	s2,s2,1864 # 11748 <__malloc_av_>
   10230:	738000ef          	jal	ra,10968 <__malloc_lock>
   10234:	01093783          	ld	a5,16(s2)
   10238:	6705                	lui	a4,0x1
   1023a:	6784                	ld	s1,8(a5)
   1023c:	fdf70793          	addi	a5,a4,-33 # fdf <_start-0xf0d1>
   10240:	40878433          	sub	s0,a5,s0
   10244:	98f1                	andi	s1,s1,-4
   10246:	9426                	add	s0,s0,s1
   10248:	8031                	srli	s0,s0,0xc
   1024a:	147d                	addi	s0,s0,-1
   1024c:	0432                	slli	s0,s0,0xc
   1024e:	00e45d63          	ble	a4,s0,10268 <_malloc_trim_r+0x4e>
   10252:	854e                	mv	a0,s3
   10254:	716000ef          	jal	ra,1096a <__malloc_unlock>
   10258:	4501                	li	a0,0
   1025a:	70a2                	ld	ra,40(sp)
   1025c:	7402                	ld	s0,32(sp)
   1025e:	64e2                	ld	s1,24(sp)
   10260:	6942                	ld	s2,16(sp)
   10262:	69a2                	ld	s3,8(sp)
   10264:	6145                	addi	sp,sp,48
   10266:	8082                	ret
   10268:	4581                	li	a1,0
   1026a:	854e                	mv	a0,s3
   1026c:	700000ef          	jal	ra,1096c <_sbrk_r>
   10270:	01093783          	ld	a5,16(s2)
   10274:	97a6                	add	a5,a5,s1
   10276:	fcf51ee3          	bne	a0,a5,10252 <_malloc_trim_r+0x38>
   1027a:	408005b3          	neg	a1,s0
   1027e:	854e                	mv	a0,s3
   10280:	6ec000ef          	jal	ra,1096c <_sbrk_r>
   10284:	57fd                	li	a5,-1
   10286:	02f51663          	bne	a0,a5,102b2 <_malloc_trim_r+0x98>
   1028a:	4581                	li	a1,0
   1028c:	854e                	mv	a0,s3
   1028e:	6de000ef          	jal	ra,1096c <_sbrk_r>
   10292:	01093703          	ld	a4,16(s2)
   10296:	46fd                	li	a3,31
   10298:	40e507b3          	sub	a5,a0,a4
   1029c:	faf6dbe3          	ble	a5,a3,10252 <_malloc_trim_r+0x38>
   102a0:	8101b683          	ld	a3,-2032(gp) # 11f68 <__malloc_sbrk_base>
   102a4:	0017e793          	ori	a5,a5,1
   102a8:	e71c                	sd	a5,8(a4)
   102aa:	8d15                	sub	a0,a0,a3
   102ac:	84a1a023          	sw	a0,-1984(gp) # 11f98 <__malloc_current_mallinfo>
   102b0:	b74d                	j	10252 <_malloc_trim_r+0x38>
   102b2:	01093783          	ld	a5,16(s2)
   102b6:	8c81                	sub	s1,s1,s0
   102b8:	0014e493          	ori	s1,s1,1
   102bc:	e784                	sd	s1,8(a5)
   102be:	8401a783          	lw	a5,-1984(gp) # 11f98 <__malloc_current_mallinfo>
   102c2:	854e                	mv	a0,s3
   102c4:	4087843b          	subw	s0,a5,s0
   102c8:	8481a023          	sw	s0,-1984(gp) # 11f98 <__malloc_current_mallinfo>
   102cc:	69e000ef          	jal	ra,1096a <__malloc_unlock>
   102d0:	4505                	li	a0,1
   102d2:	b761                	j	1025a <_malloc_trim_r+0x40>

00000000000102d4 <_free_r>:
   102d4:	1a058863          	beqz	a1,10484 <_free_r+0x1b0>
   102d8:	1101                	addi	sp,sp,-32
   102da:	e822                	sd	s0,16(sp)
   102dc:	e426                	sd	s1,8(sp)
   102de:	842a                	mv	s0,a0
   102e0:	84ae                	mv	s1,a1
   102e2:	ec06                	sd	ra,24(sp)
   102e4:	684000ef          	jal	ra,10968 <__malloc_lock>
   102e8:	ff84b503          	ld	a0,-8(s1)
   102ec:	6645                	lui	a2,0x11
   102ee:	ff048693          	addi	a3,s1,-16
   102f2:	ffe57793          	andi	a5,a0,-2
   102f6:	74860813          	addi	a6,a2,1864 # 11748 <__malloc_av_>
   102fa:	00f685b3          	add	a1,a3,a5
   102fe:	6598                	ld	a4,8(a1)
   10300:	01083803          	ld	a6,16(a6)
   10304:	74860613          	addi	a2,a2,1864
   10308:	9b71                	andi	a4,a4,-4
   1030a:	8905                	andi	a0,a0,1
   1030c:	04b81063          	bne	a6,a1,1034c <_free_r+0x78>
   10310:	97ba                	add	a5,a5,a4
   10312:	e909                	bnez	a0,10324 <_free_r+0x50>
   10314:	ff04b703          	ld	a4,-16(s1)
   10318:	8e99                	sub	a3,a3,a4
   1031a:	6a8c                	ld	a1,16(a3)
   1031c:	97ba                	add	a5,a5,a4
   1031e:	6e98                	ld	a4,24(a3)
   10320:	ed98                	sd	a4,24(a1)
   10322:	eb0c                	sd	a1,16(a4)
   10324:	0017e713          	ori	a4,a5,1
   10328:	e698                	sd	a4,8(a3)
   1032a:	8181b703          	ld	a4,-2024(gp) # 11f70 <__malloc_trim_threshold>
   1032e:	ea14                	sd	a3,16(a2)
   10330:	00e7e763          	bltu	a5,a4,1033e <_free_r+0x6a>
   10334:	8301b583          	ld	a1,-2000(gp) # 11f88 <__malloc_top_pad>
   10338:	8522                	mv	a0,s0
   1033a:	ee1ff0ef          	jal	ra,1021a <_malloc_trim_r>
   1033e:	8522                	mv	a0,s0
   10340:	6442                	ld	s0,16(sp)
   10342:	60e2                	ld	ra,24(sp)
   10344:	64a2                	ld	s1,8(sp)
   10346:	6105                	addi	sp,sp,32
   10348:	6220006f          	j	1096a <__malloc_unlock>
   1034c:	e598                	sd	a4,8(a1)
   1034e:	4801                	li	a6,0
   10350:	e10d                	bnez	a0,10372 <_free_r+0x9e>
   10352:	ff04b503          	ld	a0,-16(s1)
   10356:	68c5                	lui	a7,0x11
   10358:	75888893          	addi	a7,a7,1880 # 11758 <__malloc_av_+0x10>
   1035c:	8e89                	sub	a3,a3,a0
   1035e:	97aa                	add	a5,a5,a0
   10360:	6a88                	ld	a0,16(a3)
   10362:	07150e63          	beq	a0,a7,103de <_free_r+0x10a>
   10366:	0186b883          	ld	a7,24(a3)
   1036a:	01153c23          	sd	a7,24(a0)
   1036e:	00a8b823          	sd	a0,16(a7)
   10372:	00e58533          	add	a0,a1,a4
   10376:	6508                	ld	a0,8(a0)
   10378:	8905                	andi	a0,a0,1
   1037a:	ed19                	bnez	a0,10398 <_free_r+0xc4>
   1037c:	97ba                	add	a5,a5,a4
   1037e:	6998                	ld	a4,16(a1)
   10380:	06081163          	bnez	a6,103e2 <_free_r+0x10e>
   10384:	6545                	lui	a0,0x11
   10386:	75850513          	addi	a0,a0,1880 # 11758 <__malloc_av_+0x10>
   1038a:	04a71c63          	bne	a4,a0,103e2 <_free_r+0x10e>
   1038e:	f614                	sd	a3,40(a2)
   10390:	f214                	sd	a3,32(a2)
   10392:	ee98                	sd	a4,24(a3)
   10394:	ea98                	sd	a4,16(a3)
   10396:	4805                	li	a6,1
   10398:	0017e713          	ori	a4,a5,1
   1039c:	e698                	sd	a4,8(a3)
   1039e:	00f68733          	add	a4,a3,a5
   103a2:	e31c                	sd	a5,0(a4)
   103a4:	f8081de3          	bnez	a6,1033e <_free_r+0x6a>
   103a8:	1ff00713          	li	a4,511
   103ac:	02f76f63          	bltu	a4,a5,103ea <_free_r+0x116>
   103b0:	838d                	srli	a5,a5,0x3
   103b2:	2781                	sext.w	a5,a5
   103b4:	4027d59b          	sraiw	a1,a5,0x2
   103b8:	4705                	li	a4,1
   103ba:	00b71733          	sll	a4,a4,a1
   103be:	2785                	addiw	a5,a5,1
   103c0:	660c                	ld	a1,8(a2)
   103c2:	0017979b          	slliw	a5,a5,0x1
   103c6:	078e                	slli	a5,a5,0x3
   103c8:	97b2                	add	a5,a5,a2
   103ca:	8f4d                	or	a4,a4,a1
   103cc:	e618                	sd	a4,8(a2)
   103ce:	6398                	ld	a4,0(a5)
   103d0:	ff078613          	addi	a2,a5,-16
   103d4:	ee90                	sd	a2,24(a3)
   103d6:	ea98                	sd	a4,16(a3)
   103d8:	e394                	sd	a3,0(a5)
   103da:	ef14                	sd	a3,24(a4)
   103dc:	b78d                	j	1033e <_free_r+0x6a>
   103de:	4805                	li	a6,1
   103e0:	bf49                	j	10372 <_free_r+0x9e>
   103e2:	6d8c                	ld	a1,24(a1)
   103e4:	ef0c                	sd	a1,24(a4)
   103e6:	e998                	sd	a4,16(a1)
   103e8:	bf45                	j	10398 <_free_r+0xc4>
   103ea:	0097d593          	srli	a1,a5,0x9
   103ee:	4711                	li	a4,4
   103f0:	02b76e63          	bltu	a4,a1,1042c <_free_r+0x158>
   103f4:	0067d713          	srli	a4,a5,0x6
   103f8:	0387071b          	addiw	a4,a4,56
   103fc:	0017059b          	addiw	a1,a4,1
   10400:	0015959b          	slliw	a1,a1,0x1
   10404:	058e                	slli	a1,a1,0x3
   10406:	95b2                	add	a1,a1,a2
   10408:	ff058513          	addi	a0,a1,-16
   1040c:	618c                	ld	a1,0(a1)
   1040e:	06b51563          	bne	a0,a1,10478 <_free_r+0x1a4>
   10412:	4785                	li	a5,1
   10414:	4027571b          	sraiw	a4,a4,0x2
   10418:	00e79733          	sll	a4,a5,a4
   1041c:	661c                	ld	a5,8(a2)
   1041e:	8f5d                	or	a4,a4,a5
   10420:	e618                	sd	a4,8(a2)
   10422:	ee88                	sd	a0,24(a3)
   10424:	ea8c                	sd	a1,16(a3)
   10426:	e914                	sd	a3,16(a0)
   10428:	ed94                	sd	a3,24(a1)
   1042a:	bf11                	j	1033e <_free_r+0x6a>
   1042c:	4751                	li	a4,20
   1042e:	00b76563          	bltu	a4,a1,10438 <_free_r+0x164>
   10432:	05b5871b          	addiw	a4,a1,91
   10436:	b7d9                	j	103fc <_free_r+0x128>
   10438:	05400713          	li	a4,84
   1043c:	00b76763          	bltu	a4,a1,1044a <_free_r+0x176>
   10440:	00c7d713          	srli	a4,a5,0xc
   10444:	06e7071b          	addiw	a4,a4,110
   10448:	bf55                	j	103fc <_free_r+0x128>
   1044a:	15400713          	li	a4,340
   1044e:	00b76763          	bltu	a4,a1,1045c <_free_r+0x188>
   10452:	00f7d713          	srli	a4,a5,0xf
   10456:	0777071b          	addiw	a4,a4,119
   1045a:	b74d                	j	103fc <_free_r+0x128>
   1045c:	55400513          	li	a0,1364
   10460:	07e00713          	li	a4,126
   10464:	f8b56ce3          	bltu	a0,a1,103fc <_free_r+0x128>
   10468:	0127d713          	srli	a4,a5,0x12
   1046c:	07c7071b          	addiw	a4,a4,124
   10470:	b771                	j	103fc <_free_r+0x128>
   10472:	698c                	ld	a1,16(a1)
   10474:	00b50663          	beq	a0,a1,10480 <_free_r+0x1ac>
   10478:	6598                	ld	a4,8(a1)
   1047a:	9b71                	andi	a4,a4,-4
   1047c:	fee7ebe3          	bltu	a5,a4,10472 <_free_r+0x19e>
   10480:	6d88                	ld	a0,24(a1)
   10482:	b745                	j	10422 <_free_r+0x14e>
   10484:	8082                	ret

0000000000010486 <_malloc_r>:
   10486:	711d                	addi	sp,sp,-96
   10488:	ec86                	sd	ra,88(sp)
   1048a:	e8a2                	sd	s0,80(sp)
   1048c:	e4a6                	sd	s1,72(sp)
   1048e:	e0ca                	sd	s2,64(sp)
   10490:	fc4e                	sd	s3,56(sp)
   10492:	f852                	sd	s4,48(sp)
   10494:	f456                	sd	s5,40(sp)
   10496:	f05a                	sd	s6,32(sp)
   10498:	ec5e                	sd	s7,24(sp)
   1049a:	e862                	sd	s8,16(sp)
   1049c:	e466                	sd	s9,8(sp)
   1049e:	01758793          	addi	a5,a1,23
   104a2:	02e00713          	li	a4,46
   104a6:	02f77a63          	bleu	a5,a4,104da <_malloc_r+0x54>
   104aa:	ff07f493          	andi	s1,a5,-16
   104ae:	800007b7          	lui	a5,0x80000
   104b2:	fff7c793          	not	a5,a5
   104b6:	0297f463          	bleu	s1,a5,104de <_malloc_r+0x58>
   104ba:	47b1                	li	a5,12
   104bc:	c11c                	sw	a5,0(a0)
   104be:	4501                	li	a0,0
   104c0:	60e6                	ld	ra,88(sp)
   104c2:	6446                	ld	s0,80(sp)
   104c4:	64a6                	ld	s1,72(sp)
   104c6:	6906                	ld	s2,64(sp)
   104c8:	79e2                	ld	s3,56(sp)
   104ca:	7a42                	ld	s4,48(sp)
   104cc:	7aa2                	ld	s5,40(sp)
   104ce:	7b02                	ld	s6,32(sp)
   104d0:	6be2                	ld	s7,24(sp)
   104d2:	6c42                	ld	s8,16(sp)
   104d4:	6ca2                	ld	s9,8(sp)
   104d6:	6125                	addi	sp,sp,96
   104d8:	8082                	ret
   104da:	02000493          	li	s1,32
   104de:	fcb4eee3          	bltu	s1,a1,104ba <_malloc_r+0x34>
   104e2:	89aa                	mv	s3,a0
   104e4:	484000ef          	jal	ra,10968 <__malloc_lock>
   104e8:	6945                	lui	s2,0x11
   104ea:	1f700793          	li	a5,503
   104ee:	74890913          	addi	s2,s2,1864 # 11748 <__malloc_av_>
   104f2:	0497e063          	bltu	a5,s1,10532 <_malloc_r+0xac>
   104f6:	0034d793          	srli	a5,s1,0x3
   104fa:	2781                	sext.w	a5,a5
   104fc:	0017871b          	addiw	a4,a5,1
   10500:	0017171b          	slliw	a4,a4,0x1
   10504:	070e                	slli	a4,a4,0x3
   10506:	974a                	add	a4,a4,s2
   10508:	6700                	ld	s0,8(a4)
   1050a:	ff070693          	addi	a3,a4,-16
   1050e:	00d41663          	bne	s0,a3,1051a <_malloc_r+0x94>
   10512:	6f00                	ld	s0,24(a4)
   10514:	2789                	addiw	a5,a5,2
   10516:	04870e63          	beq	a4,s0,10572 <_malloc_r+0xec>
   1051a:	641c                	ld	a5,8(s0)
   1051c:	6c18                	ld	a4,24(s0)
   1051e:	6814                	ld	a3,16(s0)
   10520:	9bf1                	andi	a5,a5,-4
   10522:	97a2                	add	a5,a5,s0
   10524:	ee98                	sd	a4,24(a3)
   10526:	eb14                	sd	a3,16(a4)
   10528:	6798                	ld	a4,8(a5)
   1052a:	00176713          	ori	a4,a4,1
   1052e:	e798                	sd	a4,8(a5)
   10530:	a049                	j	105b2 <_malloc_r+0x12c>
   10532:	0094d713          	srli	a4,s1,0x9
   10536:	03f00793          	li	a5,63
   1053a:	cb01                	beqz	a4,1054a <_malloc_r+0xc4>
   1053c:	4791                	li	a5,4
   1053e:	08e7e063          	bltu	a5,a4,105be <_malloc_r+0x138>
   10542:	0064d793          	srli	a5,s1,0x6
   10546:	0387879b          	addiw	a5,a5,56
   1054a:	0017871b          	addiw	a4,a5,1
   1054e:	0017171b          	slliw	a4,a4,0x1
   10552:	070e                	slli	a4,a4,0x3
   10554:	974a                	add	a4,a4,s2
   10556:	6700                	ld	s0,8(a4)
   10558:	ff070593          	addi	a1,a4,-16
   1055c:	457d                	li	a0,31
   1055e:	00b40963          	beq	s0,a1,10570 <_malloc_r+0xea>
   10562:	6418                	ld	a4,8(s0)
   10564:	9b71                	andi	a4,a4,-4
   10566:	40970633          	sub	a2,a4,s1
   1056a:	08c55d63          	ble	a2,a0,10604 <_malloc_r+0x17e>
   1056e:	37fd                	addiw	a5,a5,-1
   10570:	2785                	addiw	a5,a5,1
   10572:	02093403          	ld	s0,32(s2)
   10576:	65c5                	lui	a1,0x11
   10578:	75858693          	addi	a3,a1,1880 # 11758 <__malloc_av_+0x10>
   1057c:	75858593          	addi	a1,a1,1880
   10580:	0ed40663          	beq	s0,a3,1066c <_malloc_r+0x1e6>
   10584:	6418                	ld	a4,8(s0)
   10586:	467d                	li	a2,31
   10588:	9b71                	andi	a4,a4,-4
   1058a:	40970533          	sub	a0,a4,s1
   1058e:	08a65663          	ble	a0,a2,1061a <_malloc_r+0x194>
   10592:	0014e793          	ori	a5,s1,1
   10596:	e41c                	sd	a5,8(s0)
   10598:	00940633          	add	a2,s0,s1
   1059c:	02c93423          	sd	a2,40(s2)
   105a0:	02c93023          	sd	a2,32(s2)
   105a4:	00156793          	ori	a5,a0,1
   105a8:	ee14                	sd	a3,24(a2)
   105aa:	ea14                	sd	a3,16(a2)
   105ac:	e61c                	sd	a5,8(a2)
   105ae:	9722                	add	a4,a4,s0
   105b0:	e308                	sd	a0,0(a4)
   105b2:	854e                	mv	a0,s3
   105b4:	3b6000ef          	jal	ra,1096a <__malloc_unlock>
   105b8:	01040513          	addi	a0,s0,16
   105bc:	b711                	j	104c0 <_malloc_r+0x3a>
   105be:	47d1                	li	a5,20
   105c0:	00e7e563          	bltu	a5,a4,105ca <_malloc_r+0x144>
   105c4:	05b7079b          	addiw	a5,a4,91
   105c8:	b749                	j	1054a <_malloc_r+0xc4>
   105ca:	05400793          	li	a5,84
   105ce:	00e7e763          	bltu	a5,a4,105dc <_malloc_r+0x156>
   105d2:	00c4d793          	srli	a5,s1,0xc
   105d6:	06e7879b          	addiw	a5,a5,110
   105da:	bf85                	j	1054a <_malloc_r+0xc4>
   105dc:	15400793          	li	a5,340
   105e0:	00e7e763          	bltu	a5,a4,105ee <_malloc_r+0x168>
   105e4:	00f4d793          	srli	a5,s1,0xf
   105e8:	0777879b          	addiw	a5,a5,119
   105ec:	bfb9                	j	1054a <_malloc_r+0xc4>
   105ee:	55400693          	li	a3,1364
   105f2:	07e00793          	li	a5,126
   105f6:	f4e6eae3          	bltu	a3,a4,1054a <_malloc_r+0xc4>
   105fa:	0124d793          	srli	a5,s1,0x12
   105fe:	07c7879b          	addiw	a5,a5,124
   10602:	b7a1                	j	1054a <_malloc_r+0xc4>
   10604:	6c14                	ld	a3,24(s0)
   10606:	00064863          	bltz	a2,10616 <_malloc_r+0x190>
   1060a:	681c                	ld	a5,16(s0)
   1060c:	ef94                	sd	a3,24(a5)
   1060e:	ea9c                	sd	a5,16(a3)
   10610:	00e407b3          	add	a5,s0,a4
   10614:	bf11                	j	10528 <_malloc_r+0xa2>
   10616:	8436                	mv	s0,a3
   10618:	b799                	j	1055e <_malloc_r+0xd8>
   1061a:	02d93423          	sd	a3,40(s2)
   1061e:	02d93023          	sd	a3,32(s2)
   10622:	00054863          	bltz	a0,10632 <_malloc_r+0x1ac>
   10626:	9722                	add	a4,a4,s0
   10628:	671c                	ld	a5,8(a4)
   1062a:	0017e793          	ori	a5,a5,1
   1062e:	e71c                	sd	a5,8(a4)
   10630:	b749                	j	105b2 <_malloc_r+0x12c>
   10632:	1ff00693          	li	a3,511
   10636:	00893803          	ld	a6,8(s2)
   1063a:	12e6e763          	bltu	a3,a4,10768 <_malloc_r+0x2e2>
   1063e:	830d                	srli	a4,a4,0x3
   10640:	2701                	sext.w	a4,a4
   10642:	4027561b          	sraiw	a2,a4,0x2
   10646:	2705                	addiw	a4,a4,1
   10648:	4685                	li	a3,1
   1064a:	0017171b          	slliw	a4,a4,0x1
   1064e:	00c696b3          	sll	a3,a3,a2
   10652:	070e                	slli	a4,a4,0x3
   10654:	974a                	add	a4,a4,s2
   10656:	0106e6b3          	or	a3,a3,a6
   1065a:	00d93423          	sd	a3,8(s2)
   1065e:	6314                	ld	a3,0(a4)
   10660:	ff070613          	addi	a2,a4,-16
   10664:	ec10                	sd	a2,24(s0)
   10666:	e814                	sd	a3,16(s0)
   10668:	e300                	sd	s0,0(a4)
   1066a:	ee80                	sd	s0,24(a3)
   1066c:	4027d71b          	sraiw	a4,a5,0x2
   10670:	4305                	li	t1,1
   10672:	00e31333          	sll	t1,t1,a4
   10676:	00893703          	ld	a4,8(s2)
   1067a:	06676063          	bltu	a4,t1,106da <_malloc_r+0x254>
   1067e:	006776b3          	and	a3,a4,t1
   10682:	e699                	bnez	a3,10690 <_malloc_r+0x20a>
   10684:	9bf1                	andi	a5,a5,-4
   10686:	0306                	slli	t1,t1,0x1
   10688:	006776b3          	and	a3,a4,t1
   1068c:	2791                	addiw	a5,a5,4
   1068e:	dee5                	beqz	a3,10686 <_malloc_r+0x200>
   10690:	4e7d                	li	t3,31
   10692:	0017871b          	addiw	a4,a5,1
   10696:	0017171b          	slliw	a4,a4,0x1
   1069a:	070e                	slli	a4,a4,0x3
   1069c:	1741                	addi	a4,a4,-16
   1069e:	974a                	add	a4,a4,s2
   106a0:	883a                	mv	a6,a4
   106a2:	853e                	mv	a0,a5
   106a4:	01883403          	ld	s0,24(a6)
   106a8:	15041e63          	bne	s0,a6,10804 <_malloc_r+0x37e>
   106ac:	2505                	addiw	a0,a0,1
   106ae:	00357693          	andi	a3,a0,3
   106b2:	0841                	addi	a6,a6,16
   106b4:	fae5                	bnez	a3,106a4 <_malloc_r+0x21e>
   106b6:	0037f693          	andi	a3,a5,3
   106ba:	18069e63          	bnez	a3,10856 <_malloc_r+0x3d0>
   106be:	00893703          	ld	a4,8(s2)
   106c2:	fff34793          	not	a5,t1
   106c6:	8ff9                	and	a5,a5,a4
   106c8:	00f93423          	sd	a5,8(s2)
   106cc:	00893703          	ld	a4,8(s2)
   106d0:	0306                	slli	t1,t1,0x1
   106d2:	00676463          	bltu	a4,t1,106da <_malloc_r+0x254>
   106d6:	18031c63          	bnez	t1,1086e <_malloc_r+0x3e8>
   106da:	01093b83          	ld	s7,16(s2)
   106de:	008bb403          	ld	s0,8(s7)
   106e2:	ffc47a93          	andi	s5,s0,-4
   106e6:	009ae763          	bltu	s5,s1,106f4 <_malloc_r+0x26e>
   106ea:	409a8733          	sub	a4,s5,s1
   106ee:	47fd                	li	a5,31
   106f0:	26e7c263          	blt	a5,a4,10954 <_malloc_r+0x4ce>
   106f4:	8301b403          	ld	s0,-2000(gp) # 11f88 <__malloc_top_pad>
   106f8:	8101b703          	ld	a4,-2032(gp) # 11f68 <__malloc_sbrk_base>
   106fc:	57fd                	li	a5,-1
   106fe:	015b8cb3          	add	s9,s7,s5
   10702:	9426                	add	s0,s0,s1
   10704:	16f71763          	bne	a4,a5,10872 <_malloc_r+0x3ec>
   10708:	02040413          	addi	s0,s0,32
   1070c:	85a2                	mv	a1,s0
   1070e:	854e                	mv	a0,s3
   10710:	25c000ef          	jal	ra,1096c <_sbrk_r>
   10714:	57fd                	li	a5,-1
   10716:	8b2a                	mv	s6,a0
   10718:	1ef50363          	beq	a0,a5,108fe <_malloc_r+0x478>
   1071c:	01957463          	bleu	s9,a0,10724 <_malloc_r+0x29e>
   10720:	1d2b9f63          	bne	s7,s2,108fe <_malloc_r+0x478>
   10724:	84018693          	addi	a3,gp,-1984 # 11f98 <__malloc_current_mallinfo>
   10728:	4298                	lw	a4,0(a3)
   1072a:	84018c13          	addi	s8,gp,-1984 # 11f98 <__malloc_current_mallinfo>
   1072e:	9f21                	addw	a4,a4,s0
   10730:	c298                	sw	a4,0(a3)
   10732:	156c9663          	bne	s9,s6,1087e <_malloc_r+0x3f8>
   10736:	034c9793          	slli	a5,s9,0x34
   1073a:	14079263          	bnez	a5,1087e <_malloc_r+0x3f8>
   1073e:	01093783          	ld	a5,16(s2)
   10742:	9456                	add	s0,s0,s5
   10744:	00146413          	ori	s0,s0,1
   10748:	e780                	sd	s0,8(a5)
   1074a:	000c2783          	lw	a5,0(s8)
   1074e:	8281b683          	ld	a3,-2008(gp) # 11f80 <__malloc_max_sbrked_mem>
   10752:	00f6f463          	bleu	a5,a3,1075a <_malloc_r+0x2d4>
   10756:	82f1b423          	sd	a5,-2008(gp) # 11f80 <__malloc_max_sbrked_mem>
   1075a:	8201b683          	ld	a3,-2016(gp) # 11f78 <_edata>
   1075e:	1af6f063          	bleu	a5,a3,108fe <_malloc_r+0x478>
   10762:	82f1b023          	sd	a5,-2016(gp) # 11f78 <_edata>
   10766:	aa61                	j	108fe <_malloc_r+0x478>
   10768:	00975613          	srli	a2,a4,0x9
   1076c:	4691                	li	a3,4
   1076e:	02c6ef63          	bltu	a3,a2,107ac <_malloc_r+0x326>
   10772:	00675693          	srli	a3,a4,0x6
   10776:	0386869b          	addiw	a3,a3,56
   1077a:	0016861b          	addiw	a2,a3,1
   1077e:	0016161b          	slliw	a2,a2,0x1
   10782:	060e                	slli	a2,a2,0x3
   10784:	964a                	add	a2,a2,s2
   10786:	ff060513          	addi	a0,a2,-16
   1078a:	6210                	ld	a2,0(a2)
   1078c:	06c51663          	bne	a0,a2,107f8 <_malloc_r+0x372>
   10790:	4026d69b          	sraiw	a3,a3,0x2
   10794:	4705                	li	a4,1
   10796:	00d716b3          	sll	a3,a4,a3
   1079a:	0106e6b3          	or	a3,a3,a6
   1079e:	00d93423          	sd	a3,8(s2)
   107a2:	ec08                	sd	a0,24(s0)
   107a4:	e810                	sd	a2,16(s0)
   107a6:	e900                	sd	s0,16(a0)
   107a8:	ee00                	sd	s0,24(a2)
   107aa:	b5c9                	j	1066c <_malloc_r+0x1e6>
   107ac:	46d1                	li	a3,20
   107ae:	00c6e563          	bltu	a3,a2,107b8 <_malloc_r+0x332>
   107b2:	05b6069b          	addiw	a3,a2,91
   107b6:	b7d1                	j	1077a <_malloc_r+0x2f4>
   107b8:	05400693          	li	a3,84
   107bc:	00c6e763          	bltu	a3,a2,107ca <_malloc_r+0x344>
   107c0:	00c75693          	srli	a3,a4,0xc
   107c4:	06e6869b          	addiw	a3,a3,110
   107c8:	bf4d                	j	1077a <_malloc_r+0x2f4>
   107ca:	15400693          	li	a3,340
   107ce:	00c6e763          	bltu	a3,a2,107dc <_malloc_r+0x356>
   107d2:	00f75693          	srli	a3,a4,0xf
   107d6:	0776869b          	addiw	a3,a3,119
   107da:	b745                	j	1077a <_malloc_r+0x2f4>
   107dc:	55400513          	li	a0,1364
   107e0:	07e00693          	li	a3,126
   107e4:	f8c56be3          	bltu	a0,a2,1077a <_malloc_r+0x2f4>
   107e8:	01275693          	srli	a3,a4,0x12
   107ec:	07c6869b          	addiw	a3,a3,124
   107f0:	b769                	j	1077a <_malloc_r+0x2f4>
   107f2:	6a10                	ld	a2,16(a2)
   107f4:	00c50663          	beq	a0,a2,10800 <_malloc_r+0x37a>
   107f8:	6614                	ld	a3,8(a2)
   107fa:	9af1                	andi	a3,a3,-4
   107fc:	fed76be3          	bltu	a4,a3,107f2 <_malloc_r+0x36c>
   10800:	6e08                	ld	a0,24(a2)
   10802:	b745                	j	107a2 <_malloc_r+0x31c>
   10804:	6414                	ld	a3,8(s0)
   10806:	6c10                	ld	a2,24(s0)
   10808:	9af1                	andi	a3,a3,-4
   1080a:	409688b3          	sub	a7,a3,s1
   1080e:	031e5763          	ble	a7,t3,1083c <_malloc_r+0x3b6>
   10812:	0014e793          	ori	a5,s1,1
   10816:	e41c                	sd	a5,8(s0)
   10818:	681c                	ld	a5,16(s0)
   1081a:	00940733          	add	a4,s0,s1
   1081e:	96a2                	add	a3,a3,s0
   10820:	ef90                	sd	a2,24(a5)
   10822:	ea1c                	sd	a5,16(a2)
   10824:	02e93423          	sd	a4,40(s2)
   10828:	02e93023          	sd	a4,32(s2)
   1082c:	0018e793          	ori	a5,a7,1
   10830:	ef0c                	sd	a1,24(a4)
   10832:	eb0c                	sd	a1,16(a4)
   10834:	e71c                	sd	a5,8(a4)
   10836:	0116b023          	sd	a7,0(a3)
   1083a:	bba5                	j	105b2 <_malloc_r+0x12c>
   1083c:	0008cb63          	bltz	a7,10852 <_malloc_r+0x3cc>
   10840:	96a2                	add	a3,a3,s0
   10842:	669c                	ld	a5,8(a3)
   10844:	0017e793          	ori	a5,a5,1
   10848:	e69c                	sd	a5,8(a3)
   1084a:	681c                	ld	a5,16(s0)
   1084c:	ef90                	sd	a2,24(a5)
   1084e:	ea1c                	sd	a5,16(a2)
   10850:	b38d                	j	105b2 <_malloc_r+0x12c>
   10852:	8432                	mv	s0,a2
   10854:	bd91                	j	106a8 <_malloc_r+0x222>
   10856:	1741                	addi	a4,a4,-16
   10858:	6b14                	ld	a3,16(a4)
   1085a:	37fd                	addiw	a5,a5,-1
   1085c:	e4e68de3          	beq	a3,a4,106b6 <_malloc_r+0x230>
   10860:	b5b5                	j	106cc <_malloc_r+0x246>
   10862:	2791                	addiw	a5,a5,4
   10864:	0306                	slli	t1,t1,0x1
   10866:	006776b3          	and	a3,a4,t1
   1086a:	dee5                	beqz	a3,10862 <_malloc_r+0x3dc>
   1086c:	b51d                	j	10692 <_malloc_r+0x20c>
   1086e:	87aa                	mv	a5,a0
   10870:	bfdd                	j	10866 <_malloc_r+0x3e0>
   10872:	6705                	lui	a4,0x1
   10874:	077d                	addi	a4,a4,31
   10876:	943a                	add	s0,s0,a4
   10878:	77fd                	lui	a5,0xfffff
   1087a:	8c7d                	and	s0,s0,a5
   1087c:	bd41                	j	1070c <_malloc_r+0x286>
   1087e:	8101b683          	ld	a3,-2032(gp) # 11f68 <__malloc_sbrk_base>
   10882:	57fd                	li	a5,-1
   10884:	08f69c63          	bne	a3,a5,1091c <_malloc_r+0x496>
   10888:	8161b823          	sd	s6,-2032(gp) # 11f68 <__malloc_sbrk_base>
   1088c:	00fb7c93          	andi	s9,s6,15
   10890:	4781                	li	a5,0
   10892:	000c8663          	beqz	s9,1089e <_malloc_r+0x418>
   10896:	47c1                	li	a5,16
   10898:	419787b3          	sub	a5,a5,s9
   1089c:	9b3e                	add	s6,s6,a5
   1089e:	6505                	lui	a0,0x1
   108a0:	00a78a33          	add	s4,a5,a0
   108a4:	945a                	add	s0,s0,s6
   108a6:	157d                	addi	a0,a0,-1
   108a8:	00a477b3          	and	a5,s0,a0
   108ac:	40fa0a33          	sub	s4,s4,a5
   108b0:	00aa7a33          	and	s4,s4,a0
   108b4:	85d2                	mv	a1,s4
   108b6:	854e                	mv	a0,s3
   108b8:	0b4000ef          	jal	ra,1096c <_sbrk_r>
   108bc:	57fd                	li	a5,-1
   108be:	00f51963          	bne	a0,a5,108d0 <_malloc_r+0x44a>
   108c2:	8522                	mv	a0,s0
   108c4:	000c8563          	beqz	s9,108ce <_malloc_r+0x448>
   108c8:	ff0c8513          	addi	a0,s9,-16
   108cc:	9522                	add	a0,a0,s0
   108ce:	4a01                	li	s4,0
   108d0:	000c2783          	lw	a5,0(s8)
   108d4:	41650533          	sub	a0,a0,s6
   108d8:	01693823          	sd	s6,16(s2)
   108dc:	014787bb          	addw	a5,a5,s4
   108e0:	9a2a                	add	s4,s4,a0
   108e2:	001a6a13          	ori	s4,s4,1
   108e6:	00fc2023          	sw	a5,0(s8)
   108ea:	014b3423          	sd	s4,8(s6)
   108ee:	e52b8ee3          	beq	s7,s2,1074a <_malloc_r+0x2c4>
   108f2:	477d                	li	a4,31
   108f4:	03576a63          	bltu	a4,s5,10928 <_malloc_r+0x4a2>
   108f8:	4785                	li	a5,1
   108fa:	00fb3423          	sd	a5,8(s6)
   108fe:	01093783          	ld	a5,16(s2)
   10902:	679c                	ld	a5,8(a5)
   10904:	9bf1                	andi	a5,a5,-4
   10906:	40978733          	sub	a4,a5,s1
   1090a:	0097e563          	bltu	a5,s1,10914 <_malloc_r+0x48e>
   1090e:	47fd                	li	a5,31
   10910:	04e7c263          	blt	a5,a4,10954 <_malloc_r+0x4ce>
   10914:	854e                	mv	a0,s3
   10916:	054000ef          	jal	ra,1096a <__malloc_unlock>
   1091a:	b655                	j	104be <_malloc_r+0x38>
   1091c:	419b07b3          	sub	a5,s6,s9
   10920:	9fb9                	addw	a5,a5,a4
   10922:	00fc2023          	sw	a5,0(s8)
   10926:	b79d                	j	1088c <_malloc_r+0x406>
   10928:	008bb783          	ld	a5,8(s7)
   1092c:	fe8a8413          	addi	s0,s5,-24
   10930:	9841                	andi	s0,s0,-16
   10932:	8b85                	andi	a5,a5,1
   10934:	8fc1                	or	a5,a5,s0
   10936:	00fbb423          	sd	a5,8(s7)
   1093a:	46a5                	li	a3,9
   1093c:	008b87b3          	add	a5,s7,s0
   10940:	e794                	sd	a3,8(a5)
   10942:	eb94                	sd	a3,16(a5)
   10944:	e08773e3          	bleu	s0,a4,1074a <_malloc_r+0x2c4>
   10948:	010b8593          	addi	a1,s7,16
   1094c:	854e                	mv	a0,s3
   1094e:	987ff0ef          	jal	ra,102d4 <_free_r>
   10952:	bbe5                	j	1074a <_malloc_r+0x2c4>
   10954:	01093403          	ld	s0,16(s2)
   10958:	0014e793          	ori	a5,s1,1
   1095c:	e41c                	sd	a5,8(s0)
   1095e:	009407b3          	add	a5,s0,s1
   10962:	00f93823          	sd	a5,16(s2)
   10966:	b6d1                	j	1052a <_malloc_r+0xa4>

0000000000010968 <__malloc_lock>:
   10968:	8082                	ret

000000000001096a <__malloc_unlock>:
   1096a:	8082                	ret

000000000001096c <_sbrk_r>:
   1096c:	1101                	addi	sp,sp,-32
   1096e:	e822                	sd	s0,16(sp)
   10970:	e426                	sd	s1,8(sp)
   10972:	84aa                	mv	s1,a0
   10974:	852e                	mv	a0,a1
   10976:	ec06                	sd	ra,24(sp)
   10978:	8601a423          	sw	zero,-1944(gp) # 11fc0 <errno>
   1097c:	01c000ef          	jal	ra,10998 <_sbrk>
   10980:	57fd                	li	a5,-1
   10982:	00f51663          	bne	a0,a5,1098e <_sbrk_r+0x22>
   10986:	8681a783          	lw	a5,-1944(gp) # 11fc0 <errno>
   1098a:	c391                	beqz	a5,1098e <_sbrk_r+0x22>
   1098c:	c09c                	sw	a5,0(s1)
   1098e:	60e2                	ld	ra,24(sp)
   10990:	6442                	ld	s0,16(sp)
   10992:	64a2                	ld	s1,8(sp)
   10994:	6105                	addi	sp,sp,32
   10996:	8082                	ret

0000000000010998 <_sbrk>:
   10998:	1101                	addi	sp,sp,-32
   1099a:	e822                	sd	s0,16(sp)
   1099c:	8381b783          	ld	a5,-1992(gp) # 11f90 <heap_end.1888>
   109a0:	e04a                	sd	s2,0(sp)
   109a2:	ec06                	sd	ra,24(sp)
   109a4:	e426                	sd	s1,8(sp)
   109a6:	892a                	mv	s2,a0
   109a8:	eb9d                	bnez	a5,109de <_sbrk+0x46>
   109aa:	4501                	li	a0,0
   109ac:	4581                	li	a1,0
   109ae:	4601                	li	a2,0
   109b0:	4681                	li	a3,0
   109b2:	4701                	li	a4,0
   109b4:	0d600893          	li	a7,214
   109b8:	00000073          	ecall
   109bc:	84aa                	mv	s1,a0
   109be:	00055e63          	bgez	a0,109da <_sbrk+0x42>
   109c2:	08a000ef          	jal	ra,10a4c <__errno>
   109c6:	409004bb          	negw	s1,s1
   109ca:	c104                	sw	s1,0(a0)
   109cc:	557d                	li	a0,-1
   109ce:	60e2                	ld	ra,24(sp)
   109d0:	6442                	ld	s0,16(sp)
   109d2:	64a2                	ld	s1,8(sp)
   109d4:	6902                	ld	s2,0(sp)
   109d6:	6105                	addi	sp,sp,32
   109d8:	8082                	ret
   109da:	82a1bc23          	sd	a0,-1992(gp) # 11f90 <heap_end.1888>
   109de:	8381b503          	ld	a0,-1992(gp) # 11f90 <heap_end.1888>
   109e2:	4581                	li	a1,0
   109e4:	4601                	li	a2,0
   109e6:	954a                	add	a0,a0,s2
   109e8:	4681                	li	a3,0
   109ea:	4701                	li	a4,0
   109ec:	4781                	li	a5,0
   109ee:	0d600893          	li	a7,214
   109f2:	00000073          	ecall
   109f6:	84aa                	mv	s1,a0
   109f8:	00055863          	bgez	a0,10a08 <_sbrk+0x70>
   109fc:	409004bb          	negw	s1,s1
   10a00:	04c000ef          	jal	ra,10a4c <__errno>
   10a04:	c104                	sw	s1,0(a0)
   10a06:	54fd                	li	s1,-1
   10a08:	8381b783          	ld	a5,-1992(gp) # 11f90 <heap_end.1888>
   10a0c:	557d                	li	a0,-1
   10a0e:	993e                	add	s2,s2,a5
   10a10:	fb249fe3          	bne	s1,s2,109ce <_sbrk+0x36>
   10a14:	8291bc23          	sd	s1,-1992(gp) # 11f90 <heap_end.1888>
   10a18:	853e                	mv	a0,a5
   10a1a:	bf55                	j	109ce <_sbrk+0x36>

0000000000010a1c <_write>:
   10a1c:	1141                	addi	sp,sp,-16
   10a1e:	e406                	sd	ra,8(sp)
   10a20:	e022                	sd	s0,0(sp)
   10a22:	4681                	li	a3,0
   10a24:	4701                	li	a4,0
   10a26:	4781                	li	a5,0
   10a28:	04000893          	li	a7,64
   10a2c:	00000073          	ecall
   10a30:	842a                	mv	s0,a0
   10a32:	00055863          	bgez	a0,10a42 <_write+0x26>
   10a36:	4080043b          	negw	s0,s0
   10a3a:	012000ef          	jal	ra,10a4c <__errno>
   10a3e:	c100                	sw	s0,0(a0)
   10a40:	547d                	li	s0,-1
   10a42:	8522                	mv	a0,s0
   10a44:	60a2                	ld	ra,8(sp)
   10a46:	6402                	ld	s0,0(sp)
   10a48:	0141                	addi	sp,sp,16
   10a4a:	8082                	ret

0000000000010a4c <__errno>:
   10a4c:	67c9                	lui	a5,0x12
   10a4e:	f607b503          	ld	a0,-160(a5) # 11f60 <_impure_ptr>
   10a52:	8082                	ret
