
/Users/benselfridge/RISCV/riscv-compliance/work//I-AUIPC-01.elf:     file format elf32-littleriscv


Disassembly of section .text.init:

00010000 <_start>:
   10000:	04c0006f          	j	1004c <reset_vector>

00010004 <trap_vector>:
   10004:	34202f73          	csrr	t5,mcause
   10008:	00800f93          	li	t6,8
   1000c:	03ff0a63          	beq	t5,t6,10040 <write_tohost>
   10010:	00900f93          	li	t6,9
   10014:	03ff0663          	beq	t5,t6,10040 <write_tohost>
   10018:	00b00f93          	li	t6,11
   1001c:	03ff0263          	beq	t5,t6,10040 <write_tohost>
   10020:	ffff0f17          	auipc	t5,0xffff0
   10024:	fe0f0f13          	addi	t5,t5,-32 # 0 <_start-0x10000>
   10028:	000f0463          	beqz	t5,10030 <trap_vector+0x2c>
   1002c:	000f0067          	jr	t5
   10030:	34202f73          	csrr	t5,mcause
   10034:	000f5463          	bgez	t5,1003c <handle_exception>
   10038:	0040006f          	j	1003c <handle_exception>

0001003c <handle_exception>:
   1003c:	5391e193          	ori	gp,gp,1337

00010040 <write_tohost>:
   10040:	00001f17          	auipc	t5,0x1
   10044:	fc3f2023          	sw	gp,-64(t5) # 11000 <tohost>
   10048:	ff9ff06f          	j	10040 <write_tohost>

0001004c <reset_vector>:
   1004c:	f1402573          	csrr	a0,mhartid
   10050:	00051063          	bnez	a0,10050 <reset_vector+0x4>
   10054:	00000297          	auipc	t0,0x0
   10058:	01028293          	addi	t0,t0,16 # 10064 <reset_vector+0x18>
   1005c:	30529073          	csrw	mtvec,t0
   10060:	18005073          	csrwi	satp,0
   10064:	00000297          	auipc	t0,0x0
   10068:	01c28293          	addi	t0,t0,28 # 10080 <reset_vector+0x34>
   1006c:	30529073          	csrw	mtvec,t0
   10070:	fff00293          	li	t0,-1
   10074:	3b029073          	csrw	pmpaddr0,t0
   10078:	01f00293          	li	t0,31
   1007c:	3a029073          	csrw	pmpcfg0,t0
   10080:	00000297          	auipc	t0,0x0
   10084:	01828293          	addi	t0,t0,24 # 10098 <reset_vector+0x4c>
   10088:	30529073          	csrw	mtvec,t0
   1008c:	30205073          	csrwi	medeleg,0
   10090:	30305073          	csrwi	mideleg,0
   10094:	30405073          	csrwi	mie,0
   10098:	00000193          	li	gp,0
   1009c:	00000297          	auipc	t0,0x0
   100a0:	f6828293          	addi	t0,t0,-152 # 10004 <trap_vector>
   100a4:	30529073          	csrw	mtvec,t0
   100a8:	00100513          	li	a0,1
   100ac:	01f51513          	slli	a0,a0,0x1f
   100b0:	00054863          	bltz	a0,100c0 <reset_vector+0x74>
   100b4:	00000013          	nop
   100b8:	00100193          	li	gp,1
   100bc:	00000073          	ecall
   100c0:	ffff0297          	auipc	t0,0xffff0
   100c4:	f4028293          	addi	t0,t0,-192 # 0 <_start-0x10000>
   100c8:	00028e63          	beqz	t0,100e4 <reset_vector+0x98>
   100cc:	10529073          	csrw	stvec,t0
   100d0:	0000b2b7          	lui	t0,0xb
   100d4:	10928293          	addi	t0,t0,265 # b109 <_start-0x4ef7>
   100d8:	30229073          	csrw	medeleg,t0
   100dc:	30202373          	csrr	t1,medeleg
   100e0:	f4629ee3          	bne	t0,t1,1003c <handle_exception>
   100e4:	30005073          	csrwi	mstatus,0
   100e8:	00002537          	lui	a0,0x2
   100ec:	80050513          	addi	a0,a0,-2048 # 1800 <_start-0xe800>
   100f0:	30052073          	csrs	mstatus,a0
   100f4:	00000297          	auipc	t0,0x0
   100f8:	01428293          	addi	t0,t0,20 # 10108 <reset_vector+0xbc>
   100fc:	34129073          	csrw	mepc,t0
   10100:	f1402573          	csrr	a0,mhartid
   10104:	30200073          	mret
   10108:	00002717          	auipc	a4,0x2
   1010c:	ef870713          	addi	a4,a4,-264 # 12000 <test_A_data>
   10110:	00002797          	auipc	a5,0x2
   10114:	f1078793          	addi	a5,a5,-240 # 12020 <begin_signature>
   10118:	00072083          	lw	ra,0(a4)
   1011c:	00001137          	lui	sp,0x1
   10120:	00410113          	addi	sp,sp,4 # 1004 <_start-0xeffc>
   10124:	fffff1b7          	lui	gp,0xfffff
   10128:	00818193          	addi	gp,gp,8 # fffff008 <_end+0xfffecfa8>
   1012c:	7ffff237          	lui	tp,0x7ffff
   10130:	00c20213          	addi	tp,tp,12 # 7ffff00c <_end+0x7ffecfac>
   10134:	800002b7          	lui	t0,0x80000
   10138:	01028293          	addi	t0,t0,16 # 80000010 <_end+0x7ffedfb0>
   1013c:	00208133          	add	sp,ra,sp
   10140:	003081b3          	add	gp,ra,gp
   10144:	00408233          	add	tp,ra,tp
   10148:	005082b3          	add	t0,ra,t0

0001014c <test_A>:
   1014c:	00000317          	auipc	t1,0x0
   10150:	00001397          	auipc	t2,0x1
   10154:	fffff817          	auipc	a6,0xfffff
   10158:	7ffffe97          	auipc	t4,0x7ffff
   1015c:	80000f97          	auipc	t6,0x80000
   10160:	00134333          	xor	t1,t1,ra
   10164:	0023c3b3          	xor	t2,t2,sp
   10168:	00384833          	xor	a6,a6,gp
   1016c:	004eceb3          	xor	t4,t4,tp
   10170:	005fcfb3          	xor	t6,t6,t0
   10174:	0067a023          	sw	t1,0(a5)
   10178:	0077a223          	sw	t2,4(a5)
   1017c:	0107a423          	sw	a6,8(a5)
   10180:	01d7a623          	sw	t4,12(a5)
   10184:	01f7a823          	sw	t6,16(a5)
   10188:	00002897          	auipc	a7,0x2
   1018c:	e7c88893          	addi	a7,a7,-388 # 12004 <test_B_data>
   10190:	00002817          	auipc	a6,0x2
   10194:	ea480813          	addi	a6,a6,-348 # 12034 <test_B_res>
   10198:	111110b7          	lui	ra,0x11111
   1019c:	11108093          	addi	ra,ra,273 # 11111111 <_end+0x110ff0b1>
   101a0:	22222137          	lui	sp,0x22222
   101a4:	22210113          	addi	sp,sp,546 # 22222222 <_end+0x222101c2>
   101a8:	333337b7          	lui	a5,0x33333
   101ac:	33378793          	addi	a5,a5,819 # 33333333 <_end+0x333212d3>
   101b0:	44444e37          	lui	t3,0x44444
   101b4:	444e0e13          	addi	t3,t3,1092 # 44444444 <_end+0x444323e4>
   101b8:	55555f37          	lui	t5,0x55555
   101bc:	555f0f13          	addi	t5,t5,1365 # 55555555 <_end+0x555434f5>
   101c0:	0008a183          	lw	gp,0(a7)
   101c4:	80000237          	lui	tp,0x80000
   101c8:	7ffff2b7          	lui	t0,0x7ffff
   101cc:	00428293          	addi	t0,t0,4 # 7ffff004 <_end+0x7ffecfa4>
   101d0:	00800313          	li	t1,8
   101d4:	000013b7          	lui	t2,0x1
   101d8:	00c38393          	addi	t2,t2,12 # 100c <_start-0xeff4>
   101dc:	fffff437          	lui	s0,0xfffff
   101e0:	01040413          	addi	s0,s0,16 # fffff010 <_end+0xfffecfb0>
   101e4:	00418233          	add	tp,gp,tp
   101e8:	005182b3          	add	t0,gp,t0
   101ec:	00618333          	add	t1,gp,t1
   101f0:	007183b3          	add	t2,gp,t2
   101f4:	00818433          	add	s0,gp,s0

000101f8 <test_B>:
   101f8:	80000097          	auipc	ra,0x80000
   101fc:	7ffff117          	auipc	sp,0x7ffff
   10200:	00000797          	auipc	a5,0x0
   10204:	00001e17          	auipc	t3,0x1
   10208:	ffffff17          	auipc	t5,0xfffff
   1020c:	0040c0b3          	xor	ra,ra,tp
   10210:	00514133          	xor	sp,sp,t0
   10214:	0067c7b3          	xor	a5,a5,t1
   10218:	007e4e33          	xor	t3,t3,t2
   1021c:	008f4f33          	xor	t5,t5,s0
   10220:	00182023          	sw	ra,0(a6)
   10224:	00282223          	sw	sp,4(a6)
   10228:	00f82423          	sw	a5,8(a6)
   1022c:	01c82623          	sw	t3,12(a6)
   10230:	01e82823          	sw	t5,16(a6)
   10234:	00002917          	auipc	s2,0x2
   10238:	dd490913          	addi	s2,s2,-556 # 12008 <test_C_data>
   1023c:	00002897          	auipc	a7,0x2
   10240:	e0c88893          	addi	a7,a7,-500 # 12048 <test_C_res>

00010244 <test_C1>:
   10244:	00092083          	lw	ra,0(s2)
   10248:	00492103          	lw	sp,4(s2)
   1024c:	00892183          	lw	gp,8(s2)
   10250:	00000217          	auipc	tp,0x0
   10254:	ff420213          	addi	tp,tp,-12 # 10244 <test_C1>
   10258:	00000797          	auipc	a5,0x0
   1025c:	01878793          	addi	a5,a5,24 # 10270 <test_C2>
   10260:	00000f17          	auipc	t5,0x0
   10264:	040f0f13          	addi	t5,t5,64 # 102a0 <test_C3>
   10268:	00000297          	auipc	t0,0x0
   1026c:	fdc28293          	addi	t0,t0,-36 # 10244 <test_C1>

00010270 <test_C2>:
   10270:	00000817          	auipc	a6,0x0
   10274:	00080813          	mv	a6,a6
   10278:	00000f97          	auipc	t6,0x0
   1027c:	028f8f93          	addi	t6,t6,40 # 102a0 <test_C3>
   10280:	00124233          	xor	tp,tp,ra
   10284:	0027c7b3          	xor	a5,a5,sp
   10288:	003f4f33          	xor	t5,t5,gp
   1028c:	401282b3          	sub	t0,t0,ra
   10290:	00284833          	xor	a6,a6,sp
   10294:	003fcfb3          	xor	t6,t6,gp
   10298:	0048a023          	sw	tp,0(a7)
   1029c:	00f8a223          	sw	a5,4(a7)

000102a0 <test_C3>:
   102a0:	01e8a423          	sw	t5,8(a7)
   102a4:	0058a623          	sw	t0,12(a7)
   102a8:	0108a823          	sw	a6,16(a7)
   102ac:	01f8aa23          	sw	t6,20(a7)
   102b0:	00000013          	nop
   102b4:	00100193          	li	gp,1
   102b8:	00000073          	ecall
   102bc:	c0001073          	unimp
   102c0:	0000                	unimp
	...

Disassembly of section .tohost:

00011000 <tohost>:
	...

00011100 <fromhost>:
	...
