
/home/benselfridge/riscv-compliance/work//I-BLT-01.elf:     file format elf32-littleriscv


Disassembly of section .text.init:

00010000 <_start>:
   10000:	04c0006f          	j	1004c <reset_vector>

00010004 <trap_vector>:
   10004:	34202f73          	csrr	t5,mcause
   10008:	00800f93          	li	t6,8
   1000c:	03ff0a63          	beq	t5,t6,10040 <write_tohost>
   10010:	00900f93          	li	t6,9
   10014:	03ff0663          	beq	t5,t6,10040 <write_tohost>
   10018:	00b00f93          	li	t6,11
   1001c:	03ff0263          	beq	t5,t6,10040 <write_tohost>
   10020:	ffff0f17          	auipc	t5,0xffff0
   10024:	fe0f0f13          	addi	t5,t5,-32 # 0 <_start-0x10000>
   10028:	000f0463          	beqz	t5,10030 <trap_vector+0x2c>
   1002c:	000f0067          	jr	t5
   10030:	34202f73          	csrr	t5,mcause
   10034:	000f5463          	bgez	t5,1003c <handle_exception>
   10038:	0040006f          	j	1003c <handle_exception>

0001003c <handle_exception>:
   1003c:	5391e193          	ori	gp,gp,1337

00010040 <write_tohost>:
   10040:	00002f17          	auipc	t5,0x2
   10044:	fc3f2023          	sw	gp,-64(t5) # 12000 <tohost>
   10048:	ff9ff06f          	j	10040 <write_tohost>

0001004c <reset_vector>:
   1004c:	f1402573          	csrr	a0,mhartid
   10050:	00051063          	bnez	a0,10050 <reset_vector+0x4>
   10054:	00000297          	auipc	t0,0x0
   10058:	01028293          	addi	t0,t0,16 # 10064 <reset_vector+0x18>
   1005c:	30529073          	csrw	mtvec,t0
   10060:	18005073          	csrwi	satp,0
   10064:	00000297          	auipc	t0,0x0
   10068:	01c28293          	addi	t0,t0,28 # 10080 <reset_vector+0x34>
   1006c:	30529073          	csrw	mtvec,t0
   10070:	fff00293          	li	t0,-1
   10074:	3b029073          	csrw	pmpaddr0,t0
   10078:	01f00293          	li	t0,31
   1007c:	3a029073          	csrw	pmpcfg0,t0
   10080:	00000297          	auipc	t0,0x0
   10084:	01828293          	addi	t0,t0,24 # 10098 <reset_vector+0x4c>
   10088:	30529073          	csrw	mtvec,t0
   1008c:	30205073          	csrwi	medeleg,0
   10090:	30305073          	csrwi	mideleg,0
   10094:	30405073          	csrwi	mie,0
   10098:	00000193          	li	gp,0
   1009c:	00000297          	auipc	t0,0x0
   100a0:	f6828293          	addi	t0,t0,-152 # 10004 <trap_vector>
   100a4:	30529073          	csrw	mtvec,t0
   100a8:	00100513          	li	a0,1
   100ac:	01f51513          	slli	a0,a0,0x1f
   100b0:	00054863          	bltz	a0,100c0 <reset_vector+0x74>
   100b4:	0000100f          	fence.i
   100b8:	00100193          	li	gp,1
   100bc:	00000073          	ecall
   100c0:	ffff0297          	auipc	t0,0xffff0
   100c4:	f4028293          	addi	t0,t0,-192 # 0 <_start-0x10000>
   100c8:	00028e63          	beqz	t0,100e4 <reset_vector+0x98>
   100cc:	10529073          	csrw	stvec,t0
   100d0:	0000b2b7          	lui	t0,0xb
   100d4:	10928293          	addi	t0,t0,265 # b109 <_start-0x4ef7>
   100d8:	30229073          	csrw	medeleg,t0
   100dc:	30202373          	csrr	t1,medeleg
   100e0:	f4629ee3          	bne	t0,t1,1003c <handle_exception>
   100e4:	30005073          	csrwi	mstatus,0
   100e8:	00002537          	lui	a0,0x2
   100ec:	80050513          	addi	a0,a0,-2048 # 1800 <_start-0xe800>
   100f0:	30052073          	csrs	mstatus,a0
   100f4:	00000297          	auipc	t0,0x0
   100f8:	01428293          	addi	t0,t0,20 # 10108 <reset_vector+0xbc>
   100fc:	34129073          	csrw	mepc,t0
   10100:	f1402573          	csrr	a0,mhartid
   10104:	30200073          	mret
   10108:	00000293          	li	t0,0
   1010c:	08500e63          	beq	zero,t0,101a8 <reset_vector+0x15c>
   10110:	00004517          	auipc	a0,0x4
   10114:	fb050513          	addi	a0,a0,-80 # 140c0 <end_signature>
   10118:	6e9020ef          	jal	ra,13000 <FN_WriteStr>
   1011c:	00004517          	auipc	a0,0x4
   10120:	fbf50513          	addi	a0,a0,-65 # 140db <end_signature+0x1b>
   10124:	6dd020ef          	jal	ra,13000 <FN_WriteStr>
   10128:	00004517          	auipc	a0,0x4
   1012c:	fc250513          	addi	a0,a0,-62 # 140ea <end_signature+0x2a>
   10130:	6d1020ef          	jal	ra,13000 <FN_WriteStr>
   10134:	00004517          	auipc	a0,0x4
   10138:	fbe50513          	addi	a0,a0,-66 # 140f2 <end_signature+0x32>
   1013c:	6c5020ef          	jal	ra,13000 <FN_WriteStr>
   10140:	00004517          	auipc	a0,0x4
   10144:	fb550513          	addi	a0,a0,-75 # 140f5 <end_signature+0x35>
   10148:	6b9020ef          	jal	ra,13000 <FN_WriteStr>
   1014c:	00004517          	auipc	a0,0x4
   10150:	fac50513          	addi	a0,a0,-84 # 140f8 <end_signature+0x38>
   10154:	6ad020ef          	jal	ra,13000 <FN_WriteStr>
   10158:	00004517          	auipc	a0,0x4
   1015c:	fa350513          	addi	a0,a0,-93 # 140fb <end_signature+0x3b>
   10160:	6a1020ef          	jal	ra,13000 <FN_WriteStr>
   10164:	00000513          	li	a0,0
   10168:	6b5020ef          	jal	ra,1301c <FN_WriteA0>
   1016c:	00004517          	auipc	a0,0x4
   10170:	f9150513          	addi	a0,a0,-111 # 140fd <end_signature+0x3d>
   10174:	68d020ef          	jal	ra,13000 <FN_WriteStr>
   10178:	00004517          	auipc	a0,0x4
   1017c:	f8b50513          	addi	a0,a0,-117 # 14103 <end_signature+0x43>
   10180:	681020ef          	jal	ra,13000 <FN_WriteStr>
   10184:	00004517          	auipc	a0,0x4
   10188:	f8a50513          	addi	a0,a0,-118 # 1410e <end_signature+0x4e>
   1018c:	675020ef          	jal	ra,13000 <FN_WriteStr>
   10190:	06400193          	li	gp,100
   10194:	0000100f          	fence.i
   10198:	00018063          	beqz	gp,10198 <reset_vector+0x14c>
   1019c:	00119193          	slli	gp,gp,0x1
   101a0:	0011e193          	ori	gp,gp,1
   101a4:	00000073          	ecall
   101a8:	00004517          	auipc	a0,0x4
   101ac:	f6850513          	addi	a0,a0,-152 # 14110 <end_signature+0x50>
   101b0:	651020ef          	jal	ra,13000 <FN_WriteStr>
   101b4:	00004517          	auipc	a0,0x4
   101b8:	f8e50513          	addi	a0,a0,-114 # 14142 <end_signature+0x82>
   101bc:	645020ef          	jal	ra,13000 <FN_WriteStr>
   101c0:	00004097          	auipc	ra,0x4
   101c4:	e4008093          	addi	ra,ra,-448 # 14000 <test_A1_data>
   101c8:	00004117          	auipc	sp,0x4
   101cc:	e5810113          	addi	sp,sp,-424 # 14020 <begin_signature>
   101d0:	0000a183          	lw	gp,0(ra)
   101d4:	00000213          	li	tp,0
   101d8:	00100293          	li	t0,1
   101dc:	fff00313          	li	t1,-1
   101e0:	800003b7          	lui	t2,0x80000
   101e4:	fff38393          	addi	t2,t2,-1 # 7fffffff <_end+0x7ffeaf87>
   101e8:	80000437          	lui	s0,0x80000
   101ec:	00000f93          	li	t6,0
   101f0:	0041c463          	blt	gp,tp,101f8 <reset_vector+0x1ac>
   101f4:	001fef93          	ori	t6,t6,1
   101f8:	0051c463          	blt	gp,t0,10200 <reset_vector+0x1b4>
   101fc:	002fef93          	ori	t6,t6,2
   10200:	0061c463          	blt	gp,t1,10208 <reset_vector+0x1bc>
   10204:	004fef93          	ori	t6,t6,4
   10208:	0071c463          	blt	gp,t2,10210 <reset_vector+0x1c4>
   1020c:	008fef93          	ori	t6,t6,8
   10210:	0081c463          	blt	gp,s0,10218 <reset_vector+0x1cc>
   10214:	010fef93          	ori	t6,t6,16
   10218:	00312023          	sw	gp,0(sp)
   1021c:	00412223          	sw	tp,4(sp)
   10220:	00512423          	sw	t0,8(sp)
   10224:	00612623          	sw	t1,12(sp)
   10228:	00712823          	sw	t2,16(sp)
   1022c:	00812a23          	sw	s0,20(sp)
   10230:	01f12c23          	sw	t6,24(sp)
   10234:	fff00013          	li	zero,-1
   10238:	00000293          	li	t0,0
   1023c:	08518e63          	beq	gp,t0,102d8 <reset_vector+0x28c>
   10240:	00004517          	auipc	a0,0x4
   10244:	f5450513          	addi	a0,a0,-172 # 14194 <end_signature+0xd4>
   10248:	5b9020ef          	jal	ra,13000 <FN_WriteStr>
   1024c:	00004517          	auipc	a0,0x4
   10250:	f6350513          	addi	a0,a0,-157 # 141af <end_signature+0xef>
   10254:	5ad020ef          	jal	ra,13000 <FN_WriteStr>
   10258:	00004517          	auipc	a0,0x4
   1025c:	f6650513          	addi	a0,a0,-154 # 141be <end_signature+0xfe>
   10260:	5a1020ef          	jal	ra,13000 <FN_WriteStr>
   10264:	00004517          	auipc	a0,0x4
   10268:	f6250513          	addi	a0,a0,-158 # 141c6 <end_signature+0x106>
   1026c:	595020ef          	jal	ra,13000 <FN_WriteStr>
   10270:	00004517          	auipc	a0,0x4
   10274:	f5950513          	addi	a0,a0,-167 # 141c9 <end_signature+0x109>
   10278:	589020ef          	jal	ra,13000 <FN_WriteStr>
   1027c:	00004517          	auipc	a0,0x4
   10280:	f5050513          	addi	a0,a0,-176 # 141cc <end_signature+0x10c>
   10284:	57d020ef          	jal	ra,13000 <FN_WriteStr>
   10288:	00004517          	auipc	a0,0x4
   1028c:	f4750513          	addi	a0,a0,-185 # 141cf <end_signature+0x10f>
   10290:	571020ef          	jal	ra,13000 <FN_WriteStr>
   10294:	00018513          	mv	a0,gp
   10298:	585020ef          	jal	ra,1301c <FN_WriteA0>
   1029c:	00004517          	auipc	a0,0x4
   102a0:	f3550513          	addi	a0,a0,-203 # 141d1 <end_signature+0x111>
   102a4:	55d020ef          	jal	ra,13000 <FN_WriteStr>
   102a8:	00004517          	auipc	a0,0x4
   102ac:	f2f50513          	addi	a0,a0,-209 # 141d7 <end_signature+0x117>
   102b0:	551020ef          	jal	ra,13000 <FN_WriteStr>
   102b4:	00004517          	auipc	a0,0x4
   102b8:	f2e50513          	addi	a0,a0,-210 # 141e2 <end_signature+0x122>
   102bc:	545020ef          	jal	ra,13000 <FN_WriteStr>
   102c0:	06400193          	li	gp,100
   102c4:	0000100f          	fence.i
   102c8:	00018063          	beqz	gp,102c8 <reset_vector+0x27c>
   102cc:	00119193          	slli	gp,gp,0x1
   102d0:	0011e193          	ori	gp,gp,1
   102d4:	00000073          	ecall
   102d8:	00000293          	li	t0,0
   102dc:	08520e63          	beq	tp,t0,10378 <reset_vector+0x32c>
   102e0:	00004517          	auipc	a0,0x4
   102e4:	f0450513          	addi	a0,a0,-252 # 141e4 <end_signature+0x124>
   102e8:	519020ef          	jal	ra,13000 <FN_WriteStr>
   102ec:	00004517          	auipc	a0,0x4
   102f0:	f1350513          	addi	a0,a0,-237 # 141ff <end_signature+0x13f>
   102f4:	50d020ef          	jal	ra,13000 <FN_WriteStr>
   102f8:	00004517          	auipc	a0,0x4
   102fc:	f1650513          	addi	a0,a0,-234 # 1420e <end_signature+0x14e>
   10300:	501020ef          	jal	ra,13000 <FN_WriteStr>
   10304:	00004517          	auipc	a0,0x4
   10308:	f1250513          	addi	a0,a0,-238 # 14216 <end_signature+0x156>
   1030c:	4f5020ef          	jal	ra,13000 <FN_WriteStr>
   10310:	00004517          	auipc	a0,0x4
   10314:	f0950513          	addi	a0,a0,-247 # 14219 <end_signature+0x159>
   10318:	4e9020ef          	jal	ra,13000 <FN_WriteStr>
   1031c:	00004517          	auipc	a0,0x4
   10320:	f0050513          	addi	a0,a0,-256 # 1421c <end_signature+0x15c>
   10324:	4dd020ef          	jal	ra,13000 <FN_WriteStr>
   10328:	00004517          	auipc	a0,0x4
   1032c:	ef750513          	addi	a0,a0,-265 # 1421f <end_signature+0x15f>
   10330:	4d1020ef          	jal	ra,13000 <FN_WriteStr>
   10334:	00020513          	mv	a0,tp
   10338:	4e5020ef          	jal	ra,1301c <FN_WriteA0>
   1033c:	00004517          	auipc	a0,0x4
   10340:	ee550513          	addi	a0,a0,-283 # 14221 <end_signature+0x161>
   10344:	4bd020ef          	jal	ra,13000 <FN_WriteStr>
   10348:	00004517          	auipc	a0,0x4
   1034c:	edf50513          	addi	a0,a0,-289 # 14227 <end_signature+0x167>
   10350:	4b1020ef          	jal	ra,13000 <FN_WriteStr>
   10354:	00004517          	auipc	a0,0x4
   10358:	ede50513          	addi	a0,a0,-290 # 14232 <end_signature+0x172>
   1035c:	4a5020ef          	jal	ra,13000 <FN_WriteStr>
   10360:	06400193          	li	gp,100
   10364:	0000100f          	fence.i
   10368:	00018063          	beqz	gp,10368 <reset_vector+0x31c>
   1036c:	00119193          	slli	gp,gp,0x1
   10370:	0011e193          	ori	gp,gp,1
   10374:	00000073          	ecall
   10378:	00000293          	li	t0,0
   1037c:	08528e63          	beq	t0,t0,10418 <reset_vector+0x3cc>
   10380:	00004517          	auipc	a0,0x4
   10384:	eb450513          	addi	a0,a0,-332 # 14234 <end_signature+0x174>
   10388:	479020ef          	jal	ra,13000 <FN_WriteStr>
   1038c:	00004517          	auipc	a0,0x4
   10390:	ec350513          	addi	a0,a0,-317 # 1424f <end_signature+0x18f>
   10394:	46d020ef          	jal	ra,13000 <FN_WriteStr>
   10398:	00004517          	auipc	a0,0x4
   1039c:	ec650513          	addi	a0,a0,-314 # 1425e <end_signature+0x19e>
   103a0:	461020ef          	jal	ra,13000 <FN_WriteStr>
   103a4:	00004517          	auipc	a0,0x4
   103a8:	ec250513          	addi	a0,a0,-318 # 14266 <end_signature+0x1a6>
   103ac:	455020ef          	jal	ra,13000 <FN_WriteStr>
   103b0:	00004517          	auipc	a0,0x4
   103b4:	eb950513          	addi	a0,a0,-327 # 14269 <end_signature+0x1a9>
   103b8:	449020ef          	jal	ra,13000 <FN_WriteStr>
   103bc:	00004517          	auipc	a0,0x4
   103c0:	eb050513          	addi	a0,a0,-336 # 1426c <end_signature+0x1ac>
   103c4:	43d020ef          	jal	ra,13000 <FN_WriteStr>
   103c8:	00004517          	auipc	a0,0x4
   103cc:	ea750513          	addi	a0,a0,-345 # 1426f <end_signature+0x1af>
   103d0:	431020ef          	jal	ra,13000 <FN_WriteStr>
   103d4:	00028513          	mv	a0,t0
   103d8:	445020ef          	jal	ra,1301c <FN_WriteA0>
   103dc:	00004517          	auipc	a0,0x4
   103e0:	e9550513          	addi	a0,a0,-363 # 14271 <end_signature+0x1b1>
   103e4:	41d020ef          	jal	ra,13000 <FN_WriteStr>
   103e8:	00004517          	auipc	a0,0x4
   103ec:	e8f50513          	addi	a0,a0,-369 # 14277 <end_signature+0x1b7>
   103f0:	411020ef          	jal	ra,13000 <FN_WriteStr>
   103f4:	00004517          	auipc	a0,0x4
   103f8:	e8e50513          	addi	a0,a0,-370 # 14282 <end_signature+0x1c2>
   103fc:	405020ef          	jal	ra,13000 <FN_WriteStr>
   10400:	06400193          	li	gp,100
   10404:	0000100f          	fence.i
   10408:	00018063          	beqz	gp,10408 <reset_vector+0x3bc>
   1040c:	00119193          	slli	gp,gp,0x1
   10410:	0011e193          	ori	gp,gp,1
   10414:	00000073          	ecall
   10418:	fff00293          	li	t0,-1
   1041c:	08530e63          	beq	t1,t0,104b8 <reset_vector+0x46c>
   10420:	00004517          	auipc	a0,0x4
   10424:	e6450513          	addi	a0,a0,-412 # 14284 <end_signature+0x1c4>
   10428:	3d9020ef          	jal	ra,13000 <FN_WriteStr>
   1042c:	00004517          	auipc	a0,0x4
   10430:	e7350513          	addi	a0,a0,-397 # 1429f <end_signature+0x1df>
   10434:	3cd020ef          	jal	ra,13000 <FN_WriteStr>
   10438:	00004517          	auipc	a0,0x4
   1043c:	e7650513          	addi	a0,a0,-394 # 142ae <end_signature+0x1ee>
   10440:	3c1020ef          	jal	ra,13000 <FN_WriteStr>
   10444:	00004517          	auipc	a0,0x4
   10448:	e7250513          	addi	a0,a0,-398 # 142b6 <end_signature+0x1f6>
   1044c:	3b5020ef          	jal	ra,13000 <FN_WriteStr>
   10450:	00004517          	auipc	a0,0x4
   10454:	e6950513          	addi	a0,a0,-407 # 142b9 <end_signature+0x1f9>
   10458:	3a9020ef          	jal	ra,13000 <FN_WriteStr>
   1045c:	00004517          	auipc	a0,0x4
   10460:	e6050513          	addi	a0,a0,-416 # 142bc <end_signature+0x1fc>
   10464:	39d020ef          	jal	ra,13000 <FN_WriteStr>
   10468:	00004517          	auipc	a0,0x4
   1046c:	e5750513          	addi	a0,a0,-425 # 142bf <end_signature+0x1ff>
   10470:	391020ef          	jal	ra,13000 <FN_WriteStr>
   10474:	00030513          	mv	a0,t1
   10478:	3a5020ef          	jal	ra,1301c <FN_WriteA0>
   1047c:	00004517          	auipc	a0,0x4
   10480:	e4550513          	addi	a0,a0,-443 # 142c1 <end_signature+0x201>
   10484:	37d020ef          	jal	ra,13000 <FN_WriteStr>
   10488:	00004517          	auipc	a0,0x4
   1048c:	e3f50513          	addi	a0,a0,-449 # 142c7 <end_signature+0x207>
   10490:	371020ef          	jal	ra,13000 <FN_WriteStr>
   10494:	00004517          	auipc	a0,0x4
   10498:	e3e50513          	addi	a0,a0,-450 # 142d2 <end_signature+0x212>
   1049c:	365020ef          	jal	ra,13000 <FN_WriteStr>
   104a0:	06400193          	li	gp,100
   104a4:	0000100f          	fence.i
   104a8:	00018063          	beqz	gp,104a8 <reset_vector+0x45c>
   104ac:	00119193          	slli	gp,gp,0x1
   104b0:	0011e193          	ori	gp,gp,1
   104b4:	00000073          	ecall
   104b8:	800002b7          	lui	t0,0x80000
   104bc:	fff28293          	addi	t0,t0,-1 # 7fffffff <_end+0x7ffeaf87>
   104c0:	08538e63          	beq	t2,t0,1055c <reset_vector+0x510>
   104c4:	00004517          	auipc	a0,0x4
   104c8:	e1050513          	addi	a0,a0,-496 # 142d4 <end_signature+0x214>
   104cc:	335020ef          	jal	ra,13000 <FN_WriteStr>
   104d0:	00004517          	auipc	a0,0x4
   104d4:	e1f50513          	addi	a0,a0,-481 # 142ef <end_signature+0x22f>
   104d8:	329020ef          	jal	ra,13000 <FN_WriteStr>
   104dc:	00004517          	auipc	a0,0x4
   104e0:	e2250513          	addi	a0,a0,-478 # 142fe <end_signature+0x23e>
   104e4:	31d020ef          	jal	ra,13000 <FN_WriteStr>
   104e8:	00004517          	auipc	a0,0x4
   104ec:	e1e50513          	addi	a0,a0,-482 # 14306 <end_signature+0x246>
   104f0:	311020ef          	jal	ra,13000 <FN_WriteStr>
   104f4:	00004517          	auipc	a0,0x4
   104f8:	e1550513          	addi	a0,a0,-491 # 14309 <end_signature+0x249>
   104fc:	305020ef          	jal	ra,13000 <FN_WriteStr>
   10500:	00004517          	auipc	a0,0x4
   10504:	e0c50513          	addi	a0,a0,-500 # 1430c <end_signature+0x24c>
   10508:	2f9020ef          	jal	ra,13000 <FN_WriteStr>
   1050c:	00004517          	auipc	a0,0x4
   10510:	e0350513          	addi	a0,a0,-509 # 1430f <end_signature+0x24f>
   10514:	2ed020ef          	jal	ra,13000 <FN_WriteStr>
   10518:	00038513          	mv	a0,t2
   1051c:	301020ef          	jal	ra,1301c <FN_WriteA0>
   10520:	00004517          	auipc	a0,0x4
   10524:	df150513          	addi	a0,a0,-527 # 14311 <end_signature+0x251>
   10528:	2d9020ef          	jal	ra,13000 <FN_WriteStr>
   1052c:	00004517          	auipc	a0,0x4
   10530:	deb50513          	addi	a0,a0,-533 # 14317 <end_signature+0x257>
   10534:	2cd020ef          	jal	ra,13000 <FN_WriteStr>
   10538:	00004517          	auipc	a0,0x4
   1053c:	dea50513          	addi	a0,a0,-534 # 14322 <end_signature+0x262>
   10540:	2c1020ef          	jal	ra,13000 <FN_WriteStr>
   10544:	06400193          	li	gp,100
   10548:	0000100f          	fence.i
   1054c:	00018063          	beqz	gp,1054c <reset_vector+0x500>
   10550:	00119193          	slli	gp,gp,0x1
   10554:	0011e193          	ori	gp,gp,1
   10558:	00000073          	ecall
   1055c:	800002b7          	lui	t0,0x80000
   10560:	08540e63          	beq	s0,t0,105fc <reset_vector+0x5b0>
   10564:	00004517          	auipc	a0,0x4
   10568:	dc050513          	addi	a0,a0,-576 # 14324 <end_signature+0x264>
   1056c:	295020ef          	jal	ra,13000 <FN_WriteStr>
   10570:	00004517          	auipc	a0,0x4
   10574:	dcf50513          	addi	a0,a0,-561 # 1433f <end_signature+0x27f>
   10578:	289020ef          	jal	ra,13000 <FN_WriteStr>
   1057c:	00004517          	auipc	a0,0x4
   10580:	dd250513          	addi	a0,a0,-558 # 1434e <end_signature+0x28e>
   10584:	27d020ef          	jal	ra,13000 <FN_WriteStr>
   10588:	00004517          	auipc	a0,0x4
   1058c:	dce50513          	addi	a0,a0,-562 # 14356 <end_signature+0x296>
   10590:	271020ef          	jal	ra,13000 <FN_WriteStr>
   10594:	00004517          	auipc	a0,0x4
   10598:	dc550513          	addi	a0,a0,-571 # 14359 <end_signature+0x299>
   1059c:	265020ef          	jal	ra,13000 <FN_WriteStr>
   105a0:	00004517          	auipc	a0,0x4
   105a4:	dbc50513          	addi	a0,a0,-580 # 1435c <end_signature+0x29c>
   105a8:	259020ef          	jal	ra,13000 <FN_WriteStr>
   105ac:	00004517          	auipc	a0,0x4
   105b0:	db350513          	addi	a0,a0,-589 # 1435f <end_signature+0x29f>
   105b4:	24d020ef          	jal	ra,13000 <FN_WriteStr>
   105b8:	00040513          	mv	a0,s0
   105bc:	261020ef          	jal	ra,1301c <FN_WriteA0>
   105c0:	00004517          	auipc	a0,0x4
   105c4:	da150513          	addi	a0,a0,-607 # 14361 <end_signature+0x2a1>
   105c8:	239020ef          	jal	ra,13000 <FN_WriteStr>
   105cc:	00004517          	auipc	a0,0x4
   105d0:	d9b50513          	addi	a0,a0,-613 # 14367 <end_signature+0x2a7>
   105d4:	22d020ef          	jal	ra,13000 <FN_WriteStr>
   105d8:	00004517          	auipc	a0,0x4
   105dc:	d9a50513          	addi	a0,a0,-614 # 14372 <end_signature+0x2b2>
   105e0:	221020ef          	jal	ra,13000 <FN_WriteStr>
   105e4:	06400193          	li	gp,100
   105e8:	0000100f          	fence.i
   105ec:	00018063          	beqz	gp,105ec <reset_vector+0x5a0>
   105f0:	00119193          	slli	gp,gp,0x1
   105f4:	0011e193          	ori	gp,gp,1
   105f8:	00000073          	ecall
   105fc:	01500293          	li	t0,21
   10600:	085f8e63          	beq	t6,t0,1069c <reset_vector+0x650>
   10604:	00004517          	auipc	a0,0x4
   10608:	d7050513          	addi	a0,a0,-656 # 14374 <end_signature+0x2b4>
   1060c:	1f5020ef          	jal	ra,13000 <FN_WriteStr>
   10610:	00004517          	auipc	a0,0x4
   10614:	d7f50513          	addi	a0,a0,-641 # 1438f <end_signature+0x2cf>
   10618:	1e9020ef          	jal	ra,13000 <FN_WriteStr>
   1061c:	00004517          	auipc	a0,0x4
   10620:	d8250513          	addi	a0,a0,-638 # 1439e <end_signature+0x2de>
   10624:	1dd020ef          	jal	ra,13000 <FN_WriteStr>
   10628:	00004517          	auipc	a0,0x4
   1062c:	d7e50513          	addi	a0,a0,-642 # 143a6 <end_signature+0x2e6>
   10630:	1d1020ef          	jal	ra,13000 <FN_WriteStr>
   10634:	00004517          	auipc	a0,0x4
   10638:	d7550513          	addi	a0,a0,-651 # 143a9 <end_signature+0x2e9>
   1063c:	1c5020ef          	jal	ra,13000 <FN_WriteStr>
   10640:	00004517          	auipc	a0,0x4
   10644:	d6c50513          	addi	a0,a0,-660 # 143ac <end_signature+0x2ec>
   10648:	1b9020ef          	jal	ra,13000 <FN_WriteStr>
   1064c:	00004517          	auipc	a0,0x4
   10650:	d6450513          	addi	a0,a0,-668 # 143b0 <end_signature+0x2f0>
   10654:	1ad020ef          	jal	ra,13000 <FN_WriteStr>
   10658:	000f8513          	mv	a0,t6
   1065c:	1c1020ef          	jal	ra,1301c <FN_WriteA0>
   10660:	00004517          	auipc	a0,0x4
   10664:	d5250513          	addi	a0,a0,-686 # 143b2 <end_signature+0x2f2>
   10668:	199020ef          	jal	ra,13000 <FN_WriteStr>
   1066c:	00004517          	auipc	a0,0x4
   10670:	d4c50513          	addi	a0,a0,-692 # 143b8 <end_signature+0x2f8>
   10674:	18d020ef          	jal	ra,13000 <FN_WriteStr>
   10678:	00004517          	auipc	a0,0x4
   1067c:	d4b50513          	addi	a0,a0,-693 # 143c3 <end_signature+0x303>
   10680:	181020ef          	jal	ra,13000 <FN_WriteStr>
   10684:	06400193          	li	gp,100
   10688:	0000100f          	fence.i
   1068c:	00018063          	beqz	gp,1068c <reset_vector+0x640>
   10690:	00119193          	slli	gp,gp,0x1
   10694:	0011e193          	ori	gp,gp,1
   10698:	00000073          	ecall
   1069c:	00004517          	auipc	a0,0x4
   106a0:	d2950513          	addi	a0,a0,-727 # 143c5 <end_signature+0x305>
   106a4:	15d020ef          	jal	ra,13000 <FN_WriteStr>
   106a8:	00004517          	auipc	a0,0x4
   106ac:	d3950513          	addi	a0,a0,-711 # 143e1 <end_signature+0x321>
   106b0:	151020ef          	jal	ra,13000 <FN_WriteStr>
   106b4:	00004097          	auipc	ra,0x4
   106b8:	95008093          	addi	ra,ra,-1712 # 14004 <test_A2_data>
   106bc:	00004117          	auipc	sp,0x4
   106c0:	98010113          	addi	sp,sp,-1664 # 1403c <test_A2_res>
   106c4:	0000a303          	lw	t1,0(ra)
   106c8:	00000393          	li	t2,0
   106cc:	00100413          	li	s0,1
   106d0:	fff00493          	li	s1,-1
   106d4:	80000537          	lui	a0,0x80000
   106d8:	fff50513          	addi	a0,a0,-1 # 7fffffff <_end+0x7ffeaf87>
   106dc:	800005b7          	lui	a1,0x80000
   106e0:	00000f93          	li	t6,0
   106e4:	00734463          	blt	t1,t2,106ec <reset_vector+0x6a0>
   106e8:	001fef93          	ori	t6,t6,1
   106ec:	00834463          	blt	t1,s0,106f4 <reset_vector+0x6a8>
   106f0:	002fef93          	ori	t6,t6,2
   106f4:	00934463          	blt	t1,s1,106fc <reset_vector+0x6b0>
   106f8:	004fef93          	ori	t6,t6,4
   106fc:	00a34463          	blt	t1,a0,10704 <reset_vector+0x6b8>
   10700:	008fef93          	ori	t6,t6,8
   10704:	00b34463          	blt	t1,a1,1070c <reset_vector+0x6c0>
   10708:	010fef93          	ori	t6,t6,16
   1070c:	00612023          	sw	t1,0(sp)
   10710:	00712223          	sw	t2,4(sp)
   10714:	00812423          	sw	s0,8(sp)
   10718:	00912623          	sw	s1,12(sp)
   1071c:	00a12823          	sw	a0,16(sp)
   10720:	00b12a23          	sw	a1,20(sp)
   10724:	01f12c23          	sw	t6,24(sp)
   10728:	00100293          	li	t0,1
   1072c:	08530e63          	beq	t1,t0,107c8 <reset_vector+0x77c>
   10730:	00004517          	auipc	a0,0x4
   10734:	d0350513          	addi	a0,a0,-765 # 14433 <end_signature+0x373>
   10738:	0c9020ef          	jal	ra,13000 <FN_WriteStr>
   1073c:	00004517          	auipc	a0,0x4
   10740:	d1250513          	addi	a0,a0,-750 # 1444e <end_signature+0x38e>
   10744:	0bd020ef          	jal	ra,13000 <FN_WriteStr>
   10748:	00004517          	auipc	a0,0x4
   1074c:	d1550513          	addi	a0,a0,-747 # 1445d <end_signature+0x39d>
   10750:	0b1020ef          	jal	ra,13000 <FN_WriteStr>
   10754:	00004517          	auipc	a0,0x4
   10758:	d1150513          	addi	a0,a0,-751 # 14465 <end_signature+0x3a5>
   1075c:	0a5020ef          	jal	ra,13000 <FN_WriteStr>
   10760:	00004517          	auipc	a0,0x4
   10764:	d0950513          	addi	a0,a0,-759 # 14469 <end_signature+0x3a9>
   10768:	099020ef          	jal	ra,13000 <FN_WriteStr>
   1076c:	00004517          	auipc	a0,0x4
   10770:	d0050513          	addi	a0,a0,-768 # 1446c <end_signature+0x3ac>
   10774:	08d020ef          	jal	ra,13000 <FN_WriteStr>
   10778:	00004517          	auipc	a0,0x4
   1077c:	cf750513          	addi	a0,a0,-777 # 1446f <end_signature+0x3af>
   10780:	081020ef          	jal	ra,13000 <FN_WriteStr>
   10784:	00030513          	mv	a0,t1
   10788:	095020ef          	jal	ra,1301c <FN_WriteA0>
   1078c:	00004517          	auipc	a0,0x4
   10790:	ce550513          	addi	a0,a0,-795 # 14471 <end_signature+0x3b1>
   10794:	06d020ef          	jal	ra,13000 <FN_WriteStr>
   10798:	00004517          	auipc	a0,0x4
   1079c:	cdf50513          	addi	a0,a0,-801 # 14477 <end_signature+0x3b7>
   107a0:	061020ef          	jal	ra,13000 <FN_WriteStr>
   107a4:	00004517          	auipc	a0,0x4
   107a8:	cde50513          	addi	a0,a0,-802 # 14482 <end_signature+0x3c2>
   107ac:	055020ef          	jal	ra,13000 <FN_WriteStr>
   107b0:	06400193          	li	gp,100
   107b4:	0000100f          	fence.i
   107b8:	00018063          	beqz	gp,107b8 <reset_vector+0x76c>
   107bc:	00119193          	slli	gp,gp,0x1
   107c0:	0011e193          	ori	gp,gp,1
   107c4:	00000073          	ecall
   107c8:	00000293          	li	t0,0
   107cc:	08538e63          	beq	t2,t0,10868 <reset_vector+0x81c>
   107d0:	00004517          	auipc	a0,0x4
   107d4:	cb450513          	addi	a0,a0,-844 # 14484 <end_signature+0x3c4>
   107d8:	029020ef          	jal	ra,13000 <FN_WriteStr>
   107dc:	00004517          	auipc	a0,0x4
   107e0:	cc350513          	addi	a0,a0,-829 # 1449f <end_signature+0x3df>
   107e4:	01d020ef          	jal	ra,13000 <FN_WriteStr>
   107e8:	00004517          	auipc	a0,0x4
   107ec:	cc650513          	addi	a0,a0,-826 # 144ae <end_signature+0x3ee>
   107f0:	011020ef          	jal	ra,13000 <FN_WriteStr>
   107f4:	00004517          	auipc	a0,0x4
   107f8:	cc250513          	addi	a0,a0,-830 # 144b6 <end_signature+0x3f6>
   107fc:	005020ef          	jal	ra,13000 <FN_WriteStr>
   10800:	00004517          	auipc	a0,0x4
   10804:	cba50513          	addi	a0,a0,-838 # 144ba <end_signature+0x3fa>
   10808:	7f8020ef          	jal	ra,13000 <FN_WriteStr>
   1080c:	00004517          	auipc	a0,0x4
   10810:	cb150513          	addi	a0,a0,-847 # 144bd <end_signature+0x3fd>
   10814:	7ec020ef          	jal	ra,13000 <FN_WriteStr>
   10818:	00004517          	auipc	a0,0x4
   1081c:	ca850513          	addi	a0,a0,-856 # 144c0 <end_signature+0x400>
   10820:	7e0020ef          	jal	ra,13000 <FN_WriteStr>
   10824:	00038513          	mv	a0,t2
   10828:	7f4020ef          	jal	ra,1301c <FN_WriteA0>
   1082c:	00004517          	auipc	a0,0x4
   10830:	c9650513          	addi	a0,a0,-874 # 144c2 <end_signature+0x402>
   10834:	7cc020ef          	jal	ra,13000 <FN_WriteStr>
   10838:	00004517          	auipc	a0,0x4
   1083c:	c9050513          	addi	a0,a0,-880 # 144c8 <end_signature+0x408>
   10840:	7c0020ef          	jal	ra,13000 <FN_WriteStr>
   10844:	00004517          	auipc	a0,0x4
   10848:	c8f50513          	addi	a0,a0,-881 # 144d3 <end_signature+0x413>
   1084c:	7b4020ef          	jal	ra,13000 <FN_WriteStr>
   10850:	06400193          	li	gp,100
   10854:	0000100f          	fence.i
   10858:	00018063          	beqz	gp,10858 <reset_vector+0x80c>
   1085c:	00119193          	slli	gp,gp,0x1
   10860:	0011e193          	ori	gp,gp,1
   10864:	00000073          	ecall
   10868:	00100293          	li	t0,1
   1086c:	08540e63          	beq	s0,t0,10908 <reset_vector+0x8bc>
   10870:	00004517          	auipc	a0,0x4
   10874:	c6550513          	addi	a0,a0,-923 # 144d5 <end_signature+0x415>
   10878:	788020ef          	jal	ra,13000 <FN_WriteStr>
   1087c:	00004517          	auipc	a0,0x4
   10880:	c7450513          	addi	a0,a0,-908 # 144f0 <end_signature+0x430>
   10884:	77c020ef          	jal	ra,13000 <FN_WriteStr>
   10888:	00004517          	auipc	a0,0x4
   1088c:	c7750513          	addi	a0,a0,-905 # 144ff <end_signature+0x43f>
   10890:	770020ef          	jal	ra,13000 <FN_WriteStr>
   10894:	00004517          	auipc	a0,0x4
   10898:	c7350513          	addi	a0,a0,-909 # 14507 <end_signature+0x447>
   1089c:	764020ef          	jal	ra,13000 <FN_WriteStr>
   108a0:	00004517          	auipc	a0,0x4
   108a4:	c6b50513          	addi	a0,a0,-917 # 1450b <end_signature+0x44b>
   108a8:	758020ef          	jal	ra,13000 <FN_WriteStr>
   108ac:	00004517          	auipc	a0,0x4
   108b0:	c6250513          	addi	a0,a0,-926 # 1450e <end_signature+0x44e>
   108b4:	74c020ef          	jal	ra,13000 <FN_WriteStr>
   108b8:	00004517          	auipc	a0,0x4
   108bc:	c5950513          	addi	a0,a0,-935 # 14511 <end_signature+0x451>
   108c0:	740020ef          	jal	ra,13000 <FN_WriteStr>
   108c4:	00040513          	mv	a0,s0
   108c8:	754020ef          	jal	ra,1301c <FN_WriteA0>
   108cc:	00004517          	auipc	a0,0x4
   108d0:	c4750513          	addi	a0,a0,-953 # 14513 <end_signature+0x453>
   108d4:	72c020ef          	jal	ra,13000 <FN_WriteStr>
   108d8:	00004517          	auipc	a0,0x4
   108dc:	c4150513          	addi	a0,a0,-959 # 14519 <end_signature+0x459>
   108e0:	720020ef          	jal	ra,13000 <FN_WriteStr>
   108e4:	00004517          	auipc	a0,0x4
   108e8:	c4050513          	addi	a0,a0,-960 # 14524 <end_signature+0x464>
   108ec:	714020ef          	jal	ra,13000 <FN_WriteStr>
   108f0:	06400193          	li	gp,100
   108f4:	0000100f          	fence.i
   108f8:	00018063          	beqz	gp,108f8 <reset_vector+0x8ac>
   108fc:	00119193          	slli	gp,gp,0x1
   10900:	0011e193          	ori	gp,gp,1
   10904:	00000073          	ecall
   10908:	fff00293          	li	t0,-1
   1090c:	08548e63          	beq	s1,t0,109a8 <reset_vector+0x95c>
   10910:	00004517          	auipc	a0,0x4
   10914:	c1650513          	addi	a0,a0,-1002 # 14526 <end_signature+0x466>
   10918:	6e8020ef          	jal	ra,13000 <FN_WriteStr>
   1091c:	00004517          	auipc	a0,0x4
   10920:	c2550513          	addi	a0,a0,-987 # 14541 <end_signature+0x481>
   10924:	6dc020ef          	jal	ra,13000 <FN_WriteStr>
   10928:	00004517          	auipc	a0,0x4
   1092c:	c2850513          	addi	a0,a0,-984 # 14550 <end_signature+0x490>
   10930:	6d0020ef          	jal	ra,13000 <FN_WriteStr>
   10934:	00004517          	auipc	a0,0x4
   10938:	c2450513          	addi	a0,a0,-988 # 14558 <end_signature+0x498>
   1093c:	6c4020ef          	jal	ra,13000 <FN_WriteStr>
   10940:	00004517          	auipc	a0,0x4
   10944:	c1c50513          	addi	a0,a0,-996 # 1455c <end_signature+0x49c>
   10948:	6b8020ef          	jal	ra,13000 <FN_WriteStr>
   1094c:	00004517          	auipc	a0,0x4
   10950:	c1350513          	addi	a0,a0,-1005 # 1455f <end_signature+0x49f>
   10954:	6ac020ef          	jal	ra,13000 <FN_WriteStr>
   10958:	00004517          	auipc	a0,0x4
   1095c:	c0a50513          	addi	a0,a0,-1014 # 14562 <end_signature+0x4a2>
   10960:	6a0020ef          	jal	ra,13000 <FN_WriteStr>
   10964:	00048513          	mv	a0,s1
   10968:	6b4020ef          	jal	ra,1301c <FN_WriteA0>
   1096c:	00004517          	auipc	a0,0x4
   10970:	bf850513          	addi	a0,a0,-1032 # 14564 <end_signature+0x4a4>
   10974:	68c020ef          	jal	ra,13000 <FN_WriteStr>
   10978:	00004517          	auipc	a0,0x4
   1097c:	bf250513          	addi	a0,a0,-1038 # 1456a <end_signature+0x4aa>
   10980:	680020ef          	jal	ra,13000 <FN_WriteStr>
   10984:	00004517          	auipc	a0,0x4
   10988:	bf150513          	addi	a0,a0,-1039 # 14575 <end_signature+0x4b5>
   1098c:	674020ef          	jal	ra,13000 <FN_WriteStr>
   10990:	06400193          	li	gp,100
   10994:	0000100f          	fence.i
   10998:	00018063          	beqz	gp,10998 <reset_vector+0x94c>
   1099c:	00119193          	slli	gp,gp,0x1
   109a0:	0011e193          	ori	gp,gp,1
   109a4:	00000073          	ecall
   109a8:	800002b7          	lui	t0,0x80000
   109ac:	08558e63          	beq	a1,t0,10a48 <reset_vector+0x9fc>
   109b0:	00004517          	auipc	a0,0x4
   109b4:	bc750513          	addi	a0,a0,-1081 # 14577 <end_signature+0x4b7>
   109b8:	648020ef          	jal	ra,13000 <FN_WriteStr>
   109bc:	00004517          	auipc	a0,0x4
   109c0:	bd650513          	addi	a0,a0,-1066 # 14592 <end_signature+0x4d2>
   109c4:	63c020ef          	jal	ra,13000 <FN_WriteStr>
   109c8:	00004517          	auipc	a0,0x4
   109cc:	bd950513          	addi	a0,a0,-1063 # 145a1 <end_signature+0x4e1>
   109d0:	630020ef          	jal	ra,13000 <FN_WriteStr>
   109d4:	00004517          	auipc	a0,0x4
   109d8:	bd550513          	addi	a0,a0,-1067 # 145a9 <end_signature+0x4e9>
   109dc:	624020ef          	jal	ra,13000 <FN_WriteStr>
   109e0:	00004517          	auipc	a0,0x4
   109e4:	bcd50513          	addi	a0,a0,-1075 # 145ad <end_signature+0x4ed>
   109e8:	618020ef          	jal	ra,13000 <FN_WriteStr>
   109ec:	00004517          	auipc	a0,0x4
   109f0:	bc450513          	addi	a0,a0,-1084 # 145b0 <end_signature+0x4f0>
   109f4:	60c020ef          	jal	ra,13000 <FN_WriteStr>
   109f8:	00004517          	auipc	a0,0x4
   109fc:	bbc50513          	addi	a0,a0,-1092 # 145b4 <end_signature+0x4f4>
   10a00:	600020ef          	jal	ra,13000 <FN_WriteStr>
   10a04:	00058513          	mv	a0,a1
   10a08:	614020ef          	jal	ra,1301c <FN_WriteA0>
   10a0c:	00004517          	auipc	a0,0x4
   10a10:	baa50513          	addi	a0,a0,-1110 # 145b6 <end_signature+0x4f6>
   10a14:	5ec020ef          	jal	ra,13000 <FN_WriteStr>
   10a18:	00004517          	auipc	a0,0x4
   10a1c:	ba450513          	addi	a0,a0,-1116 # 145bc <end_signature+0x4fc>
   10a20:	5e0020ef          	jal	ra,13000 <FN_WriteStr>
   10a24:	00004517          	auipc	a0,0x4
   10a28:	ba350513          	addi	a0,a0,-1117 # 145c7 <end_signature+0x507>
   10a2c:	5d4020ef          	jal	ra,13000 <FN_WriteStr>
   10a30:	06400193          	li	gp,100
   10a34:	0000100f          	fence.i
   10a38:	00018063          	beqz	gp,10a38 <reset_vector+0x9ec>
   10a3c:	00119193          	slli	gp,gp,0x1
   10a40:	0011e193          	ori	gp,gp,1
   10a44:	00000073          	ecall
   10a48:	01700293          	li	t0,23
   10a4c:	085f8e63          	beq	t6,t0,10ae8 <reset_vector+0xa9c>
   10a50:	00004517          	auipc	a0,0x4
   10a54:	b7950513          	addi	a0,a0,-1159 # 145c9 <end_signature+0x509>
   10a58:	5a8020ef          	jal	ra,13000 <FN_WriteStr>
   10a5c:	00004517          	auipc	a0,0x4
   10a60:	b8850513          	addi	a0,a0,-1144 # 145e4 <end_signature+0x524>
   10a64:	59c020ef          	jal	ra,13000 <FN_WriteStr>
   10a68:	00004517          	auipc	a0,0x4
   10a6c:	b8b50513          	addi	a0,a0,-1141 # 145f3 <end_signature+0x533>
   10a70:	590020ef          	jal	ra,13000 <FN_WriteStr>
   10a74:	00004517          	auipc	a0,0x4
   10a78:	b8750513          	addi	a0,a0,-1145 # 145fb <end_signature+0x53b>
   10a7c:	584020ef          	jal	ra,13000 <FN_WriteStr>
   10a80:	00004517          	auipc	a0,0x4
   10a84:	b7f50513          	addi	a0,a0,-1153 # 145ff <end_signature+0x53f>
   10a88:	578020ef          	jal	ra,13000 <FN_WriteStr>
   10a8c:	00004517          	auipc	a0,0x4
   10a90:	b7650513          	addi	a0,a0,-1162 # 14602 <end_signature+0x542>
   10a94:	56c020ef          	jal	ra,13000 <FN_WriteStr>
   10a98:	00004517          	auipc	a0,0x4
   10a9c:	b6e50513          	addi	a0,a0,-1170 # 14606 <end_signature+0x546>
   10aa0:	560020ef          	jal	ra,13000 <FN_WriteStr>
   10aa4:	000f8513          	mv	a0,t6
   10aa8:	574020ef          	jal	ra,1301c <FN_WriteA0>
   10aac:	00004517          	auipc	a0,0x4
   10ab0:	b5c50513          	addi	a0,a0,-1188 # 14608 <end_signature+0x548>
   10ab4:	54c020ef          	jal	ra,13000 <FN_WriteStr>
   10ab8:	00004517          	auipc	a0,0x4
   10abc:	b5650513          	addi	a0,a0,-1194 # 1460e <end_signature+0x54e>
   10ac0:	540020ef          	jal	ra,13000 <FN_WriteStr>
   10ac4:	00004517          	auipc	a0,0x4
   10ac8:	b5550513          	addi	a0,a0,-1195 # 14619 <end_signature+0x559>
   10acc:	534020ef          	jal	ra,13000 <FN_WriteStr>
   10ad0:	06400193          	li	gp,100
   10ad4:	0000100f          	fence.i
   10ad8:	00018063          	beqz	gp,10ad8 <reset_vector+0xa8c>
   10adc:	00119193          	slli	gp,gp,0x1
   10ae0:	0011e193          	ori	gp,gp,1
   10ae4:	00000073          	ecall
   10ae8:	00004517          	auipc	a0,0x4
   10aec:	b3350513          	addi	a0,a0,-1229 # 1461b <end_signature+0x55b>
   10af0:	510020ef          	jal	ra,13000 <FN_WriteStr>
   10af4:	00004517          	auipc	a0,0x4
   10af8:	b4350513          	addi	a0,a0,-1213 # 14637 <end_signature+0x577>
   10afc:	504020ef          	jal	ra,13000 <FN_WriteStr>
   10b00:	00003097          	auipc	ra,0x3
   10b04:	50808093          	addi	ra,ra,1288 # 14008 <test_A3_data>
   10b08:	00003117          	auipc	sp,0x3
   10b0c:	55010113          	addi	sp,sp,1360 # 14058 <test_A3_res>
   10b10:	0000a603          	lw	a2,0(ra)
   10b14:	00000693          	li	a3,0
   10b18:	00100713          	li	a4,1
   10b1c:	fff00793          	li	a5,-1
   10b20:	80000837          	lui	a6,0x80000
   10b24:	fff80813          	addi	a6,a6,-1 # 7fffffff <_end+0x7ffeaf87>
   10b28:	800008b7          	lui	a7,0x80000
   10b2c:	00000f93          	li	t6,0
   10b30:	00d64463          	blt	a2,a3,10b38 <reset_vector+0xaec>
   10b34:	001fef93          	ori	t6,t6,1
   10b38:	00e64463          	blt	a2,a4,10b40 <reset_vector+0xaf4>
   10b3c:	002fef93          	ori	t6,t6,2
   10b40:	00f64463          	blt	a2,a5,10b48 <reset_vector+0xafc>
   10b44:	004fef93          	ori	t6,t6,4
   10b48:	01064463          	blt	a2,a6,10b50 <reset_vector+0xb04>
   10b4c:	008fef93          	ori	t6,t6,8
   10b50:	01164463          	blt	a2,a7,10b58 <reset_vector+0xb0c>
   10b54:	010fef93          	ori	t6,t6,16
   10b58:	00c12023          	sw	a2,0(sp)
   10b5c:	00d12223          	sw	a3,4(sp)
   10b60:	00e12423          	sw	a4,8(sp)
   10b64:	00f12623          	sw	a5,12(sp)
   10b68:	01012823          	sw	a6,16(sp)
   10b6c:	01112a23          	sw	a7,20(sp)
   10b70:	01f12c23          	sw	t6,24(sp)
   10b74:	fff00293          	li	t0,-1
   10b78:	08560e63          	beq	a2,t0,10c14 <reset_vector+0xbc8>
   10b7c:	00004517          	auipc	a0,0x4
   10b80:	b0e50513          	addi	a0,a0,-1266 # 1468a <end_signature+0x5ca>
   10b84:	47c020ef          	jal	ra,13000 <FN_WriteStr>
   10b88:	00004517          	auipc	a0,0x4
   10b8c:	b1d50513          	addi	a0,a0,-1251 # 146a5 <end_signature+0x5e5>
   10b90:	470020ef          	jal	ra,13000 <FN_WriteStr>
   10b94:	00004517          	auipc	a0,0x4
   10b98:	b2050513          	addi	a0,a0,-1248 # 146b4 <end_signature+0x5f4>
   10b9c:	464020ef          	jal	ra,13000 <FN_WriteStr>
   10ba0:	00004517          	auipc	a0,0x4
   10ba4:	b1c50513          	addi	a0,a0,-1252 # 146bc <end_signature+0x5fc>
   10ba8:	458020ef          	jal	ra,13000 <FN_WriteStr>
   10bac:	00004517          	auipc	a0,0x4
   10bb0:	b1450513          	addi	a0,a0,-1260 # 146c0 <end_signature+0x600>
   10bb4:	44c020ef          	jal	ra,13000 <FN_WriteStr>
   10bb8:	00004517          	auipc	a0,0x4
   10bbc:	b0b50513          	addi	a0,a0,-1269 # 146c3 <end_signature+0x603>
   10bc0:	440020ef          	jal	ra,13000 <FN_WriteStr>
   10bc4:	00004517          	auipc	a0,0x4
   10bc8:	b0350513          	addi	a0,a0,-1277 # 146c7 <end_signature+0x607>
   10bcc:	434020ef          	jal	ra,13000 <FN_WriteStr>
   10bd0:	00060513          	mv	a0,a2
   10bd4:	448020ef          	jal	ra,1301c <FN_WriteA0>
   10bd8:	00004517          	auipc	a0,0x4
   10bdc:	af150513          	addi	a0,a0,-1295 # 146c9 <end_signature+0x609>
   10be0:	420020ef          	jal	ra,13000 <FN_WriteStr>
   10be4:	00004517          	auipc	a0,0x4
   10be8:	aeb50513          	addi	a0,a0,-1301 # 146cf <end_signature+0x60f>
   10bec:	414020ef          	jal	ra,13000 <FN_WriteStr>
   10bf0:	00004517          	auipc	a0,0x4
   10bf4:	aea50513          	addi	a0,a0,-1302 # 146da <end_signature+0x61a>
   10bf8:	408020ef          	jal	ra,13000 <FN_WriteStr>
   10bfc:	06400193          	li	gp,100
   10c00:	0000100f          	fence.i
   10c04:	00018063          	beqz	gp,10c04 <reset_vector+0xbb8>
   10c08:	00119193          	slli	gp,gp,0x1
   10c0c:	0011e193          	ori	gp,gp,1
   10c10:	00000073          	ecall
   10c14:	00000293          	li	t0,0
   10c18:	08568e63          	beq	a3,t0,10cb4 <reset_vector+0xc68>
   10c1c:	00004517          	auipc	a0,0x4
   10c20:	ac050513          	addi	a0,a0,-1344 # 146dc <end_signature+0x61c>
   10c24:	3dc020ef          	jal	ra,13000 <FN_WriteStr>
   10c28:	00004517          	auipc	a0,0x4
   10c2c:	acf50513          	addi	a0,a0,-1329 # 146f7 <end_signature+0x637>
   10c30:	3d0020ef          	jal	ra,13000 <FN_WriteStr>
   10c34:	00004517          	auipc	a0,0x4
   10c38:	ad250513          	addi	a0,a0,-1326 # 14706 <end_signature+0x646>
   10c3c:	3c4020ef          	jal	ra,13000 <FN_WriteStr>
   10c40:	00004517          	auipc	a0,0x4
   10c44:	ace50513          	addi	a0,a0,-1330 # 1470e <end_signature+0x64e>
   10c48:	3b8020ef          	jal	ra,13000 <FN_WriteStr>
   10c4c:	00004517          	auipc	a0,0x4
   10c50:	ac650513          	addi	a0,a0,-1338 # 14712 <end_signature+0x652>
   10c54:	3ac020ef          	jal	ra,13000 <FN_WriteStr>
   10c58:	00004517          	auipc	a0,0x4
   10c5c:	abd50513          	addi	a0,a0,-1347 # 14715 <end_signature+0x655>
   10c60:	3a0020ef          	jal	ra,13000 <FN_WriteStr>
   10c64:	00004517          	auipc	a0,0x4
   10c68:	ab550513          	addi	a0,a0,-1355 # 14719 <end_signature+0x659>
   10c6c:	394020ef          	jal	ra,13000 <FN_WriteStr>
   10c70:	00068513          	mv	a0,a3
   10c74:	3a8020ef          	jal	ra,1301c <FN_WriteA0>
   10c78:	00004517          	auipc	a0,0x4
   10c7c:	aa350513          	addi	a0,a0,-1373 # 1471b <end_signature+0x65b>
   10c80:	380020ef          	jal	ra,13000 <FN_WriteStr>
   10c84:	00004517          	auipc	a0,0x4
   10c88:	a9d50513          	addi	a0,a0,-1379 # 14721 <end_signature+0x661>
   10c8c:	374020ef          	jal	ra,13000 <FN_WriteStr>
   10c90:	00004517          	auipc	a0,0x4
   10c94:	a9c50513          	addi	a0,a0,-1380 # 1472c <end_signature+0x66c>
   10c98:	368020ef          	jal	ra,13000 <FN_WriteStr>
   10c9c:	06400193          	li	gp,100
   10ca0:	0000100f          	fence.i
   10ca4:	00018063          	beqz	gp,10ca4 <reset_vector+0xc58>
   10ca8:	00119193          	slli	gp,gp,0x1
   10cac:	0011e193          	ori	gp,gp,1
   10cb0:	00000073          	ecall
   10cb4:	00100293          	li	t0,1
   10cb8:	08570e63          	beq	a4,t0,10d54 <reset_vector+0xd08>
   10cbc:	00004517          	auipc	a0,0x4
   10cc0:	a7250513          	addi	a0,a0,-1422 # 1472e <end_signature+0x66e>
   10cc4:	33c020ef          	jal	ra,13000 <FN_WriteStr>
   10cc8:	00004517          	auipc	a0,0x4
   10ccc:	a8150513          	addi	a0,a0,-1407 # 14749 <end_signature+0x689>
   10cd0:	330020ef          	jal	ra,13000 <FN_WriteStr>
   10cd4:	00004517          	auipc	a0,0x4
   10cd8:	a8450513          	addi	a0,a0,-1404 # 14758 <end_signature+0x698>
   10cdc:	324020ef          	jal	ra,13000 <FN_WriteStr>
   10ce0:	00004517          	auipc	a0,0x4
   10ce4:	a8050513          	addi	a0,a0,-1408 # 14760 <end_signature+0x6a0>
   10ce8:	318020ef          	jal	ra,13000 <FN_WriteStr>
   10cec:	00004517          	auipc	a0,0x4
   10cf0:	a7850513          	addi	a0,a0,-1416 # 14764 <end_signature+0x6a4>
   10cf4:	30c020ef          	jal	ra,13000 <FN_WriteStr>
   10cf8:	00004517          	auipc	a0,0x4
   10cfc:	a6f50513          	addi	a0,a0,-1425 # 14767 <end_signature+0x6a7>
   10d00:	300020ef          	jal	ra,13000 <FN_WriteStr>
   10d04:	00004517          	auipc	a0,0x4
   10d08:	a6750513          	addi	a0,a0,-1433 # 1476b <end_signature+0x6ab>
   10d0c:	2f4020ef          	jal	ra,13000 <FN_WriteStr>
   10d10:	00070513          	mv	a0,a4
   10d14:	308020ef          	jal	ra,1301c <FN_WriteA0>
   10d18:	00004517          	auipc	a0,0x4
   10d1c:	a5550513          	addi	a0,a0,-1451 # 1476d <end_signature+0x6ad>
   10d20:	2e0020ef          	jal	ra,13000 <FN_WriteStr>
   10d24:	00004517          	auipc	a0,0x4
   10d28:	a4f50513          	addi	a0,a0,-1457 # 14773 <end_signature+0x6b3>
   10d2c:	2d4020ef          	jal	ra,13000 <FN_WriteStr>
   10d30:	00004517          	auipc	a0,0x4
   10d34:	a4e50513          	addi	a0,a0,-1458 # 1477e <end_signature+0x6be>
   10d38:	2c8020ef          	jal	ra,13000 <FN_WriteStr>
   10d3c:	06400193          	li	gp,100
   10d40:	0000100f          	fence.i
   10d44:	00018063          	beqz	gp,10d44 <reset_vector+0xcf8>
   10d48:	00119193          	slli	gp,gp,0x1
   10d4c:	0011e193          	ori	gp,gp,1
   10d50:	00000073          	ecall
   10d54:	fff00293          	li	t0,-1
   10d58:	08578e63          	beq	a5,t0,10df4 <reset_vector+0xda8>
   10d5c:	00004517          	auipc	a0,0x4
   10d60:	a2450513          	addi	a0,a0,-1500 # 14780 <end_signature+0x6c0>
   10d64:	29c020ef          	jal	ra,13000 <FN_WriteStr>
   10d68:	00004517          	auipc	a0,0x4
   10d6c:	a3350513          	addi	a0,a0,-1485 # 1479b <end_signature+0x6db>
   10d70:	290020ef          	jal	ra,13000 <FN_WriteStr>
   10d74:	00004517          	auipc	a0,0x4
   10d78:	a3650513          	addi	a0,a0,-1482 # 147aa <end_signature+0x6ea>
   10d7c:	284020ef          	jal	ra,13000 <FN_WriteStr>
   10d80:	00004517          	auipc	a0,0x4
   10d84:	a3250513          	addi	a0,a0,-1486 # 147b2 <end_signature+0x6f2>
   10d88:	278020ef          	jal	ra,13000 <FN_WriteStr>
   10d8c:	00004517          	auipc	a0,0x4
   10d90:	a2a50513          	addi	a0,a0,-1494 # 147b6 <end_signature+0x6f6>
   10d94:	26c020ef          	jal	ra,13000 <FN_WriteStr>
   10d98:	00004517          	auipc	a0,0x4
   10d9c:	a2150513          	addi	a0,a0,-1503 # 147b9 <end_signature+0x6f9>
   10da0:	260020ef          	jal	ra,13000 <FN_WriteStr>
   10da4:	00004517          	auipc	a0,0x4
   10da8:	a1950513          	addi	a0,a0,-1511 # 147bd <end_signature+0x6fd>
   10dac:	254020ef          	jal	ra,13000 <FN_WriteStr>
   10db0:	00078513          	mv	a0,a5
   10db4:	268020ef          	jal	ra,1301c <FN_WriteA0>
   10db8:	00004517          	auipc	a0,0x4
   10dbc:	a0750513          	addi	a0,a0,-1529 # 147bf <end_signature+0x6ff>
   10dc0:	240020ef          	jal	ra,13000 <FN_WriteStr>
   10dc4:	00004517          	auipc	a0,0x4
   10dc8:	a0150513          	addi	a0,a0,-1535 # 147c5 <end_signature+0x705>
   10dcc:	234020ef          	jal	ra,13000 <FN_WriteStr>
   10dd0:	00004517          	auipc	a0,0x4
   10dd4:	a0050513          	addi	a0,a0,-1536 # 147d0 <end_signature+0x710>
   10dd8:	228020ef          	jal	ra,13000 <FN_WriteStr>
   10ddc:	06400193          	li	gp,100
   10de0:	0000100f          	fence.i
   10de4:	00018063          	beqz	gp,10de4 <reset_vector+0xd98>
   10de8:	00119193          	slli	gp,gp,0x1
   10dec:	0011e193          	ori	gp,gp,1
   10df0:	00000073          	ecall
   10df4:	800002b7          	lui	t0,0x80000
   10df8:	fff28293          	addi	t0,t0,-1 # 7fffffff <_end+0x7ffeaf87>
   10dfc:	08580e63          	beq	a6,t0,10e98 <reset_vector+0xe4c>
   10e00:	00004517          	auipc	a0,0x4
   10e04:	9d250513          	addi	a0,a0,-1582 # 147d2 <end_signature+0x712>
   10e08:	1f8020ef          	jal	ra,13000 <FN_WriteStr>
   10e0c:	00004517          	auipc	a0,0x4
   10e10:	9e150513          	addi	a0,a0,-1567 # 147ed <end_signature+0x72d>
   10e14:	1ec020ef          	jal	ra,13000 <FN_WriteStr>
   10e18:	00004517          	auipc	a0,0x4
   10e1c:	9e450513          	addi	a0,a0,-1564 # 147fc <end_signature+0x73c>
   10e20:	1e0020ef          	jal	ra,13000 <FN_WriteStr>
   10e24:	00004517          	auipc	a0,0x4
   10e28:	9e050513          	addi	a0,a0,-1568 # 14804 <end_signature+0x744>
   10e2c:	1d4020ef          	jal	ra,13000 <FN_WriteStr>
   10e30:	00004517          	auipc	a0,0x4
   10e34:	9d850513          	addi	a0,a0,-1576 # 14808 <end_signature+0x748>
   10e38:	1c8020ef          	jal	ra,13000 <FN_WriteStr>
   10e3c:	00004517          	auipc	a0,0x4
   10e40:	9cf50513          	addi	a0,a0,-1585 # 1480b <end_signature+0x74b>
   10e44:	1bc020ef          	jal	ra,13000 <FN_WriteStr>
   10e48:	00004517          	auipc	a0,0x4
   10e4c:	9c750513          	addi	a0,a0,-1593 # 1480f <end_signature+0x74f>
   10e50:	1b0020ef          	jal	ra,13000 <FN_WriteStr>
   10e54:	00080513          	mv	a0,a6
   10e58:	1c4020ef          	jal	ra,1301c <FN_WriteA0>
   10e5c:	00004517          	auipc	a0,0x4
   10e60:	9b550513          	addi	a0,a0,-1611 # 14811 <end_signature+0x751>
   10e64:	19c020ef          	jal	ra,13000 <FN_WriteStr>
   10e68:	00004517          	auipc	a0,0x4
   10e6c:	9af50513          	addi	a0,a0,-1617 # 14817 <end_signature+0x757>
   10e70:	190020ef          	jal	ra,13000 <FN_WriteStr>
   10e74:	00004517          	auipc	a0,0x4
   10e78:	9ae50513          	addi	a0,a0,-1618 # 14822 <end_signature+0x762>
   10e7c:	184020ef          	jal	ra,13000 <FN_WriteStr>
   10e80:	06400193          	li	gp,100
   10e84:	0000100f          	fence.i
   10e88:	00018063          	beqz	gp,10e88 <reset_vector+0xe3c>
   10e8c:	00119193          	slli	gp,gp,0x1
   10e90:	0011e193          	ori	gp,gp,1
   10e94:	00000073          	ecall
   10e98:	800002b7          	lui	t0,0x80000
   10e9c:	08588e63          	beq	a7,t0,10f38 <reset_vector+0xeec>
   10ea0:	00004517          	auipc	a0,0x4
   10ea4:	98450513          	addi	a0,a0,-1660 # 14824 <end_signature+0x764>
   10ea8:	158020ef          	jal	ra,13000 <FN_WriteStr>
   10eac:	00004517          	auipc	a0,0x4
   10eb0:	99350513          	addi	a0,a0,-1645 # 1483f <end_signature+0x77f>
   10eb4:	14c020ef          	jal	ra,13000 <FN_WriteStr>
   10eb8:	00004517          	auipc	a0,0x4
   10ebc:	99650513          	addi	a0,a0,-1642 # 1484e <end_signature+0x78e>
   10ec0:	140020ef          	jal	ra,13000 <FN_WriteStr>
   10ec4:	00004517          	auipc	a0,0x4
   10ec8:	99250513          	addi	a0,a0,-1646 # 14856 <end_signature+0x796>
   10ecc:	134020ef          	jal	ra,13000 <FN_WriteStr>
   10ed0:	00004517          	auipc	a0,0x4
   10ed4:	98a50513          	addi	a0,a0,-1654 # 1485a <end_signature+0x79a>
   10ed8:	128020ef          	jal	ra,13000 <FN_WriteStr>
   10edc:	00004517          	auipc	a0,0x4
   10ee0:	98150513          	addi	a0,a0,-1663 # 1485d <end_signature+0x79d>
   10ee4:	11c020ef          	jal	ra,13000 <FN_WriteStr>
   10ee8:	00004517          	auipc	a0,0x4
   10eec:	97950513          	addi	a0,a0,-1671 # 14861 <end_signature+0x7a1>
   10ef0:	110020ef          	jal	ra,13000 <FN_WriteStr>
   10ef4:	00088513          	mv	a0,a7
   10ef8:	124020ef          	jal	ra,1301c <FN_WriteA0>
   10efc:	00004517          	auipc	a0,0x4
   10f00:	96750513          	addi	a0,a0,-1689 # 14863 <end_signature+0x7a3>
   10f04:	0fc020ef          	jal	ra,13000 <FN_WriteStr>
   10f08:	00004517          	auipc	a0,0x4
   10f0c:	96150513          	addi	a0,a0,-1695 # 14869 <end_signature+0x7a9>
   10f10:	0f0020ef          	jal	ra,13000 <FN_WriteStr>
   10f14:	00004517          	auipc	a0,0x4
   10f18:	96050513          	addi	a0,a0,-1696 # 14874 <end_signature+0x7b4>
   10f1c:	0e4020ef          	jal	ra,13000 <FN_WriteStr>
   10f20:	06400193          	li	gp,100
   10f24:	0000100f          	fence.i
   10f28:	00018063          	beqz	gp,10f28 <reset_vector+0xedc>
   10f2c:	00119193          	slli	gp,gp,0x1
   10f30:	0011e193          	ori	gp,gp,1
   10f34:	00000073          	ecall
   10f38:	01400293          	li	t0,20
   10f3c:	085f8e63          	beq	t6,t0,10fd8 <reset_vector+0xf8c>
   10f40:	00004517          	auipc	a0,0x4
   10f44:	93650513          	addi	a0,a0,-1738 # 14876 <end_signature+0x7b6>
   10f48:	0b8020ef          	jal	ra,13000 <FN_WriteStr>
   10f4c:	00004517          	auipc	a0,0x4
   10f50:	94550513          	addi	a0,a0,-1723 # 14891 <end_signature+0x7d1>
   10f54:	0ac020ef          	jal	ra,13000 <FN_WriteStr>
   10f58:	00004517          	auipc	a0,0x4
   10f5c:	94850513          	addi	a0,a0,-1720 # 148a0 <end_signature+0x7e0>
   10f60:	0a0020ef          	jal	ra,13000 <FN_WriteStr>
   10f64:	00004517          	auipc	a0,0x4
   10f68:	94450513          	addi	a0,a0,-1724 # 148a8 <end_signature+0x7e8>
   10f6c:	094020ef          	jal	ra,13000 <FN_WriteStr>
   10f70:	00004517          	auipc	a0,0x4
   10f74:	93c50513          	addi	a0,a0,-1732 # 148ac <end_signature+0x7ec>
   10f78:	088020ef          	jal	ra,13000 <FN_WriteStr>
   10f7c:	00004517          	auipc	a0,0x4
   10f80:	93350513          	addi	a0,a0,-1741 # 148af <end_signature+0x7ef>
   10f84:	07c020ef          	jal	ra,13000 <FN_WriteStr>
   10f88:	00004517          	auipc	a0,0x4
   10f8c:	92b50513          	addi	a0,a0,-1749 # 148b3 <end_signature+0x7f3>
   10f90:	070020ef          	jal	ra,13000 <FN_WriteStr>
   10f94:	000f8513          	mv	a0,t6
   10f98:	084020ef          	jal	ra,1301c <FN_WriteA0>
   10f9c:	00004517          	auipc	a0,0x4
   10fa0:	91950513          	addi	a0,a0,-1767 # 148b5 <end_signature+0x7f5>
   10fa4:	05c020ef          	jal	ra,13000 <FN_WriteStr>
   10fa8:	00004517          	auipc	a0,0x4
   10fac:	91350513          	addi	a0,a0,-1773 # 148bb <end_signature+0x7fb>
   10fb0:	050020ef          	jal	ra,13000 <FN_WriteStr>
   10fb4:	00004517          	auipc	a0,0x4
   10fb8:	91250513          	addi	a0,a0,-1774 # 148c6 <end_signature+0x806>
   10fbc:	044020ef          	jal	ra,13000 <FN_WriteStr>
   10fc0:	06400193          	li	gp,100
   10fc4:	0000100f          	fence.i
   10fc8:	00018063          	beqz	gp,10fc8 <reset_vector+0xf7c>
   10fcc:	00119193          	slli	gp,gp,0x1
   10fd0:	0011e193          	ori	gp,gp,1
   10fd4:	00000073          	ecall
   10fd8:	00004517          	auipc	a0,0x4
   10fdc:	8f050513          	addi	a0,a0,-1808 # 148c8 <end_signature+0x808>
   10fe0:	020020ef          	jal	ra,13000 <FN_WriteStr>
   10fe4:	00004517          	auipc	a0,0x4
   10fe8:	90050513          	addi	a0,a0,-1792 # 148e4 <end_signature+0x824>
   10fec:	014020ef          	jal	ra,13000 <FN_WriteStr>
   10ff0:	00003097          	auipc	ra,0x3
   10ff4:	01c08093          	addi	ra,ra,28 # 1400c <test_A4_data>
   10ff8:	00003117          	auipc	sp,0x3
   10ffc:	07c10113          	addi	sp,sp,124 # 14074 <test_A4_res>
   11000:	0000a903          	lw	s2,0(ra)
   11004:	00000993          	li	s3,0
   11008:	00100a13          	li	s4,1
   1100c:	fff00a93          	li	s5,-1
   11010:	80000b37          	lui	s6,0x80000
   11014:	fffb0b13          	addi	s6,s6,-1 # 7fffffff <_end+0x7ffeaf87>
   11018:	80000bb7          	lui	s7,0x80000
   1101c:	00000f93          	li	t6,0
   11020:	01394463          	blt	s2,s3,11028 <reset_vector+0xfdc>
   11024:	001fef93          	ori	t6,t6,1
   11028:	01494463          	blt	s2,s4,11030 <reset_vector+0xfe4>
   1102c:	002fef93          	ori	t6,t6,2
   11030:	01594463          	blt	s2,s5,11038 <reset_vector+0xfec>
   11034:	004fef93          	ori	t6,t6,4
   11038:	01694463          	blt	s2,s6,11040 <reset_vector+0xff4>
   1103c:	008fef93          	ori	t6,t6,8
   11040:	01794463          	blt	s2,s7,11048 <reset_vector+0xffc>
   11044:	010fef93          	ori	t6,t6,16
   11048:	01212023          	sw	s2,0(sp)
   1104c:	01312223          	sw	s3,4(sp)
   11050:	01412423          	sw	s4,8(sp)
   11054:	01512623          	sw	s5,12(sp)
   11058:	01612823          	sw	s6,16(sp)
   1105c:	01712a23          	sw	s7,20(sp)
   11060:	01f12c23          	sw	t6,24(sp)
   11064:	800002b7          	lui	t0,0x80000
   11068:	fff28293          	addi	t0,t0,-1 # 7fffffff <_end+0x7ffeaf87>
   1106c:	08590e63          	beq	s2,t0,11108 <reset_vector+0x10bc>
   11070:	00004517          	auipc	a0,0x4
   11074:	8cf50513          	addi	a0,a0,-1841 # 1493f <end_signature+0x87f>
   11078:	789010ef          	jal	ra,13000 <FN_WriteStr>
   1107c:	00004517          	auipc	a0,0x4
   11080:	8de50513          	addi	a0,a0,-1826 # 1495a <end_signature+0x89a>
   11084:	77d010ef          	jal	ra,13000 <FN_WriteStr>
   11088:	00004517          	auipc	a0,0x4
   1108c:	8e150513          	addi	a0,a0,-1823 # 14969 <end_signature+0x8a9>
   11090:	771010ef          	jal	ra,13000 <FN_WriteStr>
   11094:	00004517          	auipc	a0,0x4
   11098:	8dd50513          	addi	a0,a0,-1827 # 14971 <end_signature+0x8b1>
   1109c:	765010ef          	jal	ra,13000 <FN_WriteStr>
   110a0:	00004517          	auipc	a0,0x4
   110a4:	8d550513          	addi	a0,a0,-1835 # 14975 <end_signature+0x8b5>
   110a8:	759010ef          	jal	ra,13000 <FN_WriteStr>
   110ac:	00004517          	auipc	a0,0x4
   110b0:	8cc50513          	addi	a0,a0,-1844 # 14978 <end_signature+0x8b8>
   110b4:	74d010ef          	jal	ra,13000 <FN_WriteStr>
   110b8:	00004517          	auipc	a0,0x4
   110bc:	8c450513          	addi	a0,a0,-1852 # 1497c <end_signature+0x8bc>
   110c0:	741010ef          	jal	ra,13000 <FN_WriteStr>
   110c4:	00090513          	mv	a0,s2
   110c8:	755010ef          	jal	ra,1301c <FN_WriteA0>
   110cc:	00004517          	auipc	a0,0x4
   110d0:	8b250513          	addi	a0,a0,-1870 # 1497e <end_signature+0x8be>
   110d4:	72d010ef          	jal	ra,13000 <FN_WriteStr>
   110d8:	00004517          	auipc	a0,0x4
   110dc:	8ac50513          	addi	a0,a0,-1876 # 14984 <end_signature+0x8c4>
   110e0:	721010ef          	jal	ra,13000 <FN_WriteStr>
   110e4:	00004517          	auipc	a0,0x4
   110e8:	8ab50513          	addi	a0,a0,-1877 # 1498f <end_signature+0x8cf>
   110ec:	715010ef          	jal	ra,13000 <FN_WriteStr>
   110f0:	06400193          	li	gp,100
   110f4:	0000100f          	fence.i
   110f8:	00018063          	beqz	gp,110f8 <reset_vector+0x10ac>
   110fc:	00119193          	slli	gp,gp,0x1
   11100:	0011e193          	ori	gp,gp,1
   11104:	00000073          	ecall
   11108:	00000293          	li	t0,0
   1110c:	08598e63          	beq	s3,t0,111a8 <reset_vector+0x115c>
   11110:	00004517          	auipc	a0,0x4
   11114:	88150513          	addi	a0,a0,-1919 # 14991 <end_signature+0x8d1>
   11118:	6e9010ef          	jal	ra,13000 <FN_WriteStr>
   1111c:	00004517          	auipc	a0,0x4
   11120:	89050513          	addi	a0,a0,-1904 # 149ac <end_signature+0x8ec>
   11124:	6dd010ef          	jal	ra,13000 <FN_WriteStr>
   11128:	00004517          	auipc	a0,0x4
   1112c:	89350513          	addi	a0,a0,-1901 # 149bb <end_signature+0x8fb>
   11130:	6d1010ef          	jal	ra,13000 <FN_WriteStr>
   11134:	00004517          	auipc	a0,0x4
   11138:	88f50513          	addi	a0,a0,-1905 # 149c3 <end_signature+0x903>
   1113c:	6c5010ef          	jal	ra,13000 <FN_WriteStr>
   11140:	00004517          	auipc	a0,0x4
   11144:	88750513          	addi	a0,a0,-1913 # 149c7 <end_signature+0x907>
   11148:	6b9010ef          	jal	ra,13000 <FN_WriteStr>
   1114c:	00004517          	auipc	a0,0x4
   11150:	87e50513          	addi	a0,a0,-1922 # 149ca <end_signature+0x90a>
   11154:	6ad010ef          	jal	ra,13000 <FN_WriteStr>
   11158:	00004517          	auipc	a0,0x4
   1115c:	87650513          	addi	a0,a0,-1930 # 149ce <end_signature+0x90e>
   11160:	6a1010ef          	jal	ra,13000 <FN_WriteStr>
   11164:	00098513          	mv	a0,s3
   11168:	6b5010ef          	jal	ra,1301c <FN_WriteA0>
   1116c:	00004517          	auipc	a0,0x4
   11170:	86450513          	addi	a0,a0,-1948 # 149d0 <end_signature+0x910>
   11174:	68d010ef          	jal	ra,13000 <FN_WriteStr>
   11178:	00004517          	auipc	a0,0x4
   1117c:	85e50513          	addi	a0,a0,-1954 # 149d6 <end_signature+0x916>
   11180:	681010ef          	jal	ra,13000 <FN_WriteStr>
   11184:	00004517          	auipc	a0,0x4
   11188:	85d50513          	addi	a0,a0,-1955 # 149e1 <end_signature+0x921>
   1118c:	675010ef          	jal	ra,13000 <FN_WriteStr>
   11190:	06400193          	li	gp,100
   11194:	0000100f          	fence.i
   11198:	00018063          	beqz	gp,11198 <reset_vector+0x114c>
   1119c:	00119193          	slli	gp,gp,0x1
   111a0:	0011e193          	ori	gp,gp,1
   111a4:	00000073          	ecall
   111a8:	00100293          	li	t0,1
   111ac:	085a0e63          	beq	s4,t0,11248 <reset_vector+0x11fc>
   111b0:	00004517          	auipc	a0,0x4
   111b4:	83350513          	addi	a0,a0,-1997 # 149e3 <end_signature+0x923>
   111b8:	649010ef          	jal	ra,13000 <FN_WriteStr>
   111bc:	00004517          	auipc	a0,0x4
   111c0:	84250513          	addi	a0,a0,-1982 # 149fe <end_signature+0x93e>
   111c4:	63d010ef          	jal	ra,13000 <FN_WriteStr>
   111c8:	00004517          	auipc	a0,0x4
   111cc:	84550513          	addi	a0,a0,-1979 # 14a0d <end_signature+0x94d>
   111d0:	631010ef          	jal	ra,13000 <FN_WriteStr>
   111d4:	00004517          	auipc	a0,0x4
   111d8:	84150513          	addi	a0,a0,-1983 # 14a15 <end_signature+0x955>
   111dc:	625010ef          	jal	ra,13000 <FN_WriteStr>
   111e0:	00004517          	auipc	a0,0x4
   111e4:	83950513          	addi	a0,a0,-1991 # 14a19 <end_signature+0x959>
   111e8:	619010ef          	jal	ra,13000 <FN_WriteStr>
   111ec:	00004517          	auipc	a0,0x4
   111f0:	83050513          	addi	a0,a0,-2000 # 14a1c <end_signature+0x95c>
   111f4:	60d010ef          	jal	ra,13000 <FN_WriteStr>
   111f8:	00004517          	auipc	a0,0x4
   111fc:	82850513          	addi	a0,a0,-2008 # 14a20 <end_signature+0x960>
   11200:	601010ef          	jal	ra,13000 <FN_WriteStr>
   11204:	000a0513          	mv	a0,s4
   11208:	615010ef          	jal	ra,1301c <FN_WriteA0>
   1120c:	00004517          	auipc	a0,0x4
   11210:	81650513          	addi	a0,a0,-2026 # 14a22 <end_signature+0x962>
   11214:	5ed010ef          	jal	ra,13000 <FN_WriteStr>
   11218:	00004517          	auipc	a0,0x4
   1121c:	81050513          	addi	a0,a0,-2032 # 14a28 <end_signature+0x968>
   11220:	5e1010ef          	jal	ra,13000 <FN_WriteStr>
   11224:	00004517          	auipc	a0,0x4
   11228:	80f50513          	addi	a0,a0,-2033 # 14a33 <end_signature+0x973>
   1122c:	5d5010ef          	jal	ra,13000 <FN_WriteStr>
   11230:	06400193          	li	gp,100
   11234:	0000100f          	fence.i
   11238:	00018063          	beqz	gp,11238 <reset_vector+0x11ec>
   1123c:	00119193          	slli	gp,gp,0x1
   11240:	0011e193          	ori	gp,gp,1
   11244:	00000073          	ecall
   11248:	fff00293          	li	t0,-1
   1124c:	085a8e63          	beq	s5,t0,112e8 <reset_vector+0x129c>
   11250:	00003517          	auipc	a0,0x3
   11254:	7e550513          	addi	a0,a0,2021 # 14a35 <end_signature+0x975>
   11258:	5a9010ef          	jal	ra,13000 <FN_WriteStr>
   1125c:	00003517          	auipc	a0,0x3
   11260:	7f450513          	addi	a0,a0,2036 # 14a50 <end_signature+0x990>
   11264:	59d010ef          	jal	ra,13000 <FN_WriteStr>
   11268:	00003517          	auipc	a0,0x3
   1126c:	7f750513          	addi	a0,a0,2039 # 14a5f <end_signature+0x99f>
   11270:	591010ef          	jal	ra,13000 <FN_WriteStr>
   11274:	00003517          	auipc	a0,0x3
   11278:	7f350513          	addi	a0,a0,2035 # 14a67 <end_signature+0x9a7>
   1127c:	585010ef          	jal	ra,13000 <FN_WriteStr>
   11280:	00003517          	auipc	a0,0x3
   11284:	7eb50513          	addi	a0,a0,2027 # 14a6b <end_signature+0x9ab>
   11288:	579010ef          	jal	ra,13000 <FN_WriteStr>
   1128c:	00003517          	auipc	a0,0x3
   11290:	7e250513          	addi	a0,a0,2018 # 14a6e <end_signature+0x9ae>
   11294:	56d010ef          	jal	ra,13000 <FN_WriteStr>
   11298:	00003517          	auipc	a0,0x3
   1129c:	7da50513          	addi	a0,a0,2010 # 14a72 <end_signature+0x9b2>
   112a0:	561010ef          	jal	ra,13000 <FN_WriteStr>
   112a4:	000a8513          	mv	a0,s5
   112a8:	575010ef          	jal	ra,1301c <FN_WriteA0>
   112ac:	00003517          	auipc	a0,0x3
   112b0:	7c850513          	addi	a0,a0,1992 # 14a74 <end_signature+0x9b4>
   112b4:	54d010ef          	jal	ra,13000 <FN_WriteStr>
   112b8:	00003517          	auipc	a0,0x3
   112bc:	7c250513          	addi	a0,a0,1986 # 14a7a <end_signature+0x9ba>
   112c0:	541010ef          	jal	ra,13000 <FN_WriteStr>
   112c4:	00003517          	auipc	a0,0x3
   112c8:	7c150513          	addi	a0,a0,1985 # 14a85 <end_signature+0x9c5>
   112cc:	535010ef          	jal	ra,13000 <FN_WriteStr>
   112d0:	06400193          	li	gp,100
   112d4:	0000100f          	fence.i
   112d8:	00018063          	beqz	gp,112d8 <reset_vector+0x128c>
   112dc:	00119193          	slli	gp,gp,0x1
   112e0:	0011e193          	ori	gp,gp,1
   112e4:	00000073          	ecall
   112e8:	800002b7          	lui	t0,0x80000
   112ec:	fff28293          	addi	t0,t0,-1 # 7fffffff <_end+0x7ffeaf87>
   112f0:	085b0e63          	beq	s6,t0,1138c <reset_vector+0x1340>
   112f4:	00003517          	auipc	a0,0x3
   112f8:	79350513          	addi	a0,a0,1939 # 14a87 <end_signature+0x9c7>
   112fc:	505010ef          	jal	ra,13000 <FN_WriteStr>
   11300:	00003517          	auipc	a0,0x3
   11304:	7a250513          	addi	a0,a0,1954 # 14aa2 <end_signature+0x9e2>
   11308:	4f9010ef          	jal	ra,13000 <FN_WriteStr>
   1130c:	00003517          	auipc	a0,0x3
   11310:	7a550513          	addi	a0,a0,1957 # 14ab1 <end_signature+0x9f1>
   11314:	4ed010ef          	jal	ra,13000 <FN_WriteStr>
   11318:	00003517          	auipc	a0,0x3
   1131c:	7a150513          	addi	a0,a0,1953 # 14ab9 <end_signature+0x9f9>
   11320:	4e1010ef          	jal	ra,13000 <FN_WriteStr>
   11324:	00003517          	auipc	a0,0x3
   11328:	79950513          	addi	a0,a0,1945 # 14abd <end_signature+0x9fd>
   1132c:	4d5010ef          	jal	ra,13000 <FN_WriteStr>
   11330:	00003517          	auipc	a0,0x3
   11334:	79050513          	addi	a0,a0,1936 # 14ac0 <end_signature+0xa00>
   11338:	4c9010ef          	jal	ra,13000 <FN_WriteStr>
   1133c:	00003517          	auipc	a0,0x3
   11340:	78850513          	addi	a0,a0,1928 # 14ac4 <end_signature+0xa04>
   11344:	4bd010ef          	jal	ra,13000 <FN_WriteStr>
   11348:	000b0513          	mv	a0,s6
   1134c:	4d1010ef          	jal	ra,1301c <FN_WriteA0>
   11350:	00003517          	auipc	a0,0x3
   11354:	77650513          	addi	a0,a0,1910 # 14ac6 <end_signature+0xa06>
   11358:	4a9010ef          	jal	ra,13000 <FN_WriteStr>
   1135c:	00003517          	auipc	a0,0x3
   11360:	77050513          	addi	a0,a0,1904 # 14acc <end_signature+0xa0c>
   11364:	49d010ef          	jal	ra,13000 <FN_WriteStr>
   11368:	00003517          	auipc	a0,0x3
   1136c:	76f50513          	addi	a0,a0,1903 # 14ad7 <end_signature+0xa17>
   11370:	491010ef          	jal	ra,13000 <FN_WriteStr>
   11374:	06400193          	li	gp,100
   11378:	0000100f          	fence.i
   1137c:	00018063          	beqz	gp,1137c <reset_vector+0x1330>
   11380:	00119193          	slli	gp,gp,0x1
   11384:	0011e193          	ori	gp,gp,1
   11388:	00000073          	ecall
   1138c:	800002b7          	lui	t0,0x80000
   11390:	085b8e63          	beq	s7,t0,1142c <reset_vector+0x13e0>
   11394:	00003517          	auipc	a0,0x3
   11398:	74550513          	addi	a0,a0,1861 # 14ad9 <end_signature+0xa19>
   1139c:	465010ef          	jal	ra,13000 <FN_WriteStr>
   113a0:	00003517          	auipc	a0,0x3
   113a4:	75450513          	addi	a0,a0,1876 # 14af4 <end_signature+0xa34>
   113a8:	459010ef          	jal	ra,13000 <FN_WriteStr>
   113ac:	00003517          	auipc	a0,0x3
   113b0:	75750513          	addi	a0,a0,1879 # 14b03 <end_signature+0xa43>
   113b4:	44d010ef          	jal	ra,13000 <FN_WriteStr>
   113b8:	00003517          	auipc	a0,0x3
   113bc:	75350513          	addi	a0,a0,1875 # 14b0b <end_signature+0xa4b>
   113c0:	441010ef          	jal	ra,13000 <FN_WriteStr>
   113c4:	00003517          	auipc	a0,0x3
   113c8:	74b50513          	addi	a0,a0,1867 # 14b0f <end_signature+0xa4f>
   113cc:	435010ef          	jal	ra,13000 <FN_WriteStr>
   113d0:	00003517          	auipc	a0,0x3
   113d4:	74250513          	addi	a0,a0,1858 # 14b12 <end_signature+0xa52>
   113d8:	429010ef          	jal	ra,13000 <FN_WriteStr>
   113dc:	00003517          	auipc	a0,0x3
   113e0:	73a50513          	addi	a0,a0,1850 # 14b16 <end_signature+0xa56>
   113e4:	41d010ef          	jal	ra,13000 <FN_WriteStr>
   113e8:	000b8513          	mv	a0,s7
   113ec:	431010ef          	jal	ra,1301c <FN_WriteA0>
   113f0:	00003517          	auipc	a0,0x3
   113f4:	72850513          	addi	a0,a0,1832 # 14b18 <end_signature+0xa58>
   113f8:	409010ef          	jal	ra,13000 <FN_WriteStr>
   113fc:	00003517          	auipc	a0,0x3
   11400:	72250513          	addi	a0,a0,1826 # 14b1e <end_signature+0xa5e>
   11404:	3fd010ef          	jal	ra,13000 <FN_WriteStr>
   11408:	00003517          	auipc	a0,0x3
   1140c:	72150513          	addi	a0,a0,1825 # 14b29 <end_signature+0xa69>
   11410:	3f1010ef          	jal	ra,13000 <FN_WriteStr>
   11414:	06400193          	li	gp,100
   11418:	0000100f          	fence.i
   1141c:	00018063          	beqz	gp,1141c <reset_vector+0x13d0>
   11420:	00119193          	slli	gp,gp,0x1
   11424:	0011e193          	ori	gp,gp,1
   11428:	00000073          	ecall
   1142c:	01f00293          	li	t0,31
   11430:	085f8e63          	beq	t6,t0,114cc <reset_vector+0x1480>
   11434:	00003517          	auipc	a0,0x3
   11438:	6f750513          	addi	a0,a0,1783 # 14b2b <end_signature+0xa6b>
   1143c:	3c5010ef          	jal	ra,13000 <FN_WriteStr>
   11440:	00003517          	auipc	a0,0x3
   11444:	70650513          	addi	a0,a0,1798 # 14b46 <end_signature+0xa86>
   11448:	3b9010ef          	jal	ra,13000 <FN_WriteStr>
   1144c:	00003517          	auipc	a0,0x3
   11450:	70950513          	addi	a0,a0,1801 # 14b55 <end_signature+0xa95>
   11454:	3ad010ef          	jal	ra,13000 <FN_WriteStr>
   11458:	00003517          	auipc	a0,0x3
   1145c:	70550513          	addi	a0,a0,1797 # 14b5d <end_signature+0xa9d>
   11460:	3a1010ef          	jal	ra,13000 <FN_WriteStr>
   11464:	00003517          	auipc	a0,0x3
   11468:	6fd50513          	addi	a0,a0,1789 # 14b61 <end_signature+0xaa1>
   1146c:	395010ef          	jal	ra,13000 <FN_WriteStr>
   11470:	00003517          	auipc	a0,0x3
   11474:	6f450513          	addi	a0,a0,1780 # 14b64 <end_signature+0xaa4>
   11478:	389010ef          	jal	ra,13000 <FN_WriteStr>
   1147c:	00003517          	auipc	a0,0x3
   11480:	6ec50513          	addi	a0,a0,1772 # 14b68 <end_signature+0xaa8>
   11484:	37d010ef          	jal	ra,13000 <FN_WriteStr>
   11488:	000f8513          	mv	a0,t6
   1148c:	391010ef          	jal	ra,1301c <FN_WriteA0>
   11490:	00003517          	auipc	a0,0x3
   11494:	6da50513          	addi	a0,a0,1754 # 14b6a <end_signature+0xaaa>
   11498:	369010ef          	jal	ra,13000 <FN_WriteStr>
   1149c:	00003517          	auipc	a0,0x3
   114a0:	6d450513          	addi	a0,a0,1748 # 14b70 <end_signature+0xab0>
   114a4:	35d010ef          	jal	ra,13000 <FN_WriteStr>
   114a8:	00003517          	auipc	a0,0x3
   114ac:	6d350513          	addi	a0,a0,1747 # 14b7b <end_signature+0xabb>
   114b0:	351010ef          	jal	ra,13000 <FN_WriteStr>
   114b4:	06400193          	li	gp,100
   114b8:	0000100f          	fence.i
   114bc:	00018063          	beqz	gp,114bc <reset_vector+0x1470>
   114c0:	00119193          	slli	gp,gp,0x1
   114c4:	0011e193          	ori	gp,gp,1
   114c8:	00000073          	ecall
   114cc:	00003517          	auipc	a0,0x3
   114d0:	6b150513          	addi	a0,a0,1713 # 14b7d <end_signature+0xabd>
   114d4:	32d010ef          	jal	ra,13000 <FN_WriteStr>
   114d8:	00003517          	auipc	a0,0x3
   114dc:	6c150513          	addi	a0,a0,1729 # 14b99 <end_signature+0xad9>
   114e0:	321010ef          	jal	ra,13000 <FN_WriteStr>
   114e4:	00003097          	auipc	ra,0x3
   114e8:	b2c08093          	addi	ra,ra,-1236 # 14010 <test_A5_data>
   114ec:	00003117          	auipc	sp,0x3
   114f0:	ba410113          	addi	sp,sp,-1116 # 14090 <test_A5_res>
   114f4:	0000ac03          	lw	s8,0(ra)
   114f8:	00000c93          	li	s9,0
   114fc:	00100d13          	li	s10,1
   11500:	fff00d93          	li	s11,-1
   11504:	80000e37          	lui	t3,0x80000
   11508:	fffe0e13          	addi	t3,t3,-1 # 7fffffff <_end+0x7ffeaf87>
   1150c:	80000eb7          	lui	t4,0x80000
   11510:	00000f93          	li	t6,0
   11514:	019c4463          	blt	s8,s9,1151c <reset_vector+0x14d0>
   11518:	001fef93          	ori	t6,t6,1
   1151c:	01ac4463          	blt	s8,s10,11524 <reset_vector+0x14d8>
   11520:	002fef93          	ori	t6,t6,2
   11524:	01bc4463          	blt	s8,s11,1152c <reset_vector+0x14e0>
   11528:	004fef93          	ori	t6,t6,4
   1152c:	01cc4463          	blt	s8,t3,11534 <reset_vector+0x14e8>
   11530:	008fef93          	ori	t6,t6,8
   11534:	01dc4463          	blt	s8,t4,1153c <reset_vector+0x14f0>
   11538:	010fef93          	ori	t6,t6,16
   1153c:	01812023          	sw	s8,0(sp)
   11540:	01912223          	sw	s9,4(sp)
   11544:	01a12423          	sw	s10,8(sp)
   11548:	01b12623          	sw	s11,12(sp)
   1154c:	01c12823          	sw	t3,16(sp)
   11550:	01d12a23          	sw	t4,20(sp)
   11554:	01f12c23          	sw	t6,24(sp)
   11558:	800002b7          	lui	t0,0x80000
   1155c:	085c0e63          	beq	s8,t0,115f8 <reset_vector+0x15ac>
   11560:	00003517          	auipc	a0,0x3
   11564:	69450513          	addi	a0,a0,1684 # 14bf4 <end_signature+0xb34>
   11568:	299010ef          	jal	ra,13000 <FN_WriteStr>
   1156c:	00003517          	auipc	a0,0x3
   11570:	6a350513          	addi	a0,a0,1699 # 14c0f <end_signature+0xb4f>
   11574:	28d010ef          	jal	ra,13000 <FN_WriteStr>
   11578:	00003517          	auipc	a0,0x3
   1157c:	6a650513          	addi	a0,a0,1702 # 14c1e <end_signature+0xb5e>
   11580:	281010ef          	jal	ra,13000 <FN_WriteStr>
   11584:	00003517          	auipc	a0,0x3
   11588:	6a250513          	addi	a0,a0,1698 # 14c26 <end_signature+0xb66>
   1158c:	275010ef          	jal	ra,13000 <FN_WriteStr>
   11590:	00003517          	auipc	a0,0x3
   11594:	69a50513          	addi	a0,a0,1690 # 14c2a <end_signature+0xb6a>
   11598:	269010ef          	jal	ra,13000 <FN_WriteStr>
   1159c:	00003517          	auipc	a0,0x3
   115a0:	69150513          	addi	a0,a0,1681 # 14c2d <end_signature+0xb6d>
   115a4:	25d010ef          	jal	ra,13000 <FN_WriteStr>
   115a8:	00003517          	auipc	a0,0x3
   115ac:	68950513          	addi	a0,a0,1673 # 14c31 <end_signature+0xb71>
   115b0:	251010ef          	jal	ra,13000 <FN_WriteStr>
   115b4:	000c0513          	mv	a0,s8
   115b8:	265010ef          	jal	ra,1301c <FN_WriteA0>
   115bc:	00003517          	auipc	a0,0x3
   115c0:	67750513          	addi	a0,a0,1655 # 14c33 <end_signature+0xb73>
   115c4:	23d010ef          	jal	ra,13000 <FN_WriteStr>
   115c8:	00003517          	auipc	a0,0x3
   115cc:	67150513          	addi	a0,a0,1649 # 14c39 <end_signature+0xb79>
   115d0:	231010ef          	jal	ra,13000 <FN_WriteStr>
   115d4:	00003517          	auipc	a0,0x3
   115d8:	67050513          	addi	a0,a0,1648 # 14c44 <end_signature+0xb84>
   115dc:	225010ef          	jal	ra,13000 <FN_WriteStr>
   115e0:	06400193          	li	gp,100
   115e4:	0000100f          	fence.i
   115e8:	00018063          	beqz	gp,115e8 <reset_vector+0x159c>
   115ec:	00119193          	slli	gp,gp,0x1
   115f0:	0011e193          	ori	gp,gp,1
   115f4:	00000073          	ecall
   115f8:	00000293          	li	t0,0
   115fc:	085c8e63          	beq	s9,t0,11698 <reset_vector+0x164c>
   11600:	00003517          	auipc	a0,0x3
   11604:	64650513          	addi	a0,a0,1606 # 14c46 <end_signature+0xb86>
   11608:	1f9010ef          	jal	ra,13000 <FN_WriteStr>
   1160c:	00003517          	auipc	a0,0x3
   11610:	65550513          	addi	a0,a0,1621 # 14c61 <end_signature+0xba1>
   11614:	1ed010ef          	jal	ra,13000 <FN_WriteStr>
   11618:	00003517          	auipc	a0,0x3
   1161c:	65850513          	addi	a0,a0,1624 # 14c70 <end_signature+0xbb0>
   11620:	1e1010ef          	jal	ra,13000 <FN_WriteStr>
   11624:	00003517          	auipc	a0,0x3
   11628:	65450513          	addi	a0,a0,1620 # 14c78 <end_signature+0xbb8>
   1162c:	1d5010ef          	jal	ra,13000 <FN_WriteStr>
   11630:	00003517          	auipc	a0,0x3
   11634:	64c50513          	addi	a0,a0,1612 # 14c7c <end_signature+0xbbc>
   11638:	1c9010ef          	jal	ra,13000 <FN_WriteStr>
   1163c:	00003517          	auipc	a0,0x3
   11640:	64350513          	addi	a0,a0,1603 # 14c7f <end_signature+0xbbf>
   11644:	1bd010ef          	jal	ra,13000 <FN_WriteStr>
   11648:	00003517          	auipc	a0,0x3
   1164c:	63b50513          	addi	a0,a0,1595 # 14c83 <end_signature+0xbc3>
   11650:	1b1010ef          	jal	ra,13000 <FN_WriteStr>
   11654:	000c8513          	mv	a0,s9
   11658:	1c5010ef          	jal	ra,1301c <FN_WriteA0>
   1165c:	00003517          	auipc	a0,0x3
   11660:	62950513          	addi	a0,a0,1577 # 14c85 <end_signature+0xbc5>
   11664:	19d010ef          	jal	ra,13000 <FN_WriteStr>
   11668:	00003517          	auipc	a0,0x3
   1166c:	62350513          	addi	a0,a0,1571 # 14c8b <end_signature+0xbcb>
   11670:	191010ef          	jal	ra,13000 <FN_WriteStr>
   11674:	00003517          	auipc	a0,0x3
   11678:	62250513          	addi	a0,a0,1570 # 14c96 <end_signature+0xbd6>
   1167c:	185010ef          	jal	ra,13000 <FN_WriteStr>
   11680:	06400193          	li	gp,100
   11684:	0000100f          	fence.i
   11688:	00018063          	beqz	gp,11688 <reset_vector+0x163c>
   1168c:	00119193          	slli	gp,gp,0x1
   11690:	0011e193          	ori	gp,gp,1
   11694:	00000073          	ecall
   11698:	00100293          	li	t0,1
   1169c:	085d0e63          	beq	s10,t0,11738 <reset_vector+0x16ec>
   116a0:	00003517          	auipc	a0,0x3
   116a4:	5f850513          	addi	a0,a0,1528 # 14c98 <end_signature+0xbd8>
   116a8:	159010ef          	jal	ra,13000 <FN_WriteStr>
   116ac:	00003517          	auipc	a0,0x3
   116b0:	60750513          	addi	a0,a0,1543 # 14cb3 <end_signature+0xbf3>
   116b4:	14d010ef          	jal	ra,13000 <FN_WriteStr>
   116b8:	00003517          	auipc	a0,0x3
   116bc:	60a50513          	addi	a0,a0,1546 # 14cc2 <end_signature+0xc02>
   116c0:	141010ef          	jal	ra,13000 <FN_WriteStr>
   116c4:	00003517          	auipc	a0,0x3
   116c8:	60650513          	addi	a0,a0,1542 # 14cca <end_signature+0xc0a>
   116cc:	135010ef          	jal	ra,13000 <FN_WriteStr>
   116d0:	00003517          	auipc	a0,0x3
   116d4:	5fe50513          	addi	a0,a0,1534 # 14cce <end_signature+0xc0e>
   116d8:	129010ef          	jal	ra,13000 <FN_WriteStr>
   116dc:	00003517          	auipc	a0,0x3
   116e0:	5f550513          	addi	a0,a0,1525 # 14cd1 <end_signature+0xc11>
   116e4:	11d010ef          	jal	ra,13000 <FN_WriteStr>
   116e8:	00003517          	auipc	a0,0x3
   116ec:	5ed50513          	addi	a0,a0,1517 # 14cd5 <end_signature+0xc15>
   116f0:	111010ef          	jal	ra,13000 <FN_WriteStr>
   116f4:	000d0513          	mv	a0,s10
   116f8:	125010ef          	jal	ra,1301c <FN_WriteA0>
   116fc:	00003517          	auipc	a0,0x3
   11700:	5db50513          	addi	a0,a0,1499 # 14cd7 <end_signature+0xc17>
   11704:	0fd010ef          	jal	ra,13000 <FN_WriteStr>
   11708:	00003517          	auipc	a0,0x3
   1170c:	5d550513          	addi	a0,a0,1493 # 14cdd <end_signature+0xc1d>
   11710:	0f1010ef          	jal	ra,13000 <FN_WriteStr>
   11714:	00003517          	auipc	a0,0x3
   11718:	5d450513          	addi	a0,a0,1492 # 14ce8 <end_signature+0xc28>
   1171c:	0e5010ef          	jal	ra,13000 <FN_WriteStr>
   11720:	06400193          	li	gp,100
   11724:	0000100f          	fence.i
   11728:	00018063          	beqz	gp,11728 <reset_vector+0x16dc>
   1172c:	00119193          	slli	gp,gp,0x1
   11730:	0011e193          	ori	gp,gp,1
   11734:	00000073          	ecall
   11738:	fff00293          	li	t0,-1
   1173c:	085d8e63          	beq	s11,t0,117d8 <reset_vector+0x178c>
   11740:	00003517          	auipc	a0,0x3
   11744:	5aa50513          	addi	a0,a0,1450 # 14cea <end_signature+0xc2a>
   11748:	0b9010ef          	jal	ra,13000 <FN_WriteStr>
   1174c:	00003517          	auipc	a0,0x3
   11750:	5b950513          	addi	a0,a0,1465 # 14d05 <end_signature+0xc45>
   11754:	0ad010ef          	jal	ra,13000 <FN_WriteStr>
   11758:	00003517          	auipc	a0,0x3
   1175c:	5bc50513          	addi	a0,a0,1468 # 14d14 <end_signature+0xc54>
   11760:	0a1010ef          	jal	ra,13000 <FN_WriteStr>
   11764:	00003517          	auipc	a0,0x3
   11768:	5b850513          	addi	a0,a0,1464 # 14d1c <end_signature+0xc5c>
   1176c:	095010ef          	jal	ra,13000 <FN_WriteStr>
   11770:	00003517          	auipc	a0,0x3
   11774:	5b050513          	addi	a0,a0,1456 # 14d20 <end_signature+0xc60>
   11778:	089010ef          	jal	ra,13000 <FN_WriteStr>
   1177c:	00003517          	auipc	a0,0x3
   11780:	5a750513          	addi	a0,a0,1447 # 14d23 <end_signature+0xc63>
   11784:	07d010ef          	jal	ra,13000 <FN_WriteStr>
   11788:	00003517          	auipc	a0,0x3
   1178c:	59f50513          	addi	a0,a0,1439 # 14d27 <end_signature+0xc67>
   11790:	071010ef          	jal	ra,13000 <FN_WriteStr>
   11794:	000d8513          	mv	a0,s11
   11798:	085010ef          	jal	ra,1301c <FN_WriteA0>
   1179c:	00003517          	auipc	a0,0x3
   117a0:	58d50513          	addi	a0,a0,1421 # 14d29 <end_signature+0xc69>
   117a4:	05d010ef          	jal	ra,13000 <FN_WriteStr>
   117a8:	00003517          	auipc	a0,0x3
   117ac:	58750513          	addi	a0,a0,1415 # 14d2f <end_signature+0xc6f>
   117b0:	051010ef          	jal	ra,13000 <FN_WriteStr>
   117b4:	00003517          	auipc	a0,0x3
   117b8:	58650513          	addi	a0,a0,1414 # 14d3a <end_signature+0xc7a>
   117bc:	045010ef          	jal	ra,13000 <FN_WriteStr>
   117c0:	06400193          	li	gp,100
   117c4:	0000100f          	fence.i
   117c8:	00018063          	beqz	gp,117c8 <reset_vector+0x177c>
   117cc:	00119193          	slli	gp,gp,0x1
   117d0:	0011e193          	ori	gp,gp,1
   117d4:	00000073          	ecall
   117d8:	800002b7          	lui	t0,0x80000
   117dc:	fff28293          	addi	t0,t0,-1 # 7fffffff <_end+0x7ffeaf87>
   117e0:	085e0e63          	beq	t3,t0,1187c <reset_vector+0x1830>
   117e4:	00003517          	auipc	a0,0x3
   117e8:	55850513          	addi	a0,a0,1368 # 14d3c <end_signature+0xc7c>
   117ec:	015010ef          	jal	ra,13000 <FN_WriteStr>
   117f0:	00003517          	auipc	a0,0x3
   117f4:	56750513          	addi	a0,a0,1383 # 14d57 <end_signature+0xc97>
   117f8:	009010ef          	jal	ra,13000 <FN_WriteStr>
   117fc:	00003517          	auipc	a0,0x3
   11800:	56a50513          	addi	a0,a0,1386 # 14d66 <end_signature+0xca6>
   11804:	7fc010ef          	jal	ra,13000 <FN_WriteStr>
   11808:	00003517          	auipc	a0,0x3
   1180c:	56650513          	addi	a0,a0,1382 # 14d6e <end_signature+0xcae>
   11810:	7f0010ef          	jal	ra,13000 <FN_WriteStr>
   11814:	00003517          	auipc	a0,0x3
   11818:	55e50513          	addi	a0,a0,1374 # 14d72 <end_signature+0xcb2>
   1181c:	7e4010ef          	jal	ra,13000 <FN_WriteStr>
   11820:	00003517          	auipc	a0,0x3
   11824:	55550513          	addi	a0,a0,1365 # 14d75 <end_signature+0xcb5>
   11828:	7d8010ef          	jal	ra,13000 <FN_WriteStr>
   1182c:	00003517          	auipc	a0,0x3
   11830:	54d50513          	addi	a0,a0,1357 # 14d79 <end_signature+0xcb9>
   11834:	7cc010ef          	jal	ra,13000 <FN_WriteStr>
   11838:	000e0513          	mv	a0,t3
   1183c:	7e0010ef          	jal	ra,1301c <FN_WriteA0>
   11840:	00003517          	auipc	a0,0x3
   11844:	53b50513          	addi	a0,a0,1339 # 14d7b <end_signature+0xcbb>
   11848:	7b8010ef          	jal	ra,13000 <FN_WriteStr>
   1184c:	00003517          	auipc	a0,0x3
   11850:	53550513          	addi	a0,a0,1333 # 14d81 <end_signature+0xcc1>
   11854:	7ac010ef          	jal	ra,13000 <FN_WriteStr>
   11858:	00003517          	auipc	a0,0x3
   1185c:	53450513          	addi	a0,a0,1332 # 14d8c <end_signature+0xccc>
   11860:	7a0010ef          	jal	ra,13000 <FN_WriteStr>
   11864:	06400193          	li	gp,100
   11868:	0000100f          	fence.i
   1186c:	00018063          	beqz	gp,1186c <reset_vector+0x1820>
   11870:	00119193          	slli	gp,gp,0x1
   11874:	0011e193          	ori	gp,gp,1
   11878:	00000073          	ecall
   1187c:	800002b7          	lui	t0,0x80000
   11880:	085e8e63          	beq	t4,t0,1191c <reset_vector+0x18d0>
   11884:	00003517          	auipc	a0,0x3
   11888:	50a50513          	addi	a0,a0,1290 # 14d8e <end_signature+0xcce>
   1188c:	774010ef          	jal	ra,13000 <FN_WriteStr>
   11890:	00003517          	auipc	a0,0x3
   11894:	51950513          	addi	a0,a0,1305 # 14da9 <end_signature+0xce9>
   11898:	768010ef          	jal	ra,13000 <FN_WriteStr>
   1189c:	00003517          	auipc	a0,0x3
   118a0:	51c50513          	addi	a0,a0,1308 # 14db8 <end_signature+0xcf8>
   118a4:	75c010ef          	jal	ra,13000 <FN_WriteStr>
   118a8:	00003517          	auipc	a0,0x3
   118ac:	51850513          	addi	a0,a0,1304 # 14dc0 <end_signature+0xd00>
   118b0:	750010ef          	jal	ra,13000 <FN_WriteStr>
   118b4:	00003517          	auipc	a0,0x3
   118b8:	51050513          	addi	a0,a0,1296 # 14dc4 <end_signature+0xd04>
   118bc:	744010ef          	jal	ra,13000 <FN_WriteStr>
   118c0:	00003517          	auipc	a0,0x3
   118c4:	50750513          	addi	a0,a0,1287 # 14dc7 <end_signature+0xd07>
   118c8:	738010ef          	jal	ra,13000 <FN_WriteStr>
   118cc:	00003517          	auipc	a0,0x3
   118d0:	4ff50513          	addi	a0,a0,1279 # 14dcb <end_signature+0xd0b>
   118d4:	72c010ef          	jal	ra,13000 <FN_WriteStr>
   118d8:	000e8513          	mv	a0,t4
   118dc:	740010ef          	jal	ra,1301c <FN_WriteA0>
   118e0:	00003517          	auipc	a0,0x3
   118e4:	4ed50513          	addi	a0,a0,1261 # 14dcd <end_signature+0xd0d>
   118e8:	718010ef          	jal	ra,13000 <FN_WriteStr>
   118ec:	00003517          	auipc	a0,0x3
   118f0:	4e750513          	addi	a0,a0,1255 # 14dd3 <end_signature+0xd13>
   118f4:	70c010ef          	jal	ra,13000 <FN_WriteStr>
   118f8:	00003517          	auipc	a0,0x3
   118fc:	4e650513          	addi	a0,a0,1254 # 14dde <end_signature+0xd1e>
   11900:	700010ef          	jal	ra,13000 <FN_WriteStr>
   11904:	06400193          	li	gp,100
   11908:	0000100f          	fence.i
   1190c:	00018063          	beqz	gp,1190c <reset_vector+0x18c0>
   11910:	00119193          	slli	gp,gp,0x1
   11914:	0011e193          	ori	gp,gp,1
   11918:	00000073          	ecall
   1191c:	01000293          	li	t0,16
   11920:	085f8e63          	beq	t6,t0,119bc <reset_vector+0x1970>
   11924:	00003517          	auipc	a0,0x3
   11928:	4bc50513          	addi	a0,a0,1212 # 14de0 <end_signature+0xd20>
   1192c:	6d4010ef          	jal	ra,13000 <FN_WriteStr>
   11930:	00003517          	auipc	a0,0x3
   11934:	4cb50513          	addi	a0,a0,1227 # 14dfb <end_signature+0xd3b>
   11938:	6c8010ef          	jal	ra,13000 <FN_WriteStr>
   1193c:	00003517          	auipc	a0,0x3
   11940:	4ce50513          	addi	a0,a0,1230 # 14e0a <end_signature+0xd4a>
   11944:	6bc010ef          	jal	ra,13000 <FN_WriteStr>
   11948:	00003517          	auipc	a0,0x3
   1194c:	4ca50513          	addi	a0,a0,1226 # 14e12 <end_signature+0xd52>
   11950:	6b0010ef          	jal	ra,13000 <FN_WriteStr>
   11954:	00003517          	auipc	a0,0x3
   11958:	4c250513          	addi	a0,a0,1218 # 14e16 <end_signature+0xd56>
   1195c:	6a4010ef          	jal	ra,13000 <FN_WriteStr>
   11960:	00003517          	auipc	a0,0x3
   11964:	4b950513          	addi	a0,a0,1209 # 14e19 <end_signature+0xd59>
   11968:	698010ef          	jal	ra,13000 <FN_WriteStr>
   1196c:	00003517          	auipc	a0,0x3
   11970:	4b150513          	addi	a0,a0,1201 # 14e1d <end_signature+0xd5d>
   11974:	68c010ef          	jal	ra,13000 <FN_WriteStr>
   11978:	000f8513          	mv	a0,t6
   1197c:	6a0010ef          	jal	ra,1301c <FN_WriteA0>
   11980:	00003517          	auipc	a0,0x3
   11984:	49f50513          	addi	a0,a0,1183 # 14e1f <end_signature+0xd5f>
   11988:	678010ef          	jal	ra,13000 <FN_WriteStr>
   1198c:	00003517          	auipc	a0,0x3
   11990:	49950513          	addi	a0,a0,1177 # 14e25 <end_signature+0xd65>
   11994:	66c010ef          	jal	ra,13000 <FN_WriteStr>
   11998:	00003517          	auipc	a0,0x3
   1199c:	49850513          	addi	a0,a0,1176 # 14e30 <end_signature+0xd70>
   119a0:	660010ef          	jal	ra,13000 <FN_WriteStr>
   119a4:	06400193          	li	gp,100
   119a8:	0000100f          	fence.i
   119ac:	00018063          	beqz	gp,119ac <reset_vector+0x1960>
   119b0:	00119193          	slli	gp,gp,0x1
   119b4:	0011e193          	ori	gp,gp,1
   119b8:	00000073          	ecall
   119bc:	00003517          	auipc	a0,0x3
   119c0:	47650513          	addi	a0,a0,1142 # 14e32 <end_signature+0xd72>
   119c4:	63c010ef          	jal	ra,13000 <FN_WriteStr>
   119c8:	00003517          	auipc	a0,0x3
   119cc:	48650513          	addi	a0,a0,1158 # 14e4e <end_signature+0xd8e>
   119d0:	630010ef          	jal	ra,13000 <FN_WriteStr>
   119d4:	00002d97          	auipc	s11,0x2
   119d8:	6d8d8d93          	addi	s11,s11,1752 # 140ac <test_B_res>
   119dc:	00000093          	li	ra,0
   119e0:	00100113          	li	sp,1
   119e4:	fff00193          	li	gp,-1
   119e8:	80000237          	lui	tp,0x80000
   119ec:	fff20213          	addi	tp,tp,-1 # 7fffffff <_end+0x7ffeaf87>
   119f0:	800002b7          	lui	t0,0x80000
   119f4:	00000f93          	li	t6,0
   119f8:	0000c463          	bltz	ra,11a00 <reset_vector+0x19b4>
   119fc:	001fef93          	ori	t6,t6,1
   11a00:	00014463          	bltz	sp,11a08 <reset_vector+0x19bc>
   11a04:	002fef93          	ori	t6,t6,2
   11a08:	0001c463          	bltz	gp,11a10 <reset_vector+0x19c4>
   11a0c:	004fef93          	ori	t6,t6,4
   11a10:	00024463          	bltz	tp,11a18 <reset_vector+0x19cc>
   11a14:	008fef93          	ori	t6,t6,8
   11a18:	0002c463          	bltz	t0,11a20 <reset_vector+0x19d4>
   11a1c:	010fef93          	ori	t6,t6,16
   11a20:	00104463          	bgtz	ra,11a28 <reset_vector+0x19dc>
   11a24:	020fef93          	ori	t6,t6,32
   11a28:	00204463          	bgtz	sp,11a30 <reset_vector+0x19e4>
   11a2c:	040fef93          	ori	t6,t6,64
   11a30:	00304463          	bgtz	gp,11a38 <reset_vector+0x19ec>
   11a34:	080fef93          	ori	t6,t6,128
   11a38:	00404463          	bgtz	tp,11a40 <reset_vector+0x19f4>
   11a3c:	100fef93          	ori	t6,t6,256
   11a40:	00504463          	bgtz	t0,11a48 <reset_vector+0x19fc>
   11a44:	200fef93          	ori	t6,t6,512
   11a48:	01fda023          	sw	t6,0(s11)
   11a4c:	2ab00293          	li	t0,683
   11a50:	085f8e63          	beq	t6,t0,11aec <reset_vector+0x1aa0>
   11a54:	00003517          	auipc	a0,0x3
   11a58:	42350513          	addi	a0,a0,1059 # 14e77 <end_signature+0xdb7>
   11a5c:	5a4010ef          	jal	ra,13000 <FN_WriteStr>
   11a60:	00003517          	auipc	a0,0x3
   11a64:	43250513          	addi	a0,a0,1074 # 14e92 <end_signature+0xdd2>
   11a68:	598010ef          	jal	ra,13000 <FN_WriteStr>
   11a6c:	00003517          	auipc	a0,0x3
   11a70:	43550513          	addi	a0,a0,1077 # 14ea1 <end_signature+0xde1>
   11a74:	58c010ef          	jal	ra,13000 <FN_WriteStr>
   11a78:	00003517          	auipc	a0,0x3
   11a7c:	43150513          	addi	a0,a0,1073 # 14ea9 <end_signature+0xde9>
   11a80:	580010ef          	jal	ra,13000 <FN_WriteStr>
   11a84:	00003517          	auipc	a0,0x3
   11a88:	42950513          	addi	a0,a0,1065 # 14ead <end_signature+0xded>
   11a8c:	574010ef          	jal	ra,13000 <FN_WriteStr>
   11a90:	00003517          	auipc	a0,0x3
   11a94:	42050513          	addi	a0,a0,1056 # 14eb0 <end_signature+0xdf0>
   11a98:	568010ef          	jal	ra,13000 <FN_WriteStr>
   11a9c:	00003517          	auipc	a0,0x3
   11aa0:	41850513          	addi	a0,a0,1048 # 14eb4 <end_signature+0xdf4>
   11aa4:	55c010ef          	jal	ra,13000 <FN_WriteStr>
   11aa8:	000f8513          	mv	a0,t6
   11aac:	570010ef          	jal	ra,1301c <FN_WriteA0>
   11ab0:	00003517          	auipc	a0,0x3
   11ab4:	40650513          	addi	a0,a0,1030 # 14eb6 <end_signature+0xdf6>
   11ab8:	548010ef          	jal	ra,13000 <FN_WriteStr>
   11abc:	00003517          	auipc	a0,0x3
   11ac0:	40050513          	addi	a0,a0,1024 # 14ebc <end_signature+0xdfc>
   11ac4:	53c010ef          	jal	ra,13000 <FN_WriteStr>
   11ac8:	00003517          	auipc	a0,0x3
   11acc:	3ff50513          	addi	a0,a0,1023 # 14ec7 <end_signature+0xe07>
   11ad0:	530010ef          	jal	ra,13000 <FN_WriteStr>
   11ad4:	06400193          	li	gp,100
   11ad8:	0000100f          	fence.i
   11adc:	00018063          	beqz	gp,11adc <reset_vector+0x1a90>
   11ae0:	00119193          	slli	gp,gp,0x1
   11ae4:	0011e193          	ori	gp,gp,1
   11ae8:	00000073          	ecall
   11aec:	00003517          	auipc	a0,0x3
   11af0:	3dd50513          	addi	a0,a0,989 # 14ec9 <end_signature+0xe09>
   11af4:	50c010ef          	jal	ra,13000 <FN_WriteStr>
   11af8:	00003517          	auipc	a0,0x3
   11afc:	3ec50513          	addi	a0,a0,1004 # 14ee4 <end_signature+0xe24>
   11b00:	500010ef          	jal	ra,13000 <FN_WriteStr>
   11b04:	00002a97          	auipc	s5,0x2
   11b08:	510a8a93          	addi	s5,s5,1296 # 14014 <test_C_data>
   11b0c:	00002b17          	auipc	s6,0x2
   11b10:	5a4b0b13          	addi	s6,s6,1444 # 140b0 <test_C_res>
   11b14:	000aaf83          	lw	t6,0(s5)
   11b18:	fff00113          	li	sp,-1
   11b1c:	fff00193          	li	gp,-1
   11b20:	0fedd237          	lui	tp,0xfedd
   11b24:	ba920213          	addi	tp,tp,-1111 # fedcba9 <_end+0xfec7b31>
   11b28:	020fc463          	bltz	t6,11b50 <reset_vector+0x1b04>
   11b2c:	00000113          	li	sp,0
   11b30:	00000193          	li	gp,0
   11b34:	00000213          	li	tp,0
   11b38:	876541b7          	lui	gp,0x87654
   11b3c:	32118193          	addi	gp,gp,801 # 87654321 <_end+0x8763f2a9>
   11b40:	020fc463          	bltz	t6,11b68 <reset_vector+0x1b1c>
   11b44:	00000113          	li	sp,0
   11b48:	00000193          	li	gp,0
   11b4c:	00000213          	li	tp,0
   11b50:	9abce137          	lui	sp,0x9abce
   11b54:	ef010113          	addi	sp,sp,-272 # 9abcdef0 <_end+0x9abb8e78>
   11b58:	fe0fc0e3          	bltz	t6,11b38 <reset_vector+0x1aec>
   11b5c:	00000113          	li	sp,0
   11b60:	00000193          	li	gp,0
   11b64:	00000213          	li	tp,0
   11b68:	000b2023          	sw	zero,0(s6)
   11b6c:	002b2223          	sw	sp,4(s6)
   11b70:	003b2423          	sw	gp,8(s6)
   11b74:	004b2623          	sw	tp,12(s6)
   11b78:	00000293          	li	t0,0
   11b7c:	08500e63          	beq	zero,t0,11c18 <reset_vector+0x1bcc>
   11b80:	00003517          	auipc	a0,0x3
   11b84:	38d50513          	addi	a0,a0,909 # 14f0d <end_signature+0xe4d>
   11b88:	478010ef          	jal	ra,13000 <FN_WriteStr>
   11b8c:	00003517          	auipc	a0,0x3
   11b90:	39c50513          	addi	a0,a0,924 # 14f28 <end_signature+0xe68>
   11b94:	46c010ef          	jal	ra,13000 <FN_WriteStr>
   11b98:	00003517          	auipc	a0,0x3
   11b9c:	39f50513          	addi	a0,a0,927 # 14f37 <end_signature+0xe77>
   11ba0:	460010ef          	jal	ra,13000 <FN_WriteStr>
   11ba4:	00003517          	auipc	a0,0x3
   11ba8:	39b50513          	addi	a0,a0,923 # 14f3f <end_signature+0xe7f>
   11bac:	454010ef          	jal	ra,13000 <FN_WriteStr>
   11bb0:	00003517          	auipc	a0,0x3
   11bb4:	39350513          	addi	a0,a0,915 # 14f43 <end_signature+0xe83>
   11bb8:	448010ef          	jal	ra,13000 <FN_WriteStr>
   11bbc:	00003517          	auipc	a0,0x3
   11bc0:	38a50513          	addi	a0,a0,906 # 14f46 <end_signature+0xe86>
   11bc4:	43c010ef          	jal	ra,13000 <FN_WriteStr>
   11bc8:	00003517          	auipc	a0,0x3
   11bcc:	38150513          	addi	a0,a0,897 # 14f49 <end_signature+0xe89>
   11bd0:	430010ef          	jal	ra,13000 <FN_WriteStr>
   11bd4:	00000513          	li	a0,0
   11bd8:	444010ef          	jal	ra,1301c <FN_WriteA0>
   11bdc:	00003517          	auipc	a0,0x3
   11be0:	36f50513          	addi	a0,a0,879 # 14f4b <end_signature+0xe8b>
   11be4:	41c010ef          	jal	ra,13000 <FN_WriteStr>
   11be8:	00003517          	auipc	a0,0x3
   11bec:	36950513          	addi	a0,a0,873 # 14f51 <end_signature+0xe91>
   11bf0:	410010ef          	jal	ra,13000 <FN_WriteStr>
   11bf4:	00003517          	auipc	a0,0x3
   11bf8:	36850513          	addi	a0,a0,872 # 14f5c <end_signature+0xe9c>
   11bfc:	404010ef          	jal	ra,13000 <FN_WriteStr>
   11c00:	06400193          	li	gp,100
   11c04:	0000100f          	fence.i
   11c08:	00018063          	beqz	gp,11c08 <reset_vector+0x1bbc>
   11c0c:	00119193          	slli	gp,gp,0x1
   11c10:	0011e193          	ori	gp,gp,1
   11c14:	00000073          	ecall
   11c18:	9abce2b7          	lui	t0,0x9abce
   11c1c:	ef028293          	addi	t0,t0,-272 # 9abcdef0 <_end+0x9abb8e78>
   11c20:	08510e63          	beq	sp,t0,11cbc <reset_vector+0x1c70>
   11c24:	00003517          	auipc	a0,0x3
   11c28:	33a50513          	addi	a0,a0,826 # 14f5e <end_signature+0xe9e>
   11c2c:	3d4010ef          	jal	ra,13000 <FN_WriteStr>
   11c30:	00003517          	auipc	a0,0x3
   11c34:	34950513          	addi	a0,a0,841 # 14f79 <end_signature+0xeb9>
   11c38:	3c8010ef          	jal	ra,13000 <FN_WriteStr>
   11c3c:	00003517          	auipc	a0,0x3
   11c40:	34c50513          	addi	a0,a0,844 # 14f88 <end_signature+0xec8>
   11c44:	3bc010ef          	jal	ra,13000 <FN_WriteStr>
   11c48:	00003517          	auipc	a0,0x3
   11c4c:	34850513          	addi	a0,a0,840 # 14f90 <end_signature+0xed0>
   11c50:	3b0010ef          	jal	ra,13000 <FN_WriteStr>
   11c54:	00003517          	auipc	a0,0x3
   11c58:	34050513          	addi	a0,a0,832 # 14f94 <end_signature+0xed4>
   11c5c:	3a4010ef          	jal	ra,13000 <FN_WriteStr>
   11c60:	00003517          	auipc	a0,0x3
   11c64:	33750513          	addi	a0,a0,823 # 14f97 <end_signature+0xed7>
   11c68:	398010ef          	jal	ra,13000 <FN_WriteStr>
   11c6c:	00003517          	auipc	a0,0x3
   11c70:	32e50513          	addi	a0,a0,814 # 14f9a <end_signature+0xeda>
   11c74:	38c010ef          	jal	ra,13000 <FN_WriteStr>
   11c78:	00010513          	mv	a0,sp
   11c7c:	3a0010ef          	jal	ra,1301c <FN_WriteA0>
   11c80:	00003517          	auipc	a0,0x3
   11c84:	31c50513          	addi	a0,a0,796 # 14f9c <end_signature+0xedc>
   11c88:	378010ef          	jal	ra,13000 <FN_WriteStr>
   11c8c:	00003517          	auipc	a0,0x3
   11c90:	31650513          	addi	a0,a0,790 # 14fa2 <end_signature+0xee2>
   11c94:	36c010ef          	jal	ra,13000 <FN_WriteStr>
   11c98:	00003517          	auipc	a0,0x3
   11c9c:	31550513          	addi	a0,a0,789 # 14fad <end_signature+0xeed>
   11ca0:	360010ef          	jal	ra,13000 <FN_WriteStr>
   11ca4:	06400193          	li	gp,100
   11ca8:	0000100f          	fence.i
   11cac:	00018063          	beqz	gp,11cac <reset_vector+0x1c60>
   11cb0:	00119193          	slli	gp,gp,0x1
   11cb4:	0011e193          	ori	gp,gp,1
   11cb8:	00000073          	ecall
   11cbc:	876542b7          	lui	t0,0x87654
   11cc0:	32128293          	addi	t0,t0,801 # 87654321 <_end+0x8763f2a9>
   11cc4:	08518e63          	beq	gp,t0,11d60 <reset_vector+0x1d14>
   11cc8:	00003517          	auipc	a0,0x3
   11ccc:	2e750513          	addi	a0,a0,743 # 14faf <end_signature+0xeef>
   11cd0:	330010ef          	jal	ra,13000 <FN_WriteStr>
   11cd4:	00003517          	auipc	a0,0x3
   11cd8:	2f650513          	addi	a0,a0,758 # 14fca <end_signature+0xf0a>
   11cdc:	324010ef          	jal	ra,13000 <FN_WriteStr>
   11ce0:	00003517          	auipc	a0,0x3
   11ce4:	2f950513          	addi	a0,a0,761 # 14fd9 <end_signature+0xf19>
   11ce8:	318010ef          	jal	ra,13000 <FN_WriteStr>
   11cec:	00003517          	auipc	a0,0x3
   11cf0:	2f550513          	addi	a0,a0,757 # 14fe1 <end_signature+0xf21>
   11cf4:	30c010ef          	jal	ra,13000 <FN_WriteStr>
   11cf8:	00003517          	auipc	a0,0x3
   11cfc:	2ed50513          	addi	a0,a0,749 # 14fe5 <end_signature+0xf25>
   11d00:	300010ef          	jal	ra,13000 <FN_WriteStr>
   11d04:	00003517          	auipc	a0,0x3
   11d08:	2e450513          	addi	a0,a0,740 # 14fe8 <end_signature+0xf28>
   11d0c:	2f4010ef          	jal	ra,13000 <FN_WriteStr>
   11d10:	00003517          	auipc	a0,0x3
   11d14:	2db50513          	addi	a0,a0,731 # 14feb <end_signature+0xf2b>
   11d18:	2e8010ef          	jal	ra,13000 <FN_WriteStr>
   11d1c:	00018513          	mv	a0,gp
   11d20:	2fc010ef          	jal	ra,1301c <FN_WriteA0>
   11d24:	00003517          	auipc	a0,0x3
   11d28:	2c950513          	addi	a0,a0,713 # 14fed <end_signature+0xf2d>
   11d2c:	2d4010ef          	jal	ra,13000 <FN_WriteStr>
   11d30:	00003517          	auipc	a0,0x3
   11d34:	2c350513          	addi	a0,a0,707 # 14ff3 <end_signature+0xf33>
   11d38:	2c8010ef          	jal	ra,13000 <FN_WriteStr>
   11d3c:	00003517          	auipc	a0,0x3
   11d40:	2c250513          	addi	a0,a0,706 # 14ffe <end_signature+0xf3e>
   11d44:	2bc010ef          	jal	ra,13000 <FN_WriteStr>
   11d48:	06400193          	li	gp,100
   11d4c:	0000100f          	fence.i
   11d50:	00018063          	beqz	gp,11d50 <reset_vector+0x1d04>
   11d54:	00119193          	slli	gp,gp,0x1
   11d58:	0011e193          	ori	gp,gp,1
   11d5c:	00000073          	ecall
   11d60:	0fedd2b7          	lui	t0,0xfedd
   11d64:	ba928293          	addi	t0,t0,-1111 # fedcba9 <_end+0xfec7b31>
   11d68:	08520e63          	beq	tp,t0,11e04 <reset_vector+0x1db8>
   11d6c:	00003517          	auipc	a0,0x3
   11d70:	29450513          	addi	a0,a0,660 # 15000 <end_signature+0xf40>
   11d74:	28c010ef          	jal	ra,13000 <FN_WriteStr>
   11d78:	00003517          	auipc	a0,0x3
   11d7c:	2a350513          	addi	a0,a0,675 # 1501b <end_signature+0xf5b>
   11d80:	280010ef          	jal	ra,13000 <FN_WriteStr>
   11d84:	00003517          	auipc	a0,0x3
   11d88:	2a650513          	addi	a0,a0,678 # 1502a <end_signature+0xf6a>
   11d8c:	274010ef          	jal	ra,13000 <FN_WriteStr>
   11d90:	00003517          	auipc	a0,0x3
   11d94:	2a250513          	addi	a0,a0,674 # 15032 <end_signature+0xf72>
   11d98:	268010ef          	jal	ra,13000 <FN_WriteStr>
   11d9c:	00003517          	auipc	a0,0x3
   11da0:	29a50513          	addi	a0,a0,666 # 15036 <end_signature+0xf76>
   11da4:	25c010ef          	jal	ra,13000 <FN_WriteStr>
   11da8:	00003517          	auipc	a0,0x3
   11dac:	29150513          	addi	a0,a0,657 # 15039 <end_signature+0xf79>
   11db0:	250010ef          	jal	ra,13000 <FN_WriteStr>
   11db4:	00003517          	auipc	a0,0x3
   11db8:	28850513          	addi	a0,a0,648 # 1503c <end_signature+0xf7c>
   11dbc:	244010ef          	jal	ra,13000 <FN_WriteStr>
   11dc0:	00020513          	mv	a0,tp
   11dc4:	258010ef          	jal	ra,1301c <FN_WriteA0>
   11dc8:	00003517          	auipc	a0,0x3
   11dcc:	27650513          	addi	a0,a0,630 # 1503e <end_signature+0xf7e>
   11dd0:	230010ef          	jal	ra,13000 <FN_WriteStr>
   11dd4:	00003517          	auipc	a0,0x3
   11dd8:	27050513          	addi	a0,a0,624 # 15044 <end_signature+0xf84>
   11ddc:	224010ef          	jal	ra,13000 <FN_WriteStr>
   11de0:	00003517          	auipc	a0,0x3
   11de4:	26f50513          	addi	a0,a0,623 # 1504f <end_signature+0xf8f>
   11de8:	218010ef          	jal	ra,13000 <FN_WriteStr>
   11dec:	06400193          	li	gp,100
   11df0:	0000100f          	fence.i
   11df4:	00018063          	beqz	gp,11df4 <reset_vector+0x1da8>
   11df8:	00119193          	slli	gp,gp,0x1
   11dfc:	0011e193          	ori	gp,gp,1
   11e00:	00000073          	ecall
   11e04:	00003517          	auipc	a0,0x3
   11e08:	24d50513          	addi	a0,a0,589 # 15051 <end_signature+0xf91>
   11e0c:	1f4010ef          	jal	ra,13000 <FN_WriteStr>
   11e10:	00003517          	auipc	a0,0x3
   11e14:	25c50513          	addi	a0,a0,604 # 1506c <end_signature+0xfac>
   11e18:	1e8010ef          	jal	ra,13000 <FN_WriteStr>
   11e1c:	0000100f          	fence.i
   11e20:	00100193          	li	gp,1
   11e24:	00000073          	ecall
   11e28:	c0001073          	unimp
	...

Disassembly of section .tohost:

00012000 <tohost>:
	...

00012100 <fromhost>:
	...

Disassembly of section .text:

00013000 <FN_WriteStr>:
   13000:	00050293          	mv	t0,a0
   13004:	0002c503          	lbu	a0,0(t0)
   13008:	00128293          	addi	t0,t0,1
   1300c:	00050663          	beqz	a0,13018 <FN_WriteStr+0x18>
   13010:	0005200b          	0x5200b
   13014:	ff1ff06f          	j	13004 <FN_WriteStr+0x4>
   13018:	00008067          	ret

0001301c <FN_WriteA0>:
   1301c:	00050293          	mv	t0,a0
   13020:	fff00513          	li	a0,-1
   13024:	01f55513          	srli	a0,a0,0x1f
   13028:	00155513          	srli	a0,a0,0x1
   1302c:	02051463          	bnez	a0,13054 <FN_WriteA0_64>

00013030 <FN_WriteA0_32>:
   13030:	00800313          	li	t1,8
   13034:	00439393          	slli	t2,t2,0x4
   13038:	00f2f513          	andi	a0,t0,15
   1303c:	0042d293          	srli	t0,t0,0x4
   13040:	00a3e3b3          	or	t2,t2,a0
   13044:	fff30313          	addi	t1,t1,-1
   13048:	fe0316e3          	bnez	t1,13034 <FN_WriteA0_32+0x4>
   1304c:	00800313          	li	t1,8
   13050:	0240006f          	j	13074 <FN_WriteA0_common>

00013054 <FN_WriteA0_64>:
   13054:	01000313          	li	t1,16
   13058:	00439393          	slli	t2,t2,0x4
   1305c:	00f2f513          	andi	a0,t0,15
   13060:	0042d293          	srli	t0,t0,0x4
   13064:	00a3e3b3          	or	t2,t2,a0
   13068:	fff30313          	addi	t1,t1,-1
   1306c:	fe0316e3          	bnez	t1,13058 <FN_WriteA0_64+0x4>
   13070:	01000313          	li	t1,16

00013074 <FN_WriteA0_common>:
   13074:	00a00293          	li	t0,10
   13078:	00f3f513          	andi	a0,t2,15
   1307c:	00554663          	blt	a0,t0,13088 <FN_WriteA0_common+0x14>
   13080:	05750513          	addi	a0,a0,87
   13084:	0080006f          	j	1308c <FN_WriteA0_common+0x18>
   13088:	03050513          	addi	a0,a0,48
   1308c:	0005200b          	0x5200b
   13090:	0043d393          	srli	t2,t2,0x4
   13094:	fff30313          	addi	t1,t1,-1
   13098:	fe0310e3          	bnez	t1,13078 <FN_WriteA0_common+0x4>
   1309c:	00008067          	ret
