
/home/benselfridge/riscv-compliance/work//I-BLTU-01.elf:     file format elf32-littleriscv


Disassembly of section .text.init:

00010000 <_start>:
   10000:	04c0006f          	j	1004c <reset_vector>

00010004 <trap_vector>:
   10004:	34202f73          	csrr	t5,mcause
   10008:	00800f93          	li	t6,8
   1000c:	03ff0a63          	beq	t5,t6,10040 <write_tohost>
   10010:	00900f93          	li	t6,9
   10014:	03ff0663          	beq	t5,t6,10040 <write_tohost>
   10018:	00b00f93          	li	t6,11
   1001c:	03ff0263          	beq	t5,t6,10040 <write_tohost>
   10020:	ffff0f17          	auipc	t5,0xffff0
   10024:	fe0f0f13          	addi	t5,t5,-32 # 0 <_start-0x10000>
   10028:	000f0463          	beqz	t5,10030 <trap_vector+0x2c>
   1002c:	000f0067          	jr	t5
   10030:	34202f73          	csrr	t5,mcause
   10034:	000f5463          	bgez	t5,1003c <handle_exception>
   10038:	0040006f          	j	1003c <handle_exception>

0001003c <handle_exception>:
   1003c:	5391e193          	ori	gp,gp,1337

00010040 <write_tohost>:
   10040:	00002f17          	auipc	t5,0x2
   10044:	fc3f2023          	sw	gp,-64(t5) # 12000 <tohost>
   10048:	ff9ff06f          	j	10040 <write_tohost>

0001004c <reset_vector>:
   1004c:	f1402573          	csrr	a0,mhartid
   10050:	00051063          	bnez	a0,10050 <reset_vector+0x4>
   10054:	00000297          	auipc	t0,0x0
   10058:	01028293          	addi	t0,t0,16 # 10064 <reset_vector+0x18>
   1005c:	30529073          	csrw	mtvec,t0
   10060:	18005073          	csrwi	satp,0
   10064:	00000297          	auipc	t0,0x0
   10068:	01c28293          	addi	t0,t0,28 # 10080 <reset_vector+0x34>
   1006c:	30529073          	csrw	mtvec,t0
   10070:	fff00293          	li	t0,-1
   10074:	3b029073          	csrw	pmpaddr0,t0
   10078:	01f00293          	li	t0,31
   1007c:	3a029073          	csrw	pmpcfg0,t0
   10080:	00000297          	auipc	t0,0x0
   10084:	01828293          	addi	t0,t0,24 # 10098 <reset_vector+0x4c>
   10088:	30529073          	csrw	mtvec,t0
   1008c:	30205073          	csrwi	medeleg,0
   10090:	30305073          	csrwi	mideleg,0
   10094:	30405073          	csrwi	mie,0
   10098:	00000193          	li	gp,0
   1009c:	00000297          	auipc	t0,0x0
   100a0:	f6828293          	addi	t0,t0,-152 # 10004 <trap_vector>
   100a4:	30529073          	csrw	mtvec,t0
   100a8:	00100513          	li	a0,1
   100ac:	01f51513          	slli	a0,a0,0x1f
   100b0:	00054863          	bltz	a0,100c0 <reset_vector+0x74>
   100b4:	0000100f          	fence.i
   100b8:	00100193          	li	gp,1
   100bc:	00000073          	ecall
   100c0:	ffff0297          	auipc	t0,0xffff0
   100c4:	f4028293          	addi	t0,t0,-192 # 0 <_start-0x10000>
   100c8:	00028e63          	beqz	t0,100e4 <reset_vector+0x98>
   100cc:	10529073          	csrw	stvec,t0
   100d0:	0000b2b7          	lui	t0,0xb
   100d4:	10928293          	addi	t0,t0,265 # b109 <_start-0x4ef7>
   100d8:	30229073          	csrw	medeleg,t0
   100dc:	30202373          	csrr	t1,medeleg
   100e0:	f4629ee3          	bne	t0,t1,1003c <handle_exception>
   100e4:	30005073          	csrwi	mstatus,0
   100e8:	00002537          	lui	a0,0x2
   100ec:	80050513          	addi	a0,a0,-2048 # 1800 <_start-0xe800>
   100f0:	30052073          	csrs	mstatus,a0
   100f4:	00000297          	auipc	t0,0x0
   100f8:	01428293          	addi	t0,t0,20 # 10108 <reset_vector+0xbc>
   100fc:	34129073          	csrw	mepc,t0
   10100:	f1402573          	csrr	a0,mhartid
   10104:	30200073          	mret
   10108:	00000293          	li	t0,0
   1010c:	08500e63          	beq	zero,t0,101a8 <reset_vector+0x15c>
   10110:	00004517          	auipc	a0,0x4
   10114:	fb050513          	addi	a0,a0,-80 # 140c0 <end_signature>
   10118:	6e9020ef          	jal	ra,13000 <FN_WriteStr>
   1011c:	00004517          	auipc	a0,0x4
   10120:	fbf50513          	addi	a0,a0,-65 # 140db <end_signature+0x1b>
   10124:	6dd020ef          	jal	ra,13000 <FN_WriteStr>
   10128:	00004517          	auipc	a0,0x4
   1012c:	fc350513          	addi	a0,a0,-61 # 140eb <end_signature+0x2b>
   10130:	6d1020ef          	jal	ra,13000 <FN_WriteStr>
   10134:	00004517          	auipc	a0,0x4
   10138:	fbf50513          	addi	a0,a0,-65 # 140f3 <end_signature+0x33>
   1013c:	6c5020ef          	jal	ra,13000 <FN_WriteStr>
   10140:	00004517          	auipc	a0,0x4
   10144:	fb650513          	addi	a0,a0,-74 # 140f6 <end_signature+0x36>
   10148:	6b9020ef          	jal	ra,13000 <FN_WriteStr>
   1014c:	00004517          	auipc	a0,0x4
   10150:	fad50513          	addi	a0,a0,-83 # 140f9 <end_signature+0x39>
   10154:	6ad020ef          	jal	ra,13000 <FN_WriteStr>
   10158:	00004517          	auipc	a0,0x4
   1015c:	fa450513          	addi	a0,a0,-92 # 140fc <end_signature+0x3c>
   10160:	6a1020ef          	jal	ra,13000 <FN_WriteStr>
   10164:	00000513          	li	a0,0
   10168:	6b5020ef          	jal	ra,1301c <FN_WriteA0>
   1016c:	00004517          	auipc	a0,0x4
   10170:	f9250513          	addi	a0,a0,-110 # 140fe <end_signature+0x3e>
   10174:	68d020ef          	jal	ra,13000 <FN_WriteStr>
   10178:	00004517          	auipc	a0,0x4
   1017c:	f8c50513          	addi	a0,a0,-116 # 14104 <end_signature+0x44>
   10180:	681020ef          	jal	ra,13000 <FN_WriteStr>
   10184:	00004517          	auipc	a0,0x4
   10188:	f8b50513          	addi	a0,a0,-117 # 1410f <end_signature+0x4f>
   1018c:	675020ef          	jal	ra,13000 <FN_WriteStr>
   10190:	06400193          	li	gp,100
   10194:	0000100f          	fence.i
   10198:	00018063          	beqz	gp,10198 <reset_vector+0x14c>
   1019c:	00119193          	slli	gp,gp,0x1
   101a0:	0011e193          	ori	gp,gp,1
   101a4:	00000073          	ecall
   101a8:	00004517          	auipc	a0,0x4
   101ac:	f6950513          	addi	a0,a0,-151 # 14111 <end_signature+0x51>
   101b0:	651020ef          	jal	ra,13000 <FN_WriteStr>
   101b4:	00004517          	auipc	a0,0x4
   101b8:	f8f50513          	addi	a0,a0,-113 # 14143 <end_signature+0x83>
   101bc:	645020ef          	jal	ra,13000 <FN_WriteStr>
   101c0:	00004097          	auipc	ra,0x4
   101c4:	e4008093          	addi	ra,ra,-448 # 14000 <test_A1_data>
   101c8:	00004117          	auipc	sp,0x4
   101cc:	e5810113          	addi	sp,sp,-424 # 14020 <begin_signature>
   101d0:	0000a183          	lw	gp,0(ra)
   101d4:	00000213          	li	tp,0
   101d8:	00100293          	li	t0,1
   101dc:	fff00313          	li	t1,-1
   101e0:	800003b7          	lui	t2,0x80000
   101e4:	fff38393          	addi	t2,t2,-1 # 7fffffff <_end+0x7ffeaf5f>
   101e8:	80000437          	lui	s0,0x80000
   101ec:	00000f93          	li	t6,0
   101f0:	0041e463          	bltu	gp,tp,101f8 <reset_vector+0x1ac>
   101f4:	001fef93          	ori	t6,t6,1
   101f8:	0051e463          	bltu	gp,t0,10200 <reset_vector+0x1b4>
   101fc:	002fef93          	ori	t6,t6,2
   10200:	0061e463          	bltu	gp,t1,10208 <reset_vector+0x1bc>
   10204:	004fef93          	ori	t6,t6,4
   10208:	0071e463          	bltu	gp,t2,10210 <reset_vector+0x1c4>
   1020c:	008fef93          	ori	t6,t6,8
   10210:	0081e463          	bltu	gp,s0,10218 <reset_vector+0x1cc>
   10214:	010fef93          	ori	t6,t6,16
   10218:	00312023          	sw	gp,0(sp)
   1021c:	00412223          	sw	tp,4(sp)
   10220:	00512423          	sw	t0,8(sp)
   10224:	00612623          	sw	t1,12(sp)
   10228:	00712823          	sw	t2,16(sp)
   1022c:	00812a23          	sw	s0,20(sp)
   10230:	01f12c23          	sw	t6,24(sp)
   10234:	fff00013          	li	zero,-1
   10238:	00000293          	li	t0,0
   1023c:	08518e63          	beq	gp,t0,102d8 <reset_vector+0x28c>
   10240:	00004517          	auipc	a0,0x4
   10244:	f5550513          	addi	a0,a0,-171 # 14195 <end_signature+0xd5>
   10248:	5b9020ef          	jal	ra,13000 <FN_WriteStr>
   1024c:	00004517          	auipc	a0,0x4
   10250:	f6450513          	addi	a0,a0,-156 # 141b0 <end_signature+0xf0>
   10254:	5ad020ef          	jal	ra,13000 <FN_WriteStr>
   10258:	00004517          	auipc	a0,0x4
   1025c:	f6850513          	addi	a0,a0,-152 # 141c0 <end_signature+0x100>
   10260:	5a1020ef          	jal	ra,13000 <FN_WriteStr>
   10264:	00004517          	auipc	a0,0x4
   10268:	f6450513          	addi	a0,a0,-156 # 141c8 <end_signature+0x108>
   1026c:	595020ef          	jal	ra,13000 <FN_WriteStr>
   10270:	00004517          	auipc	a0,0x4
   10274:	f5b50513          	addi	a0,a0,-165 # 141cb <end_signature+0x10b>
   10278:	589020ef          	jal	ra,13000 <FN_WriteStr>
   1027c:	00004517          	auipc	a0,0x4
   10280:	f5250513          	addi	a0,a0,-174 # 141ce <end_signature+0x10e>
   10284:	57d020ef          	jal	ra,13000 <FN_WriteStr>
   10288:	00004517          	auipc	a0,0x4
   1028c:	f4950513          	addi	a0,a0,-183 # 141d1 <end_signature+0x111>
   10290:	571020ef          	jal	ra,13000 <FN_WriteStr>
   10294:	00018513          	mv	a0,gp
   10298:	585020ef          	jal	ra,1301c <FN_WriteA0>
   1029c:	00004517          	auipc	a0,0x4
   102a0:	f3750513          	addi	a0,a0,-201 # 141d3 <end_signature+0x113>
   102a4:	55d020ef          	jal	ra,13000 <FN_WriteStr>
   102a8:	00004517          	auipc	a0,0x4
   102ac:	f3150513          	addi	a0,a0,-207 # 141d9 <end_signature+0x119>
   102b0:	551020ef          	jal	ra,13000 <FN_WriteStr>
   102b4:	00004517          	auipc	a0,0x4
   102b8:	f3050513          	addi	a0,a0,-208 # 141e4 <end_signature+0x124>
   102bc:	545020ef          	jal	ra,13000 <FN_WriteStr>
   102c0:	06400193          	li	gp,100
   102c4:	0000100f          	fence.i
   102c8:	00018063          	beqz	gp,102c8 <reset_vector+0x27c>
   102cc:	00119193          	slli	gp,gp,0x1
   102d0:	0011e193          	ori	gp,gp,1
   102d4:	00000073          	ecall
   102d8:	00000293          	li	t0,0
   102dc:	08520e63          	beq	tp,t0,10378 <reset_vector+0x32c>
   102e0:	00004517          	auipc	a0,0x4
   102e4:	f0650513          	addi	a0,a0,-250 # 141e6 <end_signature+0x126>
   102e8:	519020ef          	jal	ra,13000 <FN_WriteStr>
   102ec:	00004517          	auipc	a0,0x4
   102f0:	f1550513          	addi	a0,a0,-235 # 14201 <end_signature+0x141>
   102f4:	50d020ef          	jal	ra,13000 <FN_WriteStr>
   102f8:	00004517          	auipc	a0,0x4
   102fc:	f1950513          	addi	a0,a0,-231 # 14211 <end_signature+0x151>
   10300:	501020ef          	jal	ra,13000 <FN_WriteStr>
   10304:	00004517          	auipc	a0,0x4
   10308:	f1550513          	addi	a0,a0,-235 # 14219 <end_signature+0x159>
   1030c:	4f5020ef          	jal	ra,13000 <FN_WriteStr>
   10310:	00004517          	auipc	a0,0x4
   10314:	f0c50513          	addi	a0,a0,-244 # 1421c <end_signature+0x15c>
   10318:	4e9020ef          	jal	ra,13000 <FN_WriteStr>
   1031c:	00004517          	auipc	a0,0x4
   10320:	f0350513          	addi	a0,a0,-253 # 1421f <end_signature+0x15f>
   10324:	4dd020ef          	jal	ra,13000 <FN_WriteStr>
   10328:	00004517          	auipc	a0,0x4
   1032c:	efa50513          	addi	a0,a0,-262 # 14222 <end_signature+0x162>
   10330:	4d1020ef          	jal	ra,13000 <FN_WriteStr>
   10334:	00020513          	mv	a0,tp
   10338:	4e5020ef          	jal	ra,1301c <FN_WriteA0>
   1033c:	00004517          	auipc	a0,0x4
   10340:	ee850513          	addi	a0,a0,-280 # 14224 <end_signature+0x164>
   10344:	4bd020ef          	jal	ra,13000 <FN_WriteStr>
   10348:	00004517          	auipc	a0,0x4
   1034c:	ee250513          	addi	a0,a0,-286 # 1422a <end_signature+0x16a>
   10350:	4b1020ef          	jal	ra,13000 <FN_WriteStr>
   10354:	00004517          	auipc	a0,0x4
   10358:	ee150513          	addi	a0,a0,-287 # 14235 <end_signature+0x175>
   1035c:	4a5020ef          	jal	ra,13000 <FN_WriteStr>
   10360:	06400193          	li	gp,100
   10364:	0000100f          	fence.i
   10368:	00018063          	beqz	gp,10368 <reset_vector+0x31c>
   1036c:	00119193          	slli	gp,gp,0x1
   10370:	0011e193          	ori	gp,gp,1
   10374:	00000073          	ecall
   10378:	00000293          	li	t0,0
   1037c:	08528e63          	beq	t0,t0,10418 <reset_vector+0x3cc>
   10380:	00004517          	auipc	a0,0x4
   10384:	eb750513          	addi	a0,a0,-329 # 14237 <end_signature+0x177>
   10388:	479020ef          	jal	ra,13000 <FN_WriteStr>
   1038c:	00004517          	auipc	a0,0x4
   10390:	ec650513          	addi	a0,a0,-314 # 14252 <end_signature+0x192>
   10394:	46d020ef          	jal	ra,13000 <FN_WriteStr>
   10398:	00004517          	auipc	a0,0x4
   1039c:	eca50513          	addi	a0,a0,-310 # 14262 <end_signature+0x1a2>
   103a0:	461020ef          	jal	ra,13000 <FN_WriteStr>
   103a4:	00004517          	auipc	a0,0x4
   103a8:	ec650513          	addi	a0,a0,-314 # 1426a <end_signature+0x1aa>
   103ac:	455020ef          	jal	ra,13000 <FN_WriteStr>
   103b0:	00004517          	auipc	a0,0x4
   103b4:	ebd50513          	addi	a0,a0,-323 # 1426d <end_signature+0x1ad>
   103b8:	449020ef          	jal	ra,13000 <FN_WriteStr>
   103bc:	00004517          	auipc	a0,0x4
   103c0:	eb450513          	addi	a0,a0,-332 # 14270 <end_signature+0x1b0>
   103c4:	43d020ef          	jal	ra,13000 <FN_WriteStr>
   103c8:	00004517          	auipc	a0,0x4
   103cc:	eab50513          	addi	a0,a0,-341 # 14273 <end_signature+0x1b3>
   103d0:	431020ef          	jal	ra,13000 <FN_WriteStr>
   103d4:	00028513          	mv	a0,t0
   103d8:	445020ef          	jal	ra,1301c <FN_WriteA0>
   103dc:	00004517          	auipc	a0,0x4
   103e0:	e9950513          	addi	a0,a0,-359 # 14275 <end_signature+0x1b5>
   103e4:	41d020ef          	jal	ra,13000 <FN_WriteStr>
   103e8:	00004517          	auipc	a0,0x4
   103ec:	e9350513          	addi	a0,a0,-365 # 1427b <end_signature+0x1bb>
   103f0:	411020ef          	jal	ra,13000 <FN_WriteStr>
   103f4:	00004517          	auipc	a0,0x4
   103f8:	e9250513          	addi	a0,a0,-366 # 14286 <end_signature+0x1c6>
   103fc:	405020ef          	jal	ra,13000 <FN_WriteStr>
   10400:	06400193          	li	gp,100
   10404:	0000100f          	fence.i
   10408:	00018063          	beqz	gp,10408 <reset_vector+0x3bc>
   1040c:	00119193          	slli	gp,gp,0x1
   10410:	0011e193          	ori	gp,gp,1
   10414:	00000073          	ecall
   10418:	fff00293          	li	t0,-1
   1041c:	08530e63          	beq	t1,t0,104b8 <reset_vector+0x46c>
   10420:	00004517          	auipc	a0,0x4
   10424:	e6850513          	addi	a0,a0,-408 # 14288 <end_signature+0x1c8>
   10428:	3d9020ef          	jal	ra,13000 <FN_WriteStr>
   1042c:	00004517          	auipc	a0,0x4
   10430:	e7750513          	addi	a0,a0,-393 # 142a3 <end_signature+0x1e3>
   10434:	3cd020ef          	jal	ra,13000 <FN_WriteStr>
   10438:	00004517          	auipc	a0,0x4
   1043c:	e7b50513          	addi	a0,a0,-389 # 142b3 <end_signature+0x1f3>
   10440:	3c1020ef          	jal	ra,13000 <FN_WriteStr>
   10444:	00004517          	auipc	a0,0x4
   10448:	e7750513          	addi	a0,a0,-393 # 142bb <end_signature+0x1fb>
   1044c:	3b5020ef          	jal	ra,13000 <FN_WriteStr>
   10450:	00004517          	auipc	a0,0x4
   10454:	e6e50513          	addi	a0,a0,-402 # 142be <end_signature+0x1fe>
   10458:	3a9020ef          	jal	ra,13000 <FN_WriteStr>
   1045c:	00004517          	auipc	a0,0x4
   10460:	e6550513          	addi	a0,a0,-411 # 142c1 <end_signature+0x201>
   10464:	39d020ef          	jal	ra,13000 <FN_WriteStr>
   10468:	00004517          	auipc	a0,0x4
   1046c:	e5c50513          	addi	a0,a0,-420 # 142c4 <end_signature+0x204>
   10470:	391020ef          	jal	ra,13000 <FN_WriteStr>
   10474:	00030513          	mv	a0,t1
   10478:	3a5020ef          	jal	ra,1301c <FN_WriteA0>
   1047c:	00004517          	auipc	a0,0x4
   10480:	e4a50513          	addi	a0,a0,-438 # 142c6 <end_signature+0x206>
   10484:	37d020ef          	jal	ra,13000 <FN_WriteStr>
   10488:	00004517          	auipc	a0,0x4
   1048c:	e4450513          	addi	a0,a0,-444 # 142cc <end_signature+0x20c>
   10490:	371020ef          	jal	ra,13000 <FN_WriteStr>
   10494:	00004517          	auipc	a0,0x4
   10498:	e4350513          	addi	a0,a0,-445 # 142d7 <end_signature+0x217>
   1049c:	365020ef          	jal	ra,13000 <FN_WriteStr>
   104a0:	06400193          	li	gp,100
   104a4:	0000100f          	fence.i
   104a8:	00018063          	beqz	gp,104a8 <reset_vector+0x45c>
   104ac:	00119193          	slli	gp,gp,0x1
   104b0:	0011e193          	ori	gp,gp,1
   104b4:	00000073          	ecall
   104b8:	800002b7          	lui	t0,0x80000
   104bc:	fff28293          	addi	t0,t0,-1 # 7fffffff <_end+0x7ffeaf5f>
   104c0:	08538e63          	beq	t2,t0,1055c <reset_vector+0x510>
   104c4:	00004517          	auipc	a0,0x4
   104c8:	e1550513          	addi	a0,a0,-491 # 142d9 <end_signature+0x219>
   104cc:	335020ef          	jal	ra,13000 <FN_WriteStr>
   104d0:	00004517          	auipc	a0,0x4
   104d4:	e2450513          	addi	a0,a0,-476 # 142f4 <end_signature+0x234>
   104d8:	329020ef          	jal	ra,13000 <FN_WriteStr>
   104dc:	00004517          	auipc	a0,0x4
   104e0:	e2850513          	addi	a0,a0,-472 # 14304 <end_signature+0x244>
   104e4:	31d020ef          	jal	ra,13000 <FN_WriteStr>
   104e8:	00004517          	auipc	a0,0x4
   104ec:	e2450513          	addi	a0,a0,-476 # 1430c <end_signature+0x24c>
   104f0:	311020ef          	jal	ra,13000 <FN_WriteStr>
   104f4:	00004517          	auipc	a0,0x4
   104f8:	e1b50513          	addi	a0,a0,-485 # 1430f <end_signature+0x24f>
   104fc:	305020ef          	jal	ra,13000 <FN_WriteStr>
   10500:	00004517          	auipc	a0,0x4
   10504:	e1250513          	addi	a0,a0,-494 # 14312 <end_signature+0x252>
   10508:	2f9020ef          	jal	ra,13000 <FN_WriteStr>
   1050c:	00004517          	auipc	a0,0x4
   10510:	e0950513          	addi	a0,a0,-503 # 14315 <end_signature+0x255>
   10514:	2ed020ef          	jal	ra,13000 <FN_WriteStr>
   10518:	00038513          	mv	a0,t2
   1051c:	301020ef          	jal	ra,1301c <FN_WriteA0>
   10520:	00004517          	auipc	a0,0x4
   10524:	df750513          	addi	a0,a0,-521 # 14317 <end_signature+0x257>
   10528:	2d9020ef          	jal	ra,13000 <FN_WriteStr>
   1052c:	00004517          	auipc	a0,0x4
   10530:	df150513          	addi	a0,a0,-527 # 1431d <end_signature+0x25d>
   10534:	2cd020ef          	jal	ra,13000 <FN_WriteStr>
   10538:	00004517          	auipc	a0,0x4
   1053c:	df050513          	addi	a0,a0,-528 # 14328 <end_signature+0x268>
   10540:	2c1020ef          	jal	ra,13000 <FN_WriteStr>
   10544:	06400193          	li	gp,100
   10548:	0000100f          	fence.i
   1054c:	00018063          	beqz	gp,1054c <reset_vector+0x500>
   10550:	00119193          	slli	gp,gp,0x1
   10554:	0011e193          	ori	gp,gp,1
   10558:	00000073          	ecall
   1055c:	800002b7          	lui	t0,0x80000
   10560:	08540e63          	beq	s0,t0,105fc <reset_vector+0x5b0>
   10564:	00004517          	auipc	a0,0x4
   10568:	dc650513          	addi	a0,a0,-570 # 1432a <end_signature+0x26a>
   1056c:	295020ef          	jal	ra,13000 <FN_WriteStr>
   10570:	00004517          	auipc	a0,0x4
   10574:	dd550513          	addi	a0,a0,-555 # 14345 <end_signature+0x285>
   10578:	289020ef          	jal	ra,13000 <FN_WriteStr>
   1057c:	00004517          	auipc	a0,0x4
   10580:	dd950513          	addi	a0,a0,-551 # 14355 <end_signature+0x295>
   10584:	27d020ef          	jal	ra,13000 <FN_WriteStr>
   10588:	00004517          	auipc	a0,0x4
   1058c:	dd550513          	addi	a0,a0,-555 # 1435d <end_signature+0x29d>
   10590:	271020ef          	jal	ra,13000 <FN_WriteStr>
   10594:	00004517          	auipc	a0,0x4
   10598:	dcc50513          	addi	a0,a0,-564 # 14360 <end_signature+0x2a0>
   1059c:	265020ef          	jal	ra,13000 <FN_WriteStr>
   105a0:	00004517          	auipc	a0,0x4
   105a4:	dc350513          	addi	a0,a0,-573 # 14363 <end_signature+0x2a3>
   105a8:	259020ef          	jal	ra,13000 <FN_WriteStr>
   105ac:	00004517          	auipc	a0,0x4
   105b0:	dba50513          	addi	a0,a0,-582 # 14366 <end_signature+0x2a6>
   105b4:	24d020ef          	jal	ra,13000 <FN_WriteStr>
   105b8:	00040513          	mv	a0,s0
   105bc:	261020ef          	jal	ra,1301c <FN_WriteA0>
   105c0:	00004517          	auipc	a0,0x4
   105c4:	da850513          	addi	a0,a0,-600 # 14368 <end_signature+0x2a8>
   105c8:	239020ef          	jal	ra,13000 <FN_WriteStr>
   105cc:	00004517          	auipc	a0,0x4
   105d0:	da250513          	addi	a0,a0,-606 # 1436e <end_signature+0x2ae>
   105d4:	22d020ef          	jal	ra,13000 <FN_WriteStr>
   105d8:	00004517          	auipc	a0,0x4
   105dc:	da150513          	addi	a0,a0,-607 # 14379 <end_signature+0x2b9>
   105e0:	221020ef          	jal	ra,13000 <FN_WriteStr>
   105e4:	06400193          	li	gp,100
   105e8:	0000100f          	fence.i
   105ec:	00018063          	beqz	gp,105ec <reset_vector+0x5a0>
   105f0:	00119193          	slli	gp,gp,0x1
   105f4:	0011e193          	ori	gp,gp,1
   105f8:	00000073          	ecall
   105fc:	00100293          	li	t0,1
   10600:	085f8e63          	beq	t6,t0,1069c <reset_vector+0x650>
   10604:	00004517          	auipc	a0,0x4
   10608:	d7750513          	addi	a0,a0,-649 # 1437b <end_signature+0x2bb>
   1060c:	1f5020ef          	jal	ra,13000 <FN_WriteStr>
   10610:	00004517          	auipc	a0,0x4
   10614:	d8650513          	addi	a0,a0,-634 # 14396 <end_signature+0x2d6>
   10618:	1e9020ef          	jal	ra,13000 <FN_WriteStr>
   1061c:	00004517          	auipc	a0,0x4
   10620:	d8a50513          	addi	a0,a0,-630 # 143a6 <end_signature+0x2e6>
   10624:	1dd020ef          	jal	ra,13000 <FN_WriteStr>
   10628:	00004517          	auipc	a0,0x4
   1062c:	d8650513          	addi	a0,a0,-634 # 143ae <end_signature+0x2ee>
   10630:	1d1020ef          	jal	ra,13000 <FN_WriteStr>
   10634:	00004517          	auipc	a0,0x4
   10638:	d7d50513          	addi	a0,a0,-643 # 143b1 <end_signature+0x2f1>
   1063c:	1c5020ef          	jal	ra,13000 <FN_WriteStr>
   10640:	00004517          	auipc	a0,0x4
   10644:	d7450513          	addi	a0,a0,-652 # 143b4 <end_signature+0x2f4>
   10648:	1b9020ef          	jal	ra,13000 <FN_WriteStr>
   1064c:	00004517          	auipc	a0,0x4
   10650:	d6c50513          	addi	a0,a0,-660 # 143b8 <end_signature+0x2f8>
   10654:	1ad020ef          	jal	ra,13000 <FN_WriteStr>
   10658:	000f8513          	mv	a0,t6
   1065c:	1c1020ef          	jal	ra,1301c <FN_WriteA0>
   10660:	00004517          	auipc	a0,0x4
   10664:	d5a50513          	addi	a0,a0,-678 # 143ba <end_signature+0x2fa>
   10668:	199020ef          	jal	ra,13000 <FN_WriteStr>
   1066c:	00004517          	auipc	a0,0x4
   10670:	d5450513          	addi	a0,a0,-684 # 143c0 <end_signature+0x300>
   10674:	18d020ef          	jal	ra,13000 <FN_WriteStr>
   10678:	00004517          	auipc	a0,0x4
   1067c:	d5350513          	addi	a0,a0,-685 # 143cb <end_signature+0x30b>
   10680:	181020ef          	jal	ra,13000 <FN_WriteStr>
   10684:	06400193          	li	gp,100
   10688:	0000100f          	fence.i
   1068c:	00018063          	beqz	gp,1068c <reset_vector+0x640>
   10690:	00119193          	slli	gp,gp,0x1
   10694:	0011e193          	ori	gp,gp,1
   10698:	00000073          	ecall
   1069c:	00004517          	auipc	a0,0x4
   106a0:	d3150513          	addi	a0,a0,-719 # 143cd <end_signature+0x30d>
   106a4:	15d020ef          	jal	ra,13000 <FN_WriteStr>
   106a8:	00004517          	auipc	a0,0x4
   106ac:	d4150513          	addi	a0,a0,-703 # 143e9 <end_signature+0x329>
   106b0:	151020ef          	jal	ra,13000 <FN_WriteStr>
   106b4:	00004097          	auipc	ra,0x4
   106b8:	95008093          	addi	ra,ra,-1712 # 14004 <test_A2_data>
   106bc:	00004117          	auipc	sp,0x4
   106c0:	98010113          	addi	sp,sp,-1664 # 1403c <test_A2_res>
   106c4:	0000a303          	lw	t1,0(ra)
   106c8:	00000393          	li	t2,0
   106cc:	00100413          	li	s0,1
   106d0:	fff00493          	li	s1,-1
   106d4:	80000537          	lui	a0,0x80000
   106d8:	fff50513          	addi	a0,a0,-1 # 7fffffff <_end+0x7ffeaf5f>
   106dc:	800005b7          	lui	a1,0x80000
   106e0:	00000f93          	li	t6,0
   106e4:	00736463          	bltu	t1,t2,106ec <reset_vector+0x6a0>
   106e8:	001fef93          	ori	t6,t6,1
   106ec:	00836463          	bltu	t1,s0,106f4 <reset_vector+0x6a8>
   106f0:	002fef93          	ori	t6,t6,2
   106f4:	00936463          	bltu	t1,s1,106fc <reset_vector+0x6b0>
   106f8:	004fef93          	ori	t6,t6,4
   106fc:	00a36463          	bltu	t1,a0,10704 <reset_vector+0x6b8>
   10700:	008fef93          	ori	t6,t6,8
   10704:	00b36463          	bltu	t1,a1,1070c <reset_vector+0x6c0>
   10708:	010fef93          	ori	t6,t6,16
   1070c:	00612023          	sw	t1,0(sp)
   10710:	00712223          	sw	t2,4(sp)
   10714:	00812423          	sw	s0,8(sp)
   10718:	00912623          	sw	s1,12(sp)
   1071c:	00a12823          	sw	a0,16(sp)
   10720:	00b12a23          	sw	a1,20(sp)
   10724:	01f12c23          	sw	t6,24(sp)
   10728:	00100293          	li	t0,1
   1072c:	08530e63          	beq	t1,t0,107c8 <reset_vector+0x77c>
   10730:	00004517          	auipc	a0,0x4
   10734:	d0b50513          	addi	a0,a0,-757 # 1443b <end_signature+0x37b>
   10738:	0c9020ef          	jal	ra,13000 <FN_WriteStr>
   1073c:	00004517          	auipc	a0,0x4
   10740:	d1a50513          	addi	a0,a0,-742 # 14456 <end_signature+0x396>
   10744:	0bd020ef          	jal	ra,13000 <FN_WriteStr>
   10748:	00004517          	auipc	a0,0x4
   1074c:	d1e50513          	addi	a0,a0,-738 # 14466 <end_signature+0x3a6>
   10750:	0b1020ef          	jal	ra,13000 <FN_WriteStr>
   10754:	00004517          	auipc	a0,0x4
   10758:	d1a50513          	addi	a0,a0,-742 # 1446e <end_signature+0x3ae>
   1075c:	0a5020ef          	jal	ra,13000 <FN_WriteStr>
   10760:	00004517          	auipc	a0,0x4
   10764:	d1250513          	addi	a0,a0,-750 # 14472 <end_signature+0x3b2>
   10768:	099020ef          	jal	ra,13000 <FN_WriteStr>
   1076c:	00004517          	auipc	a0,0x4
   10770:	d0950513          	addi	a0,a0,-759 # 14475 <end_signature+0x3b5>
   10774:	08d020ef          	jal	ra,13000 <FN_WriteStr>
   10778:	00004517          	auipc	a0,0x4
   1077c:	d0050513          	addi	a0,a0,-768 # 14478 <end_signature+0x3b8>
   10780:	081020ef          	jal	ra,13000 <FN_WriteStr>
   10784:	00030513          	mv	a0,t1
   10788:	095020ef          	jal	ra,1301c <FN_WriteA0>
   1078c:	00004517          	auipc	a0,0x4
   10790:	cee50513          	addi	a0,a0,-786 # 1447a <end_signature+0x3ba>
   10794:	06d020ef          	jal	ra,13000 <FN_WriteStr>
   10798:	00004517          	auipc	a0,0x4
   1079c:	ce850513          	addi	a0,a0,-792 # 14480 <end_signature+0x3c0>
   107a0:	061020ef          	jal	ra,13000 <FN_WriteStr>
   107a4:	00004517          	auipc	a0,0x4
   107a8:	ce750513          	addi	a0,a0,-793 # 1448b <end_signature+0x3cb>
   107ac:	055020ef          	jal	ra,13000 <FN_WriteStr>
   107b0:	06400193          	li	gp,100
   107b4:	0000100f          	fence.i
   107b8:	00018063          	beqz	gp,107b8 <reset_vector+0x76c>
   107bc:	00119193          	slli	gp,gp,0x1
   107c0:	0011e193          	ori	gp,gp,1
   107c4:	00000073          	ecall
   107c8:	00000293          	li	t0,0
   107cc:	08538e63          	beq	t2,t0,10868 <reset_vector+0x81c>
   107d0:	00004517          	auipc	a0,0x4
   107d4:	cbd50513          	addi	a0,a0,-835 # 1448d <end_signature+0x3cd>
   107d8:	029020ef          	jal	ra,13000 <FN_WriteStr>
   107dc:	00004517          	auipc	a0,0x4
   107e0:	ccc50513          	addi	a0,a0,-820 # 144a8 <end_signature+0x3e8>
   107e4:	01d020ef          	jal	ra,13000 <FN_WriteStr>
   107e8:	00004517          	auipc	a0,0x4
   107ec:	cd050513          	addi	a0,a0,-816 # 144b8 <end_signature+0x3f8>
   107f0:	011020ef          	jal	ra,13000 <FN_WriteStr>
   107f4:	00004517          	auipc	a0,0x4
   107f8:	ccc50513          	addi	a0,a0,-820 # 144c0 <end_signature+0x400>
   107fc:	005020ef          	jal	ra,13000 <FN_WriteStr>
   10800:	00004517          	auipc	a0,0x4
   10804:	cc450513          	addi	a0,a0,-828 # 144c4 <end_signature+0x404>
   10808:	7f8020ef          	jal	ra,13000 <FN_WriteStr>
   1080c:	00004517          	auipc	a0,0x4
   10810:	cbb50513          	addi	a0,a0,-837 # 144c7 <end_signature+0x407>
   10814:	7ec020ef          	jal	ra,13000 <FN_WriteStr>
   10818:	00004517          	auipc	a0,0x4
   1081c:	cb250513          	addi	a0,a0,-846 # 144ca <end_signature+0x40a>
   10820:	7e0020ef          	jal	ra,13000 <FN_WriteStr>
   10824:	00038513          	mv	a0,t2
   10828:	7f4020ef          	jal	ra,1301c <FN_WriteA0>
   1082c:	00004517          	auipc	a0,0x4
   10830:	ca050513          	addi	a0,a0,-864 # 144cc <end_signature+0x40c>
   10834:	7cc020ef          	jal	ra,13000 <FN_WriteStr>
   10838:	00004517          	auipc	a0,0x4
   1083c:	c9a50513          	addi	a0,a0,-870 # 144d2 <end_signature+0x412>
   10840:	7c0020ef          	jal	ra,13000 <FN_WriteStr>
   10844:	00004517          	auipc	a0,0x4
   10848:	c9950513          	addi	a0,a0,-871 # 144dd <end_signature+0x41d>
   1084c:	7b4020ef          	jal	ra,13000 <FN_WriteStr>
   10850:	06400193          	li	gp,100
   10854:	0000100f          	fence.i
   10858:	00018063          	beqz	gp,10858 <reset_vector+0x80c>
   1085c:	00119193          	slli	gp,gp,0x1
   10860:	0011e193          	ori	gp,gp,1
   10864:	00000073          	ecall
   10868:	00100293          	li	t0,1
   1086c:	08540e63          	beq	s0,t0,10908 <reset_vector+0x8bc>
   10870:	00004517          	auipc	a0,0x4
   10874:	c6f50513          	addi	a0,a0,-913 # 144df <end_signature+0x41f>
   10878:	788020ef          	jal	ra,13000 <FN_WriteStr>
   1087c:	00004517          	auipc	a0,0x4
   10880:	c7e50513          	addi	a0,a0,-898 # 144fa <end_signature+0x43a>
   10884:	77c020ef          	jal	ra,13000 <FN_WriteStr>
   10888:	00004517          	auipc	a0,0x4
   1088c:	c8250513          	addi	a0,a0,-894 # 1450a <end_signature+0x44a>
   10890:	770020ef          	jal	ra,13000 <FN_WriteStr>
   10894:	00004517          	auipc	a0,0x4
   10898:	c7e50513          	addi	a0,a0,-898 # 14512 <end_signature+0x452>
   1089c:	764020ef          	jal	ra,13000 <FN_WriteStr>
   108a0:	00004517          	auipc	a0,0x4
   108a4:	c7650513          	addi	a0,a0,-906 # 14516 <end_signature+0x456>
   108a8:	758020ef          	jal	ra,13000 <FN_WriteStr>
   108ac:	00004517          	auipc	a0,0x4
   108b0:	c6d50513          	addi	a0,a0,-915 # 14519 <end_signature+0x459>
   108b4:	74c020ef          	jal	ra,13000 <FN_WriteStr>
   108b8:	00004517          	auipc	a0,0x4
   108bc:	c6450513          	addi	a0,a0,-924 # 1451c <end_signature+0x45c>
   108c0:	740020ef          	jal	ra,13000 <FN_WriteStr>
   108c4:	00040513          	mv	a0,s0
   108c8:	754020ef          	jal	ra,1301c <FN_WriteA0>
   108cc:	00004517          	auipc	a0,0x4
   108d0:	c5250513          	addi	a0,a0,-942 # 1451e <end_signature+0x45e>
   108d4:	72c020ef          	jal	ra,13000 <FN_WriteStr>
   108d8:	00004517          	auipc	a0,0x4
   108dc:	c4c50513          	addi	a0,a0,-948 # 14524 <end_signature+0x464>
   108e0:	720020ef          	jal	ra,13000 <FN_WriteStr>
   108e4:	00004517          	auipc	a0,0x4
   108e8:	c4b50513          	addi	a0,a0,-949 # 1452f <end_signature+0x46f>
   108ec:	714020ef          	jal	ra,13000 <FN_WriteStr>
   108f0:	06400193          	li	gp,100
   108f4:	0000100f          	fence.i
   108f8:	00018063          	beqz	gp,108f8 <reset_vector+0x8ac>
   108fc:	00119193          	slli	gp,gp,0x1
   10900:	0011e193          	ori	gp,gp,1
   10904:	00000073          	ecall
   10908:	fff00293          	li	t0,-1
   1090c:	08548e63          	beq	s1,t0,109a8 <reset_vector+0x95c>
   10910:	00004517          	auipc	a0,0x4
   10914:	c2150513          	addi	a0,a0,-991 # 14531 <end_signature+0x471>
   10918:	6e8020ef          	jal	ra,13000 <FN_WriteStr>
   1091c:	00004517          	auipc	a0,0x4
   10920:	c3050513          	addi	a0,a0,-976 # 1454c <end_signature+0x48c>
   10924:	6dc020ef          	jal	ra,13000 <FN_WriteStr>
   10928:	00004517          	auipc	a0,0x4
   1092c:	c3450513          	addi	a0,a0,-972 # 1455c <end_signature+0x49c>
   10930:	6d0020ef          	jal	ra,13000 <FN_WriteStr>
   10934:	00004517          	auipc	a0,0x4
   10938:	c3050513          	addi	a0,a0,-976 # 14564 <end_signature+0x4a4>
   1093c:	6c4020ef          	jal	ra,13000 <FN_WriteStr>
   10940:	00004517          	auipc	a0,0x4
   10944:	c2850513          	addi	a0,a0,-984 # 14568 <end_signature+0x4a8>
   10948:	6b8020ef          	jal	ra,13000 <FN_WriteStr>
   1094c:	00004517          	auipc	a0,0x4
   10950:	c1f50513          	addi	a0,a0,-993 # 1456b <end_signature+0x4ab>
   10954:	6ac020ef          	jal	ra,13000 <FN_WriteStr>
   10958:	00004517          	auipc	a0,0x4
   1095c:	c1650513          	addi	a0,a0,-1002 # 1456e <end_signature+0x4ae>
   10960:	6a0020ef          	jal	ra,13000 <FN_WriteStr>
   10964:	00048513          	mv	a0,s1
   10968:	6b4020ef          	jal	ra,1301c <FN_WriteA0>
   1096c:	00004517          	auipc	a0,0x4
   10970:	c0450513          	addi	a0,a0,-1020 # 14570 <end_signature+0x4b0>
   10974:	68c020ef          	jal	ra,13000 <FN_WriteStr>
   10978:	00004517          	auipc	a0,0x4
   1097c:	bfe50513          	addi	a0,a0,-1026 # 14576 <end_signature+0x4b6>
   10980:	680020ef          	jal	ra,13000 <FN_WriteStr>
   10984:	00004517          	auipc	a0,0x4
   10988:	bfd50513          	addi	a0,a0,-1027 # 14581 <end_signature+0x4c1>
   1098c:	674020ef          	jal	ra,13000 <FN_WriteStr>
   10990:	06400193          	li	gp,100
   10994:	0000100f          	fence.i
   10998:	00018063          	beqz	gp,10998 <reset_vector+0x94c>
   1099c:	00119193          	slli	gp,gp,0x1
   109a0:	0011e193          	ori	gp,gp,1
   109a4:	00000073          	ecall
   109a8:	800002b7          	lui	t0,0x80000
   109ac:	08558e63          	beq	a1,t0,10a48 <reset_vector+0x9fc>
   109b0:	00004517          	auipc	a0,0x4
   109b4:	bd350513          	addi	a0,a0,-1069 # 14583 <end_signature+0x4c3>
   109b8:	648020ef          	jal	ra,13000 <FN_WriteStr>
   109bc:	00004517          	auipc	a0,0x4
   109c0:	be250513          	addi	a0,a0,-1054 # 1459e <end_signature+0x4de>
   109c4:	63c020ef          	jal	ra,13000 <FN_WriteStr>
   109c8:	00004517          	auipc	a0,0x4
   109cc:	be650513          	addi	a0,a0,-1050 # 145ae <end_signature+0x4ee>
   109d0:	630020ef          	jal	ra,13000 <FN_WriteStr>
   109d4:	00004517          	auipc	a0,0x4
   109d8:	be250513          	addi	a0,a0,-1054 # 145b6 <end_signature+0x4f6>
   109dc:	624020ef          	jal	ra,13000 <FN_WriteStr>
   109e0:	00004517          	auipc	a0,0x4
   109e4:	bda50513          	addi	a0,a0,-1062 # 145ba <end_signature+0x4fa>
   109e8:	618020ef          	jal	ra,13000 <FN_WriteStr>
   109ec:	00004517          	auipc	a0,0x4
   109f0:	bd150513          	addi	a0,a0,-1071 # 145bd <end_signature+0x4fd>
   109f4:	60c020ef          	jal	ra,13000 <FN_WriteStr>
   109f8:	00004517          	auipc	a0,0x4
   109fc:	bc950513          	addi	a0,a0,-1079 # 145c1 <end_signature+0x501>
   10a00:	600020ef          	jal	ra,13000 <FN_WriteStr>
   10a04:	00058513          	mv	a0,a1
   10a08:	614020ef          	jal	ra,1301c <FN_WriteA0>
   10a0c:	00004517          	auipc	a0,0x4
   10a10:	bb750513          	addi	a0,a0,-1097 # 145c3 <end_signature+0x503>
   10a14:	5ec020ef          	jal	ra,13000 <FN_WriteStr>
   10a18:	00004517          	auipc	a0,0x4
   10a1c:	bb150513          	addi	a0,a0,-1103 # 145c9 <end_signature+0x509>
   10a20:	5e0020ef          	jal	ra,13000 <FN_WriteStr>
   10a24:	00004517          	auipc	a0,0x4
   10a28:	bb050513          	addi	a0,a0,-1104 # 145d4 <end_signature+0x514>
   10a2c:	5d4020ef          	jal	ra,13000 <FN_WriteStr>
   10a30:	06400193          	li	gp,100
   10a34:	0000100f          	fence.i
   10a38:	00018063          	beqz	gp,10a38 <reset_vector+0x9ec>
   10a3c:	00119193          	slli	gp,gp,0x1
   10a40:	0011e193          	ori	gp,gp,1
   10a44:	00000073          	ecall
   10a48:	00300293          	li	t0,3
   10a4c:	085f8e63          	beq	t6,t0,10ae8 <reset_vector+0xa9c>
   10a50:	00004517          	auipc	a0,0x4
   10a54:	b8650513          	addi	a0,a0,-1146 # 145d6 <end_signature+0x516>
   10a58:	5a8020ef          	jal	ra,13000 <FN_WriteStr>
   10a5c:	00004517          	auipc	a0,0x4
   10a60:	b9550513          	addi	a0,a0,-1131 # 145f1 <end_signature+0x531>
   10a64:	59c020ef          	jal	ra,13000 <FN_WriteStr>
   10a68:	00004517          	auipc	a0,0x4
   10a6c:	b9950513          	addi	a0,a0,-1127 # 14601 <end_signature+0x541>
   10a70:	590020ef          	jal	ra,13000 <FN_WriteStr>
   10a74:	00004517          	auipc	a0,0x4
   10a78:	b9550513          	addi	a0,a0,-1131 # 14609 <end_signature+0x549>
   10a7c:	584020ef          	jal	ra,13000 <FN_WriteStr>
   10a80:	00004517          	auipc	a0,0x4
   10a84:	b8d50513          	addi	a0,a0,-1139 # 1460d <end_signature+0x54d>
   10a88:	578020ef          	jal	ra,13000 <FN_WriteStr>
   10a8c:	00004517          	auipc	a0,0x4
   10a90:	b8450513          	addi	a0,a0,-1148 # 14610 <end_signature+0x550>
   10a94:	56c020ef          	jal	ra,13000 <FN_WriteStr>
   10a98:	00004517          	auipc	a0,0x4
   10a9c:	b7c50513          	addi	a0,a0,-1156 # 14614 <end_signature+0x554>
   10aa0:	560020ef          	jal	ra,13000 <FN_WriteStr>
   10aa4:	000f8513          	mv	a0,t6
   10aa8:	574020ef          	jal	ra,1301c <FN_WriteA0>
   10aac:	00004517          	auipc	a0,0x4
   10ab0:	b6a50513          	addi	a0,a0,-1174 # 14616 <end_signature+0x556>
   10ab4:	54c020ef          	jal	ra,13000 <FN_WriteStr>
   10ab8:	00004517          	auipc	a0,0x4
   10abc:	b6450513          	addi	a0,a0,-1180 # 1461c <end_signature+0x55c>
   10ac0:	540020ef          	jal	ra,13000 <FN_WriteStr>
   10ac4:	00004517          	auipc	a0,0x4
   10ac8:	b6350513          	addi	a0,a0,-1181 # 14627 <end_signature+0x567>
   10acc:	534020ef          	jal	ra,13000 <FN_WriteStr>
   10ad0:	06400193          	li	gp,100
   10ad4:	0000100f          	fence.i
   10ad8:	00018063          	beqz	gp,10ad8 <reset_vector+0xa8c>
   10adc:	00119193          	slli	gp,gp,0x1
   10ae0:	0011e193          	ori	gp,gp,1
   10ae4:	00000073          	ecall
   10ae8:	00004517          	auipc	a0,0x4
   10aec:	b4150513          	addi	a0,a0,-1215 # 14629 <end_signature+0x569>
   10af0:	510020ef          	jal	ra,13000 <FN_WriteStr>
   10af4:	00004517          	auipc	a0,0x4
   10af8:	b5150513          	addi	a0,a0,-1199 # 14645 <end_signature+0x585>
   10afc:	504020ef          	jal	ra,13000 <FN_WriteStr>
   10b00:	00003097          	auipc	ra,0x3
   10b04:	50808093          	addi	ra,ra,1288 # 14008 <test_A3_data>
   10b08:	00003117          	auipc	sp,0x3
   10b0c:	55010113          	addi	sp,sp,1360 # 14058 <test_A3_res>
   10b10:	0000a603          	lw	a2,0(ra)
   10b14:	00000693          	li	a3,0
   10b18:	00100713          	li	a4,1
   10b1c:	fff00793          	li	a5,-1
   10b20:	80000837          	lui	a6,0x80000
   10b24:	fff80813          	addi	a6,a6,-1 # 7fffffff <_end+0x7ffeaf5f>
   10b28:	800008b7          	lui	a7,0x80000
   10b2c:	00000f93          	li	t6,0
   10b30:	00d66463          	bltu	a2,a3,10b38 <reset_vector+0xaec>
   10b34:	001fef93          	ori	t6,t6,1
   10b38:	00e66463          	bltu	a2,a4,10b40 <reset_vector+0xaf4>
   10b3c:	002fef93          	ori	t6,t6,2
   10b40:	00f66463          	bltu	a2,a5,10b48 <reset_vector+0xafc>
   10b44:	004fef93          	ori	t6,t6,4
   10b48:	01066463          	bltu	a2,a6,10b50 <reset_vector+0xb04>
   10b4c:	008fef93          	ori	t6,t6,8
   10b50:	01166463          	bltu	a2,a7,10b58 <reset_vector+0xb0c>
   10b54:	010fef93          	ori	t6,t6,16
   10b58:	00c12023          	sw	a2,0(sp)
   10b5c:	00d12223          	sw	a3,4(sp)
   10b60:	00e12423          	sw	a4,8(sp)
   10b64:	00f12623          	sw	a5,12(sp)
   10b68:	01012823          	sw	a6,16(sp)
   10b6c:	01112a23          	sw	a7,20(sp)
   10b70:	01f12c23          	sw	t6,24(sp)
   10b74:	fff00293          	li	t0,-1
   10b78:	08560e63          	beq	a2,t0,10c14 <reset_vector+0xbc8>
   10b7c:	00004517          	auipc	a0,0x4
   10b80:	b1c50513          	addi	a0,a0,-1252 # 14698 <end_signature+0x5d8>
   10b84:	47c020ef          	jal	ra,13000 <FN_WriteStr>
   10b88:	00004517          	auipc	a0,0x4
   10b8c:	b2b50513          	addi	a0,a0,-1237 # 146b3 <end_signature+0x5f3>
   10b90:	470020ef          	jal	ra,13000 <FN_WriteStr>
   10b94:	00004517          	auipc	a0,0x4
   10b98:	b2f50513          	addi	a0,a0,-1233 # 146c3 <end_signature+0x603>
   10b9c:	464020ef          	jal	ra,13000 <FN_WriteStr>
   10ba0:	00004517          	auipc	a0,0x4
   10ba4:	b2b50513          	addi	a0,a0,-1237 # 146cb <end_signature+0x60b>
   10ba8:	458020ef          	jal	ra,13000 <FN_WriteStr>
   10bac:	00004517          	auipc	a0,0x4
   10bb0:	b2350513          	addi	a0,a0,-1245 # 146cf <end_signature+0x60f>
   10bb4:	44c020ef          	jal	ra,13000 <FN_WriteStr>
   10bb8:	00004517          	auipc	a0,0x4
   10bbc:	b1a50513          	addi	a0,a0,-1254 # 146d2 <end_signature+0x612>
   10bc0:	440020ef          	jal	ra,13000 <FN_WriteStr>
   10bc4:	00004517          	auipc	a0,0x4
   10bc8:	b1250513          	addi	a0,a0,-1262 # 146d6 <end_signature+0x616>
   10bcc:	434020ef          	jal	ra,13000 <FN_WriteStr>
   10bd0:	00060513          	mv	a0,a2
   10bd4:	448020ef          	jal	ra,1301c <FN_WriteA0>
   10bd8:	00004517          	auipc	a0,0x4
   10bdc:	b0050513          	addi	a0,a0,-1280 # 146d8 <end_signature+0x618>
   10be0:	420020ef          	jal	ra,13000 <FN_WriteStr>
   10be4:	00004517          	auipc	a0,0x4
   10be8:	afa50513          	addi	a0,a0,-1286 # 146de <end_signature+0x61e>
   10bec:	414020ef          	jal	ra,13000 <FN_WriteStr>
   10bf0:	00004517          	auipc	a0,0x4
   10bf4:	af950513          	addi	a0,a0,-1287 # 146e9 <end_signature+0x629>
   10bf8:	408020ef          	jal	ra,13000 <FN_WriteStr>
   10bfc:	06400193          	li	gp,100
   10c00:	0000100f          	fence.i
   10c04:	00018063          	beqz	gp,10c04 <reset_vector+0xbb8>
   10c08:	00119193          	slli	gp,gp,0x1
   10c0c:	0011e193          	ori	gp,gp,1
   10c10:	00000073          	ecall
   10c14:	00000293          	li	t0,0
   10c18:	08568e63          	beq	a3,t0,10cb4 <reset_vector+0xc68>
   10c1c:	00004517          	auipc	a0,0x4
   10c20:	acf50513          	addi	a0,a0,-1329 # 146eb <end_signature+0x62b>
   10c24:	3dc020ef          	jal	ra,13000 <FN_WriteStr>
   10c28:	00004517          	auipc	a0,0x4
   10c2c:	ade50513          	addi	a0,a0,-1314 # 14706 <end_signature+0x646>
   10c30:	3d0020ef          	jal	ra,13000 <FN_WriteStr>
   10c34:	00004517          	auipc	a0,0x4
   10c38:	ae250513          	addi	a0,a0,-1310 # 14716 <end_signature+0x656>
   10c3c:	3c4020ef          	jal	ra,13000 <FN_WriteStr>
   10c40:	00004517          	auipc	a0,0x4
   10c44:	ade50513          	addi	a0,a0,-1314 # 1471e <end_signature+0x65e>
   10c48:	3b8020ef          	jal	ra,13000 <FN_WriteStr>
   10c4c:	00004517          	auipc	a0,0x4
   10c50:	ad650513          	addi	a0,a0,-1322 # 14722 <end_signature+0x662>
   10c54:	3ac020ef          	jal	ra,13000 <FN_WriteStr>
   10c58:	00004517          	auipc	a0,0x4
   10c5c:	acd50513          	addi	a0,a0,-1331 # 14725 <end_signature+0x665>
   10c60:	3a0020ef          	jal	ra,13000 <FN_WriteStr>
   10c64:	00004517          	auipc	a0,0x4
   10c68:	ac550513          	addi	a0,a0,-1339 # 14729 <end_signature+0x669>
   10c6c:	394020ef          	jal	ra,13000 <FN_WriteStr>
   10c70:	00068513          	mv	a0,a3
   10c74:	3a8020ef          	jal	ra,1301c <FN_WriteA0>
   10c78:	00004517          	auipc	a0,0x4
   10c7c:	ab350513          	addi	a0,a0,-1357 # 1472b <end_signature+0x66b>
   10c80:	380020ef          	jal	ra,13000 <FN_WriteStr>
   10c84:	00004517          	auipc	a0,0x4
   10c88:	aad50513          	addi	a0,a0,-1363 # 14731 <end_signature+0x671>
   10c8c:	374020ef          	jal	ra,13000 <FN_WriteStr>
   10c90:	00004517          	auipc	a0,0x4
   10c94:	aac50513          	addi	a0,a0,-1364 # 1473c <end_signature+0x67c>
   10c98:	368020ef          	jal	ra,13000 <FN_WriteStr>
   10c9c:	06400193          	li	gp,100
   10ca0:	0000100f          	fence.i
   10ca4:	00018063          	beqz	gp,10ca4 <reset_vector+0xc58>
   10ca8:	00119193          	slli	gp,gp,0x1
   10cac:	0011e193          	ori	gp,gp,1
   10cb0:	00000073          	ecall
   10cb4:	00100293          	li	t0,1
   10cb8:	08570e63          	beq	a4,t0,10d54 <reset_vector+0xd08>
   10cbc:	00004517          	auipc	a0,0x4
   10cc0:	a8250513          	addi	a0,a0,-1406 # 1473e <end_signature+0x67e>
   10cc4:	33c020ef          	jal	ra,13000 <FN_WriteStr>
   10cc8:	00004517          	auipc	a0,0x4
   10ccc:	a9150513          	addi	a0,a0,-1391 # 14759 <end_signature+0x699>
   10cd0:	330020ef          	jal	ra,13000 <FN_WriteStr>
   10cd4:	00004517          	auipc	a0,0x4
   10cd8:	a9550513          	addi	a0,a0,-1387 # 14769 <end_signature+0x6a9>
   10cdc:	324020ef          	jal	ra,13000 <FN_WriteStr>
   10ce0:	00004517          	auipc	a0,0x4
   10ce4:	a9150513          	addi	a0,a0,-1391 # 14771 <end_signature+0x6b1>
   10ce8:	318020ef          	jal	ra,13000 <FN_WriteStr>
   10cec:	00004517          	auipc	a0,0x4
   10cf0:	a8950513          	addi	a0,a0,-1399 # 14775 <end_signature+0x6b5>
   10cf4:	30c020ef          	jal	ra,13000 <FN_WriteStr>
   10cf8:	00004517          	auipc	a0,0x4
   10cfc:	a8050513          	addi	a0,a0,-1408 # 14778 <end_signature+0x6b8>
   10d00:	300020ef          	jal	ra,13000 <FN_WriteStr>
   10d04:	00004517          	auipc	a0,0x4
   10d08:	a7850513          	addi	a0,a0,-1416 # 1477c <end_signature+0x6bc>
   10d0c:	2f4020ef          	jal	ra,13000 <FN_WriteStr>
   10d10:	00070513          	mv	a0,a4
   10d14:	308020ef          	jal	ra,1301c <FN_WriteA0>
   10d18:	00004517          	auipc	a0,0x4
   10d1c:	a6650513          	addi	a0,a0,-1434 # 1477e <end_signature+0x6be>
   10d20:	2e0020ef          	jal	ra,13000 <FN_WriteStr>
   10d24:	00004517          	auipc	a0,0x4
   10d28:	a6050513          	addi	a0,a0,-1440 # 14784 <end_signature+0x6c4>
   10d2c:	2d4020ef          	jal	ra,13000 <FN_WriteStr>
   10d30:	00004517          	auipc	a0,0x4
   10d34:	a5f50513          	addi	a0,a0,-1441 # 1478f <end_signature+0x6cf>
   10d38:	2c8020ef          	jal	ra,13000 <FN_WriteStr>
   10d3c:	06400193          	li	gp,100
   10d40:	0000100f          	fence.i
   10d44:	00018063          	beqz	gp,10d44 <reset_vector+0xcf8>
   10d48:	00119193          	slli	gp,gp,0x1
   10d4c:	0011e193          	ori	gp,gp,1
   10d50:	00000073          	ecall
   10d54:	fff00293          	li	t0,-1
   10d58:	08578e63          	beq	a5,t0,10df4 <reset_vector+0xda8>
   10d5c:	00004517          	auipc	a0,0x4
   10d60:	a3550513          	addi	a0,a0,-1483 # 14791 <end_signature+0x6d1>
   10d64:	29c020ef          	jal	ra,13000 <FN_WriteStr>
   10d68:	00004517          	auipc	a0,0x4
   10d6c:	a4450513          	addi	a0,a0,-1468 # 147ac <end_signature+0x6ec>
   10d70:	290020ef          	jal	ra,13000 <FN_WriteStr>
   10d74:	00004517          	auipc	a0,0x4
   10d78:	a4850513          	addi	a0,a0,-1464 # 147bc <end_signature+0x6fc>
   10d7c:	284020ef          	jal	ra,13000 <FN_WriteStr>
   10d80:	00004517          	auipc	a0,0x4
   10d84:	a4450513          	addi	a0,a0,-1468 # 147c4 <end_signature+0x704>
   10d88:	278020ef          	jal	ra,13000 <FN_WriteStr>
   10d8c:	00004517          	auipc	a0,0x4
   10d90:	a3c50513          	addi	a0,a0,-1476 # 147c8 <end_signature+0x708>
   10d94:	26c020ef          	jal	ra,13000 <FN_WriteStr>
   10d98:	00004517          	auipc	a0,0x4
   10d9c:	a3350513          	addi	a0,a0,-1485 # 147cb <end_signature+0x70b>
   10da0:	260020ef          	jal	ra,13000 <FN_WriteStr>
   10da4:	00004517          	auipc	a0,0x4
   10da8:	a2b50513          	addi	a0,a0,-1493 # 147cf <end_signature+0x70f>
   10dac:	254020ef          	jal	ra,13000 <FN_WriteStr>
   10db0:	00078513          	mv	a0,a5
   10db4:	268020ef          	jal	ra,1301c <FN_WriteA0>
   10db8:	00004517          	auipc	a0,0x4
   10dbc:	a1950513          	addi	a0,a0,-1511 # 147d1 <end_signature+0x711>
   10dc0:	240020ef          	jal	ra,13000 <FN_WriteStr>
   10dc4:	00004517          	auipc	a0,0x4
   10dc8:	a1350513          	addi	a0,a0,-1517 # 147d7 <end_signature+0x717>
   10dcc:	234020ef          	jal	ra,13000 <FN_WriteStr>
   10dd0:	00004517          	auipc	a0,0x4
   10dd4:	a1250513          	addi	a0,a0,-1518 # 147e2 <end_signature+0x722>
   10dd8:	228020ef          	jal	ra,13000 <FN_WriteStr>
   10ddc:	06400193          	li	gp,100
   10de0:	0000100f          	fence.i
   10de4:	00018063          	beqz	gp,10de4 <reset_vector+0xd98>
   10de8:	00119193          	slli	gp,gp,0x1
   10dec:	0011e193          	ori	gp,gp,1
   10df0:	00000073          	ecall
   10df4:	800002b7          	lui	t0,0x80000
   10df8:	fff28293          	addi	t0,t0,-1 # 7fffffff <_end+0x7ffeaf5f>
   10dfc:	08580e63          	beq	a6,t0,10e98 <reset_vector+0xe4c>
   10e00:	00004517          	auipc	a0,0x4
   10e04:	9e450513          	addi	a0,a0,-1564 # 147e4 <end_signature+0x724>
   10e08:	1f8020ef          	jal	ra,13000 <FN_WriteStr>
   10e0c:	00004517          	auipc	a0,0x4
   10e10:	9f350513          	addi	a0,a0,-1549 # 147ff <end_signature+0x73f>
   10e14:	1ec020ef          	jal	ra,13000 <FN_WriteStr>
   10e18:	00004517          	auipc	a0,0x4
   10e1c:	9f750513          	addi	a0,a0,-1545 # 1480f <end_signature+0x74f>
   10e20:	1e0020ef          	jal	ra,13000 <FN_WriteStr>
   10e24:	00004517          	auipc	a0,0x4
   10e28:	9f350513          	addi	a0,a0,-1549 # 14817 <end_signature+0x757>
   10e2c:	1d4020ef          	jal	ra,13000 <FN_WriteStr>
   10e30:	00004517          	auipc	a0,0x4
   10e34:	9eb50513          	addi	a0,a0,-1557 # 1481b <end_signature+0x75b>
   10e38:	1c8020ef          	jal	ra,13000 <FN_WriteStr>
   10e3c:	00004517          	auipc	a0,0x4
   10e40:	9e250513          	addi	a0,a0,-1566 # 1481e <end_signature+0x75e>
   10e44:	1bc020ef          	jal	ra,13000 <FN_WriteStr>
   10e48:	00004517          	auipc	a0,0x4
   10e4c:	9da50513          	addi	a0,a0,-1574 # 14822 <end_signature+0x762>
   10e50:	1b0020ef          	jal	ra,13000 <FN_WriteStr>
   10e54:	00080513          	mv	a0,a6
   10e58:	1c4020ef          	jal	ra,1301c <FN_WriteA0>
   10e5c:	00004517          	auipc	a0,0x4
   10e60:	9c850513          	addi	a0,a0,-1592 # 14824 <end_signature+0x764>
   10e64:	19c020ef          	jal	ra,13000 <FN_WriteStr>
   10e68:	00004517          	auipc	a0,0x4
   10e6c:	9c250513          	addi	a0,a0,-1598 # 1482a <end_signature+0x76a>
   10e70:	190020ef          	jal	ra,13000 <FN_WriteStr>
   10e74:	00004517          	auipc	a0,0x4
   10e78:	9c150513          	addi	a0,a0,-1599 # 14835 <end_signature+0x775>
   10e7c:	184020ef          	jal	ra,13000 <FN_WriteStr>
   10e80:	06400193          	li	gp,100
   10e84:	0000100f          	fence.i
   10e88:	00018063          	beqz	gp,10e88 <reset_vector+0xe3c>
   10e8c:	00119193          	slli	gp,gp,0x1
   10e90:	0011e193          	ori	gp,gp,1
   10e94:	00000073          	ecall
   10e98:	800002b7          	lui	t0,0x80000
   10e9c:	08588e63          	beq	a7,t0,10f38 <reset_vector+0xeec>
   10ea0:	00004517          	auipc	a0,0x4
   10ea4:	99750513          	addi	a0,a0,-1641 # 14837 <end_signature+0x777>
   10ea8:	158020ef          	jal	ra,13000 <FN_WriteStr>
   10eac:	00004517          	auipc	a0,0x4
   10eb0:	9a650513          	addi	a0,a0,-1626 # 14852 <end_signature+0x792>
   10eb4:	14c020ef          	jal	ra,13000 <FN_WriteStr>
   10eb8:	00004517          	auipc	a0,0x4
   10ebc:	9aa50513          	addi	a0,a0,-1622 # 14862 <end_signature+0x7a2>
   10ec0:	140020ef          	jal	ra,13000 <FN_WriteStr>
   10ec4:	00004517          	auipc	a0,0x4
   10ec8:	9a650513          	addi	a0,a0,-1626 # 1486a <end_signature+0x7aa>
   10ecc:	134020ef          	jal	ra,13000 <FN_WriteStr>
   10ed0:	00004517          	auipc	a0,0x4
   10ed4:	99e50513          	addi	a0,a0,-1634 # 1486e <end_signature+0x7ae>
   10ed8:	128020ef          	jal	ra,13000 <FN_WriteStr>
   10edc:	00004517          	auipc	a0,0x4
   10ee0:	99550513          	addi	a0,a0,-1643 # 14871 <end_signature+0x7b1>
   10ee4:	11c020ef          	jal	ra,13000 <FN_WriteStr>
   10ee8:	00004517          	auipc	a0,0x4
   10eec:	98d50513          	addi	a0,a0,-1651 # 14875 <end_signature+0x7b5>
   10ef0:	110020ef          	jal	ra,13000 <FN_WriteStr>
   10ef4:	00088513          	mv	a0,a7
   10ef8:	124020ef          	jal	ra,1301c <FN_WriteA0>
   10efc:	00004517          	auipc	a0,0x4
   10f00:	97b50513          	addi	a0,a0,-1669 # 14877 <end_signature+0x7b7>
   10f04:	0fc020ef          	jal	ra,13000 <FN_WriteStr>
   10f08:	00004517          	auipc	a0,0x4
   10f0c:	97550513          	addi	a0,a0,-1675 # 1487d <end_signature+0x7bd>
   10f10:	0f0020ef          	jal	ra,13000 <FN_WriteStr>
   10f14:	00004517          	auipc	a0,0x4
   10f18:	97450513          	addi	a0,a0,-1676 # 14888 <end_signature+0x7c8>
   10f1c:	0e4020ef          	jal	ra,13000 <FN_WriteStr>
   10f20:	06400193          	li	gp,100
   10f24:	0000100f          	fence.i
   10f28:	00018063          	beqz	gp,10f28 <reset_vector+0xedc>
   10f2c:	00119193          	slli	gp,gp,0x1
   10f30:	0011e193          	ori	gp,gp,1
   10f34:	00000073          	ecall
   10f38:	01f00293          	li	t0,31
   10f3c:	085f8e63          	beq	t6,t0,10fd8 <reset_vector+0xf8c>
   10f40:	00004517          	auipc	a0,0x4
   10f44:	94a50513          	addi	a0,a0,-1718 # 1488a <end_signature+0x7ca>
   10f48:	0b8020ef          	jal	ra,13000 <FN_WriteStr>
   10f4c:	00004517          	auipc	a0,0x4
   10f50:	95950513          	addi	a0,a0,-1703 # 148a5 <end_signature+0x7e5>
   10f54:	0ac020ef          	jal	ra,13000 <FN_WriteStr>
   10f58:	00004517          	auipc	a0,0x4
   10f5c:	95d50513          	addi	a0,a0,-1699 # 148b5 <end_signature+0x7f5>
   10f60:	0a0020ef          	jal	ra,13000 <FN_WriteStr>
   10f64:	00004517          	auipc	a0,0x4
   10f68:	95950513          	addi	a0,a0,-1703 # 148bd <end_signature+0x7fd>
   10f6c:	094020ef          	jal	ra,13000 <FN_WriteStr>
   10f70:	00004517          	auipc	a0,0x4
   10f74:	95150513          	addi	a0,a0,-1711 # 148c1 <end_signature+0x801>
   10f78:	088020ef          	jal	ra,13000 <FN_WriteStr>
   10f7c:	00004517          	auipc	a0,0x4
   10f80:	94850513          	addi	a0,a0,-1720 # 148c4 <end_signature+0x804>
   10f84:	07c020ef          	jal	ra,13000 <FN_WriteStr>
   10f88:	00004517          	auipc	a0,0x4
   10f8c:	94050513          	addi	a0,a0,-1728 # 148c8 <end_signature+0x808>
   10f90:	070020ef          	jal	ra,13000 <FN_WriteStr>
   10f94:	000f8513          	mv	a0,t6
   10f98:	084020ef          	jal	ra,1301c <FN_WriteA0>
   10f9c:	00004517          	auipc	a0,0x4
   10fa0:	92e50513          	addi	a0,a0,-1746 # 148ca <end_signature+0x80a>
   10fa4:	05c020ef          	jal	ra,13000 <FN_WriteStr>
   10fa8:	00004517          	auipc	a0,0x4
   10fac:	92850513          	addi	a0,a0,-1752 # 148d0 <end_signature+0x810>
   10fb0:	050020ef          	jal	ra,13000 <FN_WriteStr>
   10fb4:	00004517          	auipc	a0,0x4
   10fb8:	92750513          	addi	a0,a0,-1753 # 148db <end_signature+0x81b>
   10fbc:	044020ef          	jal	ra,13000 <FN_WriteStr>
   10fc0:	06400193          	li	gp,100
   10fc4:	0000100f          	fence.i
   10fc8:	00018063          	beqz	gp,10fc8 <reset_vector+0xf7c>
   10fcc:	00119193          	slli	gp,gp,0x1
   10fd0:	0011e193          	ori	gp,gp,1
   10fd4:	00000073          	ecall
   10fd8:	00004517          	auipc	a0,0x4
   10fdc:	90550513          	addi	a0,a0,-1787 # 148dd <end_signature+0x81d>
   10fe0:	020020ef          	jal	ra,13000 <FN_WriteStr>
   10fe4:	00004517          	auipc	a0,0x4
   10fe8:	91550513          	addi	a0,a0,-1771 # 148f9 <end_signature+0x839>
   10fec:	014020ef          	jal	ra,13000 <FN_WriteStr>
   10ff0:	00003097          	auipc	ra,0x3
   10ff4:	01c08093          	addi	ra,ra,28 # 1400c <test_A4_data>
   10ff8:	00003117          	auipc	sp,0x3
   10ffc:	07c10113          	addi	sp,sp,124 # 14074 <test_A4_res>
   11000:	0000a903          	lw	s2,0(ra)
   11004:	00000993          	li	s3,0
   11008:	00100a13          	li	s4,1
   1100c:	fff00a93          	li	s5,-1
   11010:	80000b37          	lui	s6,0x80000
   11014:	fffb0b13          	addi	s6,s6,-1 # 7fffffff <_end+0x7ffeaf5f>
   11018:	80000bb7          	lui	s7,0x80000
   1101c:	00000f93          	li	t6,0
   11020:	01396463          	bltu	s2,s3,11028 <reset_vector+0xfdc>
   11024:	001fef93          	ori	t6,t6,1
   11028:	01496463          	bltu	s2,s4,11030 <reset_vector+0xfe4>
   1102c:	002fef93          	ori	t6,t6,2
   11030:	01596463          	bltu	s2,s5,11038 <reset_vector+0xfec>
   11034:	004fef93          	ori	t6,t6,4
   11038:	01696463          	bltu	s2,s6,11040 <reset_vector+0xff4>
   1103c:	008fef93          	ori	t6,t6,8
   11040:	01796463          	bltu	s2,s7,11048 <reset_vector+0xffc>
   11044:	010fef93          	ori	t6,t6,16
   11048:	01212023          	sw	s2,0(sp)
   1104c:	01312223          	sw	s3,4(sp)
   11050:	01412423          	sw	s4,8(sp)
   11054:	01512623          	sw	s5,12(sp)
   11058:	01612823          	sw	s6,16(sp)
   1105c:	01712a23          	sw	s7,20(sp)
   11060:	01f12c23          	sw	t6,24(sp)
   11064:	800002b7          	lui	t0,0x80000
   11068:	fff28293          	addi	t0,t0,-1 # 7fffffff <_end+0x7ffeaf5f>
   1106c:	08590e63          	beq	s2,t0,11108 <reset_vector+0x10bc>
   11070:	00004517          	auipc	a0,0x4
   11074:	8e450513          	addi	a0,a0,-1820 # 14954 <end_signature+0x894>
   11078:	789010ef          	jal	ra,13000 <FN_WriteStr>
   1107c:	00004517          	auipc	a0,0x4
   11080:	8f350513          	addi	a0,a0,-1805 # 1496f <end_signature+0x8af>
   11084:	77d010ef          	jal	ra,13000 <FN_WriteStr>
   11088:	00004517          	auipc	a0,0x4
   1108c:	8f750513          	addi	a0,a0,-1801 # 1497f <end_signature+0x8bf>
   11090:	771010ef          	jal	ra,13000 <FN_WriteStr>
   11094:	00004517          	auipc	a0,0x4
   11098:	8f350513          	addi	a0,a0,-1805 # 14987 <end_signature+0x8c7>
   1109c:	765010ef          	jal	ra,13000 <FN_WriteStr>
   110a0:	00004517          	auipc	a0,0x4
   110a4:	8eb50513          	addi	a0,a0,-1813 # 1498b <end_signature+0x8cb>
   110a8:	759010ef          	jal	ra,13000 <FN_WriteStr>
   110ac:	00004517          	auipc	a0,0x4
   110b0:	8e250513          	addi	a0,a0,-1822 # 1498e <end_signature+0x8ce>
   110b4:	74d010ef          	jal	ra,13000 <FN_WriteStr>
   110b8:	00004517          	auipc	a0,0x4
   110bc:	8da50513          	addi	a0,a0,-1830 # 14992 <end_signature+0x8d2>
   110c0:	741010ef          	jal	ra,13000 <FN_WriteStr>
   110c4:	00090513          	mv	a0,s2
   110c8:	755010ef          	jal	ra,1301c <FN_WriteA0>
   110cc:	00004517          	auipc	a0,0x4
   110d0:	8c850513          	addi	a0,a0,-1848 # 14994 <end_signature+0x8d4>
   110d4:	72d010ef          	jal	ra,13000 <FN_WriteStr>
   110d8:	00004517          	auipc	a0,0x4
   110dc:	8c250513          	addi	a0,a0,-1854 # 1499a <end_signature+0x8da>
   110e0:	721010ef          	jal	ra,13000 <FN_WriteStr>
   110e4:	00004517          	auipc	a0,0x4
   110e8:	8c150513          	addi	a0,a0,-1855 # 149a5 <end_signature+0x8e5>
   110ec:	715010ef          	jal	ra,13000 <FN_WriteStr>
   110f0:	06400193          	li	gp,100
   110f4:	0000100f          	fence.i
   110f8:	00018063          	beqz	gp,110f8 <reset_vector+0x10ac>
   110fc:	00119193          	slli	gp,gp,0x1
   11100:	0011e193          	ori	gp,gp,1
   11104:	00000073          	ecall
   11108:	00000293          	li	t0,0
   1110c:	08598e63          	beq	s3,t0,111a8 <reset_vector+0x115c>
   11110:	00004517          	auipc	a0,0x4
   11114:	89750513          	addi	a0,a0,-1897 # 149a7 <end_signature+0x8e7>
   11118:	6e9010ef          	jal	ra,13000 <FN_WriteStr>
   1111c:	00004517          	auipc	a0,0x4
   11120:	8a650513          	addi	a0,a0,-1882 # 149c2 <end_signature+0x902>
   11124:	6dd010ef          	jal	ra,13000 <FN_WriteStr>
   11128:	00004517          	auipc	a0,0x4
   1112c:	8aa50513          	addi	a0,a0,-1878 # 149d2 <end_signature+0x912>
   11130:	6d1010ef          	jal	ra,13000 <FN_WriteStr>
   11134:	00004517          	auipc	a0,0x4
   11138:	8a650513          	addi	a0,a0,-1882 # 149da <end_signature+0x91a>
   1113c:	6c5010ef          	jal	ra,13000 <FN_WriteStr>
   11140:	00004517          	auipc	a0,0x4
   11144:	89e50513          	addi	a0,a0,-1890 # 149de <end_signature+0x91e>
   11148:	6b9010ef          	jal	ra,13000 <FN_WriteStr>
   1114c:	00004517          	auipc	a0,0x4
   11150:	89550513          	addi	a0,a0,-1899 # 149e1 <end_signature+0x921>
   11154:	6ad010ef          	jal	ra,13000 <FN_WriteStr>
   11158:	00004517          	auipc	a0,0x4
   1115c:	88d50513          	addi	a0,a0,-1907 # 149e5 <end_signature+0x925>
   11160:	6a1010ef          	jal	ra,13000 <FN_WriteStr>
   11164:	00098513          	mv	a0,s3
   11168:	6b5010ef          	jal	ra,1301c <FN_WriteA0>
   1116c:	00004517          	auipc	a0,0x4
   11170:	87b50513          	addi	a0,a0,-1925 # 149e7 <end_signature+0x927>
   11174:	68d010ef          	jal	ra,13000 <FN_WriteStr>
   11178:	00004517          	auipc	a0,0x4
   1117c:	87550513          	addi	a0,a0,-1931 # 149ed <end_signature+0x92d>
   11180:	681010ef          	jal	ra,13000 <FN_WriteStr>
   11184:	00004517          	auipc	a0,0x4
   11188:	87450513          	addi	a0,a0,-1932 # 149f8 <end_signature+0x938>
   1118c:	675010ef          	jal	ra,13000 <FN_WriteStr>
   11190:	06400193          	li	gp,100
   11194:	0000100f          	fence.i
   11198:	00018063          	beqz	gp,11198 <reset_vector+0x114c>
   1119c:	00119193          	slli	gp,gp,0x1
   111a0:	0011e193          	ori	gp,gp,1
   111a4:	00000073          	ecall
   111a8:	00100293          	li	t0,1
   111ac:	085a0e63          	beq	s4,t0,11248 <reset_vector+0x11fc>
   111b0:	00004517          	auipc	a0,0x4
   111b4:	84a50513          	addi	a0,a0,-1974 # 149fa <end_signature+0x93a>
   111b8:	649010ef          	jal	ra,13000 <FN_WriteStr>
   111bc:	00004517          	auipc	a0,0x4
   111c0:	85950513          	addi	a0,a0,-1959 # 14a15 <end_signature+0x955>
   111c4:	63d010ef          	jal	ra,13000 <FN_WriteStr>
   111c8:	00004517          	auipc	a0,0x4
   111cc:	85d50513          	addi	a0,a0,-1955 # 14a25 <end_signature+0x965>
   111d0:	631010ef          	jal	ra,13000 <FN_WriteStr>
   111d4:	00004517          	auipc	a0,0x4
   111d8:	85950513          	addi	a0,a0,-1959 # 14a2d <end_signature+0x96d>
   111dc:	625010ef          	jal	ra,13000 <FN_WriteStr>
   111e0:	00004517          	auipc	a0,0x4
   111e4:	85150513          	addi	a0,a0,-1967 # 14a31 <end_signature+0x971>
   111e8:	619010ef          	jal	ra,13000 <FN_WriteStr>
   111ec:	00004517          	auipc	a0,0x4
   111f0:	84850513          	addi	a0,a0,-1976 # 14a34 <end_signature+0x974>
   111f4:	60d010ef          	jal	ra,13000 <FN_WriteStr>
   111f8:	00004517          	auipc	a0,0x4
   111fc:	84050513          	addi	a0,a0,-1984 # 14a38 <end_signature+0x978>
   11200:	601010ef          	jal	ra,13000 <FN_WriteStr>
   11204:	000a0513          	mv	a0,s4
   11208:	615010ef          	jal	ra,1301c <FN_WriteA0>
   1120c:	00004517          	auipc	a0,0x4
   11210:	82e50513          	addi	a0,a0,-2002 # 14a3a <end_signature+0x97a>
   11214:	5ed010ef          	jal	ra,13000 <FN_WriteStr>
   11218:	00004517          	auipc	a0,0x4
   1121c:	82850513          	addi	a0,a0,-2008 # 14a40 <end_signature+0x980>
   11220:	5e1010ef          	jal	ra,13000 <FN_WriteStr>
   11224:	00004517          	auipc	a0,0x4
   11228:	82750513          	addi	a0,a0,-2009 # 14a4b <end_signature+0x98b>
   1122c:	5d5010ef          	jal	ra,13000 <FN_WriteStr>
   11230:	06400193          	li	gp,100
   11234:	0000100f          	fence.i
   11238:	00018063          	beqz	gp,11238 <reset_vector+0x11ec>
   1123c:	00119193          	slli	gp,gp,0x1
   11240:	0011e193          	ori	gp,gp,1
   11244:	00000073          	ecall
   11248:	fff00293          	li	t0,-1
   1124c:	085a8e63          	beq	s5,t0,112e8 <reset_vector+0x129c>
   11250:	00003517          	auipc	a0,0x3
   11254:	7fd50513          	addi	a0,a0,2045 # 14a4d <end_signature+0x98d>
   11258:	5a9010ef          	jal	ra,13000 <FN_WriteStr>
   1125c:	00004517          	auipc	a0,0x4
   11260:	80c50513          	addi	a0,a0,-2036 # 14a68 <end_signature+0x9a8>
   11264:	59d010ef          	jal	ra,13000 <FN_WriteStr>
   11268:	00004517          	auipc	a0,0x4
   1126c:	81050513          	addi	a0,a0,-2032 # 14a78 <end_signature+0x9b8>
   11270:	591010ef          	jal	ra,13000 <FN_WriteStr>
   11274:	00004517          	auipc	a0,0x4
   11278:	80c50513          	addi	a0,a0,-2036 # 14a80 <end_signature+0x9c0>
   1127c:	585010ef          	jal	ra,13000 <FN_WriteStr>
   11280:	00004517          	auipc	a0,0x4
   11284:	80450513          	addi	a0,a0,-2044 # 14a84 <end_signature+0x9c4>
   11288:	579010ef          	jal	ra,13000 <FN_WriteStr>
   1128c:	00003517          	auipc	a0,0x3
   11290:	7fb50513          	addi	a0,a0,2043 # 14a87 <end_signature+0x9c7>
   11294:	56d010ef          	jal	ra,13000 <FN_WriteStr>
   11298:	00003517          	auipc	a0,0x3
   1129c:	7f350513          	addi	a0,a0,2035 # 14a8b <end_signature+0x9cb>
   112a0:	561010ef          	jal	ra,13000 <FN_WriteStr>
   112a4:	000a8513          	mv	a0,s5
   112a8:	575010ef          	jal	ra,1301c <FN_WriteA0>
   112ac:	00003517          	auipc	a0,0x3
   112b0:	7e150513          	addi	a0,a0,2017 # 14a8d <end_signature+0x9cd>
   112b4:	54d010ef          	jal	ra,13000 <FN_WriteStr>
   112b8:	00003517          	auipc	a0,0x3
   112bc:	7db50513          	addi	a0,a0,2011 # 14a93 <end_signature+0x9d3>
   112c0:	541010ef          	jal	ra,13000 <FN_WriteStr>
   112c4:	00003517          	auipc	a0,0x3
   112c8:	7da50513          	addi	a0,a0,2010 # 14a9e <end_signature+0x9de>
   112cc:	535010ef          	jal	ra,13000 <FN_WriteStr>
   112d0:	06400193          	li	gp,100
   112d4:	0000100f          	fence.i
   112d8:	00018063          	beqz	gp,112d8 <reset_vector+0x128c>
   112dc:	00119193          	slli	gp,gp,0x1
   112e0:	0011e193          	ori	gp,gp,1
   112e4:	00000073          	ecall
   112e8:	800002b7          	lui	t0,0x80000
   112ec:	fff28293          	addi	t0,t0,-1 # 7fffffff <_end+0x7ffeaf5f>
   112f0:	085b0e63          	beq	s6,t0,1138c <reset_vector+0x1340>
   112f4:	00003517          	auipc	a0,0x3
   112f8:	7ac50513          	addi	a0,a0,1964 # 14aa0 <end_signature+0x9e0>
   112fc:	505010ef          	jal	ra,13000 <FN_WriteStr>
   11300:	00003517          	auipc	a0,0x3
   11304:	7bb50513          	addi	a0,a0,1979 # 14abb <end_signature+0x9fb>
   11308:	4f9010ef          	jal	ra,13000 <FN_WriteStr>
   1130c:	00003517          	auipc	a0,0x3
   11310:	7bf50513          	addi	a0,a0,1983 # 14acb <end_signature+0xa0b>
   11314:	4ed010ef          	jal	ra,13000 <FN_WriteStr>
   11318:	00003517          	auipc	a0,0x3
   1131c:	7bb50513          	addi	a0,a0,1979 # 14ad3 <end_signature+0xa13>
   11320:	4e1010ef          	jal	ra,13000 <FN_WriteStr>
   11324:	00003517          	auipc	a0,0x3
   11328:	7b350513          	addi	a0,a0,1971 # 14ad7 <end_signature+0xa17>
   1132c:	4d5010ef          	jal	ra,13000 <FN_WriteStr>
   11330:	00003517          	auipc	a0,0x3
   11334:	7aa50513          	addi	a0,a0,1962 # 14ada <end_signature+0xa1a>
   11338:	4c9010ef          	jal	ra,13000 <FN_WriteStr>
   1133c:	00003517          	auipc	a0,0x3
   11340:	7a250513          	addi	a0,a0,1954 # 14ade <end_signature+0xa1e>
   11344:	4bd010ef          	jal	ra,13000 <FN_WriteStr>
   11348:	000b0513          	mv	a0,s6
   1134c:	4d1010ef          	jal	ra,1301c <FN_WriteA0>
   11350:	00003517          	auipc	a0,0x3
   11354:	79050513          	addi	a0,a0,1936 # 14ae0 <end_signature+0xa20>
   11358:	4a9010ef          	jal	ra,13000 <FN_WriteStr>
   1135c:	00003517          	auipc	a0,0x3
   11360:	78a50513          	addi	a0,a0,1930 # 14ae6 <end_signature+0xa26>
   11364:	49d010ef          	jal	ra,13000 <FN_WriteStr>
   11368:	00003517          	auipc	a0,0x3
   1136c:	78950513          	addi	a0,a0,1929 # 14af1 <end_signature+0xa31>
   11370:	491010ef          	jal	ra,13000 <FN_WriteStr>
   11374:	06400193          	li	gp,100
   11378:	0000100f          	fence.i
   1137c:	00018063          	beqz	gp,1137c <reset_vector+0x1330>
   11380:	00119193          	slli	gp,gp,0x1
   11384:	0011e193          	ori	gp,gp,1
   11388:	00000073          	ecall
   1138c:	800002b7          	lui	t0,0x80000
   11390:	085b8e63          	beq	s7,t0,1142c <reset_vector+0x13e0>
   11394:	00003517          	auipc	a0,0x3
   11398:	75f50513          	addi	a0,a0,1887 # 14af3 <end_signature+0xa33>
   1139c:	465010ef          	jal	ra,13000 <FN_WriteStr>
   113a0:	00003517          	auipc	a0,0x3
   113a4:	76e50513          	addi	a0,a0,1902 # 14b0e <end_signature+0xa4e>
   113a8:	459010ef          	jal	ra,13000 <FN_WriteStr>
   113ac:	00003517          	auipc	a0,0x3
   113b0:	77250513          	addi	a0,a0,1906 # 14b1e <end_signature+0xa5e>
   113b4:	44d010ef          	jal	ra,13000 <FN_WriteStr>
   113b8:	00003517          	auipc	a0,0x3
   113bc:	76e50513          	addi	a0,a0,1902 # 14b26 <end_signature+0xa66>
   113c0:	441010ef          	jal	ra,13000 <FN_WriteStr>
   113c4:	00003517          	auipc	a0,0x3
   113c8:	76650513          	addi	a0,a0,1894 # 14b2a <end_signature+0xa6a>
   113cc:	435010ef          	jal	ra,13000 <FN_WriteStr>
   113d0:	00003517          	auipc	a0,0x3
   113d4:	75d50513          	addi	a0,a0,1885 # 14b2d <end_signature+0xa6d>
   113d8:	429010ef          	jal	ra,13000 <FN_WriteStr>
   113dc:	00003517          	auipc	a0,0x3
   113e0:	75550513          	addi	a0,a0,1877 # 14b31 <end_signature+0xa71>
   113e4:	41d010ef          	jal	ra,13000 <FN_WriteStr>
   113e8:	000b8513          	mv	a0,s7
   113ec:	431010ef          	jal	ra,1301c <FN_WriteA0>
   113f0:	00003517          	auipc	a0,0x3
   113f4:	74350513          	addi	a0,a0,1859 # 14b33 <end_signature+0xa73>
   113f8:	409010ef          	jal	ra,13000 <FN_WriteStr>
   113fc:	00003517          	auipc	a0,0x3
   11400:	73d50513          	addi	a0,a0,1853 # 14b39 <end_signature+0xa79>
   11404:	3fd010ef          	jal	ra,13000 <FN_WriteStr>
   11408:	00003517          	auipc	a0,0x3
   1140c:	73c50513          	addi	a0,a0,1852 # 14b44 <end_signature+0xa84>
   11410:	3f1010ef          	jal	ra,13000 <FN_WriteStr>
   11414:	06400193          	li	gp,100
   11418:	0000100f          	fence.i
   1141c:	00018063          	beqz	gp,1141c <reset_vector+0x13d0>
   11420:	00119193          	slli	gp,gp,0x1
   11424:	0011e193          	ori	gp,gp,1
   11428:	00000073          	ecall
   1142c:	00b00293          	li	t0,11
   11430:	085f8e63          	beq	t6,t0,114cc <reset_vector+0x1480>
   11434:	00003517          	auipc	a0,0x3
   11438:	71250513          	addi	a0,a0,1810 # 14b46 <end_signature+0xa86>
   1143c:	3c5010ef          	jal	ra,13000 <FN_WriteStr>
   11440:	00003517          	auipc	a0,0x3
   11444:	72150513          	addi	a0,a0,1825 # 14b61 <end_signature+0xaa1>
   11448:	3b9010ef          	jal	ra,13000 <FN_WriteStr>
   1144c:	00003517          	auipc	a0,0x3
   11450:	72550513          	addi	a0,a0,1829 # 14b71 <end_signature+0xab1>
   11454:	3ad010ef          	jal	ra,13000 <FN_WriteStr>
   11458:	00003517          	auipc	a0,0x3
   1145c:	72150513          	addi	a0,a0,1825 # 14b79 <end_signature+0xab9>
   11460:	3a1010ef          	jal	ra,13000 <FN_WriteStr>
   11464:	00003517          	auipc	a0,0x3
   11468:	71950513          	addi	a0,a0,1817 # 14b7d <end_signature+0xabd>
   1146c:	395010ef          	jal	ra,13000 <FN_WriteStr>
   11470:	00003517          	auipc	a0,0x3
   11474:	71050513          	addi	a0,a0,1808 # 14b80 <end_signature+0xac0>
   11478:	389010ef          	jal	ra,13000 <FN_WriteStr>
   1147c:	00003517          	auipc	a0,0x3
   11480:	70850513          	addi	a0,a0,1800 # 14b84 <end_signature+0xac4>
   11484:	37d010ef          	jal	ra,13000 <FN_WriteStr>
   11488:	000f8513          	mv	a0,t6
   1148c:	391010ef          	jal	ra,1301c <FN_WriteA0>
   11490:	00003517          	auipc	a0,0x3
   11494:	6f650513          	addi	a0,a0,1782 # 14b86 <end_signature+0xac6>
   11498:	369010ef          	jal	ra,13000 <FN_WriteStr>
   1149c:	00003517          	auipc	a0,0x3
   114a0:	6f050513          	addi	a0,a0,1776 # 14b8c <end_signature+0xacc>
   114a4:	35d010ef          	jal	ra,13000 <FN_WriteStr>
   114a8:	00003517          	auipc	a0,0x3
   114ac:	6ef50513          	addi	a0,a0,1775 # 14b97 <end_signature+0xad7>
   114b0:	351010ef          	jal	ra,13000 <FN_WriteStr>
   114b4:	06400193          	li	gp,100
   114b8:	0000100f          	fence.i
   114bc:	00018063          	beqz	gp,114bc <reset_vector+0x1470>
   114c0:	00119193          	slli	gp,gp,0x1
   114c4:	0011e193          	ori	gp,gp,1
   114c8:	00000073          	ecall
   114cc:	00003517          	auipc	a0,0x3
   114d0:	6cd50513          	addi	a0,a0,1741 # 14b99 <end_signature+0xad9>
   114d4:	32d010ef          	jal	ra,13000 <FN_WriteStr>
   114d8:	00003517          	auipc	a0,0x3
   114dc:	6dd50513          	addi	a0,a0,1757 # 14bb5 <end_signature+0xaf5>
   114e0:	321010ef          	jal	ra,13000 <FN_WriteStr>
   114e4:	00003097          	auipc	ra,0x3
   114e8:	b2c08093          	addi	ra,ra,-1236 # 14010 <test_A5_data>
   114ec:	00003117          	auipc	sp,0x3
   114f0:	ba410113          	addi	sp,sp,-1116 # 14090 <test_A5_res>
   114f4:	0000ac03          	lw	s8,0(ra)
   114f8:	00000c93          	li	s9,0
   114fc:	00100d13          	li	s10,1
   11500:	fff00d93          	li	s11,-1
   11504:	80000e37          	lui	t3,0x80000
   11508:	fffe0e13          	addi	t3,t3,-1 # 7fffffff <_end+0x7ffeaf5f>
   1150c:	80000eb7          	lui	t4,0x80000
   11510:	00000f93          	li	t6,0
   11514:	019c6463          	bltu	s8,s9,1151c <reset_vector+0x14d0>
   11518:	001fef93          	ori	t6,t6,1
   1151c:	01ac6463          	bltu	s8,s10,11524 <reset_vector+0x14d8>
   11520:	002fef93          	ori	t6,t6,2
   11524:	01bc6463          	bltu	s8,s11,1152c <reset_vector+0x14e0>
   11528:	004fef93          	ori	t6,t6,4
   1152c:	01cc6463          	bltu	s8,t3,11534 <reset_vector+0x14e8>
   11530:	008fef93          	ori	t6,t6,8
   11534:	01dc6463          	bltu	s8,t4,1153c <reset_vector+0x14f0>
   11538:	010fef93          	ori	t6,t6,16
   1153c:	01812023          	sw	s8,0(sp)
   11540:	01912223          	sw	s9,4(sp)
   11544:	01a12423          	sw	s10,8(sp)
   11548:	01b12623          	sw	s11,12(sp)
   1154c:	01c12823          	sw	t3,16(sp)
   11550:	01d12a23          	sw	t4,20(sp)
   11554:	01f12c23          	sw	t6,24(sp)
   11558:	800002b7          	lui	t0,0x80000
   1155c:	085c0e63          	beq	s8,t0,115f8 <reset_vector+0x15ac>
   11560:	00003517          	auipc	a0,0x3
   11564:	6b050513          	addi	a0,a0,1712 # 14c10 <end_signature+0xb50>
   11568:	299010ef          	jal	ra,13000 <FN_WriteStr>
   1156c:	00003517          	auipc	a0,0x3
   11570:	6bf50513          	addi	a0,a0,1727 # 14c2b <end_signature+0xb6b>
   11574:	28d010ef          	jal	ra,13000 <FN_WriteStr>
   11578:	00003517          	auipc	a0,0x3
   1157c:	6c350513          	addi	a0,a0,1731 # 14c3b <end_signature+0xb7b>
   11580:	281010ef          	jal	ra,13000 <FN_WriteStr>
   11584:	00003517          	auipc	a0,0x3
   11588:	6bf50513          	addi	a0,a0,1727 # 14c43 <end_signature+0xb83>
   1158c:	275010ef          	jal	ra,13000 <FN_WriteStr>
   11590:	00003517          	auipc	a0,0x3
   11594:	6b750513          	addi	a0,a0,1719 # 14c47 <end_signature+0xb87>
   11598:	269010ef          	jal	ra,13000 <FN_WriteStr>
   1159c:	00003517          	auipc	a0,0x3
   115a0:	6ae50513          	addi	a0,a0,1710 # 14c4a <end_signature+0xb8a>
   115a4:	25d010ef          	jal	ra,13000 <FN_WriteStr>
   115a8:	00003517          	auipc	a0,0x3
   115ac:	6a650513          	addi	a0,a0,1702 # 14c4e <end_signature+0xb8e>
   115b0:	251010ef          	jal	ra,13000 <FN_WriteStr>
   115b4:	000c0513          	mv	a0,s8
   115b8:	265010ef          	jal	ra,1301c <FN_WriteA0>
   115bc:	00003517          	auipc	a0,0x3
   115c0:	69450513          	addi	a0,a0,1684 # 14c50 <end_signature+0xb90>
   115c4:	23d010ef          	jal	ra,13000 <FN_WriteStr>
   115c8:	00003517          	auipc	a0,0x3
   115cc:	68e50513          	addi	a0,a0,1678 # 14c56 <end_signature+0xb96>
   115d0:	231010ef          	jal	ra,13000 <FN_WriteStr>
   115d4:	00003517          	auipc	a0,0x3
   115d8:	68d50513          	addi	a0,a0,1677 # 14c61 <end_signature+0xba1>
   115dc:	225010ef          	jal	ra,13000 <FN_WriteStr>
   115e0:	06400193          	li	gp,100
   115e4:	0000100f          	fence.i
   115e8:	00018063          	beqz	gp,115e8 <reset_vector+0x159c>
   115ec:	00119193          	slli	gp,gp,0x1
   115f0:	0011e193          	ori	gp,gp,1
   115f4:	00000073          	ecall
   115f8:	00000293          	li	t0,0
   115fc:	085c8e63          	beq	s9,t0,11698 <reset_vector+0x164c>
   11600:	00003517          	auipc	a0,0x3
   11604:	66350513          	addi	a0,a0,1635 # 14c63 <end_signature+0xba3>
   11608:	1f9010ef          	jal	ra,13000 <FN_WriteStr>
   1160c:	00003517          	auipc	a0,0x3
   11610:	67250513          	addi	a0,a0,1650 # 14c7e <end_signature+0xbbe>
   11614:	1ed010ef          	jal	ra,13000 <FN_WriteStr>
   11618:	00003517          	auipc	a0,0x3
   1161c:	67650513          	addi	a0,a0,1654 # 14c8e <end_signature+0xbce>
   11620:	1e1010ef          	jal	ra,13000 <FN_WriteStr>
   11624:	00003517          	auipc	a0,0x3
   11628:	67250513          	addi	a0,a0,1650 # 14c96 <end_signature+0xbd6>
   1162c:	1d5010ef          	jal	ra,13000 <FN_WriteStr>
   11630:	00003517          	auipc	a0,0x3
   11634:	66a50513          	addi	a0,a0,1642 # 14c9a <end_signature+0xbda>
   11638:	1c9010ef          	jal	ra,13000 <FN_WriteStr>
   1163c:	00003517          	auipc	a0,0x3
   11640:	66150513          	addi	a0,a0,1633 # 14c9d <end_signature+0xbdd>
   11644:	1bd010ef          	jal	ra,13000 <FN_WriteStr>
   11648:	00003517          	auipc	a0,0x3
   1164c:	65950513          	addi	a0,a0,1625 # 14ca1 <end_signature+0xbe1>
   11650:	1b1010ef          	jal	ra,13000 <FN_WriteStr>
   11654:	000c8513          	mv	a0,s9
   11658:	1c5010ef          	jal	ra,1301c <FN_WriteA0>
   1165c:	00003517          	auipc	a0,0x3
   11660:	64750513          	addi	a0,a0,1607 # 14ca3 <end_signature+0xbe3>
   11664:	19d010ef          	jal	ra,13000 <FN_WriteStr>
   11668:	00003517          	auipc	a0,0x3
   1166c:	64150513          	addi	a0,a0,1601 # 14ca9 <end_signature+0xbe9>
   11670:	191010ef          	jal	ra,13000 <FN_WriteStr>
   11674:	00003517          	auipc	a0,0x3
   11678:	64050513          	addi	a0,a0,1600 # 14cb4 <end_signature+0xbf4>
   1167c:	185010ef          	jal	ra,13000 <FN_WriteStr>
   11680:	06400193          	li	gp,100
   11684:	0000100f          	fence.i
   11688:	00018063          	beqz	gp,11688 <reset_vector+0x163c>
   1168c:	00119193          	slli	gp,gp,0x1
   11690:	0011e193          	ori	gp,gp,1
   11694:	00000073          	ecall
   11698:	00100293          	li	t0,1
   1169c:	085d0e63          	beq	s10,t0,11738 <reset_vector+0x16ec>
   116a0:	00003517          	auipc	a0,0x3
   116a4:	61650513          	addi	a0,a0,1558 # 14cb6 <end_signature+0xbf6>
   116a8:	159010ef          	jal	ra,13000 <FN_WriteStr>
   116ac:	00003517          	auipc	a0,0x3
   116b0:	62550513          	addi	a0,a0,1573 # 14cd1 <end_signature+0xc11>
   116b4:	14d010ef          	jal	ra,13000 <FN_WriteStr>
   116b8:	00003517          	auipc	a0,0x3
   116bc:	62950513          	addi	a0,a0,1577 # 14ce1 <end_signature+0xc21>
   116c0:	141010ef          	jal	ra,13000 <FN_WriteStr>
   116c4:	00003517          	auipc	a0,0x3
   116c8:	62550513          	addi	a0,a0,1573 # 14ce9 <end_signature+0xc29>
   116cc:	135010ef          	jal	ra,13000 <FN_WriteStr>
   116d0:	00003517          	auipc	a0,0x3
   116d4:	61d50513          	addi	a0,a0,1565 # 14ced <end_signature+0xc2d>
   116d8:	129010ef          	jal	ra,13000 <FN_WriteStr>
   116dc:	00003517          	auipc	a0,0x3
   116e0:	61450513          	addi	a0,a0,1556 # 14cf0 <end_signature+0xc30>
   116e4:	11d010ef          	jal	ra,13000 <FN_WriteStr>
   116e8:	00003517          	auipc	a0,0x3
   116ec:	60c50513          	addi	a0,a0,1548 # 14cf4 <end_signature+0xc34>
   116f0:	111010ef          	jal	ra,13000 <FN_WriteStr>
   116f4:	000d0513          	mv	a0,s10
   116f8:	125010ef          	jal	ra,1301c <FN_WriteA0>
   116fc:	00003517          	auipc	a0,0x3
   11700:	5fa50513          	addi	a0,a0,1530 # 14cf6 <end_signature+0xc36>
   11704:	0fd010ef          	jal	ra,13000 <FN_WriteStr>
   11708:	00003517          	auipc	a0,0x3
   1170c:	5f450513          	addi	a0,a0,1524 # 14cfc <end_signature+0xc3c>
   11710:	0f1010ef          	jal	ra,13000 <FN_WriteStr>
   11714:	00003517          	auipc	a0,0x3
   11718:	5f350513          	addi	a0,a0,1523 # 14d07 <end_signature+0xc47>
   1171c:	0e5010ef          	jal	ra,13000 <FN_WriteStr>
   11720:	06400193          	li	gp,100
   11724:	0000100f          	fence.i
   11728:	00018063          	beqz	gp,11728 <reset_vector+0x16dc>
   1172c:	00119193          	slli	gp,gp,0x1
   11730:	0011e193          	ori	gp,gp,1
   11734:	00000073          	ecall
   11738:	fff00293          	li	t0,-1
   1173c:	085d8e63          	beq	s11,t0,117d8 <reset_vector+0x178c>
   11740:	00003517          	auipc	a0,0x3
   11744:	5c950513          	addi	a0,a0,1481 # 14d09 <end_signature+0xc49>
   11748:	0b9010ef          	jal	ra,13000 <FN_WriteStr>
   1174c:	00003517          	auipc	a0,0x3
   11750:	5d850513          	addi	a0,a0,1496 # 14d24 <end_signature+0xc64>
   11754:	0ad010ef          	jal	ra,13000 <FN_WriteStr>
   11758:	00003517          	auipc	a0,0x3
   1175c:	5dc50513          	addi	a0,a0,1500 # 14d34 <end_signature+0xc74>
   11760:	0a1010ef          	jal	ra,13000 <FN_WriteStr>
   11764:	00003517          	auipc	a0,0x3
   11768:	5d850513          	addi	a0,a0,1496 # 14d3c <end_signature+0xc7c>
   1176c:	095010ef          	jal	ra,13000 <FN_WriteStr>
   11770:	00003517          	auipc	a0,0x3
   11774:	5d050513          	addi	a0,a0,1488 # 14d40 <end_signature+0xc80>
   11778:	089010ef          	jal	ra,13000 <FN_WriteStr>
   1177c:	00003517          	auipc	a0,0x3
   11780:	5c750513          	addi	a0,a0,1479 # 14d43 <end_signature+0xc83>
   11784:	07d010ef          	jal	ra,13000 <FN_WriteStr>
   11788:	00003517          	auipc	a0,0x3
   1178c:	5bf50513          	addi	a0,a0,1471 # 14d47 <end_signature+0xc87>
   11790:	071010ef          	jal	ra,13000 <FN_WriteStr>
   11794:	000d8513          	mv	a0,s11
   11798:	085010ef          	jal	ra,1301c <FN_WriteA0>
   1179c:	00003517          	auipc	a0,0x3
   117a0:	5ad50513          	addi	a0,a0,1453 # 14d49 <end_signature+0xc89>
   117a4:	05d010ef          	jal	ra,13000 <FN_WriteStr>
   117a8:	00003517          	auipc	a0,0x3
   117ac:	5a750513          	addi	a0,a0,1447 # 14d4f <end_signature+0xc8f>
   117b0:	051010ef          	jal	ra,13000 <FN_WriteStr>
   117b4:	00003517          	auipc	a0,0x3
   117b8:	5a650513          	addi	a0,a0,1446 # 14d5a <end_signature+0xc9a>
   117bc:	045010ef          	jal	ra,13000 <FN_WriteStr>
   117c0:	06400193          	li	gp,100
   117c4:	0000100f          	fence.i
   117c8:	00018063          	beqz	gp,117c8 <reset_vector+0x177c>
   117cc:	00119193          	slli	gp,gp,0x1
   117d0:	0011e193          	ori	gp,gp,1
   117d4:	00000073          	ecall
   117d8:	800002b7          	lui	t0,0x80000
   117dc:	fff28293          	addi	t0,t0,-1 # 7fffffff <_end+0x7ffeaf5f>
   117e0:	085e0e63          	beq	t3,t0,1187c <reset_vector+0x1830>
   117e4:	00003517          	auipc	a0,0x3
   117e8:	57850513          	addi	a0,a0,1400 # 14d5c <end_signature+0xc9c>
   117ec:	015010ef          	jal	ra,13000 <FN_WriteStr>
   117f0:	00003517          	auipc	a0,0x3
   117f4:	58750513          	addi	a0,a0,1415 # 14d77 <end_signature+0xcb7>
   117f8:	009010ef          	jal	ra,13000 <FN_WriteStr>
   117fc:	00003517          	auipc	a0,0x3
   11800:	58b50513          	addi	a0,a0,1419 # 14d87 <end_signature+0xcc7>
   11804:	7fc010ef          	jal	ra,13000 <FN_WriteStr>
   11808:	00003517          	auipc	a0,0x3
   1180c:	58750513          	addi	a0,a0,1415 # 14d8f <end_signature+0xccf>
   11810:	7f0010ef          	jal	ra,13000 <FN_WriteStr>
   11814:	00003517          	auipc	a0,0x3
   11818:	57f50513          	addi	a0,a0,1407 # 14d93 <end_signature+0xcd3>
   1181c:	7e4010ef          	jal	ra,13000 <FN_WriteStr>
   11820:	00003517          	auipc	a0,0x3
   11824:	57650513          	addi	a0,a0,1398 # 14d96 <end_signature+0xcd6>
   11828:	7d8010ef          	jal	ra,13000 <FN_WriteStr>
   1182c:	00003517          	auipc	a0,0x3
   11830:	56e50513          	addi	a0,a0,1390 # 14d9a <end_signature+0xcda>
   11834:	7cc010ef          	jal	ra,13000 <FN_WriteStr>
   11838:	000e0513          	mv	a0,t3
   1183c:	7e0010ef          	jal	ra,1301c <FN_WriteA0>
   11840:	00003517          	auipc	a0,0x3
   11844:	55c50513          	addi	a0,a0,1372 # 14d9c <end_signature+0xcdc>
   11848:	7b8010ef          	jal	ra,13000 <FN_WriteStr>
   1184c:	00003517          	auipc	a0,0x3
   11850:	55650513          	addi	a0,a0,1366 # 14da2 <end_signature+0xce2>
   11854:	7ac010ef          	jal	ra,13000 <FN_WriteStr>
   11858:	00003517          	auipc	a0,0x3
   1185c:	55550513          	addi	a0,a0,1365 # 14dad <end_signature+0xced>
   11860:	7a0010ef          	jal	ra,13000 <FN_WriteStr>
   11864:	06400193          	li	gp,100
   11868:	0000100f          	fence.i
   1186c:	00018063          	beqz	gp,1186c <reset_vector+0x1820>
   11870:	00119193          	slli	gp,gp,0x1
   11874:	0011e193          	ori	gp,gp,1
   11878:	00000073          	ecall
   1187c:	800002b7          	lui	t0,0x80000
   11880:	085e8e63          	beq	t4,t0,1191c <reset_vector+0x18d0>
   11884:	00003517          	auipc	a0,0x3
   11888:	52b50513          	addi	a0,a0,1323 # 14daf <end_signature+0xcef>
   1188c:	774010ef          	jal	ra,13000 <FN_WriteStr>
   11890:	00003517          	auipc	a0,0x3
   11894:	53a50513          	addi	a0,a0,1338 # 14dca <end_signature+0xd0a>
   11898:	768010ef          	jal	ra,13000 <FN_WriteStr>
   1189c:	00003517          	auipc	a0,0x3
   118a0:	53e50513          	addi	a0,a0,1342 # 14dda <end_signature+0xd1a>
   118a4:	75c010ef          	jal	ra,13000 <FN_WriteStr>
   118a8:	00003517          	auipc	a0,0x3
   118ac:	53a50513          	addi	a0,a0,1338 # 14de2 <end_signature+0xd22>
   118b0:	750010ef          	jal	ra,13000 <FN_WriteStr>
   118b4:	00003517          	auipc	a0,0x3
   118b8:	53250513          	addi	a0,a0,1330 # 14de6 <end_signature+0xd26>
   118bc:	744010ef          	jal	ra,13000 <FN_WriteStr>
   118c0:	00003517          	auipc	a0,0x3
   118c4:	52950513          	addi	a0,a0,1321 # 14de9 <end_signature+0xd29>
   118c8:	738010ef          	jal	ra,13000 <FN_WriteStr>
   118cc:	00003517          	auipc	a0,0x3
   118d0:	52150513          	addi	a0,a0,1313 # 14ded <end_signature+0xd2d>
   118d4:	72c010ef          	jal	ra,13000 <FN_WriteStr>
   118d8:	000e8513          	mv	a0,t4
   118dc:	740010ef          	jal	ra,1301c <FN_WriteA0>
   118e0:	00003517          	auipc	a0,0x3
   118e4:	50f50513          	addi	a0,a0,1295 # 14def <end_signature+0xd2f>
   118e8:	718010ef          	jal	ra,13000 <FN_WriteStr>
   118ec:	00003517          	auipc	a0,0x3
   118f0:	50950513          	addi	a0,a0,1289 # 14df5 <end_signature+0xd35>
   118f4:	70c010ef          	jal	ra,13000 <FN_WriteStr>
   118f8:	00003517          	auipc	a0,0x3
   118fc:	50850513          	addi	a0,a0,1288 # 14e00 <end_signature+0xd40>
   11900:	700010ef          	jal	ra,13000 <FN_WriteStr>
   11904:	06400193          	li	gp,100
   11908:	0000100f          	fence.i
   1190c:	00018063          	beqz	gp,1190c <reset_vector+0x18c0>
   11910:	00119193          	slli	gp,gp,0x1
   11914:	0011e193          	ori	gp,gp,1
   11918:	00000073          	ecall
   1191c:	01b00293          	li	t0,27
   11920:	085f8e63          	beq	t6,t0,119bc <reset_vector+0x1970>
   11924:	00003517          	auipc	a0,0x3
   11928:	4de50513          	addi	a0,a0,1246 # 14e02 <end_signature+0xd42>
   1192c:	6d4010ef          	jal	ra,13000 <FN_WriteStr>
   11930:	00003517          	auipc	a0,0x3
   11934:	4ed50513          	addi	a0,a0,1261 # 14e1d <end_signature+0xd5d>
   11938:	6c8010ef          	jal	ra,13000 <FN_WriteStr>
   1193c:	00003517          	auipc	a0,0x3
   11940:	4f150513          	addi	a0,a0,1265 # 14e2d <end_signature+0xd6d>
   11944:	6bc010ef          	jal	ra,13000 <FN_WriteStr>
   11948:	00003517          	auipc	a0,0x3
   1194c:	4ed50513          	addi	a0,a0,1261 # 14e35 <end_signature+0xd75>
   11950:	6b0010ef          	jal	ra,13000 <FN_WriteStr>
   11954:	00003517          	auipc	a0,0x3
   11958:	4e550513          	addi	a0,a0,1253 # 14e39 <end_signature+0xd79>
   1195c:	6a4010ef          	jal	ra,13000 <FN_WriteStr>
   11960:	00003517          	auipc	a0,0x3
   11964:	4dc50513          	addi	a0,a0,1244 # 14e3c <end_signature+0xd7c>
   11968:	698010ef          	jal	ra,13000 <FN_WriteStr>
   1196c:	00003517          	auipc	a0,0x3
   11970:	4d450513          	addi	a0,a0,1236 # 14e40 <end_signature+0xd80>
   11974:	68c010ef          	jal	ra,13000 <FN_WriteStr>
   11978:	000f8513          	mv	a0,t6
   1197c:	6a0010ef          	jal	ra,1301c <FN_WriteA0>
   11980:	00003517          	auipc	a0,0x3
   11984:	4c250513          	addi	a0,a0,1218 # 14e42 <end_signature+0xd82>
   11988:	678010ef          	jal	ra,13000 <FN_WriteStr>
   1198c:	00003517          	auipc	a0,0x3
   11990:	4bc50513          	addi	a0,a0,1212 # 14e48 <end_signature+0xd88>
   11994:	66c010ef          	jal	ra,13000 <FN_WriteStr>
   11998:	00003517          	auipc	a0,0x3
   1199c:	4bb50513          	addi	a0,a0,1211 # 14e53 <end_signature+0xd93>
   119a0:	660010ef          	jal	ra,13000 <FN_WriteStr>
   119a4:	06400193          	li	gp,100
   119a8:	0000100f          	fence.i
   119ac:	00018063          	beqz	gp,119ac <reset_vector+0x1960>
   119b0:	00119193          	slli	gp,gp,0x1
   119b4:	0011e193          	ori	gp,gp,1
   119b8:	00000073          	ecall
   119bc:	00003517          	auipc	a0,0x3
   119c0:	49950513          	addi	a0,a0,1177 # 14e55 <end_signature+0xd95>
   119c4:	63c010ef          	jal	ra,13000 <FN_WriteStr>
   119c8:	00003517          	auipc	a0,0x3
   119cc:	4a950513          	addi	a0,a0,1193 # 14e71 <end_signature+0xdb1>
   119d0:	630010ef          	jal	ra,13000 <FN_WriteStr>
   119d4:	00002d97          	auipc	s11,0x2
   119d8:	6d8d8d93          	addi	s11,s11,1752 # 140ac <test_B_res>
   119dc:	00000093          	li	ra,0
   119e0:	00100113          	li	sp,1
   119e4:	fff00193          	li	gp,-1
   119e8:	80000237          	lui	tp,0x80000
   119ec:	fff20213          	addi	tp,tp,-1 # 7fffffff <_end+0x7ffeaf5f>
   119f0:	800002b7          	lui	t0,0x80000
   119f4:	00000f93          	li	t6,0
   119f8:	0000e463          	bltu	ra,zero,11a00 <reset_vector+0x19b4>
   119fc:	001fef93          	ori	t6,t6,1
   11a00:	00016463          	bltu	sp,zero,11a08 <reset_vector+0x19bc>
   11a04:	002fef93          	ori	t6,t6,2
   11a08:	0001e463          	bltu	gp,zero,11a10 <reset_vector+0x19c4>
   11a0c:	004fef93          	ori	t6,t6,4
   11a10:	00026463          	bltu	tp,zero,11a18 <reset_vector+0x19cc>
   11a14:	008fef93          	ori	t6,t6,8
   11a18:	0002e463          	bltu	t0,zero,11a20 <reset_vector+0x19d4>
   11a1c:	010fef93          	ori	t6,t6,16
   11a20:	00106463          	bltu	zero,ra,11a28 <reset_vector+0x19dc>
   11a24:	020fef93          	ori	t6,t6,32
   11a28:	00206463          	bltu	zero,sp,11a30 <reset_vector+0x19e4>
   11a2c:	040fef93          	ori	t6,t6,64
   11a30:	00306463          	bltu	zero,gp,11a38 <reset_vector+0x19ec>
   11a34:	080fef93          	ori	t6,t6,128
   11a38:	00406463          	bltu	zero,tp,11a40 <reset_vector+0x19f4>
   11a3c:	100fef93          	ori	t6,t6,256
   11a40:	00506463          	bltu	zero,t0,11a48 <reset_vector+0x19fc>
   11a44:	200fef93          	ori	t6,t6,512
   11a48:	01fda023          	sw	t6,0(s11)
   11a4c:	03f00293          	li	t0,63
   11a50:	085f8e63          	beq	t6,t0,11aec <reset_vector+0x1aa0>
   11a54:	00003517          	auipc	a0,0x3
   11a58:	44650513          	addi	a0,a0,1094 # 14e9a <end_signature+0xdda>
   11a5c:	5a4010ef          	jal	ra,13000 <FN_WriteStr>
   11a60:	00003517          	auipc	a0,0x3
   11a64:	45550513          	addi	a0,a0,1109 # 14eb5 <end_signature+0xdf5>
   11a68:	598010ef          	jal	ra,13000 <FN_WriteStr>
   11a6c:	00003517          	auipc	a0,0x3
   11a70:	45950513          	addi	a0,a0,1113 # 14ec5 <end_signature+0xe05>
   11a74:	58c010ef          	jal	ra,13000 <FN_WriteStr>
   11a78:	00003517          	auipc	a0,0x3
   11a7c:	45550513          	addi	a0,a0,1109 # 14ecd <end_signature+0xe0d>
   11a80:	580010ef          	jal	ra,13000 <FN_WriteStr>
   11a84:	00003517          	auipc	a0,0x3
   11a88:	44d50513          	addi	a0,a0,1101 # 14ed1 <end_signature+0xe11>
   11a8c:	574010ef          	jal	ra,13000 <FN_WriteStr>
   11a90:	00003517          	auipc	a0,0x3
   11a94:	44450513          	addi	a0,a0,1092 # 14ed4 <end_signature+0xe14>
   11a98:	568010ef          	jal	ra,13000 <FN_WriteStr>
   11a9c:	00003517          	auipc	a0,0x3
   11aa0:	43c50513          	addi	a0,a0,1084 # 14ed8 <end_signature+0xe18>
   11aa4:	55c010ef          	jal	ra,13000 <FN_WriteStr>
   11aa8:	000f8513          	mv	a0,t6
   11aac:	570010ef          	jal	ra,1301c <FN_WriteA0>
   11ab0:	00003517          	auipc	a0,0x3
   11ab4:	42a50513          	addi	a0,a0,1066 # 14eda <end_signature+0xe1a>
   11ab8:	548010ef          	jal	ra,13000 <FN_WriteStr>
   11abc:	00003517          	auipc	a0,0x3
   11ac0:	42450513          	addi	a0,a0,1060 # 14ee0 <end_signature+0xe20>
   11ac4:	53c010ef          	jal	ra,13000 <FN_WriteStr>
   11ac8:	00003517          	auipc	a0,0x3
   11acc:	42350513          	addi	a0,a0,1059 # 14eeb <end_signature+0xe2b>
   11ad0:	530010ef          	jal	ra,13000 <FN_WriteStr>
   11ad4:	06400193          	li	gp,100
   11ad8:	0000100f          	fence.i
   11adc:	00018063          	beqz	gp,11adc <reset_vector+0x1a90>
   11ae0:	00119193          	slli	gp,gp,0x1
   11ae4:	0011e193          	ori	gp,gp,1
   11ae8:	00000073          	ecall
   11aec:	00003517          	auipc	a0,0x3
   11af0:	40150513          	addi	a0,a0,1025 # 14eed <end_signature+0xe2d>
   11af4:	50c010ef          	jal	ra,13000 <FN_WriteStr>
   11af8:	00003517          	auipc	a0,0x3
   11afc:	41050513          	addi	a0,a0,1040 # 14f08 <end_signature+0xe48>
   11b00:	500010ef          	jal	ra,13000 <FN_WriteStr>
   11b04:	00002a97          	auipc	s5,0x2
   11b08:	510a8a93          	addi	s5,s5,1296 # 14014 <test_C_data>
   11b0c:	00002b17          	auipc	s6,0x2
   11b10:	5a4b0b13          	addi	s6,s6,1444 # 140b0 <test_C_res>
   11b14:	000aaf83          	lw	t6,0(s5)
   11b18:	fff00113          	li	sp,-1
   11b1c:	fff00193          	li	gp,-1
   11b20:	0fedd237          	lui	tp,0xfedd
   11b24:	ba920213          	addi	tp,tp,-1111 # fedcba9 <_end+0xfec7b09>
   11b28:	03f06463          	bltu	zero,t6,11b50 <reset_vector+0x1b04>
   11b2c:	00000113          	li	sp,0
   11b30:	00000193          	li	gp,0
   11b34:	00000213          	li	tp,0
   11b38:	876541b7          	lui	gp,0x87654
   11b3c:	32118193          	addi	gp,gp,801 # 87654321 <_end+0x8763f281>
   11b40:	03f06463          	bltu	zero,t6,11b68 <reset_vector+0x1b1c>
   11b44:	00000113          	li	sp,0
   11b48:	00000193          	li	gp,0
   11b4c:	00000213          	li	tp,0
   11b50:	9abce137          	lui	sp,0x9abce
   11b54:	ef010113          	addi	sp,sp,-272 # 9abcdef0 <_end+0x9abb8e50>
   11b58:	fff060e3          	bltu	zero,t6,11b38 <reset_vector+0x1aec>
   11b5c:	00000113          	li	sp,0
   11b60:	00000193          	li	gp,0
   11b64:	00000213          	li	tp,0
   11b68:	000b2023          	sw	zero,0(s6)
   11b6c:	002b2223          	sw	sp,4(s6)
   11b70:	003b2423          	sw	gp,8(s6)
   11b74:	004b2623          	sw	tp,12(s6)
   11b78:	00000293          	li	t0,0
   11b7c:	08500e63          	beq	zero,t0,11c18 <reset_vector+0x1bcc>
   11b80:	00003517          	auipc	a0,0x3
   11b84:	3b150513          	addi	a0,a0,945 # 14f31 <end_signature+0xe71>
   11b88:	478010ef          	jal	ra,13000 <FN_WriteStr>
   11b8c:	00003517          	auipc	a0,0x3
   11b90:	3c050513          	addi	a0,a0,960 # 14f4c <end_signature+0xe8c>
   11b94:	46c010ef          	jal	ra,13000 <FN_WriteStr>
   11b98:	00003517          	auipc	a0,0x3
   11b9c:	3c450513          	addi	a0,a0,964 # 14f5c <end_signature+0xe9c>
   11ba0:	460010ef          	jal	ra,13000 <FN_WriteStr>
   11ba4:	00003517          	auipc	a0,0x3
   11ba8:	3c050513          	addi	a0,a0,960 # 14f64 <end_signature+0xea4>
   11bac:	454010ef          	jal	ra,13000 <FN_WriteStr>
   11bb0:	00003517          	auipc	a0,0x3
   11bb4:	3b850513          	addi	a0,a0,952 # 14f68 <end_signature+0xea8>
   11bb8:	448010ef          	jal	ra,13000 <FN_WriteStr>
   11bbc:	00003517          	auipc	a0,0x3
   11bc0:	3af50513          	addi	a0,a0,943 # 14f6b <end_signature+0xeab>
   11bc4:	43c010ef          	jal	ra,13000 <FN_WriteStr>
   11bc8:	00003517          	auipc	a0,0x3
   11bcc:	3a650513          	addi	a0,a0,934 # 14f6e <end_signature+0xeae>
   11bd0:	430010ef          	jal	ra,13000 <FN_WriteStr>
   11bd4:	00000513          	li	a0,0
   11bd8:	444010ef          	jal	ra,1301c <FN_WriteA0>
   11bdc:	00003517          	auipc	a0,0x3
   11be0:	39450513          	addi	a0,a0,916 # 14f70 <end_signature+0xeb0>
   11be4:	41c010ef          	jal	ra,13000 <FN_WriteStr>
   11be8:	00003517          	auipc	a0,0x3
   11bec:	38e50513          	addi	a0,a0,910 # 14f76 <end_signature+0xeb6>
   11bf0:	410010ef          	jal	ra,13000 <FN_WriteStr>
   11bf4:	00003517          	auipc	a0,0x3
   11bf8:	38d50513          	addi	a0,a0,909 # 14f81 <end_signature+0xec1>
   11bfc:	404010ef          	jal	ra,13000 <FN_WriteStr>
   11c00:	06400193          	li	gp,100
   11c04:	0000100f          	fence.i
   11c08:	00018063          	beqz	gp,11c08 <reset_vector+0x1bbc>
   11c0c:	00119193          	slli	gp,gp,0x1
   11c10:	0011e193          	ori	gp,gp,1
   11c14:	00000073          	ecall
   11c18:	9abce2b7          	lui	t0,0x9abce
   11c1c:	ef028293          	addi	t0,t0,-272 # 9abcdef0 <_end+0x9abb8e50>
   11c20:	08510e63          	beq	sp,t0,11cbc <reset_vector+0x1c70>
   11c24:	00003517          	auipc	a0,0x3
   11c28:	35f50513          	addi	a0,a0,863 # 14f83 <end_signature+0xec3>
   11c2c:	3d4010ef          	jal	ra,13000 <FN_WriteStr>
   11c30:	00003517          	auipc	a0,0x3
   11c34:	36e50513          	addi	a0,a0,878 # 14f9e <end_signature+0xede>
   11c38:	3c8010ef          	jal	ra,13000 <FN_WriteStr>
   11c3c:	00003517          	auipc	a0,0x3
   11c40:	37250513          	addi	a0,a0,882 # 14fae <end_signature+0xeee>
   11c44:	3bc010ef          	jal	ra,13000 <FN_WriteStr>
   11c48:	00003517          	auipc	a0,0x3
   11c4c:	36e50513          	addi	a0,a0,878 # 14fb6 <end_signature+0xef6>
   11c50:	3b0010ef          	jal	ra,13000 <FN_WriteStr>
   11c54:	00003517          	auipc	a0,0x3
   11c58:	36650513          	addi	a0,a0,870 # 14fba <end_signature+0xefa>
   11c5c:	3a4010ef          	jal	ra,13000 <FN_WriteStr>
   11c60:	00003517          	auipc	a0,0x3
   11c64:	35d50513          	addi	a0,a0,861 # 14fbd <end_signature+0xefd>
   11c68:	398010ef          	jal	ra,13000 <FN_WriteStr>
   11c6c:	00003517          	auipc	a0,0x3
   11c70:	35450513          	addi	a0,a0,852 # 14fc0 <end_signature+0xf00>
   11c74:	38c010ef          	jal	ra,13000 <FN_WriteStr>
   11c78:	00010513          	mv	a0,sp
   11c7c:	3a0010ef          	jal	ra,1301c <FN_WriteA0>
   11c80:	00003517          	auipc	a0,0x3
   11c84:	34250513          	addi	a0,a0,834 # 14fc2 <end_signature+0xf02>
   11c88:	378010ef          	jal	ra,13000 <FN_WriteStr>
   11c8c:	00003517          	auipc	a0,0x3
   11c90:	33c50513          	addi	a0,a0,828 # 14fc8 <end_signature+0xf08>
   11c94:	36c010ef          	jal	ra,13000 <FN_WriteStr>
   11c98:	00003517          	auipc	a0,0x3
   11c9c:	33b50513          	addi	a0,a0,827 # 14fd3 <end_signature+0xf13>
   11ca0:	360010ef          	jal	ra,13000 <FN_WriteStr>
   11ca4:	06400193          	li	gp,100
   11ca8:	0000100f          	fence.i
   11cac:	00018063          	beqz	gp,11cac <reset_vector+0x1c60>
   11cb0:	00119193          	slli	gp,gp,0x1
   11cb4:	0011e193          	ori	gp,gp,1
   11cb8:	00000073          	ecall
   11cbc:	876542b7          	lui	t0,0x87654
   11cc0:	32128293          	addi	t0,t0,801 # 87654321 <_end+0x8763f281>
   11cc4:	08518e63          	beq	gp,t0,11d60 <reset_vector+0x1d14>
   11cc8:	00003517          	auipc	a0,0x3
   11ccc:	30d50513          	addi	a0,a0,781 # 14fd5 <end_signature+0xf15>
   11cd0:	330010ef          	jal	ra,13000 <FN_WriteStr>
   11cd4:	00003517          	auipc	a0,0x3
   11cd8:	31c50513          	addi	a0,a0,796 # 14ff0 <end_signature+0xf30>
   11cdc:	324010ef          	jal	ra,13000 <FN_WriteStr>
   11ce0:	00003517          	auipc	a0,0x3
   11ce4:	32050513          	addi	a0,a0,800 # 15000 <end_signature+0xf40>
   11ce8:	318010ef          	jal	ra,13000 <FN_WriteStr>
   11cec:	00003517          	auipc	a0,0x3
   11cf0:	31c50513          	addi	a0,a0,796 # 15008 <end_signature+0xf48>
   11cf4:	30c010ef          	jal	ra,13000 <FN_WriteStr>
   11cf8:	00003517          	auipc	a0,0x3
   11cfc:	31450513          	addi	a0,a0,788 # 1500c <end_signature+0xf4c>
   11d00:	300010ef          	jal	ra,13000 <FN_WriteStr>
   11d04:	00003517          	auipc	a0,0x3
   11d08:	30b50513          	addi	a0,a0,779 # 1500f <end_signature+0xf4f>
   11d0c:	2f4010ef          	jal	ra,13000 <FN_WriteStr>
   11d10:	00003517          	auipc	a0,0x3
   11d14:	30250513          	addi	a0,a0,770 # 15012 <end_signature+0xf52>
   11d18:	2e8010ef          	jal	ra,13000 <FN_WriteStr>
   11d1c:	00018513          	mv	a0,gp
   11d20:	2fc010ef          	jal	ra,1301c <FN_WriteA0>
   11d24:	00003517          	auipc	a0,0x3
   11d28:	2f050513          	addi	a0,a0,752 # 15014 <end_signature+0xf54>
   11d2c:	2d4010ef          	jal	ra,13000 <FN_WriteStr>
   11d30:	00003517          	auipc	a0,0x3
   11d34:	2ea50513          	addi	a0,a0,746 # 1501a <end_signature+0xf5a>
   11d38:	2c8010ef          	jal	ra,13000 <FN_WriteStr>
   11d3c:	00003517          	auipc	a0,0x3
   11d40:	2e950513          	addi	a0,a0,745 # 15025 <end_signature+0xf65>
   11d44:	2bc010ef          	jal	ra,13000 <FN_WriteStr>
   11d48:	06400193          	li	gp,100
   11d4c:	0000100f          	fence.i
   11d50:	00018063          	beqz	gp,11d50 <reset_vector+0x1d04>
   11d54:	00119193          	slli	gp,gp,0x1
   11d58:	0011e193          	ori	gp,gp,1
   11d5c:	00000073          	ecall
   11d60:	0fedd2b7          	lui	t0,0xfedd
   11d64:	ba928293          	addi	t0,t0,-1111 # fedcba9 <_end+0xfec7b09>
   11d68:	08520e63          	beq	tp,t0,11e04 <reset_vector+0x1db8>
   11d6c:	00003517          	auipc	a0,0x3
   11d70:	2bb50513          	addi	a0,a0,699 # 15027 <end_signature+0xf67>
   11d74:	28c010ef          	jal	ra,13000 <FN_WriteStr>
   11d78:	00003517          	auipc	a0,0x3
   11d7c:	2ca50513          	addi	a0,a0,714 # 15042 <end_signature+0xf82>
   11d80:	280010ef          	jal	ra,13000 <FN_WriteStr>
   11d84:	00003517          	auipc	a0,0x3
   11d88:	2ce50513          	addi	a0,a0,718 # 15052 <end_signature+0xf92>
   11d8c:	274010ef          	jal	ra,13000 <FN_WriteStr>
   11d90:	00003517          	auipc	a0,0x3
   11d94:	2ca50513          	addi	a0,a0,714 # 1505a <end_signature+0xf9a>
   11d98:	268010ef          	jal	ra,13000 <FN_WriteStr>
   11d9c:	00003517          	auipc	a0,0x3
   11da0:	2c250513          	addi	a0,a0,706 # 1505e <end_signature+0xf9e>
   11da4:	25c010ef          	jal	ra,13000 <FN_WriteStr>
   11da8:	00003517          	auipc	a0,0x3
   11dac:	2b950513          	addi	a0,a0,697 # 15061 <end_signature+0xfa1>
   11db0:	250010ef          	jal	ra,13000 <FN_WriteStr>
   11db4:	00003517          	auipc	a0,0x3
   11db8:	2b050513          	addi	a0,a0,688 # 15064 <end_signature+0xfa4>
   11dbc:	244010ef          	jal	ra,13000 <FN_WriteStr>
   11dc0:	00020513          	mv	a0,tp
   11dc4:	258010ef          	jal	ra,1301c <FN_WriteA0>
   11dc8:	00003517          	auipc	a0,0x3
   11dcc:	29e50513          	addi	a0,a0,670 # 15066 <end_signature+0xfa6>
   11dd0:	230010ef          	jal	ra,13000 <FN_WriteStr>
   11dd4:	00003517          	auipc	a0,0x3
   11dd8:	29850513          	addi	a0,a0,664 # 1506c <end_signature+0xfac>
   11ddc:	224010ef          	jal	ra,13000 <FN_WriteStr>
   11de0:	00003517          	auipc	a0,0x3
   11de4:	29750513          	addi	a0,a0,663 # 15077 <end_signature+0xfb7>
   11de8:	218010ef          	jal	ra,13000 <FN_WriteStr>
   11dec:	06400193          	li	gp,100
   11df0:	0000100f          	fence.i
   11df4:	00018063          	beqz	gp,11df4 <reset_vector+0x1da8>
   11df8:	00119193          	slli	gp,gp,0x1
   11dfc:	0011e193          	ori	gp,gp,1
   11e00:	00000073          	ecall
   11e04:	00003517          	auipc	a0,0x3
   11e08:	27550513          	addi	a0,a0,629 # 15079 <end_signature+0xfb9>
   11e0c:	1f4010ef          	jal	ra,13000 <FN_WriteStr>
   11e10:	00003517          	auipc	a0,0x3
   11e14:	28450513          	addi	a0,a0,644 # 15094 <end_signature+0xfd4>
   11e18:	1e8010ef          	jal	ra,13000 <FN_WriteStr>
   11e1c:	0000100f          	fence.i
   11e20:	00100193          	li	gp,1
   11e24:	00000073          	ecall
   11e28:	c0001073          	unimp
	...

Disassembly of section .tohost:

00012000 <tohost>:
	...

00012100 <fromhost>:
	...

Disassembly of section .text:

00013000 <FN_WriteStr>:
   13000:	00050293          	mv	t0,a0
   13004:	0002c503          	lbu	a0,0(t0)
   13008:	00128293          	addi	t0,t0,1
   1300c:	00050663          	beqz	a0,13018 <FN_WriteStr+0x18>
   13010:	0005200b          	0x5200b
   13014:	ff1ff06f          	j	13004 <FN_WriteStr+0x4>
   13018:	00008067          	ret

0001301c <FN_WriteA0>:
   1301c:	00050293          	mv	t0,a0
   13020:	fff00513          	li	a0,-1
   13024:	01f55513          	srli	a0,a0,0x1f
   13028:	00155513          	srli	a0,a0,0x1
   1302c:	02051463          	bnez	a0,13054 <FN_WriteA0_64>

00013030 <FN_WriteA0_32>:
   13030:	00800313          	li	t1,8
   13034:	00439393          	slli	t2,t2,0x4
   13038:	00f2f513          	andi	a0,t0,15
   1303c:	0042d293          	srli	t0,t0,0x4
   13040:	00a3e3b3          	or	t2,t2,a0
   13044:	fff30313          	addi	t1,t1,-1
   13048:	fe0316e3          	bnez	t1,13034 <FN_WriteA0_32+0x4>
   1304c:	00800313          	li	t1,8
   13050:	0240006f          	j	13074 <FN_WriteA0_common>

00013054 <FN_WriteA0_64>:
   13054:	01000313          	li	t1,16
   13058:	00439393          	slli	t2,t2,0x4
   1305c:	00f2f513          	andi	a0,t0,15
   13060:	0042d293          	srli	t0,t0,0x4
   13064:	00a3e3b3          	or	t2,t2,a0
   13068:	fff30313          	addi	t1,t1,-1
   1306c:	fe0316e3          	bnez	t1,13058 <FN_WriteA0_64+0x4>
   13070:	01000313          	li	t1,16

00013074 <FN_WriteA0_common>:
   13074:	00a00293          	li	t0,10
   13078:	00f3f513          	andi	a0,t2,15
   1307c:	00554663          	blt	a0,t0,13088 <FN_WriteA0_common+0x14>
   13080:	05750513          	addi	a0,a0,87
   13084:	0080006f          	j	1308c <FN_WriteA0_common+0x18>
   13088:	03050513          	addi	a0,a0,48
   1308c:	0005200b          	0x5200b
   13090:	0043d393          	srli	t2,t2,0x4
   13094:	fff30313          	addi	t1,t1,-1
   13098:	fe0310e3          	bnez	t1,13078 <FN_WriteA0_common+0x4>
   1309c:	00008067          	ret
