
/home/benselfridge/riscv-compliance/work//I-CSRRCI-01.elf:     file format elf32-littleriscv


Disassembly of section .text.init:

00010000 <_start>:
   10000:	04c0006f          	j	1004c <reset_vector>

00010004 <trap_vector>:
   10004:	34202f73          	csrr	t5,mcause
   10008:	00800f93          	li	t6,8
   1000c:	03ff0a63          	beq	t5,t6,10040 <write_tohost>
   10010:	00900f93          	li	t6,9
   10014:	03ff0663          	beq	t5,t6,10040 <write_tohost>
   10018:	00b00f93          	li	t6,11
   1001c:	03ff0263          	beq	t5,t6,10040 <write_tohost>
   10020:	ffff0f17          	auipc	t5,0xffff0
   10024:	fe0f0f13          	addi	t5,t5,-32 # 0 <_start-0x10000>
   10028:	000f0463          	beqz	t5,10030 <trap_vector+0x2c>
   1002c:	000f0067          	jr	t5
   10030:	34202f73          	csrr	t5,mcause
   10034:	000f5463          	bgez	t5,1003c <handle_exception>
   10038:	0040006f          	j	1003c <handle_exception>

0001003c <handle_exception>:
   1003c:	5391e193          	ori	gp,gp,1337

00010040 <write_tohost>:
   10040:	00001f17          	auipc	t5,0x1
   10044:	fc3f2023          	sw	gp,-64(t5) # 11000 <tohost>
   10048:	ff9ff06f          	j	10040 <write_tohost>

0001004c <reset_vector>:
   1004c:	f1402573          	csrr	a0,mhartid
   10050:	00051063          	bnez	a0,10050 <reset_vector+0x4>
   10054:	00000297          	auipc	t0,0x0
   10058:	01028293          	addi	t0,t0,16 # 10064 <reset_vector+0x18>
   1005c:	30529073          	csrw	mtvec,t0
   10060:	18005073          	csrwi	satp,0
   10064:	00000297          	auipc	t0,0x0
   10068:	01c28293          	addi	t0,t0,28 # 10080 <reset_vector+0x34>
   1006c:	30529073          	csrw	mtvec,t0
   10070:	fff00293          	li	t0,-1
   10074:	3b029073          	csrw	pmpaddr0,t0
   10078:	01f00293          	li	t0,31
   1007c:	3a029073          	csrw	pmpcfg0,t0
   10080:	00000297          	auipc	t0,0x0
   10084:	01828293          	addi	t0,t0,24 # 10098 <reset_vector+0x4c>
   10088:	30529073          	csrw	mtvec,t0
   1008c:	30205073          	csrwi	medeleg,0
   10090:	30305073          	csrwi	mideleg,0
   10094:	30405073          	csrwi	mie,0
   10098:	00000193          	li	gp,0
   1009c:	00000297          	auipc	t0,0x0
   100a0:	f6828293          	addi	t0,t0,-152 # 10004 <trap_vector>
   100a4:	30529073          	csrw	mtvec,t0
   100a8:	00100513          	li	a0,1
   100ac:	01f51513          	slli	a0,a0,0x1f
   100b0:	00054863          	bltz	a0,100c0 <reset_vector+0x74>
   100b4:	0000100f          	fence.i
   100b8:	00100193          	li	gp,1
   100bc:	00000073          	ecall
   100c0:	ffff0297          	auipc	t0,0xffff0
   100c4:	f4028293          	addi	t0,t0,-192 # 0 <_start-0x10000>
   100c8:	00028e63          	beqz	t0,100e4 <reset_vector+0x98>
   100cc:	10529073          	csrw	stvec,t0
   100d0:	0000b2b7          	lui	t0,0xb
   100d4:	10928293          	addi	t0,t0,265 # b109 <_start-0x4ef7>
   100d8:	30229073          	csrw	medeleg,t0
   100dc:	30202373          	csrr	t1,medeleg
   100e0:	f4629ee3          	bne	t0,t1,1003c <handle_exception>
   100e4:	30005073          	csrwi	mstatus,0
   100e8:	00002537          	lui	a0,0x2
   100ec:	80050513          	addi	a0,a0,-2048 # 1800 <_start-0xe800>
   100f0:	30052073          	csrs	mstatus,a0
   100f4:	00000297          	auipc	t0,0x0
   100f8:	01428293          	addi	t0,t0,20 # 10108 <reset_vector+0xbc>
   100fc:	34129073          	csrw	mepc,t0
   10100:	f1402573          	csrr	a0,mhartid
   10104:	30200073          	mret
   10108:	00000293          	li	t0,0
   1010c:	08500e63          	beq	zero,t0,101a8 <reset_vector+0x15c>
   10110:	00003517          	auipc	a0,0x3
   10114:	f3050513          	addi	a0,a0,-208 # 13040 <end_signature>
   10118:	6e9010ef          	jal	ra,12000 <FN_WriteStr>
   1011c:	00003517          	auipc	a0,0x3
   10120:	f3f50513          	addi	a0,a0,-193 # 1305b <end_signature+0x1b>
   10124:	6dd010ef          	jal	ra,12000 <FN_WriteStr>
   10128:	00003517          	auipc	a0,0x3
   1012c:	f4550513          	addi	a0,a0,-187 # 1306d <end_signature+0x2d>
   10130:	6d1010ef          	jal	ra,12000 <FN_WriteStr>
   10134:	00003517          	auipc	a0,0x3
   10138:	f4150513          	addi	a0,a0,-191 # 13075 <end_signature+0x35>
   1013c:	6c5010ef          	jal	ra,12000 <FN_WriteStr>
   10140:	00003517          	auipc	a0,0x3
   10144:	f3850513          	addi	a0,a0,-200 # 13078 <end_signature+0x38>
   10148:	6b9010ef          	jal	ra,12000 <FN_WriteStr>
   1014c:	00003517          	auipc	a0,0x3
   10150:	f2f50513          	addi	a0,a0,-209 # 1307b <end_signature+0x3b>
   10154:	6ad010ef          	jal	ra,12000 <FN_WriteStr>
   10158:	00003517          	auipc	a0,0x3
   1015c:	f2650513          	addi	a0,a0,-218 # 1307e <end_signature+0x3e>
   10160:	6a1010ef          	jal	ra,12000 <FN_WriteStr>
   10164:	00000513          	li	a0,0
   10168:	6b5010ef          	jal	ra,1201c <FN_WriteA0>
   1016c:	00003517          	auipc	a0,0x3
   10170:	f1450513          	addi	a0,a0,-236 # 13080 <end_signature+0x40>
   10174:	68d010ef          	jal	ra,12000 <FN_WriteStr>
   10178:	00003517          	auipc	a0,0x3
   1017c:	f0e50513          	addi	a0,a0,-242 # 13086 <end_signature+0x46>
   10180:	681010ef          	jal	ra,12000 <FN_WriteStr>
   10184:	00003517          	auipc	a0,0x3
   10188:	f0d50513          	addi	a0,a0,-243 # 13091 <end_signature+0x51>
   1018c:	675010ef          	jal	ra,12000 <FN_WriteStr>
   10190:	06400193          	li	gp,100
   10194:	0000100f          	fence.i
   10198:	00018063          	beqz	gp,10198 <reset_vector+0x14c>
   1019c:	00119193          	slli	gp,gp,0x1
   101a0:	0011e193          	ori	gp,gp,1
   101a4:	00000073          	ecall
   101a8:	00003517          	auipc	a0,0x3
   101ac:	eeb50513          	addi	a0,a0,-277 # 13093 <end_signature+0x53>
   101b0:	651010ef          	jal	ra,12000 <FN_WriteStr>
   101b4:	00003517          	auipc	a0,0x3
   101b8:	f1150513          	addi	a0,a0,-239 # 130c5 <end_signature+0x85>
   101bc:	645010ef          	jal	ra,12000 <FN_WriteStr>
   101c0:	00003797          	auipc	a5,0x3
   101c4:	e4078793          	addi	a5,a5,-448 # 13000 <begin_signature>
   101c8:	fff00413          	li	s0,-1
   101cc:	34041073          	csrw	mscratch,s0
   101d0:	3400f0f3          	csrrci	ra,mscratch,1
   101d4:	340410f3          	csrrw	ra,mscratch,s0
   101d8:	34007173          	csrrci	sp,mscratch,0
   101dc:	34041173          	csrrw	sp,mscratch,s0
   101e0:	340ff1f3          	csrrci	gp,mscratch,31
   101e4:	340411f3          	csrrw	gp,mscratch,s0
   101e8:	34087273          	csrrci	tp,mscratch,16
   101ec:	34041273          	csrrw	tp,mscratch,s0
   101f0:	3407f2f3          	csrrci	t0,mscratch,15
   101f4:	340412f3          	csrrw	t0,mscratch,s0
   101f8:	0007a023          	sw	zero,0(a5)
   101fc:	0017a223          	sw	ra,4(a5)
   10200:	0027a423          	sw	sp,8(a5)
   10204:	0037a623          	sw	gp,12(a5)
   10208:	0047a823          	sw	tp,16(a5)
   1020c:	0057aa23          	sw	t0,20(a5)
   10210:	0087ac23          	sw	s0,24(a5)
   10214:	fff00013          	li	zero,-1
   10218:	00000293          	li	t0,0
   1021c:	08500e63          	beq	zero,t0,102b8 <reset_vector+0x26c>
   10220:	00003517          	auipc	a0,0x3
   10224:	ece50513          	addi	a0,a0,-306 # 130ee <end_signature+0xae>
   10228:	5d9010ef          	jal	ra,12000 <FN_WriteStr>
   1022c:	00003517          	auipc	a0,0x3
   10230:	edd50513          	addi	a0,a0,-291 # 13109 <end_signature+0xc9>
   10234:	5cd010ef          	jal	ra,12000 <FN_WriteStr>
   10238:	00003517          	auipc	a0,0x3
   1023c:	ee350513          	addi	a0,a0,-285 # 1311b <end_signature+0xdb>
   10240:	5c1010ef          	jal	ra,12000 <FN_WriteStr>
   10244:	00003517          	auipc	a0,0x3
   10248:	edf50513          	addi	a0,a0,-289 # 13123 <end_signature+0xe3>
   1024c:	5b5010ef          	jal	ra,12000 <FN_WriteStr>
   10250:	00003517          	auipc	a0,0x3
   10254:	ed650513          	addi	a0,a0,-298 # 13126 <end_signature+0xe6>
   10258:	5a9010ef          	jal	ra,12000 <FN_WriteStr>
   1025c:	00003517          	auipc	a0,0x3
   10260:	ecd50513          	addi	a0,a0,-307 # 13129 <end_signature+0xe9>
   10264:	59d010ef          	jal	ra,12000 <FN_WriteStr>
   10268:	00003517          	auipc	a0,0x3
   1026c:	ec450513          	addi	a0,a0,-316 # 1312c <end_signature+0xec>
   10270:	591010ef          	jal	ra,12000 <FN_WriteStr>
   10274:	00000513          	li	a0,0
   10278:	5a5010ef          	jal	ra,1201c <FN_WriteA0>
   1027c:	00003517          	auipc	a0,0x3
   10280:	eb250513          	addi	a0,a0,-334 # 1312e <end_signature+0xee>
   10284:	57d010ef          	jal	ra,12000 <FN_WriteStr>
   10288:	00003517          	auipc	a0,0x3
   1028c:	eac50513          	addi	a0,a0,-340 # 13134 <end_signature+0xf4>
   10290:	571010ef          	jal	ra,12000 <FN_WriteStr>
   10294:	00003517          	auipc	a0,0x3
   10298:	eab50513          	addi	a0,a0,-341 # 1313f <end_signature+0xff>
   1029c:	565010ef          	jal	ra,12000 <FN_WriteStr>
   102a0:	06400193          	li	gp,100
   102a4:	0000100f          	fence.i
   102a8:	00018063          	beqz	gp,102a8 <reset_vector+0x25c>
   102ac:	00119193          	slli	gp,gp,0x1
   102b0:	0011e193          	ori	gp,gp,1
   102b4:	00000073          	ecall
   102b8:	fff00293          	li	t0,-1
   102bc:	08510e63          	beq	sp,t0,10358 <reset_vector+0x30c>
   102c0:	00003517          	auipc	a0,0x3
   102c4:	e8150513          	addi	a0,a0,-383 # 13141 <end_signature+0x101>
   102c8:	539010ef          	jal	ra,12000 <FN_WriteStr>
   102cc:	00003517          	auipc	a0,0x3
   102d0:	e9050513          	addi	a0,a0,-368 # 1315c <end_signature+0x11c>
   102d4:	52d010ef          	jal	ra,12000 <FN_WriteStr>
   102d8:	00003517          	auipc	a0,0x3
   102dc:	e9650513          	addi	a0,a0,-362 # 1316e <end_signature+0x12e>
   102e0:	521010ef          	jal	ra,12000 <FN_WriteStr>
   102e4:	00003517          	auipc	a0,0x3
   102e8:	e9250513          	addi	a0,a0,-366 # 13176 <end_signature+0x136>
   102ec:	515010ef          	jal	ra,12000 <FN_WriteStr>
   102f0:	00003517          	auipc	a0,0x3
   102f4:	e8950513          	addi	a0,a0,-375 # 13179 <end_signature+0x139>
   102f8:	509010ef          	jal	ra,12000 <FN_WriteStr>
   102fc:	00003517          	auipc	a0,0x3
   10300:	e8050513          	addi	a0,a0,-384 # 1317c <end_signature+0x13c>
   10304:	4fd010ef          	jal	ra,12000 <FN_WriteStr>
   10308:	00003517          	auipc	a0,0x3
   1030c:	e7750513          	addi	a0,a0,-393 # 1317f <end_signature+0x13f>
   10310:	4f1010ef          	jal	ra,12000 <FN_WriteStr>
   10314:	00010513          	mv	a0,sp
   10318:	505010ef          	jal	ra,1201c <FN_WriteA0>
   1031c:	00003517          	auipc	a0,0x3
   10320:	e6550513          	addi	a0,a0,-411 # 13181 <end_signature+0x141>
   10324:	4dd010ef          	jal	ra,12000 <FN_WriteStr>
   10328:	00003517          	auipc	a0,0x3
   1032c:	e5f50513          	addi	a0,a0,-417 # 13187 <end_signature+0x147>
   10330:	4d1010ef          	jal	ra,12000 <FN_WriteStr>
   10334:	00003517          	auipc	a0,0x3
   10338:	e5e50513          	addi	a0,a0,-418 # 13192 <end_signature+0x152>
   1033c:	4c5010ef          	jal	ra,12000 <FN_WriteStr>
   10340:	06400193          	li	gp,100
   10344:	0000100f          	fence.i
   10348:	00018063          	beqz	gp,10348 <reset_vector+0x2fc>
   1034c:	00119193          	slli	gp,gp,0x1
   10350:	0011e193          	ori	gp,gp,1
   10354:	00000073          	ecall
   10358:	fe000293          	li	t0,-32
   1035c:	08518e63          	beq	gp,t0,103f8 <reset_vector+0x3ac>
   10360:	00003517          	auipc	a0,0x3
   10364:	e3450513          	addi	a0,a0,-460 # 13194 <end_signature+0x154>
   10368:	499010ef          	jal	ra,12000 <FN_WriteStr>
   1036c:	00003517          	auipc	a0,0x3
   10370:	e4350513          	addi	a0,a0,-445 # 131af <end_signature+0x16f>
   10374:	48d010ef          	jal	ra,12000 <FN_WriteStr>
   10378:	00003517          	auipc	a0,0x3
   1037c:	e4950513          	addi	a0,a0,-439 # 131c1 <end_signature+0x181>
   10380:	481010ef          	jal	ra,12000 <FN_WriteStr>
   10384:	00003517          	auipc	a0,0x3
   10388:	e4550513          	addi	a0,a0,-443 # 131c9 <end_signature+0x189>
   1038c:	475010ef          	jal	ra,12000 <FN_WriteStr>
   10390:	00003517          	auipc	a0,0x3
   10394:	e3c50513          	addi	a0,a0,-452 # 131cc <end_signature+0x18c>
   10398:	469010ef          	jal	ra,12000 <FN_WriteStr>
   1039c:	00003517          	auipc	a0,0x3
   103a0:	e3350513          	addi	a0,a0,-461 # 131cf <end_signature+0x18f>
   103a4:	45d010ef          	jal	ra,12000 <FN_WriteStr>
   103a8:	00003517          	auipc	a0,0x3
   103ac:	e2a50513          	addi	a0,a0,-470 # 131d2 <end_signature+0x192>
   103b0:	451010ef          	jal	ra,12000 <FN_WriteStr>
   103b4:	00018513          	mv	a0,gp
   103b8:	465010ef          	jal	ra,1201c <FN_WriteA0>
   103bc:	00003517          	auipc	a0,0x3
   103c0:	e1850513          	addi	a0,a0,-488 # 131d4 <end_signature+0x194>
   103c4:	43d010ef          	jal	ra,12000 <FN_WriteStr>
   103c8:	00003517          	auipc	a0,0x3
   103cc:	e1250513          	addi	a0,a0,-494 # 131da <end_signature+0x19a>
   103d0:	431010ef          	jal	ra,12000 <FN_WriteStr>
   103d4:	00003517          	auipc	a0,0x3
   103d8:	e1150513          	addi	a0,a0,-495 # 131e5 <end_signature+0x1a5>
   103dc:	425010ef          	jal	ra,12000 <FN_WriteStr>
   103e0:	06400193          	li	gp,100
   103e4:	0000100f          	fence.i
   103e8:	00018063          	beqz	gp,103e8 <reset_vector+0x39c>
   103ec:	00119193          	slli	gp,gp,0x1
   103f0:	0011e193          	ori	gp,gp,1
   103f4:	00000073          	ecall
   103f8:	fef00293          	li	t0,-17
   103fc:	08520e63          	beq	tp,t0,10498 <reset_vector+0x44c>
   10400:	00003517          	auipc	a0,0x3
   10404:	de750513          	addi	a0,a0,-537 # 131e7 <end_signature+0x1a7>
   10408:	3f9010ef          	jal	ra,12000 <FN_WriteStr>
   1040c:	00003517          	auipc	a0,0x3
   10410:	df650513          	addi	a0,a0,-522 # 13202 <end_signature+0x1c2>
   10414:	3ed010ef          	jal	ra,12000 <FN_WriteStr>
   10418:	00003517          	auipc	a0,0x3
   1041c:	dfc50513          	addi	a0,a0,-516 # 13214 <end_signature+0x1d4>
   10420:	3e1010ef          	jal	ra,12000 <FN_WriteStr>
   10424:	00003517          	auipc	a0,0x3
   10428:	df850513          	addi	a0,a0,-520 # 1321c <end_signature+0x1dc>
   1042c:	3d5010ef          	jal	ra,12000 <FN_WriteStr>
   10430:	00003517          	auipc	a0,0x3
   10434:	def50513          	addi	a0,a0,-529 # 1321f <end_signature+0x1df>
   10438:	3c9010ef          	jal	ra,12000 <FN_WriteStr>
   1043c:	00003517          	auipc	a0,0x3
   10440:	de650513          	addi	a0,a0,-538 # 13222 <end_signature+0x1e2>
   10444:	3bd010ef          	jal	ra,12000 <FN_WriteStr>
   10448:	00003517          	auipc	a0,0x3
   1044c:	ddd50513          	addi	a0,a0,-547 # 13225 <end_signature+0x1e5>
   10450:	3b1010ef          	jal	ra,12000 <FN_WriteStr>
   10454:	00020513          	mv	a0,tp
   10458:	3c5010ef          	jal	ra,1201c <FN_WriteA0>
   1045c:	00003517          	auipc	a0,0x3
   10460:	dcb50513          	addi	a0,a0,-565 # 13227 <end_signature+0x1e7>
   10464:	39d010ef          	jal	ra,12000 <FN_WriteStr>
   10468:	00003517          	auipc	a0,0x3
   1046c:	dc550513          	addi	a0,a0,-571 # 1322d <end_signature+0x1ed>
   10470:	391010ef          	jal	ra,12000 <FN_WriteStr>
   10474:	00003517          	auipc	a0,0x3
   10478:	dc450513          	addi	a0,a0,-572 # 13238 <end_signature+0x1f8>
   1047c:	385010ef          	jal	ra,12000 <FN_WriteStr>
   10480:	06400193          	li	gp,100
   10484:	0000100f          	fence.i
   10488:	00018063          	beqz	gp,10488 <reset_vector+0x43c>
   1048c:	00119193          	slli	gp,gp,0x1
   10490:	0011e193          	ori	gp,gp,1
   10494:	00000073          	ecall
   10498:	00000293          	li	t0,0
   1049c:	08528e63          	beq	t0,t0,10538 <reset_vector+0x4ec>
   104a0:	00003517          	auipc	a0,0x3
   104a4:	d9a50513          	addi	a0,a0,-614 # 1323a <end_signature+0x1fa>
   104a8:	359010ef          	jal	ra,12000 <FN_WriteStr>
   104ac:	00003517          	auipc	a0,0x3
   104b0:	da950513          	addi	a0,a0,-599 # 13255 <end_signature+0x215>
   104b4:	34d010ef          	jal	ra,12000 <FN_WriteStr>
   104b8:	00003517          	auipc	a0,0x3
   104bc:	daf50513          	addi	a0,a0,-593 # 13267 <end_signature+0x227>
   104c0:	341010ef          	jal	ra,12000 <FN_WriteStr>
   104c4:	00003517          	auipc	a0,0x3
   104c8:	dab50513          	addi	a0,a0,-597 # 1326f <end_signature+0x22f>
   104cc:	335010ef          	jal	ra,12000 <FN_WriteStr>
   104d0:	00003517          	auipc	a0,0x3
   104d4:	da250513          	addi	a0,a0,-606 # 13272 <end_signature+0x232>
   104d8:	329010ef          	jal	ra,12000 <FN_WriteStr>
   104dc:	00003517          	auipc	a0,0x3
   104e0:	d9950513          	addi	a0,a0,-615 # 13275 <end_signature+0x235>
   104e4:	31d010ef          	jal	ra,12000 <FN_WriteStr>
   104e8:	00003517          	auipc	a0,0x3
   104ec:	d9050513          	addi	a0,a0,-624 # 13278 <end_signature+0x238>
   104f0:	311010ef          	jal	ra,12000 <FN_WriteStr>
   104f4:	00028513          	mv	a0,t0
   104f8:	325010ef          	jal	ra,1201c <FN_WriteA0>
   104fc:	00003517          	auipc	a0,0x3
   10500:	d7e50513          	addi	a0,a0,-642 # 1327a <end_signature+0x23a>
   10504:	2fd010ef          	jal	ra,12000 <FN_WriteStr>
   10508:	00003517          	auipc	a0,0x3
   1050c:	d7850513          	addi	a0,a0,-648 # 13280 <end_signature+0x240>
   10510:	2f1010ef          	jal	ra,12000 <FN_WriteStr>
   10514:	00003517          	auipc	a0,0x3
   10518:	d7750513          	addi	a0,a0,-649 # 1328b <end_signature+0x24b>
   1051c:	2e5010ef          	jal	ra,12000 <FN_WriteStr>
   10520:	06400193          	li	gp,100
   10524:	0000100f          	fence.i
   10528:	00018063          	beqz	gp,10528 <reset_vector+0x4dc>
   1052c:	00119193          	slli	gp,gp,0x1
   10530:	0011e193          	ori	gp,gp,1
   10534:	00000073          	ecall
   10538:	fff00293          	li	t0,-1
   1053c:	08540e63          	beq	s0,t0,105d8 <reset_vector+0x58c>
   10540:	00003517          	auipc	a0,0x3
   10544:	d4d50513          	addi	a0,a0,-691 # 1328d <end_signature+0x24d>
   10548:	2b9010ef          	jal	ra,12000 <FN_WriteStr>
   1054c:	00003517          	auipc	a0,0x3
   10550:	d5c50513          	addi	a0,a0,-676 # 132a8 <end_signature+0x268>
   10554:	2ad010ef          	jal	ra,12000 <FN_WriteStr>
   10558:	00003517          	auipc	a0,0x3
   1055c:	d6250513          	addi	a0,a0,-670 # 132ba <end_signature+0x27a>
   10560:	2a1010ef          	jal	ra,12000 <FN_WriteStr>
   10564:	00003517          	auipc	a0,0x3
   10568:	d5e50513          	addi	a0,a0,-674 # 132c2 <end_signature+0x282>
   1056c:	295010ef          	jal	ra,12000 <FN_WriteStr>
   10570:	00003517          	auipc	a0,0x3
   10574:	d5550513          	addi	a0,a0,-683 # 132c5 <end_signature+0x285>
   10578:	289010ef          	jal	ra,12000 <FN_WriteStr>
   1057c:	00003517          	auipc	a0,0x3
   10580:	d4c50513          	addi	a0,a0,-692 # 132c8 <end_signature+0x288>
   10584:	27d010ef          	jal	ra,12000 <FN_WriteStr>
   10588:	00003517          	auipc	a0,0x3
   1058c:	d4350513          	addi	a0,a0,-701 # 132cb <end_signature+0x28b>
   10590:	271010ef          	jal	ra,12000 <FN_WriteStr>
   10594:	00040513          	mv	a0,s0
   10598:	285010ef          	jal	ra,1201c <FN_WriteA0>
   1059c:	00003517          	auipc	a0,0x3
   105a0:	d3150513          	addi	a0,a0,-719 # 132cd <end_signature+0x28d>
   105a4:	25d010ef          	jal	ra,12000 <FN_WriteStr>
   105a8:	00003517          	auipc	a0,0x3
   105ac:	d2b50513          	addi	a0,a0,-725 # 132d3 <end_signature+0x293>
   105b0:	251010ef          	jal	ra,12000 <FN_WriteStr>
   105b4:	00003517          	auipc	a0,0x3
   105b8:	d2a50513          	addi	a0,a0,-726 # 132de <end_signature+0x29e>
   105bc:	245010ef          	jal	ra,12000 <FN_WriteStr>
   105c0:	06400193          	li	gp,100
   105c4:	0000100f          	fence.i
   105c8:	00018063          	beqz	gp,105c8 <reset_vector+0x57c>
   105cc:	00119193          	slli	gp,gp,0x1
   105d0:	0011e193          	ori	gp,gp,1
   105d4:	00000073          	ecall
   105d8:	00003517          	auipc	a0,0x3
   105dc:	d0850513          	addi	a0,a0,-760 # 132e0 <end_signature+0x2a0>
   105e0:	221010ef          	jal	ra,12000 <FN_WriteStr>
   105e4:	00003517          	auipc	a0,0x3
   105e8:	d1850513          	addi	a0,a0,-744 # 132fc <end_signature+0x2bc>
   105ec:	215010ef          	jal	ra,12000 <FN_WriteStr>
   105f0:	00003297          	auipc	t0,0x3
   105f4:	a2c28293          	addi	t0,t0,-1492 # 1301c <test_A2_res>
   105f8:	fff00413          	li	s0,-1
   105fc:	34041073          	csrw	mscratch,s0
   10600:	3400f5f3          	csrrci	a1,mscratch,1
   10604:	34007673          	csrrci	a2,mscratch,0
   10608:	340ff6f3          	csrrci	a3,mscratch,31
   1060c:	34087773          	csrrci	a4,mscratch,16
   10610:	3407f7f3          	csrrci	a5,mscratch,15
   10614:	34007873          	csrrci	a6,mscratch,0
   10618:	00b2a023          	sw	a1,0(t0)
   1061c:	00c2a223          	sw	a2,4(t0)
   10620:	00d2a423          	sw	a3,8(t0)
   10624:	00e2a623          	sw	a4,12(t0)
   10628:	00f2a823          	sw	a5,16(t0)
   1062c:	0102aa23          	sw	a6,20(t0)
   10630:	0082ac23          	sw	s0,24(t0)
   10634:	fff00293          	li	t0,-1
   10638:	08558e63          	beq	a1,t0,106d4 <reset_vector+0x688>
   1063c:	00003517          	auipc	a0,0x3
   10640:	ce950513          	addi	a0,a0,-791 # 13325 <end_signature+0x2e5>
   10644:	1bd010ef          	jal	ra,12000 <FN_WriteStr>
   10648:	00003517          	auipc	a0,0x3
   1064c:	cf850513          	addi	a0,a0,-776 # 13340 <end_signature+0x300>
   10650:	1b1010ef          	jal	ra,12000 <FN_WriteStr>
   10654:	00003517          	auipc	a0,0x3
   10658:	cfe50513          	addi	a0,a0,-770 # 13352 <end_signature+0x312>
   1065c:	1a5010ef          	jal	ra,12000 <FN_WriteStr>
   10660:	00003517          	auipc	a0,0x3
   10664:	cfa50513          	addi	a0,a0,-774 # 1335a <end_signature+0x31a>
   10668:	199010ef          	jal	ra,12000 <FN_WriteStr>
   1066c:	00003517          	auipc	a0,0x3
   10670:	cf250513          	addi	a0,a0,-782 # 1335e <end_signature+0x31e>
   10674:	18d010ef          	jal	ra,12000 <FN_WriteStr>
   10678:	00003517          	auipc	a0,0x3
   1067c:	ce950513          	addi	a0,a0,-791 # 13361 <end_signature+0x321>
   10680:	181010ef          	jal	ra,12000 <FN_WriteStr>
   10684:	00003517          	auipc	a0,0x3
   10688:	ce150513          	addi	a0,a0,-799 # 13365 <end_signature+0x325>
   1068c:	175010ef          	jal	ra,12000 <FN_WriteStr>
   10690:	00058513          	mv	a0,a1
   10694:	189010ef          	jal	ra,1201c <FN_WriteA0>
   10698:	00003517          	auipc	a0,0x3
   1069c:	ccf50513          	addi	a0,a0,-817 # 13367 <end_signature+0x327>
   106a0:	161010ef          	jal	ra,12000 <FN_WriteStr>
   106a4:	00003517          	auipc	a0,0x3
   106a8:	cc950513          	addi	a0,a0,-823 # 1336d <end_signature+0x32d>
   106ac:	155010ef          	jal	ra,12000 <FN_WriteStr>
   106b0:	00003517          	auipc	a0,0x3
   106b4:	cc850513          	addi	a0,a0,-824 # 13378 <end_signature+0x338>
   106b8:	149010ef          	jal	ra,12000 <FN_WriteStr>
   106bc:	06400193          	li	gp,100
   106c0:	0000100f          	fence.i
   106c4:	00018063          	beqz	gp,106c4 <reset_vector+0x678>
   106c8:	00119193          	slli	gp,gp,0x1
   106cc:	0011e193          	ori	gp,gp,1
   106d0:	00000073          	ecall
   106d4:	ffe00293          	li	t0,-2
   106d8:	08560e63          	beq	a2,t0,10774 <reset_vector+0x728>
   106dc:	00003517          	auipc	a0,0x3
   106e0:	c9e50513          	addi	a0,a0,-866 # 1337a <end_signature+0x33a>
   106e4:	11d010ef          	jal	ra,12000 <FN_WriteStr>
   106e8:	00003517          	auipc	a0,0x3
   106ec:	cad50513          	addi	a0,a0,-851 # 13395 <end_signature+0x355>
   106f0:	111010ef          	jal	ra,12000 <FN_WriteStr>
   106f4:	00003517          	auipc	a0,0x3
   106f8:	cb350513          	addi	a0,a0,-845 # 133a7 <end_signature+0x367>
   106fc:	105010ef          	jal	ra,12000 <FN_WriteStr>
   10700:	00003517          	auipc	a0,0x3
   10704:	caf50513          	addi	a0,a0,-849 # 133af <end_signature+0x36f>
   10708:	0f9010ef          	jal	ra,12000 <FN_WriteStr>
   1070c:	00003517          	auipc	a0,0x3
   10710:	ca750513          	addi	a0,a0,-857 # 133b3 <end_signature+0x373>
   10714:	0ed010ef          	jal	ra,12000 <FN_WriteStr>
   10718:	00003517          	auipc	a0,0x3
   1071c:	c9e50513          	addi	a0,a0,-866 # 133b6 <end_signature+0x376>
   10720:	0e1010ef          	jal	ra,12000 <FN_WriteStr>
   10724:	00003517          	auipc	a0,0x3
   10728:	c9650513          	addi	a0,a0,-874 # 133ba <end_signature+0x37a>
   1072c:	0d5010ef          	jal	ra,12000 <FN_WriteStr>
   10730:	00060513          	mv	a0,a2
   10734:	0e9010ef          	jal	ra,1201c <FN_WriteA0>
   10738:	00003517          	auipc	a0,0x3
   1073c:	c8450513          	addi	a0,a0,-892 # 133bc <end_signature+0x37c>
   10740:	0c1010ef          	jal	ra,12000 <FN_WriteStr>
   10744:	00003517          	auipc	a0,0x3
   10748:	c7e50513          	addi	a0,a0,-898 # 133c2 <end_signature+0x382>
   1074c:	0b5010ef          	jal	ra,12000 <FN_WriteStr>
   10750:	00003517          	auipc	a0,0x3
   10754:	c7d50513          	addi	a0,a0,-899 # 133cd <end_signature+0x38d>
   10758:	0a9010ef          	jal	ra,12000 <FN_WriteStr>
   1075c:	06400193          	li	gp,100
   10760:	0000100f          	fence.i
   10764:	00018063          	beqz	gp,10764 <reset_vector+0x718>
   10768:	00119193          	slli	gp,gp,0x1
   1076c:	0011e193          	ori	gp,gp,1
   10770:	00000073          	ecall
   10774:	ffe00293          	li	t0,-2
   10778:	08568e63          	beq	a3,t0,10814 <reset_vector+0x7c8>
   1077c:	00003517          	auipc	a0,0x3
   10780:	c5350513          	addi	a0,a0,-941 # 133cf <end_signature+0x38f>
   10784:	07d010ef          	jal	ra,12000 <FN_WriteStr>
   10788:	00003517          	auipc	a0,0x3
   1078c:	c6250513          	addi	a0,a0,-926 # 133ea <end_signature+0x3aa>
   10790:	071010ef          	jal	ra,12000 <FN_WriteStr>
   10794:	00003517          	auipc	a0,0x3
   10798:	c6850513          	addi	a0,a0,-920 # 133fc <end_signature+0x3bc>
   1079c:	065010ef          	jal	ra,12000 <FN_WriteStr>
   107a0:	00003517          	auipc	a0,0x3
   107a4:	c6450513          	addi	a0,a0,-924 # 13404 <end_signature+0x3c4>
   107a8:	059010ef          	jal	ra,12000 <FN_WriteStr>
   107ac:	00003517          	auipc	a0,0x3
   107b0:	c5c50513          	addi	a0,a0,-932 # 13408 <end_signature+0x3c8>
   107b4:	04d010ef          	jal	ra,12000 <FN_WriteStr>
   107b8:	00003517          	auipc	a0,0x3
   107bc:	c5350513          	addi	a0,a0,-941 # 1340b <end_signature+0x3cb>
   107c0:	041010ef          	jal	ra,12000 <FN_WriteStr>
   107c4:	00003517          	auipc	a0,0x3
   107c8:	c4b50513          	addi	a0,a0,-949 # 1340f <end_signature+0x3cf>
   107cc:	035010ef          	jal	ra,12000 <FN_WriteStr>
   107d0:	00068513          	mv	a0,a3
   107d4:	049010ef          	jal	ra,1201c <FN_WriteA0>
   107d8:	00003517          	auipc	a0,0x3
   107dc:	c3950513          	addi	a0,a0,-967 # 13411 <end_signature+0x3d1>
   107e0:	021010ef          	jal	ra,12000 <FN_WriteStr>
   107e4:	00003517          	auipc	a0,0x3
   107e8:	c3350513          	addi	a0,a0,-973 # 13417 <end_signature+0x3d7>
   107ec:	015010ef          	jal	ra,12000 <FN_WriteStr>
   107f0:	00003517          	auipc	a0,0x3
   107f4:	c3250513          	addi	a0,a0,-974 # 13422 <end_signature+0x3e2>
   107f8:	009010ef          	jal	ra,12000 <FN_WriteStr>
   107fc:	06400193          	li	gp,100
   10800:	0000100f          	fence.i
   10804:	00018063          	beqz	gp,10804 <reset_vector+0x7b8>
   10808:	00119193          	slli	gp,gp,0x1
   1080c:	0011e193          	ori	gp,gp,1
   10810:	00000073          	ecall
   10814:	fe000293          	li	t0,-32
   10818:	08570e63          	beq	a4,t0,108b4 <reset_vector+0x868>
   1081c:	00003517          	auipc	a0,0x3
   10820:	c0850513          	addi	a0,a0,-1016 # 13424 <end_signature+0x3e4>
   10824:	7dc010ef          	jal	ra,12000 <FN_WriteStr>
   10828:	00003517          	auipc	a0,0x3
   1082c:	c1750513          	addi	a0,a0,-1001 # 1343f <end_signature+0x3ff>
   10830:	7d0010ef          	jal	ra,12000 <FN_WriteStr>
   10834:	00003517          	auipc	a0,0x3
   10838:	c1d50513          	addi	a0,a0,-995 # 13451 <end_signature+0x411>
   1083c:	7c4010ef          	jal	ra,12000 <FN_WriteStr>
   10840:	00003517          	auipc	a0,0x3
   10844:	c1950513          	addi	a0,a0,-999 # 13459 <end_signature+0x419>
   10848:	7b8010ef          	jal	ra,12000 <FN_WriteStr>
   1084c:	00003517          	auipc	a0,0x3
   10850:	c1150513          	addi	a0,a0,-1007 # 1345d <end_signature+0x41d>
   10854:	7ac010ef          	jal	ra,12000 <FN_WriteStr>
   10858:	00003517          	auipc	a0,0x3
   1085c:	c0850513          	addi	a0,a0,-1016 # 13460 <end_signature+0x420>
   10860:	7a0010ef          	jal	ra,12000 <FN_WriteStr>
   10864:	00003517          	auipc	a0,0x3
   10868:	c0050513          	addi	a0,a0,-1024 # 13464 <end_signature+0x424>
   1086c:	794010ef          	jal	ra,12000 <FN_WriteStr>
   10870:	00070513          	mv	a0,a4
   10874:	7a8010ef          	jal	ra,1201c <FN_WriteA0>
   10878:	00003517          	auipc	a0,0x3
   1087c:	bee50513          	addi	a0,a0,-1042 # 13466 <end_signature+0x426>
   10880:	780010ef          	jal	ra,12000 <FN_WriteStr>
   10884:	00003517          	auipc	a0,0x3
   10888:	be850513          	addi	a0,a0,-1048 # 1346c <end_signature+0x42c>
   1088c:	774010ef          	jal	ra,12000 <FN_WriteStr>
   10890:	00003517          	auipc	a0,0x3
   10894:	be750513          	addi	a0,a0,-1049 # 13477 <end_signature+0x437>
   10898:	768010ef          	jal	ra,12000 <FN_WriteStr>
   1089c:	06400193          	li	gp,100
   108a0:	0000100f          	fence.i
   108a4:	00018063          	beqz	gp,108a4 <reset_vector+0x858>
   108a8:	00119193          	slli	gp,gp,0x1
   108ac:	0011e193          	ori	gp,gp,1
   108b0:	00000073          	ecall
   108b4:	fe000293          	li	t0,-32
   108b8:	08578e63          	beq	a5,t0,10954 <reset_vector+0x908>
   108bc:	00003517          	auipc	a0,0x3
   108c0:	bbd50513          	addi	a0,a0,-1091 # 13479 <end_signature+0x439>
   108c4:	73c010ef          	jal	ra,12000 <FN_WriteStr>
   108c8:	00003517          	auipc	a0,0x3
   108cc:	bcc50513          	addi	a0,a0,-1076 # 13494 <end_signature+0x454>
   108d0:	730010ef          	jal	ra,12000 <FN_WriteStr>
   108d4:	00003517          	auipc	a0,0x3
   108d8:	bd250513          	addi	a0,a0,-1070 # 134a6 <end_signature+0x466>
   108dc:	724010ef          	jal	ra,12000 <FN_WriteStr>
   108e0:	00003517          	auipc	a0,0x3
   108e4:	bce50513          	addi	a0,a0,-1074 # 134ae <end_signature+0x46e>
   108e8:	718010ef          	jal	ra,12000 <FN_WriteStr>
   108ec:	00003517          	auipc	a0,0x3
   108f0:	bc650513          	addi	a0,a0,-1082 # 134b2 <end_signature+0x472>
   108f4:	70c010ef          	jal	ra,12000 <FN_WriteStr>
   108f8:	00003517          	auipc	a0,0x3
   108fc:	bbd50513          	addi	a0,a0,-1091 # 134b5 <end_signature+0x475>
   10900:	700010ef          	jal	ra,12000 <FN_WriteStr>
   10904:	00003517          	auipc	a0,0x3
   10908:	bb550513          	addi	a0,a0,-1099 # 134b9 <end_signature+0x479>
   1090c:	6f4010ef          	jal	ra,12000 <FN_WriteStr>
   10910:	00078513          	mv	a0,a5
   10914:	708010ef          	jal	ra,1201c <FN_WriteA0>
   10918:	00003517          	auipc	a0,0x3
   1091c:	ba350513          	addi	a0,a0,-1117 # 134bb <end_signature+0x47b>
   10920:	6e0010ef          	jal	ra,12000 <FN_WriteStr>
   10924:	00003517          	auipc	a0,0x3
   10928:	b9d50513          	addi	a0,a0,-1123 # 134c1 <end_signature+0x481>
   1092c:	6d4010ef          	jal	ra,12000 <FN_WriteStr>
   10930:	00003517          	auipc	a0,0x3
   10934:	b9c50513          	addi	a0,a0,-1124 # 134cc <end_signature+0x48c>
   10938:	6c8010ef          	jal	ra,12000 <FN_WriteStr>
   1093c:	06400193          	li	gp,100
   10940:	0000100f          	fence.i
   10944:	00018063          	beqz	gp,10944 <reset_vector+0x8f8>
   10948:	00119193          	slli	gp,gp,0x1
   1094c:	0011e193          	ori	gp,gp,1
   10950:	00000073          	ecall
   10954:	fe000293          	li	t0,-32
   10958:	08580e63          	beq	a6,t0,109f4 <reset_vector+0x9a8>
   1095c:	00003517          	auipc	a0,0x3
   10960:	b7250513          	addi	a0,a0,-1166 # 134ce <end_signature+0x48e>
   10964:	69c010ef          	jal	ra,12000 <FN_WriteStr>
   10968:	00003517          	auipc	a0,0x3
   1096c:	b8150513          	addi	a0,a0,-1151 # 134e9 <end_signature+0x4a9>
   10970:	690010ef          	jal	ra,12000 <FN_WriteStr>
   10974:	00003517          	auipc	a0,0x3
   10978:	b8750513          	addi	a0,a0,-1145 # 134fb <end_signature+0x4bb>
   1097c:	684010ef          	jal	ra,12000 <FN_WriteStr>
   10980:	00003517          	auipc	a0,0x3
   10984:	b8350513          	addi	a0,a0,-1149 # 13503 <end_signature+0x4c3>
   10988:	678010ef          	jal	ra,12000 <FN_WriteStr>
   1098c:	00003517          	auipc	a0,0x3
   10990:	b7b50513          	addi	a0,a0,-1157 # 13507 <end_signature+0x4c7>
   10994:	66c010ef          	jal	ra,12000 <FN_WriteStr>
   10998:	00003517          	auipc	a0,0x3
   1099c:	b7250513          	addi	a0,a0,-1166 # 1350a <end_signature+0x4ca>
   109a0:	660010ef          	jal	ra,12000 <FN_WriteStr>
   109a4:	00003517          	auipc	a0,0x3
   109a8:	b6a50513          	addi	a0,a0,-1174 # 1350e <end_signature+0x4ce>
   109ac:	654010ef          	jal	ra,12000 <FN_WriteStr>
   109b0:	00080513          	mv	a0,a6
   109b4:	668010ef          	jal	ra,1201c <FN_WriteA0>
   109b8:	00003517          	auipc	a0,0x3
   109bc:	b5850513          	addi	a0,a0,-1192 # 13510 <end_signature+0x4d0>
   109c0:	640010ef          	jal	ra,12000 <FN_WriteStr>
   109c4:	00003517          	auipc	a0,0x3
   109c8:	b5250513          	addi	a0,a0,-1198 # 13516 <end_signature+0x4d6>
   109cc:	634010ef          	jal	ra,12000 <FN_WriteStr>
   109d0:	00003517          	auipc	a0,0x3
   109d4:	b5150513          	addi	a0,a0,-1199 # 13521 <end_signature+0x4e1>
   109d8:	628010ef          	jal	ra,12000 <FN_WriteStr>
   109dc:	06400193          	li	gp,100
   109e0:	0000100f          	fence.i
   109e4:	00018063          	beqz	gp,109e4 <reset_vector+0x998>
   109e8:	00119193          	slli	gp,gp,0x1
   109ec:	0011e193          	ori	gp,gp,1
   109f0:	00000073          	ecall
   109f4:	fff00293          	li	t0,-1
   109f8:	08540e63          	beq	s0,t0,10a94 <reset_vector+0xa48>
   109fc:	00003517          	auipc	a0,0x3
   10a00:	b2750513          	addi	a0,a0,-1241 # 13523 <end_signature+0x4e3>
   10a04:	5fc010ef          	jal	ra,12000 <FN_WriteStr>
   10a08:	00003517          	auipc	a0,0x3
   10a0c:	b3650513          	addi	a0,a0,-1226 # 1353e <end_signature+0x4fe>
   10a10:	5f0010ef          	jal	ra,12000 <FN_WriteStr>
   10a14:	00003517          	auipc	a0,0x3
   10a18:	b3c50513          	addi	a0,a0,-1220 # 13550 <end_signature+0x510>
   10a1c:	5e4010ef          	jal	ra,12000 <FN_WriteStr>
   10a20:	00003517          	auipc	a0,0x3
   10a24:	b3850513          	addi	a0,a0,-1224 # 13558 <end_signature+0x518>
   10a28:	5d8010ef          	jal	ra,12000 <FN_WriteStr>
   10a2c:	00003517          	auipc	a0,0x3
   10a30:	b3050513          	addi	a0,a0,-1232 # 1355c <end_signature+0x51c>
   10a34:	5cc010ef          	jal	ra,12000 <FN_WriteStr>
   10a38:	00003517          	auipc	a0,0x3
   10a3c:	b2750513          	addi	a0,a0,-1241 # 1355f <end_signature+0x51f>
   10a40:	5c0010ef          	jal	ra,12000 <FN_WriteStr>
   10a44:	00003517          	auipc	a0,0x3
   10a48:	b1e50513          	addi	a0,a0,-1250 # 13562 <end_signature+0x522>
   10a4c:	5b4010ef          	jal	ra,12000 <FN_WriteStr>
   10a50:	00040513          	mv	a0,s0
   10a54:	5c8010ef          	jal	ra,1201c <FN_WriteA0>
   10a58:	00003517          	auipc	a0,0x3
   10a5c:	b0c50513          	addi	a0,a0,-1268 # 13564 <end_signature+0x524>
   10a60:	5a0010ef          	jal	ra,12000 <FN_WriteStr>
   10a64:	00003517          	auipc	a0,0x3
   10a68:	b0650513          	addi	a0,a0,-1274 # 1356a <end_signature+0x52a>
   10a6c:	594010ef          	jal	ra,12000 <FN_WriteStr>
   10a70:	00003517          	auipc	a0,0x3
   10a74:	b0550513          	addi	a0,a0,-1275 # 13575 <end_signature+0x535>
   10a78:	588010ef          	jal	ra,12000 <FN_WriteStr>
   10a7c:	06400193          	li	gp,100
   10a80:	0000100f          	fence.i
   10a84:	00018063          	beqz	gp,10a84 <reset_vector+0xa38>
   10a88:	00119193          	slli	gp,gp,0x1
   10a8c:	0011e193          	ori	gp,gp,1
   10a90:	00000073          	ecall
   10a94:	00003517          	auipc	a0,0x3
   10a98:	ae350513          	addi	a0,a0,-1309 # 13577 <end_signature+0x537>
   10a9c:	564010ef          	jal	ra,12000 <FN_WriteStr>
   10aa0:	00003517          	auipc	a0,0x3
   10aa4:	af350513          	addi	a0,a0,-1293 # 13593 <end_signature+0x553>
   10aa8:	558010ef          	jal	ra,12000 <FN_WriteStr>
   10aac:	00002097          	auipc	ra,0x2
   10ab0:	58c08093          	addi	ra,ra,1420 # 13038 <test_B_res>
   10ab4:	32165a37          	lui	s4,0x32165
   10ab8:	498a0a13          	addi	s4,s4,1176 # 32165498 <_end+0x32151e0d>
   10abc:	340a1073          	csrw	mscratch,s4
   10ac0:	3407f073          	csrci	mscratch,15
   10ac4:	340a1a73          	csrrw	s4,mscratch,s4
   10ac8:	0000a023          	sw	zero,0(ra)
   10acc:	0140a223          	sw	s4,4(ra)
   10ad0:	00000293          	li	t0,0
   10ad4:	08500e63          	beq	zero,t0,10b70 <reset_vector+0xb24>
   10ad8:	00003517          	auipc	a0,0x3
   10adc:	ae250513          	addi	a0,a0,-1310 # 135ba <end_signature+0x57a>
   10ae0:	520010ef          	jal	ra,12000 <FN_WriteStr>
   10ae4:	00003517          	auipc	a0,0x3
   10ae8:	af150513          	addi	a0,a0,-1295 # 135d5 <end_signature+0x595>
   10aec:	514010ef          	jal	ra,12000 <FN_WriteStr>
   10af0:	00003517          	auipc	a0,0x3
   10af4:	af750513          	addi	a0,a0,-1289 # 135e7 <end_signature+0x5a7>
   10af8:	508010ef          	jal	ra,12000 <FN_WriteStr>
   10afc:	00003517          	auipc	a0,0x3
   10b00:	af350513          	addi	a0,a0,-1293 # 135ef <end_signature+0x5af>
   10b04:	4fc010ef          	jal	ra,12000 <FN_WriteStr>
   10b08:	00003517          	auipc	a0,0x3
   10b0c:	aeb50513          	addi	a0,a0,-1301 # 135f3 <end_signature+0x5b3>
   10b10:	4f0010ef          	jal	ra,12000 <FN_WriteStr>
   10b14:	00003517          	auipc	a0,0x3
   10b18:	ae250513          	addi	a0,a0,-1310 # 135f6 <end_signature+0x5b6>
   10b1c:	4e4010ef          	jal	ra,12000 <FN_WriteStr>
   10b20:	00003517          	auipc	a0,0x3
   10b24:	ad950513          	addi	a0,a0,-1319 # 135f9 <end_signature+0x5b9>
   10b28:	4d8010ef          	jal	ra,12000 <FN_WriteStr>
   10b2c:	00000513          	li	a0,0
   10b30:	4ec010ef          	jal	ra,1201c <FN_WriteA0>
   10b34:	00003517          	auipc	a0,0x3
   10b38:	ac750513          	addi	a0,a0,-1337 # 135fb <end_signature+0x5bb>
   10b3c:	4c4010ef          	jal	ra,12000 <FN_WriteStr>
   10b40:	00003517          	auipc	a0,0x3
   10b44:	ac150513          	addi	a0,a0,-1343 # 13601 <end_signature+0x5c1>
   10b48:	4b8010ef          	jal	ra,12000 <FN_WriteStr>
   10b4c:	00003517          	auipc	a0,0x3
   10b50:	ac050513          	addi	a0,a0,-1344 # 1360c <end_signature+0x5cc>
   10b54:	4ac010ef          	jal	ra,12000 <FN_WriteStr>
   10b58:	06400193          	li	gp,100
   10b5c:	0000100f          	fence.i
   10b60:	00018063          	beqz	gp,10b60 <reset_vector+0xb14>
   10b64:	00119193          	slli	gp,gp,0x1
   10b68:	0011e193          	ori	gp,gp,1
   10b6c:	00000073          	ecall
   10b70:	321652b7          	lui	t0,0x32165
   10b74:	49028293          	addi	t0,t0,1168 # 32165490 <_end+0x32151e05>
   10b78:	085a0e63          	beq	s4,t0,10c14 <reset_vector+0xbc8>
   10b7c:	00003517          	auipc	a0,0x3
   10b80:	a9250513          	addi	a0,a0,-1390 # 1360e <end_signature+0x5ce>
   10b84:	47c010ef          	jal	ra,12000 <FN_WriteStr>
   10b88:	00003517          	auipc	a0,0x3
   10b8c:	aa150513          	addi	a0,a0,-1375 # 13629 <end_signature+0x5e9>
   10b90:	470010ef          	jal	ra,12000 <FN_WriteStr>
   10b94:	00003517          	auipc	a0,0x3
   10b98:	aa750513          	addi	a0,a0,-1369 # 1363b <end_signature+0x5fb>
   10b9c:	464010ef          	jal	ra,12000 <FN_WriteStr>
   10ba0:	00003517          	auipc	a0,0x3
   10ba4:	aa350513          	addi	a0,a0,-1373 # 13643 <end_signature+0x603>
   10ba8:	458010ef          	jal	ra,12000 <FN_WriteStr>
   10bac:	00003517          	auipc	a0,0x3
   10bb0:	a9b50513          	addi	a0,a0,-1381 # 13647 <end_signature+0x607>
   10bb4:	44c010ef          	jal	ra,12000 <FN_WriteStr>
   10bb8:	00003517          	auipc	a0,0x3
   10bbc:	a9250513          	addi	a0,a0,-1390 # 1364a <end_signature+0x60a>
   10bc0:	440010ef          	jal	ra,12000 <FN_WriteStr>
   10bc4:	00003517          	auipc	a0,0x3
   10bc8:	a8a50513          	addi	a0,a0,-1398 # 1364e <end_signature+0x60e>
   10bcc:	434010ef          	jal	ra,12000 <FN_WriteStr>
   10bd0:	000a0513          	mv	a0,s4
   10bd4:	448010ef          	jal	ra,1201c <FN_WriteA0>
   10bd8:	00003517          	auipc	a0,0x3
   10bdc:	a7850513          	addi	a0,a0,-1416 # 13650 <end_signature+0x610>
   10be0:	420010ef          	jal	ra,12000 <FN_WriteStr>
   10be4:	00003517          	auipc	a0,0x3
   10be8:	a7250513          	addi	a0,a0,-1422 # 13656 <end_signature+0x616>
   10bec:	414010ef          	jal	ra,12000 <FN_WriteStr>
   10bf0:	00003517          	auipc	a0,0x3
   10bf4:	a7150513          	addi	a0,a0,-1423 # 13661 <end_signature+0x621>
   10bf8:	408010ef          	jal	ra,12000 <FN_WriteStr>
   10bfc:	06400193          	li	gp,100
   10c00:	0000100f          	fence.i
   10c04:	00018063          	beqz	gp,10c04 <reset_vector+0xbb8>
   10c08:	00119193          	slli	gp,gp,0x1
   10c0c:	0011e193          	ori	gp,gp,1
   10c10:	00000073          	ecall
   10c14:	00003517          	auipc	a0,0x3
   10c18:	a4f50513          	addi	a0,a0,-1457 # 13663 <end_signature+0x623>
   10c1c:	3e4010ef          	jal	ra,12000 <FN_WriteStr>
   10c20:	00003517          	auipc	a0,0x3
   10c24:	a5f50513          	addi	a0,a0,-1441 # 1367f <end_signature+0x63f>
   10c28:	3d8010ef          	jal	ra,12000 <FN_WriteStr>
   10c2c:	0000100f          	fence.i
   10c30:	00100193          	li	gp,1
   10c34:	00000073          	ecall
   10c38:	c0001073          	unimp
	...

Disassembly of section .tohost:

00011000 <tohost>:
	...

00011100 <fromhost>:
	...

Disassembly of section .text:

00012000 <FN_WriteStr>:
   12000:	00050293          	mv	t0,a0
   12004:	0002c503          	lbu	a0,0(t0)
   12008:	00128293          	addi	t0,t0,1
   1200c:	00050663          	beqz	a0,12018 <FN_WriteStr+0x18>
   12010:	0005200b          	0x5200b
   12014:	ff1ff06f          	j	12004 <FN_WriteStr+0x4>
   12018:	00008067          	ret

0001201c <FN_WriteA0>:
   1201c:	00050293          	mv	t0,a0
   12020:	fff00513          	li	a0,-1
   12024:	01f55513          	srli	a0,a0,0x1f
   12028:	00155513          	srli	a0,a0,0x1
   1202c:	02051463          	bnez	a0,12054 <FN_WriteA0_64>

00012030 <FN_WriteA0_32>:
   12030:	00800313          	li	t1,8
   12034:	00439393          	slli	t2,t2,0x4
   12038:	00f2f513          	andi	a0,t0,15
   1203c:	0042d293          	srli	t0,t0,0x4
   12040:	00a3e3b3          	or	t2,t2,a0
   12044:	fff30313          	addi	t1,t1,-1
   12048:	fe0316e3          	bnez	t1,12034 <FN_WriteA0_32+0x4>
   1204c:	00800313          	li	t1,8
   12050:	0240006f          	j	12074 <FN_WriteA0_common>

00012054 <FN_WriteA0_64>:
   12054:	01000313          	li	t1,16
   12058:	00439393          	slli	t2,t2,0x4
   1205c:	00f2f513          	andi	a0,t0,15
   12060:	0042d293          	srli	t0,t0,0x4
   12064:	00a3e3b3          	or	t2,t2,a0
   12068:	fff30313          	addi	t1,t1,-1
   1206c:	fe0316e3          	bnez	t1,12058 <FN_WriteA0_64+0x4>
   12070:	01000313          	li	t1,16

00012074 <FN_WriteA0_common>:
   12074:	00a00293          	li	t0,10
   12078:	00f3f513          	andi	a0,t2,15
   1207c:	00554663          	blt	a0,t0,12088 <FN_WriteA0_common+0x14>
   12080:	05750513          	addi	a0,a0,87
   12084:	0080006f          	j	1208c <FN_WriteA0_common+0x18>
   12088:	03050513          	addi	a0,a0,48
   1208c:	0005200b          	0x5200b
   12090:	0043d393          	srli	t2,t2,0x4
   12094:	fff30313          	addi	t1,t1,-1
   12098:	fe0310e3          	bnez	t1,12078 <FN_WriteA0_common+0x4>
   1209c:	00008067          	ret
