
/home/benselfridge/riscv-compliance/work//I-CSRRS-01.elf:     file format elf32-littleriscv


Disassembly of section .text.init:

00010000 <_start>:
   10000:	04c0006f          	j	1004c <reset_vector>

00010004 <trap_vector>:
   10004:	34202f73          	csrr	t5,mcause
   10008:	00800f93          	li	t6,8
   1000c:	03ff0a63          	beq	t5,t6,10040 <write_tohost>
   10010:	00900f93          	li	t6,9
   10014:	03ff0663          	beq	t5,t6,10040 <write_tohost>
   10018:	00b00f93          	li	t6,11
   1001c:	03ff0263          	beq	t5,t6,10040 <write_tohost>
   10020:	ffff0f17          	auipc	t5,0xffff0
   10024:	fe0f0f13          	addi	t5,t5,-32 # 0 <_start-0x10000>
   10028:	000f0463          	beqz	t5,10030 <trap_vector+0x2c>
   1002c:	000f0067          	jr	t5
   10030:	34202f73          	csrr	t5,mcause
   10034:	000f5463          	bgez	t5,1003c <handle_exception>
   10038:	0040006f          	j	1003c <handle_exception>

0001003c <handle_exception>:
   1003c:	5391e193          	ori	gp,gp,1337

00010040 <write_tohost>:
   10040:	00002f17          	auipc	t5,0x2
   10044:	fc3f2023          	sw	gp,-64(t5) # 12000 <tohost>
   10048:	ff9ff06f          	j	10040 <write_tohost>

0001004c <reset_vector>:
   1004c:	f1402573          	csrr	a0,mhartid
   10050:	00051063          	bnez	a0,10050 <reset_vector+0x4>
   10054:	00000297          	auipc	t0,0x0
   10058:	01028293          	addi	t0,t0,16 # 10064 <reset_vector+0x18>
   1005c:	30529073          	csrw	mtvec,t0
   10060:	18005073          	csrwi	satp,0
   10064:	00000297          	auipc	t0,0x0
   10068:	01c28293          	addi	t0,t0,28 # 10080 <reset_vector+0x34>
   1006c:	30529073          	csrw	mtvec,t0
   10070:	fff00293          	li	t0,-1
   10074:	3b029073          	csrw	pmpaddr0,t0
   10078:	01f00293          	li	t0,31
   1007c:	3a029073          	csrw	pmpcfg0,t0
   10080:	00000297          	auipc	t0,0x0
   10084:	01828293          	addi	t0,t0,24 # 10098 <reset_vector+0x4c>
   10088:	30529073          	csrw	mtvec,t0
   1008c:	30205073          	csrwi	medeleg,0
   10090:	30305073          	csrwi	mideleg,0
   10094:	30405073          	csrwi	mie,0
   10098:	00000193          	li	gp,0
   1009c:	00000297          	auipc	t0,0x0
   100a0:	f6828293          	addi	t0,t0,-152 # 10004 <trap_vector>
   100a4:	30529073          	csrw	mtvec,t0
   100a8:	00100513          	li	a0,1
   100ac:	01f51513          	slli	a0,a0,0x1f
   100b0:	00054863          	bltz	a0,100c0 <reset_vector+0x74>
   100b4:	0000100f          	fence.i
   100b8:	00100193          	li	gp,1
   100bc:	00000073          	ecall
   100c0:	ffff0297          	auipc	t0,0xffff0
   100c4:	f4028293          	addi	t0,t0,-192 # 0 <_start-0x10000>
   100c8:	00028e63          	beqz	t0,100e4 <reset_vector+0x98>
   100cc:	10529073          	csrw	stvec,t0
   100d0:	0000b2b7          	lui	t0,0xb
   100d4:	10928293          	addi	t0,t0,265 # b109 <_start-0x4ef7>
   100d8:	30229073          	csrw	medeleg,t0
   100dc:	30202373          	csrr	t1,medeleg
   100e0:	f4629ee3          	bne	t0,t1,1003c <handle_exception>
   100e4:	30005073          	csrwi	mstatus,0
   100e8:	00002537          	lui	a0,0x2
   100ec:	80050513          	addi	a0,a0,-2048 # 1800 <_start-0xe800>
   100f0:	30052073          	csrs	mstatus,a0
   100f4:	00000297          	auipc	t0,0x0
   100f8:	01428293          	addi	t0,t0,20 # 10108 <reset_vector+0xbc>
   100fc:	34129073          	csrw	mepc,t0
   10100:	f1402573          	csrr	a0,mhartid
   10104:	30200073          	mret
   10108:	00000293          	li	t0,0
   1010c:	08500e63          	beq	zero,t0,101a8 <reset_vector+0x15c>
   10110:	00004517          	auipc	a0,0x4
   10114:	f5050513          	addi	a0,a0,-176 # 14060 <end_signature>
   10118:	6e9020ef          	jal	ra,13000 <FN_WriteStr>
   1011c:	00004517          	auipc	a0,0x4
   10120:	f5f50513          	addi	a0,a0,-161 # 1407b <end_signature+0x1b>
   10124:	6dd020ef          	jal	ra,13000 <FN_WriteStr>
   10128:	00004517          	auipc	a0,0x4
   1012c:	f6450513          	addi	a0,a0,-156 # 1408c <end_signature+0x2c>
   10130:	6d1020ef          	jal	ra,13000 <FN_WriteStr>
   10134:	00004517          	auipc	a0,0x4
   10138:	f6050513          	addi	a0,a0,-160 # 14094 <end_signature+0x34>
   1013c:	6c5020ef          	jal	ra,13000 <FN_WriteStr>
   10140:	00004517          	auipc	a0,0x4
   10144:	f5750513          	addi	a0,a0,-169 # 14097 <end_signature+0x37>
   10148:	6b9020ef          	jal	ra,13000 <FN_WriteStr>
   1014c:	00004517          	auipc	a0,0x4
   10150:	f4e50513          	addi	a0,a0,-178 # 1409a <end_signature+0x3a>
   10154:	6ad020ef          	jal	ra,13000 <FN_WriteStr>
   10158:	00004517          	auipc	a0,0x4
   1015c:	f4550513          	addi	a0,a0,-187 # 1409d <end_signature+0x3d>
   10160:	6a1020ef          	jal	ra,13000 <FN_WriteStr>
   10164:	00000513          	li	a0,0
   10168:	6b5020ef          	jal	ra,1301c <FN_WriteA0>
   1016c:	00004517          	auipc	a0,0x4
   10170:	f3350513          	addi	a0,a0,-205 # 1409f <end_signature+0x3f>
   10174:	68d020ef          	jal	ra,13000 <FN_WriteStr>
   10178:	00004517          	auipc	a0,0x4
   1017c:	f2d50513          	addi	a0,a0,-211 # 140a5 <end_signature+0x45>
   10180:	681020ef          	jal	ra,13000 <FN_WriteStr>
   10184:	00004517          	auipc	a0,0x4
   10188:	f2c50513          	addi	a0,a0,-212 # 140b0 <end_signature+0x50>
   1018c:	675020ef          	jal	ra,13000 <FN_WriteStr>
   10190:	06400193          	li	gp,100
   10194:	0000100f          	fence.i
   10198:	00018063          	beqz	gp,10198 <reset_vector+0x14c>
   1019c:	00119193          	slli	gp,gp,0x1
   101a0:	0011e193          	ori	gp,gp,1
   101a4:	00000073          	ecall
   101a8:	00004517          	auipc	a0,0x4
   101ac:	f0a50513          	addi	a0,a0,-246 # 140b2 <end_signature+0x52>
   101b0:	651020ef          	jal	ra,13000 <FN_WriteStr>
   101b4:	00004517          	auipc	a0,0x4
   101b8:	f3050513          	addi	a0,a0,-208 # 140e4 <end_signature+0x84>
   101bc:	645020ef          	jal	ra,13000 <FN_WriteStr>
   101c0:	00004797          	auipc	a5,0x4
   101c4:	e4078793          	addi	a5,a5,-448 # 14000 <begin_signature>
   101c8:	00100093          	li	ra,1
   101cc:	00000113          	li	sp,0
   101d0:	7ff101b7          	lui	gp,0x7ff10
   101d4:	fff18193          	addi	gp,gp,-1 # 7ff0ffff <_end+0x7fefb5b8>
   101d8:	80000237          	lui	tp,0x80000
   101dc:	fff00293          	li	t0,-1
   101e0:	34001073          	csrw	mscratch,zero
   101e4:	3400a0f3          	csrrs	ra,mscratch,ra
   101e8:	340010f3          	csrrw	ra,mscratch,zero
   101ec:	34012173          	csrrs	sp,mscratch,sp
   101f0:	34001173          	csrrw	sp,mscratch,zero
   101f4:	3401a1f3          	csrrs	gp,mscratch,gp
   101f8:	340011f3          	csrrw	gp,mscratch,zero
   101fc:	34022273          	csrrs	tp,mscratch,tp
   10200:	34001273          	csrrw	tp,mscratch,zero
   10204:	3402a2f3          	csrrs	t0,mscratch,t0
   10208:	340012f3          	csrrw	t0,mscratch,zero
   1020c:	0007a023          	sw	zero,0(a5)
   10210:	0017a223          	sw	ra,4(a5)
   10214:	0027a423          	sw	sp,8(a5)
   10218:	0037a623          	sw	gp,12(a5)
   1021c:	0047a823          	sw	tp,16(a5)
   10220:	0057aa23          	sw	t0,20(a5)
   10224:	fff00013          	li	zero,-1
   10228:	00000293          	li	t0,0
   1022c:	08500e63          	beq	zero,t0,102c8 <reset_vector+0x27c>
   10230:	00004517          	auipc	a0,0x4
   10234:	edc50513          	addi	a0,a0,-292 # 1410c <end_signature+0xac>
   10238:	5c9020ef          	jal	ra,13000 <FN_WriteStr>
   1023c:	00004517          	auipc	a0,0x4
   10240:	eeb50513          	addi	a0,a0,-277 # 14127 <end_signature+0xc7>
   10244:	5bd020ef          	jal	ra,13000 <FN_WriteStr>
   10248:	00004517          	auipc	a0,0x4
   1024c:	ef050513          	addi	a0,a0,-272 # 14138 <end_signature+0xd8>
   10250:	5b1020ef          	jal	ra,13000 <FN_WriteStr>
   10254:	00004517          	auipc	a0,0x4
   10258:	eec50513          	addi	a0,a0,-276 # 14140 <end_signature+0xe0>
   1025c:	5a5020ef          	jal	ra,13000 <FN_WriteStr>
   10260:	00004517          	auipc	a0,0x4
   10264:	ee350513          	addi	a0,a0,-285 # 14143 <end_signature+0xe3>
   10268:	599020ef          	jal	ra,13000 <FN_WriteStr>
   1026c:	00004517          	auipc	a0,0x4
   10270:	eda50513          	addi	a0,a0,-294 # 14146 <end_signature+0xe6>
   10274:	58d020ef          	jal	ra,13000 <FN_WriteStr>
   10278:	00004517          	auipc	a0,0x4
   1027c:	ed150513          	addi	a0,a0,-303 # 14149 <end_signature+0xe9>
   10280:	581020ef          	jal	ra,13000 <FN_WriteStr>
   10284:	00000513          	li	a0,0
   10288:	595020ef          	jal	ra,1301c <FN_WriteA0>
   1028c:	00004517          	auipc	a0,0x4
   10290:	ebf50513          	addi	a0,a0,-321 # 1414b <end_signature+0xeb>
   10294:	56d020ef          	jal	ra,13000 <FN_WriteStr>
   10298:	00004517          	auipc	a0,0x4
   1029c:	eb950513          	addi	a0,a0,-327 # 14151 <end_signature+0xf1>
   102a0:	561020ef          	jal	ra,13000 <FN_WriteStr>
   102a4:	00004517          	auipc	a0,0x4
   102a8:	eb850513          	addi	a0,a0,-328 # 1415c <end_signature+0xfc>
   102ac:	555020ef          	jal	ra,13000 <FN_WriteStr>
   102b0:	06400193          	li	gp,100
   102b4:	0000100f          	fence.i
   102b8:	00018063          	beqz	gp,102b8 <reset_vector+0x26c>
   102bc:	00119193          	slli	gp,gp,0x1
   102c0:	0011e193          	ori	gp,gp,1
   102c4:	00000073          	ecall
   102c8:	00000293          	li	t0,0
   102cc:	08510e63          	beq	sp,t0,10368 <reset_vector+0x31c>
   102d0:	00004517          	auipc	a0,0x4
   102d4:	e8e50513          	addi	a0,a0,-370 # 1415e <end_signature+0xfe>
   102d8:	529020ef          	jal	ra,13000 <FN_WriteStr>
   102dc:	00004517          	auipc	a0,0x4
   102e0:	e9d50513          	addi	a0,a0,-355 # 14179 <end_signature+0x119>
   102e4:	51d020ef          	jal	ra,13000 <FN_WriteStr>
   102e8:	00004517          	auipc	a0,0x4
   102ec:	ea250513          	addi	a0,a0,-350 # 1418a <end_signature+0x12a>
   102f0:	511020ef          	jal	ra,13000 <FN_WriteStr>
   102f4:	00004517          	auipc	a0,0x4
   102f8:	e9e50513          	addi	a0,a0,-354 # 14192 <end_signature+0x132>
   102fc:	505020ef          	jal	ra,13000 <FN_WriteStr>
   10300:	00004517          	auipc	a0,0x4
   10304:	e9550513          	addi	a0,a0,-363 # 14195 <end_signature+0x135>
   10308:	4f9020ef          	jal	ra,13000 <FN_WriteStr>
   1030c:	00004517          	auipc	a0,0x4
   10310:	e8c50513          	addi	a0,a0,-372 # 14198 <end_signature+0x138>
   10314:	4ed020ef          	jal	ra,13000 <FN_WriteStr>
   10318:	00004517          	auipc	a0,0x4
   1031c:	e8350513          	addi	a0,a0,-381 # 1419b <end_signature+0x13b>
   10320:	4e1020ef          	jal	ra,13000 <FN_WriteStr>
   10324:	00010513          	mv	a0,sp
   10328:	4f5020ef          	jal	ra,1301c <FN_WriteA0>
   1032c:	00004517          	auipc	a0,0x4
   10330:	e7150513          	addi	a0,a0,-399 # 1419d <end_signature+0x13d>
   10334:	4cd020ef          	jal	ra,13000 <FN_WriteStr>
   10338:	00004517          	auipc	a0,0x4
   1033c:	e6b50513          	addi	a0,a0,-405 # 141a3 <end_signature+0x143>
   10340:	4c1020ef          	jal	ra,13000 <FN_WriteStr>
   10344:	00004517          	auipc	a0,0x4
   10348:	e6a50513          	addi	a0,a0,-406 # 141ae <end_signature+0x14e>
   1034c:	4b5020ef          	jal	ra,13000 <FN_WriteStr>
   10350:	06400193          	li	gp,100
   10354:	0000100f          	fence.i
   10358:	00018063          	beqz	gp,10358 <reset_vector+0x30c>
   1035c:	00119193          	slli	gp,gp,0x1
   10360:	0011e193          	ori	gp,gp,1
   10364:	00000073          	ecall
   10368:	7ff102b7          	lui	t0,0x7ff10
   1036c:	fff28293          	addi	t0,t0,-1 # 7ff0ffff <_end+0x7fefb5b8>
   10370:	08518e63          	beq	gp,t0,1040c <reset_vector+0x3c0>
   10374:	00004517          	auipc	a0,0x4
   10378:	e3c50513          	addi	a0,a0,-452 # 141b0 <end_signature+0x150>
   1037c:	485020ef          	jal	ra,13000 <FN_WriteStr>
   10380:	00004517          	auipc	a0,0x4
   10384:	e4b50513          	addi	a0,a0,-437 # 141cb <end_signature+0x16b>
   10388:	479020ef          	jal	ra,13000 <FN_WriteStr>
   1038c:	00004517          	auipc	a0,0x4
   10390:	e5050513          	addi	a0,a0,-432 # 141dc <end_signature+0x17c>
   10394:	46d020ef          	jal	ra,13000 <FN_WriteStr>
   10398:	00004517          	auipc	a0,0x4
   1039c:	e4c50513          	addi	a0,a0,-436 # 141e4 <end_signature+0x184>
   103a0:	461020ef          	jal	ra,13000 <FN_WriteStr>
   103a4:	00004517          	auipc	a0,0x4
   103a8:	e4350513          	addi	a0,a0,-445 # 141e7 <end_signature+0x187>
   103ac:	455020ef          	jal	ra,13000 <FN_WriteStr>
   103b0:	00004517          	auipc	a0,0x4
   103b4:	e3a50513          	addi	a0,a0,-454 # 141ea <end_signature+0x18a>
   103b8:	449020ef          	jal	ra,13000 <FN_WriteStr>
   103bc:	00004517          	auipc	a0,0x4
   103c0:	e3150513          	addi	a0,a0,-463 # 141ed <end_signature+0x18d>
   103c4:	43d020ef          	jal	ra,13000 <FN_WriteStr>
   103c8:	00018513          	mv	a0,gp
   103cc:	451020ef          	jal	ra,1301c <FN_WriteA0>
   103d0:	00004517          	auipc	a0,0x4
   103d4:	e1f50513          	addi	a0,a0,-481 # 141ef <end_signature+0x18f>
   103d8:	429020ef          	jal	ra,13000 <FN_WriteStr>
   103dc:	00004517          	auipc	a0,0x4
   103e0:	e1950513          	addi	a0,a0,-487 # 141f5 <end_signature+0x195>
   103e4:	41d020ef          	jal	ra,13000 <FN_WriteStr>
   103e8:	00004517          	auipc	a0,0x4
   103ec:	e1850513          	addi	a0,a0,-488 # 14200 <end_signature+0x1a0>
   103f0:	411020ef          	jal	ra,13000 <FN_WriteStr>
   103f4:	06400193          	li	gp,100
   103f8:	0000100f          	fence.i
   103fc:	00018063          	beqz	gp,103fc <reset_vector+0x3b0>
   10400:	00119193          	slli	gp,gp,0x1
   10404:	0011e193          	ori	gp,gp,1
   10408:	00000073          	ecall
   1040c:	800002b7          	lui	t0,0x80000
   10410:	08520e63          	beq	tp,t0,104ac <reset_vector+0x460>
   10414:	00004517          	auipc	a0,0x4
   10418:	dee50513          	addi	a0,a0,-530 # 14202 <end_signature+0x1a2>
   1041c:	3e5020ef          	jal	ra,13000 <FN_WriteStr>
   10420:	00004517          	auipc	a0,0x4
   10424:	dfd50513          	addi	a0,a0,-515 # 1421d <end_signature+0x1bd>
   10428:	3d9020ef          	jal	ra,13000 <FN_WriteStr>
   1042c:	00004517          	auipc	a0,0x4
   10430:	e0250513          	addi	a0,a0,-510 # 1422e <end_signature+0x1ce>
   10434:	3cd020ef          	jal	ra,13000 <FN_WriteStr>
   10438:	00004517          	auipc	a0,0x4
   1043c:	dfe50513          	addi	a0,a0,-514 # 14236 <end_signature+0x1d6>
   10440:	3c1020ef          	jal	ra,13000 <FN_WriteStr>
   10444:	00004517          	auipc	a0,0x4
   10448:	df550513          	addi	a0,a0,-523 # 14239 <end_signature+0x1d9>
   1044c:	3b5020ef          	jal	ra,13000 <FN_WriteStr>
   10450:	00004517          	auipc	a0,0x4
   10454:	dec50513          	addi	a0,a0,-532 # 1423c <end_signature+0x1dc>
   10458:	3a9020ef          	jal	ra,13000 <FN_WriteStr>
   1045c:	00004517          	auipc	a0,0x4
   10460:	de350513          	addi	a0,a0,-541 # 1423f <end_signature+0x1df>
   10464:	39d020ef          	jal	ra,13000 <FN_WriteStr>
   10468:	00020513          	mv	a0,tp
   1046c:	3b1020ef          	jal	ra,1301c <FN_WriteA0>
   10470:	00004517          	auipc	a0,0x4
   10474:	dd150513          	addi	a0,a0,-559 # 14241 <end_signature+0x1e1>
   10478:	389020ef          	jal	ra,13000 <FN_WriteStr>
   1047c:	00004517          	auipc	a0,0x4
   10480:	dcb50513          	addi	a0,a0,-565 # 14247 <end_signature+0x1e7>
   10484:	37d020ef          	jal	ra,13000 <FN_WriteStr>
   10488:	00004517          	auipc	a0,0x4
   1048c:	dca50513          	addi	a0,a0,-566 # 14252 <end_signature+0x1f2>
   10490:	371020ef          	jal	ra,13000 <FN_WriteStr>
   10494:	06400193          	li	gp,100
   10498:	0000100f          	fence.i
   1049c:	00018063          	beqz	gp,1049c <reset_vector+0x450>
   104a0:	00119193          	slli	gp,gp,0x1
   104a4:	0011e193          	ori	gp,gp,1
   104a8:	00000073          	ecall
   104ac:	00000293          	li	t0,0
   104b0:	08528e63          	beq	t0,t0,1054c <reset_vector+0x500>
   104b4:	00004517          	auipc	a0,0x4
   104b8:	da050513          	addi	a0,a0,-608 # 14254 <end_signature+0x1f4>
   104bc:	345020ef          	jal	ra,13000 <FN_WriteStr>
   104c0:	00004517          	auipc	a0,0x4
   104c4:	daf50513          	addi	a0,a0,-593 # 1426f <end_signature+0x20f>
   104c8:	339020ef          	jal	ra,13000 <FN_WriteStr>
   104cc:	00004517          	auipc	a0,0x4
   104d0:	db450513          	addi	a0,a0,-588 # 14280 <end_signature+0x220>
   104d4:	32d020ef          	jal	ra,13000 <FN_WriteStr>
   104d8:	00004517          	auipc	a0,0x4
   104dc:	db050513          	addi	a0,a0,-592 # 14288 <end_signature+0x228>
   104e0:	321020ef          	jal	ra,13000 <FN_WriteStr>
   104e4:	00004517          	auipc	a0,0x4
   104e8:	da750513          	addi	a0,a0,-601 # 1428b <end_signature+0x22b>
   104ec:	315020ef          	jal	ra,13000 <FN_WriteStr>
   104f0:	00004517          	auipc	a0,0x4
   104f4:	d9e50513          	addi	a0,a0,-610 # 1428e <end_signature+0x22e>
   104f8:	309020ef          	jal	ra,13000 <FN_WriteStr>
   104fc:	00004517          	auipc	a0,0x4
   10500:	d9550513          	addi	a0,a0,-619 # 14291 <end_signature+0x231>
   10504:	2fd020ef          	jal	ra,13000 <FN_WriteStr>
   10508:	00028513          	mv	a0,t0
   1050c:	311020ef          	jal	ra,1301c <FN_WriteA0>
   10510:	00004517          	auipc	a0,0x4
   10514:	d8350513          	addi	a0,a0,-637 # 14293 <end_signature+0x233>
   10518:	2e9020ef          	jal	ra,13000 <FN_WriteStr>
   1051c:	00004517          	auipc	a0,0x4
   10520:	d7d50513          	addi	a0,a0,-643 # 14299 <end_signature+0x239>
   10524:	2dd020ef          	jal	ra,13000 <FN_WriteStr>
   10528:	00004517          	auipc	a0,0x4
   1052c:	d7c50513          	addi	a0,a0,-644 # 142a4 <end_signature+0x244>
   10530:	2d1020ef          	jal	ra,13000 <FN_WriteStr>
   10534:	06400193          	li	gp,100
   10538:	0000100f          	fence.i
   1053c:	00018063          	beqz	gp,1053c <reset_vector+0x4f0>
   10540:	00119193          	slli	gp,gp,0x1
   10544:	0011e193          	ori	gp,gp,1
   10548:	00000073          	ecall
   1054c:	00004517          	auipc	a0,0x4
   10550:	d5a50513          	addi	a0,a0,-678 # 142a6 <end_signature+0x246>
   10554:	2ad020ef          	jal	ra,13000 <FN_WriteStr>
   10558:	00004517          	auipc	a0,0x4
   1055c:	d6a50513          	addi	a0,a0,-662 # 142c2 <end_signature+0x262>
   10560:	2a1020ef          	jal	ra,13000 <FN_WriteStr>
   10564:	00004297          	auipc	t0,0x4
   10568:	ab428293          	addi	t0,t0,-1356 # 14018 <test_A2_res>
   1056c:	00100593          	li	a1,1
   10570:	00000613          	li	a2,0
   10574:	7ff106b7          	lui	a3,0x7ff10
   10578:	fff68693          	addi	a3,a3,-1 # 7ff0ffff <_end+0x7fefb5b8>
   1057c:	80000737          	lui	a4,0x80000
   10580:	fff00793          	li	a5,-1
   10584:	34001073          	csrw	mscratch,zero
   10588:	3405a5f3          	csrrs	a1,mscratch,a1
   1058c:	34062673          	csrrs	a2,mscratch,a2
   10590:	3406a6f3          	csrrs	a3,mscratch,a3
   10594:	34072773          	csrrs	a4,mscratch,a4
   10598:	3407a7f3          	csrrs	a5,mscratch,a5
   1059c:	34002873          	csrr	a6,mscratch
   105a0:	00b2a023          	sw	a1,0(t0)
   105a4:	00c2a223          	sw	a2,4(t0)
   105a8:	00d2a423          	sw	a3,8(t0)
   105ac:	00e2a623          	sw	a4,12(t0)
   105b0:	00f2a823          	sw	a5,16(t0)
   105b4:	0102aa23          	sw	a6,20(t0)
   105b8:	00000293          	li	t0,0
   105bc:	08558e63          	beq	a1,t0,10658 <reset_vector+0x60c>
   105c0:	00004517          	auipc	a0,0x4
   105c4:	d2a50513          	addi	a0,a0,-726 # 142ea <end_signature+0x28a>
   105c8:	239020ef          	jal	ra,13000 <FN_WriteStr>
   105cc:	00004517          	auipc	a0,0x4
   105d0:	d3950513          	addi	a0,a0,-711 # 14305 <end_signature+0x2a5>
   105d4:	22d020ef          	jal	ra,13000 <FN_WriteStr>
   105d8:	00004517          	auipc	a0,0x4
   105dc:	d3e50513          	addi	a0,a0,-706 # 14316 <end_signature+0x2b6>
   105e0:	221020ef          	jal	ra,13000 <FN_WriteStr>
   105e4:	00004517          	auipc	a0,0x4
   105e8:	d3a50513          	addi	a0,a0,-710 # 1431e <end_signature+0x2be>
   105ec:	215020ef          	jal	ra,13000 <FN_WriteStr>
   105f0:	00004517          	auipc	a0,0x4
   105f4:	d3250513          	addi	a0,a0,-718 # 14322 <end_signature+0x2c2>
   105f8:	209020ef          	jal	ra,13000 <FN_WriteStr>
   105fc:	00004517          	auipc	a0,0x4
   10600:	d2950513          	addi	a0,a0,-727 # 14325 <end_signature+0x2c5>
   10604:	1fd020ef          	jal	ra,13000 <FN_WriteStr>
   10608:	00004517          	auipc	a0,0x4
   1060c:	d2150513          	addi	a0,a0,-735 # 14329 <end_signature+0x2c9>
   10610:	1f1020ef          	jal	ra,13000 <FN_WriteStr>
   10614:	00058513          	mv	a0,a1
   10618:	205020ef          	jal	ra,1301c <FN_WriteA0>
   1061c:	00004517          	auipc	a0,0x4
   10620:	d0f50513          	addi	a0,a0,-753 # 1432b <end_signature+0x2cb>
   10624:	1dd020ef          	jal	ra,13000 <FN_WriteStr>
   10628:	00004517          	auipc	a0,0x4
   1062c:	d0950513          	addi	a0,a0,-759 # 14331 <end_signature+0x2d1>
   10630:	1d1020ef          	jal	ra,13000 <FN_WriteStr>
   10634:	00004517          	auipc	a0,0x4
   10638:	d0850513          	addi	a0,a0,-760 # 1433c <end_signature+0x2dc>
   1063c:	1c5020ef          	jal	ra,13000 <FN_WriteStr>
   10640:	06400193          	li	gp,100
   10644:	0000100f          	fence.i
   10648:	00018063          	beqz	gp,10648 <reset_vector+0x5fc>
   1064c:	00119193          	slli	gp,gp,0x1
   10650:	0011e193          	ori	gp,gp,1
   10654:	00000073          	ecall
   10658:	00100293          	li	t0,1
   1065c:	08560e63          	beq	a2,t0,106f8 <reset_vector+0x6ac>
   10660:	00004517          	auipc	a0,0x4
   10664:	cde50513          	addi	a0,a0,-802 # 1433e <end_signature+0x2de>
   10668:	199020ef          	jal	ra,13000 <FN_WriteStr>
   1066c:	00004517          	auipc	a0,0x4
   10670:	ced50513          	addi	a0,a0,-787 # 14359 <end_signature+0x2f9>
   10674:	18d020ef          	jal	ra,13000 <FN_WriteStr>
   10678:	00004517          	auipc	a0,0x4
   1067c:	cf250513          	addi	a0,a0,-782 # 1436a <end_signature+0x30a>
   10680:	181020ef          	jal	ra,13000 <FN_WriteStr>
   10684:	00004517          	auipc	a0,0x4
   10688:	cee50513          	addi	a0,a0,-786 # 14372 <end_signature+0x312>
   1068c:	175020ef          	jal	ra,13000 <FN_WriteStr>
   10690:	00004517          	auipc	a0,0x4
   10694:	ce650513          	addi	a0,a0,-794 # 14376 <end_signature+0x316>
   10698:	169020ef          	jal	ra,13000 <FN_WriteStr>
   1069c:	00004517          	auipc	a0,0x4
   106a0:	cdd50513          	addi	a0,a0,-803 # 14379 <end_signature+0x319>
   106a4:	15d020ef          	jal	ra,13000 <FN_WriteStr>
   106a8:	00004517          	auipc	a0,0x4
   106ac:	cd550513          	addi	a0,a0,-811 # 1437d <end_signature+0x31d>
   106b0:	151020ef          	jal	ra,13000 <FN_WriteStr>
   106b4:	00060513          	mv	a0,a2
   106b8:	165020ef          	jal	ra,1301c <FN_WriteA0>
   106bc:	00004517          	auipc	a0,0x4
   106c0:	cc350513          	addi	a0,a0,-829 # 1437f <end_signature+0x31f>
   106c4:	13d020ef          	jal	ra,13000 <FN_WriteStr>
   106c8:	00004517          	auipc	a0,0x4
   106cc:	cbd50513          	addi	a0,a0,-835 # 14385 <end_signature+0x325>
   106d0:	131020ef          	jal	ra,13000 <FN_WriteStr>
   106d4:	00004517          	auipc	a0,0x4
   106d8:	cbc50513          	addi	a0,a0,-836 # 14390 <end_signature+0x330>
   106dc:	125020ef          	jal	ra,13000 <FN_WriteStr>
   106e0:	06400193          	li	gp,100
   106e4:	0000100f          	fence.i
   106e8:	00018063          	beqz	gp,106e8 <reset_vector+0x69c>
   106ec:	00119193          	slli	gp,gp,0x1
   106f0:	0011e193          	ori	gp,gp,1
   106f4:	00000073          	ecall
   106f8:	00100293          	li	t0,1
   106fc:	08568e63          	beq	a3,t0,10798 <reset_vector+0x74c>
   10700:	00004517          	auipc	a0,0x4
   10704:	c9250513          	addi	a0,a0,-878 # 14392 <end_signature+0x332>
   10708:	0f9020ef          	jal	ra,13000 <FN_WriteStr>
   1070c:	00004517          	auipc	a0,0x4
   10710:	ca150513          	addi	a0,a0,-863 # 143ad <end_signature+0x34d>
   10714:	0ed020ef          	jal	ra,13000 <FN_WriteStr>
   10718:	00004517          	auipc	a0,0x4
   1071c:	ca650513          	addi	a0,a0,-858 # 143be <end_signature+0x35e>
   10720:	0e1020ef          	jal	ra,13000 <FN_WriteStr>
   10724:	00004517          	auipc	a0,0x4
   10728:	ca250513          	addi	a0,a0,-862 # 143c6 <end_signature+0x366>
   1072c:	0d5020ef          	jal	ra,13000 <FN_WriteStr>
   10730:	00004517          	auipc	a0,0x4
   10734:	c9a50513          	addi	a0,a0,-870 # 143ca <end_signature+0x36a>
   10738:	0c9020ef          	jal	ra,13000 <FN_WriteStr>
   1073c:	00004517          	auipc	a0,0x4
   10740:	c9150513          	addi	a0,a0,-879 # 143cd <end_signature+0x36d>
   10744:	0bd020ef          	jal	ra,13000 <FN_WriteStr>
   10748:	00004517          	auipc	a0,0x4
   1074c:	c8950513          	addi	a0,a0,-887 # 143d1 <end_signature+0x371>
   10750:	0b1020ef          	jal	ra,13000 <FN_WriteStr>
   10754:	00068513          	mv	a0,a3
   10758:	0c5020ef          	jal	ra,1301c <FN_WriteA0>
   1075c:	00004517          	auipc	a0,0x4
   10760:	c7750513          	addi	a0,a0,-905 # 143d3 <end_signature+0x373>
   10764:	09d020ef          	jal	ra,13000 <FN_WriteStr>
   10768:	00004517          	auipc	a0,0x4
   1076c:	c7150513          	addi	a0,a0,-911 # 143d9 <end_signature+0x379>
   10770:	091020ef          	jal	ra,13000 <FN_WriteStr>
   10774:	00004517          	auipc	a0,0x4
   10778:	c7050513          	addi	a0,a0,-912 # 143e4 <end_signature+0x384>
   1077c:	085020ef          	jal	ra,13000 <FN_WriteStr>
   10780:	06400193          	li	gp,100
   10784:	0000100f          	fence.i
   10788:	00018063          	beqz	gp,10788 <reset_vector+0x73c>
   1078c:	00119193          	slli	gp,gp,0x1
   10790:	0011e193          	ori	gp,gp,1
   10794:	00000073          	ecall
   10798:	7ff102b7          	lui	t0,0x7ff10
   1079c:	fff28293          	addi	t0,t0,-1 # 7ff0ffff <_end+0x7fefb5b8>
   107a0:	08570e63          	beq	a4,t0,1083c <reset_vector+0x7f0>
   107a4:	00004517          	auipc	a0,0x4
   107a8:	c4250513          	addi	a0,a0,-958 # 143e6 <end_signature+0x386>
   107ac:	055020ef          	jal	ra,13000 <FN_WriteStr>
   107b0:	00004517          	auipc	a0,0x4
   107b4:	c5150513          	addi	a0,a0,-943 # 14401 <end_signature+0x3a1>
   107b8:	049020ef          	jal	ra,13000 <FN_WriteStr>
   107bc:	00004517          	auipc	a0,0x4
   107c0:	c5650513          	addi	a0,a0,-938 # 14412 <end_signature+0x3b2>
   107c4:	03d020ef          	jal	ra,13000 <FN_WriteStr>
   107c8:	00004517          	auipc	a0,0x4
   107cc:	c5250513          	addi	a0,a0,-942 # 1441a <end_signature+0x3ba>
   107d0:	031020ef          	jal	ra,13000 <FN_WriteStr>
   107d4:	00004517          	auipc	a0,0x4
   107d8:	c4a50513          	addi	a0,a0,-950 # 1441e <end_signature+0x3be>
   107dc:	025020ef          	jal	ra,13000 <FN_WriteStr>
   107e0:	00004517          	auipc	a0,0x4
   107e4:	c4150513          	addi	a0,a0,-959 # 14421 <end_signature+0x3c1>
   107e8:	019020ef          	jal	ra,13000 <FN_WriteStr>
   107ec:	00004517          	auipc	a0,0x4
   107f0:	c3950513          	addi	a0,a0,-967 # 14425 <end_signature+0x3c5>
   107f4:	00d020ef          	jal	ra,13000 <FN_WriteStr>
   107f8:	00070513          	mv	a0,a4
   107fc:	021020ef          	jal	ra,1301c <FN_WriteA0>
   10800:	00004517          	auipc	a0,0x4
   10804:	c2750513          	addi	a0,a0,-985 # 14427 <end_signature+0x3c7>
   10808:	7f8020ef          	jal	ra,13000 <FN_WriteStr>
   1080c:	00004517          	auipc	a0,0x4
   10810:	c2150513          	addi	a0,a0,-991 # 1442d <end_signature+0x3cd>
   10814:	7ec020ef          	jal	ra,13000 <FN_WriteStr>
   10818:	00004517          	auipc	a0,0x4
   1081c:	c2050513          	addi	a0,a0,-992 # 14438 <end_signature+0x3d8>
   10820:	7e0020ef          	jal	ra,13000 <FN_WriteStr>
   10824:	06400193          	li	gp,100
   10828:	0000100f          	fence.i
   1082c:	00018063          	beqz	gp,1082c <reset_vector+0x7e0>
   10830:	00119193          	slli	gp,gp,0x1
   10834:	0011e193          	ori	gp,gp,1
   10838:	00000073          	ecall
   1083c:	fff102b7          	lui	t0,0xfff10
   10840:	fff28293          	addi	t0,t0,-1 # fff0ffff <_end+0xffefb5b8>
   10844:	08578e63          	beq	a5,t0,108e0 <reset_vector+0x894>
   10848:	00004517          	auipc	a0,0x4
   1084c:	bf250513          	addi	a0,a0,-1038 # 1443a <end_signature+0x3da>
   10850:	7b0020ef          	jal	ra,13000 <FN_WriteStr>
   10854:	00004517          	auipc	a0,0x4
   10858:	c0150513          	addi	a0,a0,-1023 # 14455 <end_signature+0x3f5>
   1085c:	7a4020ef          	jal	ra,13000 <FN_WriteStr>
   10860:	00004517          	auipc	a0,0x4
   10864:	c0650513          	addi	a0,a0,-1018 # 14466 <end_signature+0x406>
   10868:	798020ef          	jal	ra,13000 <FN_WriteStr>
   1086c:	00004517          	auipc	a0,0x4
   10870:	c0250513          	addi	a0,a0,-1022 # 1446e <end_signature+0x40e>
   10874:	78c020ef          	jal	ra,13000 <FN_WriteStr>
   10878:	00004517          	auipc	a0,0x4
   1087c:	bfa50513          	addi	a0,a0,-1030 # 14472 <end_signature+0x412>
   10880:	780020ef          	jal	ra,13000 <FN_WriteStr>
   10884:	00004517          	auipc	a0,0x4
   10888:	bf150513          	addi	a0,a0,-1039 # 14475 <end_signature+0x415>
   1088c:	774020ef          	jal	ra,13000 <FN_WriteStr>
   10890:	00004517          	auipc	a0,0x4
   10894:	be950513          	addi	a0,a0,-1047 # 14479 <end_signature+0x419>
   10898:	768020ef          	jal	ra,13000 <FN_WriteStr>
   1089c:	00078513          	mv	a0,a5
   108a0:	77c020ef          	jal	ra,1301c <FN_WriteA0>
   108a4:	00004517          	auipc	a0,0x4
   108a8:	bd750513          	addi	a0,a0,-1065 # 1447b <end_signature+0x41b>
   108ac:	754020ef          	jal	ra,13000 <FN_WriteStr>
   108b0:	00004517          	auipc	a0,0x4
   108b4:	bd150513          	addi	a0,a0,-1071 # 14481 <end_signature+0x421>
   108b8:	748020ef          	jal	ra,13000 <FN_WriteStr>
   108bc:	00004517          	auipc	a0,0x4
   108c0:	bd050513          	addi	a0,a0,-1072 # 1448c <end_signature+0x42c>
   108c4:	73c020ef          	jal	ra,13000 <FN_WriteStr>
   108c8:	06400193          	li	gp,100
   108cc:	0000100f          	fence.i
   108d0:	00018063          	beqz	gp,108d0 <reset_vector+0x884>
   108d4:	00119193          	slli	gp,gp,0x1
   108d8:	0011e193          	ori	gp,gp,1
   108dc:	00000073          	ecall
   108e0:	fff00293          	li	t0,-1
   108e4:	08580e63          	beq	a6,t0,10980 <reset_vector+0x934>
   108e8:	00004517          	auipc	a0,0x4
   108ec:	ba650513          	addi	a0,a0,-1114 # 1448e <end_signature+0x42e>
   108f0:	710020ef          	jal	ra,13000 <FN_WriteStr>
   108f4:	00004517          	auipc	a0,0x4
   108f8:	bb550513          	addi	a0,a0,-1099 # 144a9 <end_signature+0x449>
   108fc:	704020ef          	jal	ra,13000 <FN_WriteStr>
   10900:	00004517          	auipc	a0,0x4
   10904:	bba50513          	addi	a0,a0,-1094 # 144ba <end_signature+0x45a>
   10908:	6f8020ef          	jal	ra,13000 <FN_WriteStr>
   1090c:	00004517          	auipc	a0,0x4
   10910:	bb650513          	addi	a0,a0,-1098 # 144c2 <end_signature+0x462>
   10914:	6ec020ef          	jal	ra,13000 <FN_WriteStr>
   10918:	00004517          	auipc	a0,0x4
   1091c:	bae50513          	addi	a0,a0,-1106 # 144c6 <end_signature+0x466>
   10920:	6e0020ef          	jal	ra,13000 <FN_WriteStr>
   10924:	00004517          	auipc	a0,0x4
   10928:	ba550513          	addi	a0,a0,-1115 # 144c9 <end_signature+0x469>
   1092c:	6d4020ef          	jal	ra,13000 <FN_WriteStr>
   10930:	00004517          	auipc	a0,0x4
   10934:	b9d50513          	addi	a0,a0,-1123 # 144cd <end_signature+0x46d>
   10938:	6c8020ef          	jal	ra,13000 <FN_WriteStr>
   1093c:	00080513          	mv	a0,a6
   10940:	6dc020ef          	jal	ra,1301c <FN_WriteA0>
   10944:	00004517          	auipc	a0,0x4
   10948:	b8b50513          	addi	a0,a0,-1141 # 144cf <end_signature+0x46f>
   1094c:	6b4020ef          	jal	ra,13000 <FN_WriteStr>
   10950:	00004517          	auipc	a0,0x4
   10954:	b8550513          	addi	a0,a0,-1147 # 144d5 <end_signature+0x475>
   10958:	6a8020ef          	jal	ra,13000 <FN_WriteStr>
   1095c:	00004517          	auipc	a0,0x4
   10960:	b8450513          	addi	a0,a0,-1148 # 144e0 <end_signature+0x480>
   10964:	69c020ef          	jal	ra,13000 <FN_WriteStr>
   10968:	06400193          	li	gp,100
   1096c:	0000100f          	fence.i
   10970:	00018063          	beqz	gp,10970 <reset_vector+0x924>
   10974:	00119193          	slli	gp,gp,0x1
   10978:	0011e193          	ori	gp,gp,1
   1097c:	00000073          	ecall
   10980:	00004517          	auipc	a0,0x4
   10984:	b6250513          	addi	a0,a0,-1182 # 144e2 <end_signature+0x482>
   10988:	678020ef          	jal	ra,13000 <FN_WriteStr>
   1098c:	00004517          	auipc	a0,0x4
   10990:	b7250513          	addi	a0,a0,-1166 # 144fe <end_signature+0x49e>
   10994:	66c020ef          	jal	ra,13000 <FN_WriteStr>
   10998:	00003d17          	auipc	s10,0x3
   1099c:	698d0d13          	addi	s10,s10,1688 # 14030 <test_B_res>
   109a0:	12345ab7          	lui	s5,0x12345
   109a4:	678a8a93          	addi	s5,s5,1656 # 12345678 <_end+0x12330c31>
   109a8:	34001073          	csrw	mscratch,zero
   109ac:	340aab73          	csrrs	s6,mscratch,s5
   109b0:	340b2bf3          	csrrs	s7,mscratch,s6
   109b4:	34001bf3          	csrrw	s7,mscratch,zero
   109b8:	340bac73          	csrrs	s8,mscratch,s7
   109bc:	34002cf3          	csrr	s9,mscratch
   109c0:	015d2023          	sw	s5,0(s10)
   109c4:	016d2223          	sw	s6,4(s10)
   109c8:	017d2423          	sw	s7,8(s10)
   109cc:	018d2623          	sw	s8,12(s10)
   109d0:	019d2823          	sw	s9,16(s10)
   109d4:	123452b7          	lui	t0,0x12345
   109d8:	67828293          	addi	t0,t0,1656 # 12345678 <_end+0x12330c31>
   109dc:	085a8e63          	beq	s5,t0,10a78 <reset_vector+0xa2c>
   109e0:	00004517          	auipc	a0,0x4
   109e4:	b5750513          	addi	a0,a0,-1193 # 14537 <end_signature+0x4d7>
   109e8:	618020ef          	jal	ra,13000 <FN_WriteStr>
   109ec:	00004517          	auipc	a0,0x4
   109f0:	b6650513          	addi	a0,a0,-1178 # 14552 <end_signature+0x4f2>
   109f4:	60c020ef          	jal	ra,13000 <FN_WriteStr>
   109f8:	00004517          	auipc	a0,0x4
   109fc:	b6b50513          	addi	a0,a0,-1173 # 14563 <end_signature+0x503>
   10a00:	600020ef          	jal	ra,13000 <FN_WriteStr>
   10a04:	00004517          	auipc	a0,0x4
   10a08:	b6750513          	addi	a0,a0,-1177 # 1456b <end_signature+0x50b>
   10a0c:	5f4020ef          	jal	ra,13000 <FN_WriteStr>
   10a10:	00004517          	auipc	a0,0x4
   10a14:	b5f50513          	addi	a0,a0,-1185 # 1456f <end_signature+0x50f>
   10a18:	5e8020ef          	jal	ra,13000 <FN_WriteStr>
   10a1c:	00004517          	auipc	a0,0x4
   10a20:	b5650513          	addi	a0,a0,-1194 # 14572 <end_signature+0x512>
   10a24:	5dc020ef          	jal	ra,13000 <FN_WriteStr>
   10a28:	00004517          	auipc	a0,0x4
   10a2c:	b4e50513          	addi	a0,a0,-1202 # 14576 <end_signature+0x516>
   10a30:	5d0020ef          	jal	ra,13000 <FN_WriteStr>
   10a34:	000a8513          	mv	a0,s5
   10a38:	5e4020ef          	jal	ra,1301c <FN_WriteA0>
   10a3c:	00004517          	auipc	a0,0x4
   10a40:	b3c50513          	addi	a0,a0,-1220 # 14578 <end_signature+0x518>
   10a44:	5bc020ef          	jal	ra,13000 <FN_WriteStr>
   10a48:	00004517          	auipc	a0,0x4
   10a4c:	b3650513          	addi	a0,a0,-1226 # 1457e <end_signature+0x51e>
   10a50:	5b0020ef          	jal	ra,13000 <FN_WriteStr>
   10a54:	00004517          	auipc	a0,0x4
   10a58:	b3550513          	addi	a0,a0,-1227 # 14589 <end_signature+0x529>
   10a5c:	5a4020ef          	jal	ra,13000 <FN_WriteStr>
   10a60:	06400193          	li	gp,100
   10a64:	0000100f          	fence.i
   10a68:	00018063          	beqz	gp,10a68 <reset_vector+0xa1c>
   10a6c:	00119193          	slli	gp,gp,0x1
   10a70:	0011e193          	ori	gp,gp,1
   10a74:	00000073          	ecall
   10a78:	00000293          	li	t0,0
   10a7c:	085b0e63          	beq	s6,t0,10b18 <reset_vector+0xacc>
   10a80:	00004517          	auipc	a0,0x4
   10a84:	b0b50513          	addi	a0,a0,-1269 # 1458b <end_signature+0x52b>
   10a88:	578020ef          	jal	ra,13000 <FN_WriteStr>
   10a8c:	00004517          	auipc	a0,0x4
   10a90:	b1a50513          	addi	a0,a0,-1254 # 145a6 <end_signature+0x546>
   10a94:	56c020ef          	jal	ra,13000 <FN_WriteStr>
   10a98:	00004517          	auipc	a0,0x4
   10a9c:	b1f50513          	addi	a0,a0,-1249 # 145b7 <end_signature+0x557>
   10aa0:	560020ef          	jal	ra,13000 <FN_WriteStr>
   10aa4:	00004517          	auipc	a0,0x4
   10aa8:	b1b50513          	addi	a0,a0,-1253 # 145bf <end_signature+0x55f>
   10aac:	554020ef          	jal	ra,13000 <FN_WriteStr>
   10ab0:	00004517          	auipc	a0,0x4
   10ab4:	b1350513          	addi	a0,a0,-1261 # 145c3 <end_signature+0x563>
   10ab8:	548020ef          	jal	ra,13000 <FN_WriteStr>
   10abc:	00004517          	auipc	a0,0x4
   10ac0:	b0a50513          	addi	a0,a0,-1270 # 145c6 <end_signature+0x566>
   10ac4:	53c020ef          	jal	ra,13000 <FN_WriteStr>
   10ac8:	00004517          	auipc	a0,0x4
   10acc:	b0250513          	addi	a0,a0,-1278 # 145ca <end_signature+0x56a>
   10ad0:	530020ef          	jal	ra,13000 <FN_WriteStr>
   10ad4:	000b0513          	mv	a0,s6
   10ad8:	544020ef          	jal	ra,1301c <FN_WriteA0>
   10adc:	00004517          	auipc	a0,0x4
   10ae0:	af050513          	addi	a0,a0,-1296 # 145cc <end_signature+0x56c>
   10ae4:	51c020ef          	jal	ra,13000 <FN_WriteStr>
   10ae8:	00004517          	auipc	a0,0x4
   10aec:	aea50513          	addi	a0,a0,-1302 # 145d2 <end_signature+0x572>
   10af0:	510020ef          	jal	ra,13000 <FN_WriteStr>
   10af4:	00004517          	auipc	a0,0x4
   10af8:	ae950513          	addi	a0,a0,-1303 # 145dd <end_signature+0x57d>
   10afc:	504020ef          	jal	ra,13000 <FN_WriteStr>
   10b00:	06400193          	li	gp,100
   10b04:	0000100f          	fence.i
   10b08:	00018063          	beqz	gp,10b08 <reset_vector+0xabc>
   10b0c:	00119193          	slli	gp,gp,0x1
   10b10:	0011e193          	ori	gp,gp,1
   10b14:	00000073          	ecall
   10b18:	123452b7          	lui	t0,0x12345
   10b1c:	67828293          	addi	t0,t0,1656 # 12345678 <_end+0x12330c31>
   10b20:	085b8e63          	beq	s7,t0,10bbc <reset_vector+0xb70>
   10b24:	00004517          	auipc	a0,0x4
   10b28:	abb50513          	addi	a0,a0,-1349 # 145df <end_signature+0x57f>
   10b2c:	4d4020ef          	jal	ra,13000 <FN_WriteStr>
   10b30:	00004517          	auipc	a0,0x4
   10b34:	aca50513          	addi	a0,a0,-1334 # 145fa <end_signature+0x59a>
   10b38:	4c8020ef          	jal	ra,13000 <FN_WriteStr>
   10b3c:	00004517          	auipc	a0,0x4
   10b40:	acf50513          	addi	a0,a0,-1329 # 1460b <end_signature+0x5ab>
   10b44:	4bc020ef          	jal	ra,13000 <FN_WriteStr>
   10b48:	00004517          	auipc	a0,0x4
   10b4c:	acb50513          	addi	a0,a0,-1333 # 14613 <end_signature+0x5b3>
   10b50:	4b0020ef          	jal	ra,13000 <FN_WriteStr>
   10b54:	00004517          	auipc	a0,0x4
   10b58:	ac350513          	addi	a0,a0,-1341 # 14617 <end_signature+0x5b7>
   10b5c:	4a4020ef          	jal	ra,13000 <FN_WriteStr>
   10b60:	00004517          	auipc	a0,0x4
   10b64:	aba50513          	addi	a0,a0,-1350 # 1461a <end_signature+0x5ba>
   10b68:	498020ef          	jal	ra,13000 <FN_WriteStr>
   10b6c:	00004517          	auipc	a0,0x4
   10b70:	ab250513          	addi	a0,a0,-1358 # 1461e <end_signature+0x5be>
   10b74:	48c020ef          	jal	ra,13000 <FN_WriteStr>
   10b78:	000b8513          	mv	a0,s7
   10b7c:	4a0020ef          	jal	ra,1301c <FN_WriteA0>
   10b80:	00004517          	auipc	a0,0x4
   10b84:	aa050513          	addi	a0,a0,-1376 # 14620 <end_signature+0x5c0>
   10b88:	478020ef          	jal	ra,13000 <FN_WriteStr>
   10b8c:	00004517          	auipc	a0,0x4
   10b90:	a9a50513          	addi	a0,a0,-1382 # 14626 <end_signature+0x5c6>
   10b94:	46c020ef          	jal	ra,13000 <FN_WriteStr>
   10b98:	00004517          	auipc	a0,0x4
   10b9c:	a9950513          	addi	a0,a0,-1383 # 14631 <end_signature+0x5d1>
   10ba0:	460020ef          	jal	ra,13000 <FN_WriteStr>
   10ba4:	06400193          	li	gp,100
   10ba8:	0000100f          	fence.i
   10bac:	00018063          	beqz	gp,10bac <reset_vector+0xb60>
   10bb0:	00119193          	slli	gp,gp,0x1
   10bb4:	0011e193          	ori	gp,gp,1
   10bb8:	00000073          	ecall
   10bbc:	00000293          	li	t0,0
   10bc0:	085c0e63          	beq	s8,t0,10c5c <reset_vector+0xc10>
   10bc4:	00004517          	auipc	a0,0x4
   10bc8:	a6f50513          	addi	a0,a0,-1425 # 14633 <end_signature+0x5d3>
   10bcc:	434020ef          	jal	ra,13000 <FN_WriteStr>
   10bd0:	00004517          	auipc	a0,0x4
   10bd4:	a7e50513          	addi	a0,a0,-1410 # 1464e <end_signature+0x5ee>
   10bd8:	428020ef          	jal	ra,13000 <FN_WriteStr>
   10bdc:	00004517          	auipc	a0,0x4
   10be0:	a8350513          	addi	a0,a0,-1405 # 1465f <end_signature+0x5ff>
   10be4:	41c020ef          	jal	ra,13000 <FN_WriteStr>
   10be8:	00004517          	auipc	a0,0x4
   10bec:	a7f50513          	addi	a0,a0,-1409 # 14667 <end_signature+0x607>
   10bf0:	410020ef          	jal	ra,13000 <FN_WriteStr>
   10bf4:	00004517          	auipc	a0,0x4
   10bf8:	a7750513          	addi	a0,a0,-1417 # 1466b <end_signature+0x60b>
   10bfc:	404020ef          	jal	ra,13000 <FN_WriteStr>
   10c00:	00004517          	auipc	a0,0x4
   10c04:	a6e50513          	addi	a0,a0,-1426 # 1466e <end_signature+0x60e>
   10c08:	3f8020ef          	jal	ra,13000 <FN_WriteStr>
   10c0c:	00004517          	auipc	a0,0x4
   10c10:	a6650513          	addi	a0,a0,-1434 # 14672 <end_signature+0x612>
   10c14:	3ec020ef          	jal	ra,13000 <FN_WriteStr>
   10c18:	000c0513          	mv	a0,s8
   10c1c:	400020ef          	jal	ra,1301c <FN_WriteA0>
   10c20:	00004517          	auipc	a0,0x4
   10c24:	a5450513          	addi	a0,a0,-1452 # 14674 <end_signature+0x614>
   10c28:	3d8020ef          	jal	ra,13000 <FN_WriteStr>
   10c2c:	00004517          	auipc	a0,0x4
   10c30:	a4e50513          	addi	a0,a0,-1458 # 1467a <end_signature+0x61a>
   10c34:	3cc020ef          	jal	ra,13000 <FN_WriteStr>
   10c38:	00004517          	auipc	a0,0x4
   10c3c:	a4d50513          	addi	a0,a0,-1459 # 14685 <end_signature+0x625>
   10c40:	3c0020ef          	jal	ra,13000 <FN_WriteStr>
   10c44:	06400193          	li	gp,100
   10c48:	0000100f          	fence.i
   10c4c:	00018063          	beqz	gp,10c4c <reset_vector+0xc00>
   10c50:	00119193          	slli	gp,gp,0x1
   10c54:	0011e193          	ori	gp,gp,1
   10c58:	00000073          	ecall
   10c5c:	123452b7          	lui	t0,0x12345
   10c60:	67828293          	addi	t0,t0,1656 # 12345678 <_end+0x12330c31>
   10c64:	085c8e63          	beq	s9,t0,10d00 <reset_vector+0xcb4>
   10c68:	00004517          	auipc	a0,0x4
   10c6c:	a1f50513          	addi	a0,a0,-1505 # 14687 <end_signature+0x627>
   10c70:	390020ef          	jal	ra,13000 <FN_WriteStr>
   10c74:	00004517          	auipc	a0,0x4
   10c78:	a2e50513          	addi	a0,a0,-1490 # 146a2 <end_signature+0x642>
   10c7c:	384020ef          	jal	ra,13000 <FN_WriteStr>
   10c80:	00004517          	auipc	a0,0x4
   10c84:	a3350513          	addi	a0,a0,-1485 # 146b3 <end_signature+0x653>
   10c88:	378020ef          	jal	ra,13000 <FN_WriteStr>
   10c8c:	00004517          	auipc	a0,0x4
   10c90:	a2f50513          	addi	a0,a0,-1489 # 146bb <end_signature+0x65b>
   10c94:	36c020ef          	jal	ra,13000 <FN_WriteStr>
   10c98:	00004517          	auipc	a0,0x4
   10c9c:	a2750513          	addi	a0,a0,-1497 # 146bf <end_signature+0x65f>
   10ca0:	360020ef          	jal	ra,13000 <FN_WriteStr>
   10ca4:	00004517          	auipc	a0,0x4
   10ca8:	a1e50513          	addi	a0,a0,-1506 # 146c2 <end_signature+0x662>
   10cac:	354020ef          	jal	ra,13000 <FN_WriteStr>
   10cb0:	00004517          	auipc	a0,0x4
   10cb4:	a1650513          	addi	a0,a0,-1514 # 146c6 <end_signature+0x666>
   10cb8:	348020ef          	jal	ra,13000 <FN_WriteStr>
   10cbc:	000c8513          	mv	a0,s9
   10cc0:	35c020ef          	jal	ra,1301c <FN_WriteA0>
   10cc4:	00004517          	auipc	a0,0x4
   10cc8:	a0450513          	addi	a0,a0,-1532 # 146c8 <end_signature+0x668>
   10ccc:	334020ef          	jal	ra,13000 <FN_WriteStr>
   10cd0:	00004517          	auipc	a0,0x4
   10cd4:	9fe50513          	addi	a0,a0,-1538 # 146ce <end_signature+0x66e>
   10cd8:	328020ef          	jal	ra,13000 <FN_WriteStr>
   10cdc:	00004517          	auipc	a0,0x4
   10ce0:	9fd50513          	addi	a0,a0,-1539 # 146d9 <end_signature+0x679>
   10ce4:	31c020ef          	jal	ra,13000 <FN_WriteStr>
   10ce8:	06400193          	li	gp,100
   10cec:	0000100f          	fence.i
   10cf0:	00018063          	beqz	gp,10cf0 <reset_vector+0xca4>
   10cf4:	00119193          	slli	gp,gp,0x1
   10cf8:	0011e193          	ori	gp,gp,1
   10cfc:	00000073          	ecall
   10d00:	00004517          	auipc	a0,0x4
   10d04:	9db50513          	addi	a0,a0,-1573 # 146db <end_signature+0x67b>
   10d08:	2f8020ef          	jal	ra,13000 <FN_WriteStr>
   10d0c:	00004517          	auipc	a0,0x4
   10d10:	9eb50513          	addi	a0,a0,-1557 # 146f7 <end_signature+0x697>
   10d14:	2ec020ef          	jal	ra,13000 <FN_WriteStr>
   10d18:	00003097          	auipc	ra,0x3
   10d1c:	32c08093          	addi	ra,ra,812 # 14044 <test_C_res>
   10d20:	42727f37          	lui	t5,0x42727
   10d24:	e6ff0f13          	addi	t5,t5,-401 # 42726e6f <_end+0x42712428>
   10d28:	340f1073          	csrw	mscratch,t5
   10d2c:	340f2073          	csrs	mscratch,t5
   10d30:	0000a023          	sw	zero,0(ra)
   10d34:	01e0a223          	sw	t5,4(ra)
   10d38:	00000293          	li	t0,0
   10d3c:	08500e63          	beq	zero,t0,10dd8 <reset_vector+0xd8c>
   10d40:	00004517          	auipc	a0,0x4
   10d44:	9f250513          	addi	a0,a0,-1550 # 14732 <end_signature+0x6d2>
   10d48:	2b8020ef          	jal	ra,13000 <FN_WriteStr>
   10d4c:	00004517          	auipc	a0,0x4
   10d50:	a0150513          	addi	a0,a0,-1535 # 1474d <end_signature+0x6ed>
   10d54:	2ac020ef          	jal	ra,13000 <FN_WriteStr>
   10d58:	00004517          	auipc	a0,0x4
   10d5c:	a0650513          	addi	a0,a0,-1530 # 1475e <end_signature+0x6fe>
   10d60:	2a0020ef          	jal	ra,13000 <FN_WriteStr>
   10d64:	00004517          	auipc	a0,0x4
   10d68:	a0250513          	addi	a0,a0,-1534 # 14766 <end_signature+0x706>
   10d6c:	294020ef          	jal	ra,13000 <FN_WriteStr>
   10d70:	00004517          	auipc	a0,0x4
   10d74:	9fa50513          	addi	a0,a0,-1542 # 1476a <end_signature+0x70a>
   10d78:	288020ef          	jal	ra,13000 <FN_WriteStr>
   10d7c:	00004517          	auipc	a0,0x4
   10d80:	9f150513          	addi	a0,a0,-1551 # 1476d <end_signature+0x70d>
   10d84:	27c020ef          	jal	ra,13000 <FN_WriteStr>
   10d88:	00004517          	auipc	a0,0x4
   10d8c:	9e850513          	addi	a0,a0,-1560 # 14770 <end_signature+0x710>
   10d90:	270020ef          	jal	ra,13000 <FN_WriteStr>
   10d94:	00000513          	li	a0,0
   10d98:	284020ef          	jal	ra,1301c <FN_WriteA0>
   10d9c:	00004517          	auipc	a0,0x4
   10da0:	9d650513          	addi	a0,a0,-1578 # 14772 <end_signature+0x712>
   10da4:	25c020ef          	jal	ra,13000 <FN_WriteStr>
   10da8:	00004517          	auipc	a0,0x4
   10dac:	9d050513          	addi	a0,a0,-1584 # 14778 <end_signature+0x718>
   10db0:	250020ef          	jal	ra,13000 <FN_WriteStr>
   10db4:	00004517          	auipc	a0,0x4
   10db8:	9cf50513          	addi	a0,a0,-1585 # 14783 <end_signature+0x723>
   10dbc:	244020ef          	jal	ra,13000 <FN_WriteStr>
   10dc0:	06400193          	li	gp,100
   10dc4:	0000100f          	fence.i
   10dc8:	00018063          	beqz	gp,10dc8 <reset_vector+0xd7c>
   10dcc:	00119193          	slli	gp,gp,0x1
   10dd0:	0011e193          	ori	gp,gp,1
   10dd4:	00000073          	ecall
   10dd8:	427272b7          	lui	t0,0x42727
   10ddc:	e6f28293          	addi	t0,t0,-401 # 42726e6f <_end+0x42712428>
   10de0:	085f0e63          	beq	t5,t0,10e7c <reset_vector+0xe30>
   10de4:	00004517          	auipc	a0,0x4
   10de8:	9a150513          	addi	a0,a0,-1631 # 14785 <end_signature+0x725>
   10dec:	214020ef          	jal	ra,13000 <FN_WriteStr>
   10df0:	00004517          	auipc	a0,0x4
   10df4:	9b050513          	addi	a0,a0,-1616 # 147a0 <end_signature+0x740>
   10df8:	208020ef          	jal	ra,13000 <FN_WriteStr>
   10dfc:	00004517          	auipc	a0,0x4
   10e00:	9b550513          	addi	a0,a0,-1611 # 147b1 <end_signature+0x751>
   10e04:	1fc020ef          	jal	ra,13000 <FN_WriteStr>
   10e08:	00004517          	auipc	a0,0x4
   10e0c:	9b150513          	addi	a0,a0,-1615 # 147b9 <end_signature+0x759>
   10e10:	1f0020ef          	jal	ra,13000 <FN_WriteStr>
   10e14:	00004517          	auipc	a0,0x4
   10e18:	9a950513          	addi	a0,a0,-1623 # 147bd <end_signature+0x75d>
   10e1c:	1e4020ef          	jal	ra,13000 <FN_WriteStr>
   10e20:	00004517          	auipc	a0,0x4
   10e24:	9a050513          	addi	a0,a0,-1632 # 147c0 <end_signature+0x760>
   10e28:	1d8020ef          	jal	ra,13000 <FN_WriteStr>
   10e2c:	00004517          	auipc	a0,0x4
   10e30:	99850513          	addi	a0,a0,-1640 # 147c4 <end_signature+0x764>
   10e34:	1cc020ef          	jal	ra,13000 <FN_WriteStr>
   10e38:	000f0513          	mv	a0,t5
   10e3c:	1e0020ef          	jal	ra,1301c <FN_WriteA0>
   10e40:	00004517          	auipc	a0,0x4
   10e44:	98650513          	addi	a0,a0,-1658 # 147c6 <end_signature+0x766>
   10e48:	1b8020ef          	jal	ra,13000 <FN_WriteStr>
   10e4c:	00004517          	auipc	a0,0x4
   10e50:	98050513          	addi	a0,a0,-1664 # 147cc <end_signature+0x76c>
   10e54:	1ac020ef          	jal	ra,13000 <FN_WriteStr>
   10e58:	00004517          	auipc	a0,0x4
   10e5c:	97f50513          	addi	a0,a0,-1665 # 147d7 <end_signature+0x777>
   10e60:	1a0020ef          	jal	ra,13000 <FN_WriteStr>
   10e64:	06400193          	li	gp,100
   10e68:	0000100f          	fence.i
   10e6c:	00018063          	beqz	gp,10e6c <reset_vector+0xe20>
   10e70:	00119193          	slli	gp,gp,0x1
   10e74:	0011e193          	ori	gp,gp,1
   10e78:	00000073          	ecall
   10e7c:	00004517          	auipc	a0,0x4
   10e80:	95d50513          	addi	a0,a0,-1699 # 147d9 <end_signature+0x779>
   10e84:	17c020ef          	jal	ra,13000 <FN_WriteStr>
   10e88:	00004517          	auipc	a0,0x4
   10e8c:	96d50513          	addi	a0,a0,-1683 # 147f5 <end_signature+0x795>
   10e90:	170020ef          	jal	ra,13000 <FN_WriteStr>
   10e94:	00003117          	auipc	sp,0x3
   10e98:	1b810113          	addi	sp,sp,440 # 1404c <test_D_res>
   10e9c:	f7ff9fb7          	lui	t6,0xf7ff9
   10ea0:	818f8f93          	addi	t6,t6,-2024 # f7ff8818 <_end+0xf7fe3dd1>
   10ea4:	340f9073          	csrw	mscratch,t6
   10ea8:	34002073          	csrr	zero,mscratch
   10eac:	34002073          	csrr	zero,mscratch
   10eb0:	34002ff3          	csrr	t6,mscratch
   10eb4:	00012023          	sw	zero,0(sp)
   10eb8:	01f12223          	sw	t6,4(sp)
   10ebc:	00000293          	li	t0,0
   10ec0:	08500e63          	beq	zero,t0,10f5c <reset_vector+0xf10>
   10ec4:	00004517          	auipc	a0,0x4
   10ec8:	96150513          	addi	a0,a0,-1695 # 14825 <end_signature+0x7c5>
   10ecc:	134020ef          	jal	ra,13000 <FN_WriteStr>
   10ed0:	00004517          	auipc	a0,0x4
   10ed4:	97050513          	addi	a0,a0,-1680 # 14840 <end_signature+0x7e0>
   10ed8:	128020ef          	jal	ra,13000 <FN_WriteStr>
   10edc:	00004517          	auipc	a0,0x4
   10ee0:	97550513          	addi	a0,a0,-1675 # 14851 <end_signature+0x7f1>
   10ee4:	11c020ef          	jal	ra,13000 <FN_WriteStr>
   10ee8:	00004517          	auipc	a0,0x4
   10eec:	97150513          	addi	a0,a0,-1679 # 14859 <end_signature+0x7f9>
   10ef0:	110020ef          	jal	ra,13000 <FN_WriteStr>
   10ef4:	00004517          	auipc	a0,0x4
   10ef8:	96950513          	addi	a0,a0,-1687 # 1485d <end_signature+0x7fd>
   10efc:	104020ef          	jal	ra,13000 <FN_WriteStr>
   10f00:	00004517          	auipc	a0,0x4
   10f04:	96050513          	addi	a0,a0,-1696 # 14860 <end_signature+0x800>
   10f08:	0f8020ef          	jal	ra,13000 <FN_WriteStr>
   10f0c:	00004517          	auipc	a0,0x4
   10f10:	95750513          	addi	a0,a0,-1705 # 14863 <end_signature+0x803>
   10f14:	0ec020ef          	jal	ra,13000 <FN_WriteStr>
   10f18:	00000513          	li	a0,0
   10f1c:	100020ef          	jal	ra,1301c <FN_WriteA0>
   10f20:	00004517          	auipc	a0,0x4
   10f24:	94550513          	addi	a0,a0,-1723 # 14865 <end_signature+0x805>
   10f28:	0d8020ef          	jal	ra,13000 <FN_WriteStr>
   10f2c:	00004517          	auipc	a0,0x4
   10f30:	93f50513          	addi	a0,a0,-1729 # 1486b <end_signature+0x80b>
   10f34:	0cc020ef          	jal	ra,13000 <FN_WriteStr>
   10f38:	00004517          	auipc	a0,0x4
   10f3c:	93e50513          	addi	a0,a0,-1730 # 14876 <end_signature+0x816>
   10f40:	0c0020ef          	jal	ra,13000 <FN_WriteStr>
   10f44:	06400193          	li	gp,100
   10f48:	0000100f          	fence.i
   10f4c:	00018063          	beqz	gp,10f4c <reset_vector+0xf00>
   10f50:	00119193          	slli	gp,gp,0x1
   10f54:	0011e193          	ori	gp,gp,1
   10f58:	00000073          	ecall
   10f5c:	f7ff92b7          	lui	t0,0xf7ff9
   10f60:	81828293          	addi	t0,t0,-2024 # f7ff8818 <_end+0xf7fe3dd1>
   10f64:	085f8e63          	beq	t6,t0,11000 <reset_vector+0xfb4>
   10f68:	00004517          	auipc	a0,0x4
   10f6c:	91050513          	addi	a0,a0,-1776 # 14878 <end_signature+0x818>
   10f70:	090020ef          	jal	ra,13000 <FN_WriteStr>
   10f74:	00004517          	auipc	a0,0x4
   10f78:	91f50513          	addi	a0,a0,-1761 # 14893 <end_signature+0x833>
   10f7c:	084020ef          	jal	ra,13000 <FN_WriteStr>
   10f80:	00004517          	auipc	a0,0x4
   10f84:	92450513          	addi	a0,a0,-1756 # 148a4 <end_signature+0x844>
   10f88:	078020ef          	jal	ra,13000 <FN_WriteStr>
   10f8c:	00004517          	auipc	a0,0x4
   10f90:	92050513          	addi	a0,a0,-1760 # 148ac <end_signature+0x84c>
   10f94:	06c020ef          	jal	ra,13000 <FN_WriteStr>
   10f98:	00004517          	auipc	a0,0x4
   10f9c:	91850513          	addi	a0,a0,-1768 # 148b0 <end_signature+0x850>
   10fa0:	060020ef          	jal	ra,13000 <FN_WriteStr>
   10fa4:	00004517          	auipc	a0,0x4
   10fa8:	90f50513          	addi	a0,a0,-1777 # 148b3 <end_signature+0x853>
   10fac:	054020ef          	jal	ra,13000 <FN_WriteStr>
   10fb0:	00004517          	auipc	a0,0x4
   10fb4:	90750513          	addi	a0,a0,-1785 # 148b7 <end_signature+0x857>
   10fb8:	048020ef          	jal	ra,13000 <FN_WriteStr>
   10fbc:	000f8513          	mv	a0,t6
   10fc0:	05c020ef          	jal	ra,1301c <FN_WriteA0>
   10fc4:	00004517          	auipc	a0,0x4
   10fc8:	8f550513          	addi	a0,a0,-1803 # 148b9 <end_signature+0x859>
   10fcc:	034020ef          	jal	ra,13000 <FN_WriteStr>
   10fd0:	00004517          	auipc	a0,0x4
   10fd4:	8ef50513          	addi	a0,a0,-1809 # 148bf <end_signature+0x85f>
   10fd8:	028020ef          	jal	ra,13000 <FN_WriteStr>
   10fdc:	00004517          	auipc	a0,0x4
   10fe0:	8ee50513          	addi	a0,a0,-1810 # 148ca <end_signature+0x86a>
   10fe4:	01c020ef          	jal	ra,13000 <FN_WriteStr>
   10fe8:	06400193          	li	gp,100
   10fec:	0000100f          	fence.i
   10ff0:	00018063          	beqz	gp,10ff0 <reset_vector+0xfa4>
   10ff4:	00119193          	slli	gp,gp,0x1
   10ff8:	0011e193          	ori	gp,gp,1
   10ffc:	00000073          	ecall
   11000:	00004517          	auipc	a0,0x4
   11004:	8cc50513          	addi	a0,a0,-1844 # 148cc <end_signature+0x86c>
   11008:	7f9010ef          	jal	ra,13000 <FN_WriteStr>
   1100c:	00004517          	auipc	a0,0x4
   11010:	8dc50513          	addi	a0,a0,-1828 # 148e8 <end_signature+0x888>
   11014:	7ed010ef          	jal	ra,13000 <FN_WriteStr>
   11018:	00003117          	auipc	sp,0x3
   1101c:	03c10113          	addi	sp,sp,60 # 14054 <test_E_res>
   11020:	321653b7          	lui	t2,0x32165
   11024:	49838393          	addi	t2,t2,1176 # 32165498 <_end+0x32150a51>
   11028:	963852b7          	lui	t0,0x96385
   1102c:	27428293          	addi	t0,t0,628 # 96385274 <_end+0x9637082d>
   11030:	34001073          	csrw	mscratch,zero
   11034:	3402a2f3          	csrrs	t0,mscratch,t0
   11038:	3403a3f3          	csrrs	t2,mscratch,t2
   1103c:	34042473          	csrrs	s0,mscratch,s0
   11040:	00512023          	sw	t0,0(sp)
   11044:	00712223          	sw	t2,4(sp)
   11048:	00812423          	sw	s0,8(sp)
   1104c:	00000293          	li	t0,0
   11050:	08528e63          	beq	t0,t0,110ec <reset_vector+0x10a0>
   11054:	00004517          	auipc	a0,0x4
   11058:	8d350513          	addi	a0,a0,-1837 # 14927 <end_signature+0x8c7>
   1105c:	7a5010ef          	jal	ra,13000 <FN_WriteStr>
   11060:	00004517          	auipc	a0,0x4
   11064:	8e250513          	addi	a0,a0,-1822 # 14942 <end_signature+0x8e2>
   11068:	799010ef          	jal	ra,13000 <FN_WriteStr>
   1106c:	00004517          	auipc	a0,0x4
   11070:	8e750513          	addi	a0,a0,-1817 # 14953 <end_signature+0x8f3>
   11074:	78d010ef          	jal	ra,13000 <FN_WriteStr>
   11078:	00004517          	auipc	a0,0x4
   1107c:	8e350513          	addi	a0,a0,-1821 # 1495b <end_signature+0x8fb>
   11080:	781010ef          	jal	ra,13000 <FN_WriteStr>
   11084:	00004517          	auipc	a0,0x4
   11088:	8db50513          	addi	a0,a0,-1829 # 1495f <end_signature+0x8ff>
   1108c:	775010ef          	jal	ra,13000 <FN_WriteStr>
   11090:	00004517          	auipc	a0,0x4
   11094:	8d250513          	addi	a0,a0,-1838 # 14962 <end_signature+0x902>
   11098:	769010ef          	jal	ra,13000 <FN_WriteStr>
   1109c:	00004517          	auipc	a0,0x4
   110a0:	8c950513          	addi	a0,a0,-1847 # 14965 <end_signature+0x905>
   110a4:	75d010ef          	jal	ra,13000 <FN_WriteStr>
   110a8:	00028513          	mv	a0,t0
   110ac:	771010ef          	jal	ra,1301c <FN_WriteA0>
   110b0:	00004517          	auipc	a0,0x4
   110b4:	8b750513          	addi	a0,a0,-1865 # 14967 <end_signature+0x907>
   110b8:	749010ef          	jal	ra,13000 <FN_WriteStr>
   110bc:	00004517          	auipc	a0,0x4
   110c0:	8b150513          	addi	a0,a0,-1871 # 1496d <end_signature+0x90d>
   110c4:	73d010ef          	jal	ra,13000 <FN_WriteStr>
   110c8:	00004517          	auipc	a0,0x4
   110cc:	8b050513          	addi	a0,a0,-1872 # 14978 <end_signature+0x918>
   110d0:	731010ef          	jal	ra,13000 <FN_WriteStr>
   110d4:	06400193          	li	gp,100
   110d8:	0000100f          	fence.i
   110dc:	00018063          	beqz	gp,110dc <reset_vector+0x1090>
   110e0:	00119193          	slli	gp,gp,0x1
   110e4:	0011e193          	ori	gp,gp,1
   110e8:	00000073          	ecall
   110ec:	963852b7          	lui	t0,0x96385
   110f0:	27428293          	addi	t0,t0,628 # 96385274 <_end+0x9637082d>
   110f4:	08538e63          	beq	t2,t0,11190 <reset_vector+0x1144>
   110f8:	00004517          	auipc	a0,0x4
   110fc:	88250513          	addi	a0,a0,-1918 # 1497a <end_signature+0x91a>
   11100:	701010ef          	jal	ra,13000 <FN_WriteStr>
   11104:	00004517          	auipc	a0,0x4
   11108:	89150513          	addi	a0,a0,-1903 # 14995 <end_signature+0x935>
   1110c:	6f5010ef          	jal	ra,13000 <FN_WriteStr>
   11110:	00004517          	auipc	a0,0x4
   11114:	89650513          	addi	a0,a0,-1898 # 149a6 <end_signature+0x946>
   11118:	6e9010ef          	jal	ra,13000 <FN_WriteStr>
   1111c:	00004517          	auipc	a0,0x4
   11120:	89250513          	addi	a0,a0,-1902 # 149ae <end_signature+0x94e>
   11124:	6dd010ef          	jal	ra,13000 <FN_WriteStr>
   11128:	00004517          	auipc	a0,0x4
   1112c:	88a50513          	addi	a0,a0,-1910 # 149b2 <end_signature+0x952>
   11130:	6d1010ef          	jal	ra,13000 <FN_WriteStr>
   11134:	00004517          	auipc	a0,0x4
   11138:	88150513          	addi	a0,a0,-1919 # 149b5 <end_signature+0x955>
   1113c:	6c5010ef          	jal	ra,13000 <FN_WriteStr>
   11140:	00004517          	auipc	a0,0x4
   11144:	87850513          	addi	a0,a0,-1928 # 149b8 <end_signature+0x958>
   11148:	6b9010ef          	jal	ra,13000 <FN_WriteStr>
   1114c:	00038513          	mv	a0,t2
   11150:	6cd010ef          	jal	ra,1301c <FN_WriteA0>
   11154:	00004517          	auipc	a0,0x4
   11158:	86650513          	addi	a0,a0,-1946 # 149ba <end_signature+0x95a>
   1115c:	6a5010ef          	jal	ra,13000 <FN_WriteStr>
   11160:	00004517          	auipc	a0,0x4
   11164:	86050513          	addi	a0,a0,-1952 # 149c0 <end_signature+0x960>
   11168:	699010ef          	jal	ra,13000 <FN_WriteStr>
   1116c:	00004517          	auipc	a0,0x4
   11170:	85f50513          	addi	a0,a0,-1953 # 149cb <end_signature+0x96b>
   11174:	68d010ef          	jal	ra,13000 <FN_WriteStr>
   11178:	06400193          	li	gp,100
   1117c:	0000100f          	fence.i
   11180:	00018063          	beqz	gp,11180 <reset_vector+0x1134>
   11184:	00119193          	slli	gp,gp,0x1
   11188:	0011e193          	ori	gp,gp,1
   1118c:	00000073          	ecall
   11190:	b63e52b7          	lui	t0,0xb63e5
   11194:	6fc28293          	addi	t0,t0,1788 # b63e56fc <_end+0xb63d0cb5>
   11198:	08540e63          	beq	s0,t0,11234 <reset_vector+0x11e8>
   1119c:	00004517          	auipc	a0,0x4
   111a0:	83150513          	addi	a0,a0,-1999 # 149cd <end_signature+0x96d>
   111a4:	65d010ef          	jal	ra,13000 <FN_WriteStr>
   111a8:	00004517          	auipc	a0,0x4
   111ac:	84050513          	addi	a0,a0,-1984 # 149e8 <end_signature+0x988>
   111b0:	651010ef          	jal	ra,13000 <FN_WriteStr>
   111b4:	00004517          	auipc	a0,0x4
   111b8:	84550513          	addi	a0,a0,-1979 # 149f9 <end_signature+0x999>
   111bc:	645010ef          	jal	ra,13000 <FN_WriteStr>
   111c0:	00004517          	auipc	a0,0x4
   111c4:	84150513          	addi	a0,a0,-1983 # 14a01 <end_signature+0x9a1>
   111c8:	639010ef          	jal	ra,13000 <FN_WriteStr>
   111cc:	00004517          	auipc	a0,0x4
   111d0:	83950513          	addi	a0,a0,-1991 # 14a05 <end_signature+0x9a5>
   111d4:	62d010ef          	jal	ra,13000 <FN_WriteStr>
   111d8:	00004517          	auipc	a0,0x4
   111dc:	83050513          	addi	a0,a0,-2000 # 14a08 <end_signature+0x9a8>
   111e0:	621010ef          	jal	ra,13000 <FN_WriteStr>
   111e4:	00004517          	auipc	a0,0x4
   111e8:	82750513          	addi	a0,a0,-2009 # 14a0b <end_signature+0x9ab>
   111ec:	615010ef          	jal	ra,13000 <FN_WriteStr>
   111f0:	00040513          	mv	a0,s0
   111f4:	629010ef          	jal	ra,1301c <FN_WriteA0>
   111f8:	00004517          	auipc	a0,0x4
   111fc:	81550513          	addi	a0,a0,-2027 # 14a0d <end_signature+0x9ad>
   11200:	601010ef          	jal	ra,13000 <FN_WriteStr>
   11204:	00004517          	auipc	a0,0x4
   11208:	80f50513          	addi	a0,a0,-2033 # 14a13 <end_signature+0x9b3>
   1120c:	5f5010ef          	jal	ra,13000 <FN_WriteStr>
   11210:	00004517          	auipc	a0,0x4
   11214:	80e50513          	addi	a0,a0,-2034 # 14a1e <end_signature+0x9be>
   11218:	5e9010ef          	jal	ra,13000 <FN_WriteStr>
   1121c:	06400193          	li	gp,100
   11220:	0000100f          	fence.i
   11224:	00018063          	beqz	gp,11224 <reset_vector+0x11d8>
   11228:	00119193          	slli	gp,gp,0x1
   1122c:	0011e193          	ori	gp,gp,1
   11230:	00000073          	ecall
   11234:	00003517          	auipc	a0,0x3
   11238:	7ec50513          	addi	a0,a0,2028 # 14a20 <end_signature+0x9c0>
   1123c:	5c5010ef          	jal	ra,13000 <FN_WriteStr>
   11240:	00003517          	auipc	a0,0x3
   11244:	7fb50513          	addi	a0,a0,2043 # 14a3b <end_signature+0x9db>
   11248:	5b9010ef          	jal	ra,13000 <FN_WriteStr>
   1124c:	0000100f          	fence.i
   11250:	00100193          	li	gp,1
   11254:	00000073          	ecall
   11258:	c0001073          	unimp
	...

Disassembly of section .tohost:

00012000 <tohost>:
	...

00012100 <fromhost>:
	...

Disassembly of section .text:

00013000 <FN_WriteStr>:
   13000:	00050293          	mv	t0,a0
   13004:	0002c503          	lbu	a0,0(t0)
   13008:	00128293          	addi	t0,t0,1
   1300c:	00050663          	beqz	a0,13018 <FN_WriteStr+0x18>
   13010:	0005200b          	0x5200b
   13014:	ff1ff06f          	j	13004 <FN_WriteStr+0x4>
   13018:	00008067          	ret

0001301c <FN_WriteA0>:
   1301c:	00050293          	mv	t0,a0
   13020:	fff00513          	li	a0,-1
   13024:	01f55513          	srli	a0,a0,0x1f
   13028:	00155513          	srli	a0,a0,0x1
   1302c:	02051463          	bnez	a0,13054 <FN_WriteA0_64>

00013030 <FN_WriteA0_32>:
   13030:	00800313          	li	t1,8
   13034:	00439393          	slli	t2,t2,0x4
   13038:	00f2f513          	andi	a0,t0,15
   1303c:	0042d293          	srli	t0,t0,0x4
   13040:	00a3e3b3          	or	t2,t2,a0
   13044:	fff30313          	addi	t1,t1,-1
   13048:	fe0316e3          	bnez	t1,13034 <FN_WriteA0_32+0x4>
   1304c:	00800313          	li	t1,8
   13050:	0240006f          	j	13074 <FN_WriteA0_common>

00013054 <FN_WriteA0_64>:
   13054:	01000313          	li	t1,16
   13058:	00439393          	slli	t2,t2,0x4
   1305c:	00f2f513          	andi	a0,t0,15
   13060:	0042d293          	srli	t0,t0,0x4
   13064:	00a3e3b3          	or	t2,t2,a0
   13068:	fff30313          	addi	t1,t1,-1
   1306c:	fe0316e3          	bnez	t1,13058 <FN_WriteA0_64+0x4>
   13070:	01000313          	li	t1,16

00013074 <FN_WriteA0_common>:
   13074:	00a00293          	li	t0,10
   13078:	00f3f513          	andi	a0,t2,15
   1307c:	00554663          	blt	a0,t0,13088 <FN_WriteA0_common+0x14>
   13080:	05750513          	addi	a0,a0,87
   13084:	0080006f          	j	1308c <FN_WriteA0_common+0x18>
   13088:	03050513          	addi	a0,a0,48
   1308c:	0005200b          	0x5200b
   13090:	0043d393          	srli	t2,t2,0x4
   13094:	fff30313          	addi	t1,t1,-1
   13098:	fe0310e3          	bnez	t1,13078 <FN_WriteA0_common+0x4>
   1309c:	00008067          	ret
