
/home/benselfridge/riscv-compliance/work//I-CSRRWI-01.elf:     file format elf32-littleriscv


Disassembly of section .text.init:

00010000 <_start>:
   10000:	04c0006f          	j	1004c <reset_vector>

00010004 <trap_vector>:
   10004:	34202f73          	csrr	t5,mcause
   10008:	00800f93          	li	t6,8
   1000c:	03ff0a63          	beq	t5,t6,10040 <write_tohost>
   10010:	00900f93          	li	t6,9
   10014:	03ff0663          	beq	t5,t6,10040 <write_tohost>
   10018:	00b00f93          	li	t6,11
   1001c:	03ff0263          	beq	t5,t6,10040 <write_tohost>
   10020:	ffff0f17          	auipc	t5,0xffff0
   10024:	fe0f0f13          	addi	t5,t5,-32 # 0 <_start-0x10000>
   10028:	000f0463          	beqz	t5,10030 <trap_vector+0x2c>
   1002c:	000f0067          	jr	t5
   10030:	34202f73          	csrr	t5,mcause
   10034:	000f5463          	bgez	t5,1003c <handle_exception>
   10038:	0040006f          	j	1003c <handle_exception>

0001003c <handle_exception>:
   1003c:	5391e193          	ori	gp,gp,1337

00010040 <write_tohost>:
   10040:	00001f17          	auipc	t5,0x1
   10044:	fc3f2023          	sw	gp,-64(t5) # 11000 <tohost>
   10048:	ff9ff06f          	j	10040 <write_tohost>

0001004c <reset_vector>:
   1004c:	f1402573          	csrr	a0,mhartid
   10050:	00051063          	bnez	a0,10050 <reset_vector+0x4>
   10054:	00000297          	auipc	t0,0x0
   10058:	01028293          	addi	t0,t0,16 # 10064 <reset_vector+0x18>
   1005c:	30529073          	csrw	mtvec,t0
   10060:	18005073          	csrwi	satp,0
   10064:	00000297          	auipc	t0,0x0
   10068:	01c28293          	addi	t0,t0,28 # 10080 <reset_vector+0x34>
   1006c:	30529073          	csrw	mtvec,t0
   10070:	fff00293          	li	t0,-1
   10074:	3b029073          	csrw	pmpaddr0,t0
   10078:	01f00293          	li	t0,31
   1007c:	3a029073          	csrw	pmpcfg0,t0
   10080:	00000297          	auipc	t0,0x0
   10084:	01828293          	addi	t0,t0,24 # 10098 <reset_vector+0x4c>
   10088:	30529073          	csrw	mtvec,t0
   1008c:	30205073          	csrwi	medeleg,0
   10090:	30305073          	csrwi	mideleg,0
   10094:	30405073          	csrwi	mie,0
   10098:	00000193          	li	gp,0
   1009c:	00000297          	auipc	t0,0x0
   100a0:	f6828293          	addi	t0,t0,-152 # 10004 <trap_vector>
   100a4:	30529073          	csrw	mtvec,t0
   100a8:	00100513          	li	a0,1
   100ac:	01f51513          	slli	a0,a0,0x1f
   100b0:	00054863          	bltz	a0,100c0 <reset_vector+0x74>
   100b4:	0000100f          	fence.i
   100b8:	00100193          	li	gp,1
   100bc:	00000073          	ecall
   100c0:	ffff0297          	auipc	t0,0xffff0
   100c4:	f4028293          	addi	t0,t0,-192 # 0 <_start-0x10000>
   100c8:	00028e63          	beqz	t0,100e4 <reset_vector+0x98>
   100cc:	10529073          	csrw	stvec,t0
   100d0:	0000b2b7          	lui	t0,0xb
   100d4:	10928293          	addi	t0,t0,265 # b109 <_start-0x4ef7>
   100d8:	30229073          	csrw	medeleg,t0
   100dc:	30202373          	csrr	t1,medeleg
   100e0:	f4629ee3          	bne	t0,t1,1003c <handle_exception>
   100e4:	30005073          	csrwi	mstatus,0
   100e8:	00002537          	lui	a0,0x2
   100ec:	80050513          	addi	a0,a0,-2048 # 1800 <_start-0xe800>
   100f0:	30052073          	csrs	mstatus,a0
   100f4:	00000297          	auipc	t0,0x0
   100f8:	01428293          	addi	t0,t0,20 # 10108 <reset_vector+0xbc>
   100fc:	34129073          	csrw	mepc,t0
   10100:	f1402573          	csrr	a0,mhartid
   10104:	30200073          	mret
   10108:	00000293          	li	t0,0
   1010c:	08500e63          	beq	zero,t0,101a8 <reset_vector+0x15c>
   10110:	00003517          	auipc	a0,0x3
   10114:	f1050513          	addi	a0,a0,-240 # 13020 <end_signature>
   10118:	6e9010ef          	jal	ra,12000 <FN_WriteStr>
   1011c:	00003517          	auipc	a0,0x3
   10120:	f1f50513          	addi	a0,a0,-225 # 1303b <end_signature+0x1b>
   10124:	6dd010ef          	jal	ra,12000 <FN_WriteStr>
   10128:	00003517          	auipc	a0,0x3
   1012c:	f2550513          	addi	a0,a0,-219 # 1304d <end_signature+0x2d>
   10130:	6d1010ef          	jal	ra,12000 <FN_WriteStr>
   10134:	00003517          	auipc	a0,0x3
   10138:	f2150513          	addi	a0,a0,-223 # 13055 <end_signature+0x35>
   1013c:	6c5010ef          	jal	ra,12000 <FN_WriteStr>
   10140:	00003517          	auipc	a0,0x3
   10144:	f1850513          	addi	a0,a0,-232 # 13058 <end_signature+0x38>
   10148:	6b9010ef          	jal	ra,12000 <FN_WriteStr>
   1014c:	00003517          	auipc	a0,0x3
   10150:	f0f50513          	addi	a0,a0,-241 # 1305b <end_signature+0x3b>
   10154:	6ad010ef          	jal	ra,12000 <FN_WriteStr>
   10158:	00003517          	auipc	a0,0x3
   1015c:	f0650513          	addi	a0,a0,-250 # 1305e <end_signature+0x3e>
   10160:	6a1010ef          	jal	ra,12000 <FN_WriteStr>
   10164:	00000513          	li	a0,0
   10168:	6b5010ef          	jal	ra,1201c <FN_WriteA0>
   1016c:	00003517          	auipc	a0,0x3
   10170:	ef450513          	addi	a0,a0,-268 # 13060 <end_signature+0x40>
   10174:	68d010ef          	jal	ra,12000 <FN_WriteStr>
   10178:	00003517          	auipc	a0,0x3
   1017c:	eee50513          	addi	a0,a0,-274 # 13066 <end_signature+0x46>
   10180:	681010ef          	jal	ra,12000 <FN_WriteStr>
   10184:	00003517          	auipc	a0,0x3
   10188:	eed50513          	addi	a0,a0,-275 # 13071 <end_signature+0x51>
   1018c:	675010ef          	jal	ra,12000 <FN_WriteStr>
   10190:	06400193          	li	gp,100
   10194:	0000100f          	fence.i
   10198:	00018063          	beqz	gp,10198 <reset_vector+0x14c>
   1019c:	00119193          	slli	gp,gp,0x1
   101a0:	0011e193          	ori	gp,gp,1
   101a4:	00000073          	ecall
   101a8:	00003517          	auipc	a0,0x3
   101ac:	ecb50513          	addi	a0,a0,-309 # 13073 <end_signature+0x53>
   101b0:	651010ef          	jal	ra,12000 <FN_WriteStr>
   101b4:	00003517          	auipc	a0,0x3
   101b8:	ef150513          	addi	a0,a0,-271 # 130a5 <end_signature+0x85>
   101bc:	645010ef          	jal	ra,12000 <FN_WriteStr>
   101c0:	00003797          	auipc	a5,0x3
   101c4:	e4078793          	addi	a5,a5,-448 # 13000 <begin_signature>
   101c8:	34001073          	csrw	mscratch,zero
   101cc:	3400d173          	csrrwi	sp,mscratch,1
   101d0:	34005273          	csrrwi	tp,mscratch,0
   101d4:	340fd373          	csrrwi	t1,mscratch,31
   101d8:	3407de73          	csrrwi	t3,mscratch,15
   101dc:	34085f73          	csrrwi	t5,mscratch,16
   101e0:	34005ff3          	csrrwi	t6,mscratch,0
   101e4:	0007a023          	sw	zero,0(a5)
   101e8:	0027a223          	sw	sp,4(a5)
   101ec:	0047a423          	sw	tp,8(a5)
   101f0:	0067a623          	sw	t1,12(a5)
   101f4:	01c7a823          	sw	t3,16(a5)
   101f8:	01e7aa23          	sw	t5,20(a5)
   101fc:	01f7ac23          	sw	t6,24(a5)
   10200:	fff00013          	li	zero,-1
   10204:	00000293          	li	t0,0
   10208:	08500e63          	beq	zero,t0,102a4 <reset_vector+0x258>
   1020c:	00003517          	auipc	a0,0x3
   10210:	ec150513          	addi	a0,a0,-319 # 130cd <end_signature+0xad>
   10214:	5ed010ef          	jal	ra,12000 <FN_WriteStr>
   10218:	00003517          	auipc	a0,0x3
   1021c:	ed050513          	addi	a0,a0,-304 # 130e8 <end_signature+0xc8>
   10220:	5e1010ef          	jal	ra,12000 <FN_WriteStr>
   10224:	00003517          	auipc	a0,0x3
   10228:	ed650513          	addi	a0,a0,-298 # 130fa <end_signature+0xda>
   1022c:	5d5010ef          	jal	ra,12000 <FN_WriteStr>
   10230:	00003517          	auipc	a0,0x3
   10234:	ed250513          	addi	a0,a0,-302 # 13102 <end_signature+0xe2>
   10238:	5c9010ef          	jal	ra,12000 <FN_WriteStr>
   1023c:	00003517          	auipc	a0,0x3
   10240:	ec950513          	addi	a0,a0,-311 # 13105 <end_signature+0xe5>
   10244:	5bd010ef          	jal	ra,12000 <FN_WriteStr>
   10248:	00003517          	auipc	a0,0x3
   1024c:	ec050513          	addi	a0,a0,-320 # 13108 <end_signature+0xe8>
   10250:	5b1010ef          	jal	ra,12000 <FN_WriteStr>
   10254:	00003517          	auipc	a0,0x3
   10258:	eb750513          	addi	a0,a0,-329 # 1310b <end_signature+0xeb>
   1025c:	5a5010ef          	jal	ra,12000 <FN_WriteStr>
   10260:	00000513          	li	a0,0
   10264:	5b9010ef          	jal	ra,1201c <FN_WriteA0>
   10268:	00003517          	auipc	a0,0x3
   1026c:	ea550513          	addi	a0,a0,-347 # 1310d <end_signature+0xed>
   10270:	591010ef          	jal	ra,12000 <FN_WriteStr>
   10274:	00003517          	auipc	a0,0x3
   10278:	e9f50513          	addi	a0,a0,-353 # 13113 <end_signature+0xf3>
   1027c:	585010ef          	jal	ra,12000 <FN_WriteStr>
   10280:	00003517          	auipc	a0,0x3
   10284:	e9e50513          	addi	a0,a0,-354 # 1311e <end_signature+0xfe>
   10288:	579010ef          	jal	ra,12000 <FN_WriteStr>
   1028c:	06400193          	li	gp,100
   10290:	0000100f          	fence.i
   10294:	00018063          	beqz	gp,10294 <reset_vector+0x248>
   10298:	00119193          	slli	gp,gp,0x1
   1029c:	0011e193          	ori	gp,gp,1
   102a0:	00000073          	ecall
   102a4:	00000293          	li	t0,0
   102a8:	08510e63          	beq	sp,t0,10344 <reset_vector+0x2f8>
   102ac:	00003517          	auipc	a0,0x3
   102b0:	e7450513          	addi	a0,a0,-396 # 13120 <end_signature+0x100>
   102b4:	54d010ef          	jal	ra,12000 <FN_WriteStr>
   102b8:	00003517          	auipc	a0,0x3
   102bc:	e8350513          	addi	a0,a0,-381 # 1313b <end_signature+0x11b>
   102c0:	541010ef          	jal	ra,12000 <FN_WriteStr>
   102c4:	00003517          	auipc	a0,0x3
   102c8:	e8950513          	addi	a0,a0,-375 # 1314d <end_signature+0x12d>
   102cc:	535010ef          	jal	ra,12000 <FN_WriteStr>
   102d0:	00003517          	auipc	a0,0x3
   102d4:	e8550513          	addi	a0,a0,-379 # 13155 <end_signature+0x135>
   102d8:	529010ef          	jal	ra,12000 <FN_WriteStr>
   102dc:	00003517          	auipc	a0,0x3
   102e0:	e7c50513          	addi	a0,a0,-388 # 13158 <end_signature+0x138>
   102e4:	51d010ef          	jal	ra,12000 <FN_WriteStr>
   102e8:	00003517          	auipc	a0,0x3
   102ec:	e7350513          	addi	a0,a0,-397 # 1315b <end_signature+0x13b>
   102f0:	511010ef          	jal	ra,12000 <FN_WriteStr>
   102f4:	00003517          	auipc	a0,0x3
   102f8:	e6a50513          	addi	a0,a0,-406 # 1315e <end_signature+0x13e>
   102fc:	505010ef          	jal	ra,12000 <FN_WriteStr>
   10300:	00010513          	mv	a0,sp
   10304:	519010ef          	jal	ra,1201c <FN_WriteA0>
   10308:	00003517          	auipc	a0,0x3
   1030c:	e5850513          	addi	a0,a0,-424 # 13160 <end_signature+0x140>
   10310:	4f1010ef          	jal	ra,12000 <FN_WriteStr>
   10314:	00003517          	auipc	a0,0x3
   10318:	e5250513          	addi	a0,a0,-430 # 13166 <end_signature+0x146>
   1031c:	4e5010ef          	jal	ra,12000 <FN_WriteStr>
   10320:	00003517          	auipc	a0,0x3
   10324:	e5150513          	addi	a0,a0,-431 # 13171 <end_signature+0x151>
   10328:	4d9010ef          	jal	ra,12000 <FN_WriteStr>
   1032c:	06400193          	li	gp,100
   10330:	0000100f          	fence.i
   10334:	00018063          	beqz	gp,10334 <reset_vector+0x2e8>
   10338:	00119193          	slli	gp,gp,0x1
   1033c:	0011e193          	ori	gp,gp,1
   10340:	00000073          	ecall
   10344:	00100293          	li	t0,1
   10348:	08520e63          	beq	tp,t0,103e4 <reset_vector+0x398>
   1034c:	00003517          	auipc	a0,0x3
   10350:	e2750513          	addi	a0,a0,-473 # 13173 <end_signature+0x153>
   10354:	4ad010ef          	jal	ra,12000 <FN_WriteStr>
   10358:	00003517          	auipc	a0,0x3
   1035c:	e3650513          	addi	a0,a0,-458 # 1318e <end_signature+0x16e>
   10360:	4a1010ef          	jal	ra,12000 <FN_WriteStr>
   10364:	00003517          	auipc	a0,0x3
   10368:	e3c50513          	addi	a0,a0,-452 # 131a0 <end_signature+0x180>
   1036c:	495010ef          	jal	ra,12000 <FN_WriteStr>
   10370:	00003517          	auipc	a0,0x3
   10374:	e3850513          	addi	a0,a0,-456 # 131a8 <end_signature+0x188>
   10378:	489010ef          	jal	ra,12000 <FN_WriteStr>
   1037c:	00003517          	auipc	a0,0x3
   10380:	e2f50513          	addi	a0,a0,-465 # 131ab <end_signature+0x18b>
   10384:	47d010ef          	jal	ra,12000 <FN_WriteStr>
   10388:	00003517          	auipc	a0,0x3
   1038c:	e2650513          	addi	a0,a0,-474 # 131ae <end_signature+0x18e>
   10390:	471010ef          	jal	ra,12000 <FN_WriteStr>
   10394:	00003517          	auipc	a0,0x3
   10398:	e1d50513          	addi	a0,a0,-483 # 131b1 <end_signature+0x191>
   1039c:	465010ef          	jal	ra,12000 <FN_WriteStr>
   103a0:	00020513          	mv	a0,tp
   103a4:	479010ef          	jal	ra,1201c <FN_WriteA0>
   103a8:	00003517          	auipc	a0,0x3
   103ac:	e0b50513          	addi	a0,a0,-501 # 131b3 <end_signature+0x193>
   103b0:	451010ef          	jal	ra,12000 <FN_WriteStr>
   103b4:	00003517          	auipc	a0,0x3
   103b8:	e0550513          	addi	a0,a0,-507 # 131b9 <end_signature+0x199>
   103bc:	445010ef          	jal	ra,12000 <FN_WriteStr>
   103c0:	00003517          	auipc	a0,0x3
   103c4:	e0450513          	addi	a0,a0,-508 # 131c4 <end_signature+0x1a4>
   103c8:	439010ef          	jal	ra,12000 <FN_WriteStr>
   103cc:	06400193          	li	gp,100
   103d0:	0000100f          	fence.i
   103d4:	00018063          	beqz	gp,103d4 <reset_vector+0x388>
   103d8:	00119193          	slli	gp,gp,0x1
   103dc:	0011e193          	ori	gp,gp,1
   103e0:	00000073          	ecall
   103e4:	00000293          	li	t0,0
   103e8:	08530e63          	beq	t1,t0,10484 <reset_vector+0x438>
   103ec:	00003517          	auipc	a0,0x3
   103f0:	dda50513          	addi	a0,a0,-550 # 131c6 <end_signature+0x1a6>
   103f4:	40d010ef          	jal	ra,12000 <FN_WriteStr>
   103f8:	00003517          	auipc	a0,0x3
   103fc:	de950513          	addi	a0,a0,-535 # 131e1 <end_signature+0x1c1>
   10400:	401010ef          	jal	ra,12000 <FN_WriteStr>
   10404:	00003517          	auipc	a0,0x3
   10408:	def50513          	addi	a0,a0,-529 # 131f3 <end_signature+0x1d3>
   1040c:	3f5010ef          	jal	ra,12000 <FN_WriteStr>
   10410:	00003517          	auipc	a0,0x3
   10414:	deb50513          	addi	a0,a0,-533 # 131fb <end_signature+0x1db>
   10418:	3e9010ef          	jal	ra,12000 <FN_WriteStr>
   1041c:	00003517          	auipc	a0,0x3
   10420:	de250513          	addi	a0,a0,-542 # 131fe <end_signature+0x1de>
   10424:	3dd010ef          	jal	ra,12000 <FN_WriteStr>
   10428:	00003517          	auipc	a0,0x3
   1042c:	dd950513          	addi	a0,a0,-551 # 13201 <end_signature+0x1e1>
   10430:	3d1010ef          	jal	ra,12000 <FN_WriteStr>
   10434:	00003517          	auipc	a0,0x3
   10438:	dd050513          	addi	a0,a0,-560 # 13204 <end_signature+0x1e4>
   1043c:	3c5010ef          	jal	ra,12000 <FN_WriteStr>
   10440:	00030513          	mv	a0,t1
   10444:	3d9010ef          	jal	ra,1201c <FN_WriteA0>
   10448:	00003517          	auipc	a0,0x3
   1044c:	dbe50513          	addi	a0,a0,-578 # 13206 <end_signature+0x1e6>
   10450:	3b1010ef          	jal	ra,12000 <FN_WriteStr>
   10454:	00003517          	auipc	a0,0x3
   10458:	db850513          	addi	a0,a0,-584 # 1320c <end_signature+0x1ec>
   1045c:	3a5010ef          	jal	ra,12000 <FN_WriteStr>
   10460:	00003517          	auipc	a0,0x3
   10464:	db750513          	addi	a0,a0,-585 # 13217 <end_signature+0x1f7>
   10468:	399010ef          	jal	ra,12000 <FN_WriteStr>
   1046c:	06400193          	li	gp,100
   10470:	0000100f          	fence.i
   10474:	00018063          	beqz	gp,10474 <reset_vector+0x428>
   10478:	00119193          	slli	gp,gp,0x1
   1047c:	0011e193          	ori	gp,gp,1
   10480:	00000073          	ecall
   10484:	01f00293          	li	t0,31
   10488:	085e0e63          	beq	t3,t0,10524 <reset_vector+0x4d8>
   1048c:	00003517          	auipc	a0,0x3
   10490:	d8d50513          	addi	a0,a0,-627 # 13219 <end_signature+0x1f9>
   10494:	36d010ef          	jal	ra,12000 <FN_WriteStr>
   10498:	00003517          	auipc	a0,0x3
   1049c:	d9c50513          	addi	a0,a0,-612 # 13234 <end_signature+0x214>
   104a0:	361010ef          	jal	ra,12000 <FN_WriteStr>
   104a4:	00003517          	auipc	a0,0x3
   104a8:	da250513          	addi	a0,a0,-606 # 13246 <end_signature+0x226>
   104ac:	355010ef          	jal	ra,12000 <FN_WriteStr>
   104b0:	00003517          	auipc	a0,0x3
   104b4:	d9e50513          	addi	a0,a0,-610 # 1324e <end_signature+0x22e>
   104b8:	349010ef          	jal	ra,12000 <FN_WriteStr>
   104bc:	00003517          	auipc	a0,0x3
   104c0:	d9550513          	addi	a0,a0,-619 # 13251 <end_signature+0x231>
   104c4:	33d010ef          	jal	ra,12000 <FN_WriteStr>
   104c8:	00003517          	auipc	a0,0x3
   104cc:	d8c50513          	addi	a0,a0,-628 # 13254 <end_signature+0x234>
   104d0:	331010ef          	jal	ra,12000 <FN_WriteStr>
   104d4:	00003517          	auipc	a0,0x3
   104d8:	d8450513          	addi	a0,a0,-636 # 13258 <end_signature+0x238>
   104dc:	325010ef          	jal	ra,12000 <FN_WriteStr>
   104e0:	000e0513          	mv	a0,t3
   104e4:	339010ef          	jal	ra,1201c <FN_WriteA0>
   104e8:	00003517          	auipc	a0,0x3
   104ec:	d7250513          	addi	a0,a0,-654 # 1325a <end_signature+0x23a>
   104f0:	311010ef          	jal	ra,12000 <FN_WriteStr>
   104f4:	00003517          	auipc	a0,0x3
   104f8:	d6c50513          	addi	a0,a0,-660 # 13260 <end_signature+0x240>
   104fc:	305010ef          	jal	ra,12000 <FN_WriteStr>
   10500:	00003517          	auipc	a0,0x3
   10504:	d6b50513          	addi	a0,a0,-661 # 1326b <end_signature+0x24b>
   10508:	2f9010ef          	jal	ra,12000 <FN_WriteStr>
   1050c:	06400193          	li	gp,100
   10510:	0000100f          	fence.i
   10514:	00018063          	beqz	gp,10514 <reset_vector+0x4c8>
   10518:	00119193          	slli	gp,gp,0x1
   1051c:	0011e193          	ori	gp,gp,1
   10520:	00000073          	ecall
   10524:	00f00293          	li	t0,15
   10528:	085f0e63          	beq	t5,t0,105c4 <reset_vector+0x578>
   1052c:	00003517          	auipc	a0,0x3
   10530:	d4150513          	addi	a0,a0,-703 # 1326d <end_signature+0x24d>
   10534:	2cd010ef          	jal	ra,12000 <FN_WriteStr>
   10538:	00003517          	auipc	a0,0x3
   1053c:	d5050513          	addi	a0,a0,-688 # 13288 <end_signature+0x268>
   10540:	2c1010ef          	jal	ra,12000 <FN_WriteStr>
   10544:	00003517          	auipc	a0,0x3
   10548:	d5650513          	addi	a0,a0,-682 # 1329a <end_signature+0x27a>
   1054c:	2b5010ef          	jal	ra,12000 <FN_WriteStr>
   10550:	00003517          	auipc	a0,0x3
   10554:	d5250513          	addi	a0,a0,-686 # 132a2 <end_signature+0x282>
   10558:	2a9010ef          	jal	ra,12000 <FN_WriteStr>
   1055c:	00003517          	auipc	a0,0x3
   10560:	d4950513          	addi	a0,a0,-695 # 132a5 <end_signature+0x285>
   10564:	29d010ef          	jal	ra,12000 <FN_WriteStr>
   10568:	00003517          	auipc	a0,0x3
   1056c:	d4050513          	addi	a0,a0,-704 # 132a8 <end_signature+0x288>
   10570:	291010ef          	jal	ra,12000 <FN_WriteStr>
   10574:	00003517          	auipc	a0,0x3
   10578:	d3850513          	addi	a0,a0,-712 # 132ac <end_signature+0x28c>
   1057c:	285010ef          	jal	ra,12000 <FN_WriteStr>
   10580:	000f0513          	mv	a0,t5
   10584:	299010ef          	jal	ra,1201c <FN_WriteA0>
   10588:	00003517          	auipc	a0,0x3
   1058c:	d2650513          	addi	a0,a0,-730 # 132ae <end_signature+0x28e>
   10590:	271010ef          	jal	ra,12000 <FN_WriteStr>
   10594:	00003517          	auipc	a0,0x3
   10598:	d2050513          	addi	a0,a0,-736 # 132b4 <end_signature+0x294>
   1059c:	265010ef          	jal	ra,12000 <FN_WriteStr>
   105a0:	00003517          	auipc	a0,0x3
   105a4:	d1f50513          	addi	a0,a0,-737 # 132bf <end_signature+0x29f>
   105a8:	259010ef          	jal	ra,12000 <FN_WriteStr>
   105ac:	06400193          	li	gp,100
   105b0:	0000100f          	fence.i
   105b4:	00018063          	beqz	gp,105b4 <reset_vector+0x568>
   105b8:	00119193          	slli	gp,gp,0x1
   105bc:	0011e193          	ori	gp,gp,1
   105c0:	00000073          	ecall
   105c4:	01000293          	li	t0,16
   105c8:	085f8e63          	beq	t6,t0,10664 <reset_vector+0x618>
   105cc:	00003517          	auipc	a0,0x3
   105d0:	cf550513          	addi	a0,a0,-779 # 132c1 <end_signature+0x2a1>
   105d4:	22d010ef          	jal	ra,12000 <FN_WriteStr>
   105d8:	00003517          	auipc	a0,0x3
   105dc:	d0450513          	addi	a0,a0,-764 # 132dc <end_signature+0x2bc>
   105e0:	221010ef          	jal	ra,12000 <FN_WriteStr>
   105e4:	00003517          	auipc	a0,0x3
   105e8:	d0a50513          	addi	a0,a0,-758 # 132ee <end_signature+0x2ce>
   105ec:	215010ef          	jal	ra,12000 <FN_WriteStr>
   105f0:	00003517          	auipc	a0,0x3
   105f4:	d0650513          	addi	a0,a0,-762 # 132f6 <end_signature+0x2d6>
   105f8:	209010ef          	jal	ra,12000 <FN_WriteStr>
   105fc:	00003517          	auipc	a0,0x3
   10600:	cfd50513          	addi	a0,a0,-771 # 132f9 <end_signature+0x2d9>
   10604:	1fd010ef          	jal	ra,12000 <FN_WriteStr>
   10608:	00003517          	auipc	a0,0x3
   1060c:	cf450513          	addi	a0,a0,-780 # 132fc <end_signature+0x2dc>
   10610:	1f1010ef          	jal	ra,12000 <FN_WriteStr>
   10614:	00003517          	auipc	a0,0x3
   10618:	cec50513          	addi	a0,a0,-788 # 13300 <end_signature+0x2e0>
   1061c:	1e5010ef          	jal	ra,12000 <FN_WriteStr>
   10620:	000f8513          	mv	a0,t6
   10624:	1f9010ef          	jal	ra,1201c <FN_WriteA0>
   10628:	00003517          	auipc	a0,0x3
   1062c:	cda50513          	addi	a0,a0,-806 # 13302 <end_signature+0x2e2>
   10630:	1d1010ef          	jal	ra,12000 <FN_WriteStr>
   10634:	00003517          	auipc	a0,0x3
   10638:	cd450513          	addi	a0,a0,-812 # 13308 <end_signature+0x2e8>
   1063c:	1c5010ef          	jal	ra,12000 <FN_WriteStr>
   10640:	00003517          	auipc	a0,0x3
   10644:	cd350513          	addi	a0,a0,-813 # 13313 <end_signature+0x2f3>
   10648:	1b9010ef          	jal	ra,12000 <FN_WriteStr>
   1064c:	06400193          	li	gp,100
   10650:	0000100f          	fence.i
   10654:	00018063          	beqz	gp,10654 <reset_vector+0x608>
   10658:	00119193          	slli	gp,gp,0x1
   1065c:	0011e193          	ori	gp,gp,1
   10660:	00000073          	ecall
   10664:	00003517          	auipc	a0,0x3
   10668:	cb150513          	addi	a0,a0,-847 # 13315 <end_signature+0x2f5>
   1066c:	195010ef          	jal	ra,12000 <FN_WriteStr>
   10670:	00003517          	auipc	a0,0x3
   10674:	cc150513          	addi	a0,a0,-831 # 13331 <end_signature+0x311>
   10678:	189010ef          	jal	ra,12000 <FN_WriteStr>
   1067c:	00003097          	auipc	ra,0x3
   10680:	9a008093          	addi	ra,ra,-1632 # 1301c <test_B_res>
   10684:	3407d073          	csrwi	mscratch,15
   10688:	34005073          	csrwi	mscratch,0
   1068c:	0000a023          	sw	zero,0(ra)
   10690:	00000293          	li	t0,0
   10694:	08500e63          	beq	zero,t0,10730 <reset_vector+0x6e4>
   10698:	00003517          	auipc	a0,0x3
   1069c:	cc050513          	addi	a0,a0,-832 # 13358 <end_signature+0x338>
   106a0:	161010ef          	jal	ra,12000 <FN_WriteStr>
   106a4:	00003517          	auipc	a0,0x3
   106a8:	ccf50513          	addi	a0,a0,-817 # 13373 <end_signature+0x353>
   106ac:	155010ef          	jal	ra,12000 <FN_WriteStr>
   106b0:	00003517          	auipc	a0,0x3
   106b4:	cd550513          	addi	a0,a0,-811 # 13385 <end_signature+0x365>
   106b8:	149010ef          	jal	ra,12000 <FN_WriteStr>
   106bc:	00003517          	auipc	a0,0x3
   106c0:	cd150513          	addi	a0,a0,-815 # 1338d <end_signature+0x36d>
   106c4:	13d010ef          	jal	ra,12000 <FN_WriteStr>
   106c8:	00003517          	auipc	a0,0x3
   106cc:	cc850513          	addi	a0,a0,-824 # 13390 <end_signature+0x370>
   106d0:	131010ef          	jal	ra,12000 <FN_WriteStr>
   106d4:	00003517          	auipc	a0,0x3
   106d8:	cbf50513          	addi	a0,a0,-833 # 13393 <end_signature+0x373>
   106dc:	125010ef          	jal	ra,12000 <FN_WriteStr>
   106e0:	00003517          	auipc	a0,0x3
   106e4:	cb650513          	addi	a0,a0,-842 # 13396 <end_signature+0x376>
   106e8:	119010ef          	jal	ra,12000 <FN_WriteStr>
   106ec:	00000513          	li	a0,0
   106f0:	12d010ef          	jal	ra,1201c <FN_WriteA0>
   106f4:	00003517          	auipc	a0,0x3
   106f8:	ca450513          	addi	a0,a0,-860 # 13398 <end_signature+0x378>
   106fc:	105010ef          	jal	ra,12000 <FN_WriteStr>
   10700:	00003517          	auipc	a0,0x3
   10704:	c9e50513          	addi	a0,a0,-866 # 1339e <end_signature+0x37e>
   10708:	0f9010ef          	jal	ra,12000 <FN_WriteStr>
   1070c:	00003517          	auipc	a0,0x3
   10710:	c9d50513          	addi	a0,a0,-867 # 133a9 <end_signature+0x389>
   10714:	0ed010ef          	jal	ra,12000 <FN_WriteStr>
   10718:	06400193          	li	gp,100
   1071c:	0000100f          	fence.i
   10720:	00018063          	beqz	gp,10720 <reset_vector+0x6d4>
   10724:	00119193          	slli	gp,gp,0x1
   10728:	0011e193          	ori	gp,gp,1
   1072c:	00000073          	ecall
   10730:	00003517          	auipc	a0,0x3
   10734:	c7b50513          	addi	a0,a0,-901 # 133ab <end_signature+0x38b>
   10738:	0c9010ef          	jal	ra,12000 <FN_WriteStr>
   1073c:	00003517          	auipc	a0,0x3
   10740:	c8b50513          	addi	a0,a0,-885 # 133c7 <end_signature+0x3a7>
   10744:	0bd010ef          	jal	ra,12000 <FN_WriteStr>
   10748:	0000100f          	fence.i
   1074c:	00100193          	li	gp,1
   10750:	00000073          	ecall
   10754:	c0001073          	unimp
	...

Disassembly of section .tohost:

00011000 <tohost>:
	...

00011100 <fromhost>:
	...

Disassembly of section .text:

00012000 <FN_WriteStr>:
   12000:	00050293          	mv	t0,a0
   12004:	0002c503          	lbu	a0,0(t0)
   12008:	00128293          	addi	t0,t0,1
   1200c:	00050663          	beqz	a0,12018 <FN_WriteStr+0x18>
   12010:	0005200b          	0x5200b
   12014:	ff1ff06f          	j	12004 <FN_WriteStr+0x4>
   12018:	00008067          	ret

0001201c <FN_WriteA0>:
   1201c:	00050293          	mv	t0,a0
   12020:	fff00513          	li	a0,-1
   12024:	01f55513          	srli	a0,a0,0x1f
   12028:	00155513          	srli	a0,a0,0x1
   1202c:	02051463          	bnez	a0,12054 <FN_WriteA0_64>

00012030 <FN_WriteA0_32>:
   12030:	00800313          	li	t1,8
   12034:	00439393          	slli	t2,t2,0x4
   12038:	00f2f513          	andi	a0,t0,15
   1203c:	0042d293          	srli	t0,t0,0x4
   12040:	00a3e3b3          	or	t2,t2,a0
   12044:	fff30313          	addi	t1,t1,-1
   12048:	fe0316e3          	bnez	t1,12034 <FN_WriteA0_32+0x4>
   1204c:	00800313          	li	t1,8
   12050:	0240006f          	j	12074 <FN_WriteA0_common>

00012054 <FN_WriteA0_64>:
   12054:	01000313          	li	t1,16
   12058:	00439393          	slli	t2,t2,0x4
   1205c:	00f2f513          	andi	a0,t0,15
   12060:	0042d293          	srli	t0,t0,0x4
   12064:	00a3e3b3          	or	t2,t2,a0
   12068:	fff30313          	addi	t1,t1,-1
   1206c:	fe0316e3          	bnez	t1,12058 <FN_WriteA0_64+0x4>
   12070:	01000313          	li	t1,16

00012074 <FN_WriteA0_common>:
   12074:	00a00293          	li	t0,10
   12078:	00f3f513          	andi	a0,t2,15
   1207c:	00554663          	blt	a0,t0,12088 <FN_WriteA0_common+0x14>
   12080:	05750513          	addi	a0,a0,87
   12084:	0080006f          	j	1208c <FN_WriteA0_common+0x18>
   12088:	03050513          	addi	a0,a0,48
   1208c:	0005200b          	0x5200b
   12090:	0043d393          	srli	t2,t2,0x4
   12094:	fff30313          	addi	t1,t1,-1
   12098:	fe0310e3          	bnez	t1,12078 <FN_WriteA0_common+0x4>
   1209c:	00008067          	ret

Disassembly of section .data:

00013000 <begin_signature>:
   13000:	ffff                	0xffff
   13002:	ffff                	0xffff
   13004:	ffff                	0xffff
   13006:	ffff                	0xffff
   13008:	ffff                	0xffff
   1300a:	ffff                	0xffff
   1300c:	ffff                	0xffff
   1300e:	ffff                	0xffff
   13010:	ffff                	0xffff
   13012:	ffff                	0xffff
   13014:	ffff                	0xffff
   13016:	ffff                	0xffff
   13018:	ffff                	0xffff
   1301a:	ffff                	0xffff

0001301c <test_B_res>:
   1301c:	ffff                	0xffff
   1301e:	ffff                	0xffff

Disassembly of section .data.string:

00013020 <_end-0x3b3>:
   13020:	7341                	lui	t1,0xffff0
   13022:	74726573          	csrrsi	a0,0x747,4
   13026:	6f69                	lui	t5,0x1a
   13028:	206e                	fld	ft0,216(sp)
   1302a:	6976                	flw	fs2,92(sp)
   1302c:	74616c6f          	jal	s8,29772 <_end+0x1639f>
   13030:	6f69                	lui	t5,0x1a
   13032:	3a6e                	fld	fs4,248(sp)
   13034:	6620                	flw	fs0,72(a2)
   13036:	6c69                	lui	s8,0x1a
   13038:	2065                	jal	130e0 <end_signature+0xc0>
   1303a:	7300                	flw	fs0,32(a4)
   1303c:	6372                	flw	ft6,28(sp)
   1303e:	432d492f          	0x432d492f
   13042:	57525253          	0x57525253
   13046:	2d49                	jal	136d8 <_end+0x305>
   13048:	3130                	fld	fa2,96(a0)
   1304a:	532e                	lw	t1,232(sp)
   1304c:	2c00                	fld	fs0,24(s0)
   1304e:	6c20                	flw	fs0,88(s0)
   13050:	6e69                	lui	t3,0x1a
   13052:	2065                	jal	130fa <end_signature+0xda>
   13054:	3400                	fld	fs0,40(s0)
   13056:	0031                	c.nop	12
   13058:	203a                	fld	ft0,392(sp)
   1305a:	7800                	flw	fs0,48(s0)
   1305c:	0030                	addi	a2,sp,8
   1305e:	0028                	addi	a0,sp,8
   13060:	2029                	jal	1306a <end_signature+0x4a>
   13062:	3d21                	jal	12e7a <FN_WriteA0_common+0xe06>
   13064:	0020                	addi	s0,sp,8
   13066:	7830                	flw	fa2,112(s0)
   13068:	3030                	fld	fa2,96(s0)
   1306a:	3030                	fld	fa2,96(s0)
   1306c:	3030                	fld	fa2,96(s0)
   1306e:	3030                	fld	fa2,96(s0)
   13070:	0a00                	addi	s0,sp,272
   13072:	2300                	fld	fs0,0(a4)
   13074:	5420                	lw	s0,104(s0)
   13076:	7365                	lui	t1,0xffff9
   13078:	2074                	fld	fa3,192(s0)
   1307a:	6542                	flw	fa0,16(sp)
   1307c:	206e6967          	0x206e6967
   13080:	6552                	flw	fa0,20(sp)
   13082:	76726573          	csrrsi	a0,0x767,4
   13086:	6465                	lui	s0,0x19
   13088:	7220                	flw	fs0,96(a2)
   1308a:	6765                	lui	a4,0x19
   1308c:	61722073          	csrs	0x617,tp
   13090:	7828                	flw	fa0,112(s0)
   13092:	2931                	jal	134ae <_end+0xdb>
   13094:	6120                	flw	fs0,64(a0)
   13096:	2830                	fld	fa2,80(s0)
   13098:	3178                	fld	fa4,224(a0)
   1309a:	2930                	fld	fa2,80(a0)
   1309c:	7420                	flw	fs0,104(s0)
   1309e:	2830                	fld	fa2,80(s0)
   130a0:	3578                	fld	fa4,232(a0)
   130a2:	0a29                	addi	s4,s4,10
   130a4:	2300                	fld	fs0,0(a4)
   130a6:	5420                	lw	s0,104(s0)
   130a8:	7365                	lui	t1,0xffff9
   130aa:	2074                	fld	fa3,192(s0)
   130ac:	6170                	flw	fa2,68(a0)
   130ae:	7472                	flw	fs0,60(sp)
   130b0:	4120                	lw	s0,64(a0)
   130b2:	2d20                	fld	fs0,88(a0)
   130b4:	6720                	flw	fs0,72(a4)
   130b6:	6e65                	lui	t3,0x19
   130b8:	7265                	lui	tp,0xffff9
   130ba:	6c61                	lui	s8,0x18
   130bc:	7420                	flw	fs0,104(s0)
   130be:	7365                	lui	t1,0xffff9
   130c0:	2074                	fld	fa3,192(s0)
   130c2:	4320666f          	jal	a2,194f4 <_end+0x6121>
   130c6:	57525253          	0x57525253
   130ca:	0a49                	addi	s4,s4,18
   130cc:	4100                	lw	s0,0(a0)
   130ce:	72657373          	csrrci	t1,0x726,10
   130d2:	6974                	flw	fa3,84(a0)
   130d4:	76206e6f          	jal	t3,19836 <_end+0x6463>
   130d8:	6f69                	lui	t5,0x1a
   130da:	616c                	flw	fa1,68(a0)
   130dc:	6974                	flw	fa3,84(a0)
   130de:	203a6e6f          	jal	t3,b9ae0 <_end+0xa670d>
   130e2:	6966                	flw	fs2,88(sp)
   130e4:	656c                	flw	fa1,76(a0)
   130e6:	0020                	addi	s0,sp,8
   130e8:	2f637273          	csrrci	tp,0x2f6,6
   130ec:	2d49                	jal	1377e <_end+0x3ab>
   130ee:	52525343          	fmadd.d	ft6,ft4,ft5,fa0,unknown
   130f2:	302d4957          	0x302d4957
   130f6:	2e31                	jal	13412 <_end+0x3f>
   130f8:	202c0053          	fsgnj.s	ft0,fs8,ft2
   130fc:	696c                	flw	fa1,84(a0)
   130fe:	656e                	flw	fa0,216(sp)
   13100:	0020                	addi	s0,sp,8
   13102:	3a003437          	lui	s0,0x3a003
   13106:	0020                	addi	s0,sp,8
   13108:	3078                	fld	fa4,224(s0)
   1310a:	2800                	fld	fs0,16(s0)
   1310c:	2900                	fld	fs0,16(a0)
   1310e:	2120                	fld	fs0,64(a0)
   13110:	203d                	jal	1313e <end_signature+0x11e>
   13112:	3000                	fld	fs0,32(s0)
   13114:	3078                	fld	fa4,224(s0)
   13116:	3030                	fld	fa2,96(s0)
   13118:	3030                	fld	fa2,96(s0)
   1311a:	3030                	fld	fa2,96(s0)
   1311c:	0030                	addi	a2,sp,8
   1311e:	000a                	c.slli	zero,0x2
   13120:	7341                	lui	t1,0xffff0
   13122:	74726573          	csrrsi	a0,0x747,4
   13126:	6f69                	lui	t5,0x1a
   13128:	206e                	fld	ft0,216(sp)
   1312a:	6976                	flw	fs2,92(sp)
   1312c:	74616c6f          	jal	s8,29872 <_end+0x1649f>
   13130:	6f69                	lui	t5,0x1a
   13132:	3a6e                	fld	fs4,248(sp)
   13134:	6620                	flw	fs0,72(a2)
   13136:	6c69                	lui	s8,0x1a
   13138:	2065                	jal	131e0 <end_signature+0x1c0>
   1313a:	7300                	flw	fs0,32(a4)
   1313c:	6372                	flw	ft6,28(sp)
   1313e:	432d492f          	0x432d492f
   13142:	57525253          	0x57525253
   13146:	2d49                	jal	137d8 <_end+0x405>
   13148:	3130                	fld	fa2,96(a0)
   1314a:	532e                	lw	t1,232(sp)
   1314c:	2c00                	fld	fs0,24(s0)
   1314e:	6c20                	flw	fs0,88(s0)
   13150:	6e69                	lui	t3,0x1a
   13152:	2065                	jal	131fa <end_signature+0x1da>
   13154:	3700                	fld	fs0,40(a4)
   13156:	0035                	c.nop	13
   13158:	203a                	fld	ft0,392(sp)
   1315a:	7800                	flw	fs0,48(s0)
   1315c:	0032                	c.slli	zero,0xc
   1315e:	0028                	addi	a0,sp,8
   13160:	2029                	jal	1316a <end_signature+0x14a>
   13162:	3d21                	jal	12f7a <FN_WriteA0_common+0xf06>
   13164:	0020                	addi	s0,sp,8
   13166:	7830                	flw	fa2,112(s0)
   13168:	3030                	fld	fa2,96(s0)
   1316a:	3030                	fld	fa2,96(s0)
   1316c:	3030                	fld	fa2,96(s0)
   1316e:	3030                	fld	fa2,96(s0)
   13170:	0a00                	addi	s0,sp,272
   13172:	4100                	lw	s0,0(a0)
   13174:	72657373          	csrrci	t1,0x726,10
   13178:	6974                	flw	fa3,84(a0)
   1317a:	76206e6f          	jal	t3,198dc <_end+0x6509>
   1317e:	6f69                	lui	t5,0x1a
   13180:	616c                	flw	fa1,68(a0)
   13182:	6974                	flw	fa3,84(a0)
   13184:	203a6e6f          	jal	t3,b9b86 <_end+0xa67b3>
   13188:	6966                	flw	fs2,88(sp)
   1318a:	656c                	flw	fa1,76(a0)
   1318c:	0020                	addi	s0,sp,8
   1318e:	2f637273          	csrrci	tp,0x2f6,6
   13192:	2d49                	jal	13824 <_end+0x451>
   13194:	52525343          	fmadd.d	ft6,ft4,ft5,fa0,unknown
   13198:	302d4957          	0x302d4957
   1319c:	2e31                	jal	134b8 <_end+0xe5>
   1319e:	202c0053          	fsgnj.s	ft0,fs8,ft2
   131a2:	696c                	flw	fa1,84(a0)
   131a4:	656e                	flw	fa0,216(sp)
   131a6:	0020                	addi	s0,sp,8
   131a8:	3a003637          	lui	a2,0x3a003
   131ac:	0020                	addi	s0,sp,8
   131ae:	3478                	fld	fa4,232(s0)
   131b0:	2800                	fld	fs0,16(s0)
   131b2:	2900                	fld	fs0,16(a0)
   131b4:	2120                	fld	fs0,64(a0)
   131b6:	203d                	jal	131e4 <end_signature+0x1c4>
   131b8:	3000                	fld	fs0,32(s0)
   131ba:	3078                	fld	fa4,224(s0)
   131bc:	3030                	fld	fa2,96(s0)
   131be:	3030                	fld	fa2,96(s0)
   131c0:	3030                	fld	fa2,96(s0)
   131c2:	0031                	c.nop	12
   131c4:	000a                	c.slli	zero,0x2
   131c6:	7341                	lui	t1,0xffff0
   131c8:	74726573          	csrrsi	a0,0x747,4
   131cc:	6f69                	lui	t5,0x1a
   131ce:	206e                	fld	ft0,216(sp)
   131d0:	6976                	flw	fs2,92(sp)
   131d2:	74616c6f          	jal	s8,29918 <_end+0x16545>
   131d6:	6f69                	lui	t5,0x1a
   131d8:	3a6e                	fld	fs4,248(sp)
   131da:	6620                	flw	fs0,72(a2)
   131dc:	6c69                	lui	s8,0x1a
   131de:	2065                	jal	13286 <end_signature+0x266>
   131e0:	7300                	flw	fs0,32(a4)
   131e2:	6372                	flw	ft6,28(sp)
   131e4:	432d492f          	0x432d492f
   131e8:	57525253          	0x57525253
   131ec:	2d49                	jal	1387e <_end+0x4ab>
   131ee:	3130                	fld	fa2,96(a0)
   131f0:	532e                	lw	t1,232(sp)
   131f2:	2c00                	fld	fs0,24(s0)
   131f4:	6c20                	flw	fs0,88(s0)
   131f6:	6e69                	lui	t3,0x1a
   131f8:	2065                	jal	132a0 <end_signature+0x280>
   131fa:	3700                	fld	fs0,40(a4)
   131fc:	203a0037          	lui	zero,0x203a0
   13200:	7800                	flw	fs0,48(s0)
   13202:	0036                	c.slli	zero,0xd
   13204:	0028                	addi	a0,sp,8
   13206:	2029                	jal	13210 <end_signature+0x1f0>
   13208:	3d21                	jal	13020 <end_signature>
   1320a:	0020                	addi	s0,sp,8
   1320c:	7830                	flw	fa2,112(s0)
   1320e:	3030                	fld	fa2,96(s0)
   13210:	3030                	fld	fa2,96(s0)
   13212:	3030                	fld	fa2,96(s0)
   13214:	3030                	fld	fa2,96(s0)
   13216:	0a00                	addi	s0,sp,272
   13218:	4100                	lw	s0,0(a0)
   1321a:	72657373          	csrrci	t1,0x726,10
   1321e:	6974                	flw	fa3,84(a0)
   13220:	76206e6f          	jal	t3,19982 <_end+0x65af>
   13224:	6f69                	lui	t5,0x1a
   13226:	616c                	flw	fa1,68(a0)
   13228:	6974                	flw	fa3,84(a0)
   1322a:	203a6e6f          	jal	t3,b9c2c <_end+0xa6859>
   1322e:	6966                	flw	fs2,88(sp)
   13230:	656c                	flw	fa1,76(a0)
   13232:	0020                	addi	s0,sp,8
   13234:	2f637273          	csrrci	tp,0x2f6,6
   13238:	2d49                	jal	138ca <_end+0x4f7>
   1323a:	52525343          	fmadd.d	ft6,ft4,ft5,fa0,unknown
   1323e:	302d4957          	0x302d4957
   13242:	2e31                	jal	1355e <_end+0x18b>
   13244:	202c0053          	fsgnj.s	ft0,fs8,ft2
   13248:	696c                	flw	fa1,84(a0)
   1324a:	656e                	flw	fa0,216(sp)
   1324c:	0020                	addi	s0,sp,8
   1324e:	3a003837          	lui	a6,0x3a003
   13252:	0020                	addi	s0,sp,8
   13254:	3278                	fld	fa4,224(a2)
   13256:	0038                	addi	a4,sp,8
   13258:	0028                	addi	a0,sp,8
   1325a:	2029                	jal	13264 <end_signature+0x244>
   1325c:	3d21                	jal	13074 <end_signature+0x54>
   1325e:	0020                	addi	s0,sp,8
   13260:	7830                	flw	fa2,112(s0)
   13262:	3030                	fld	fa2,96(s0)
   13264:	3030                	fld	fa2,96(s0)
   13266:	3030                	fld	fa2,96(s0)
   13268:	4631                	li	a2,12
   1326a:	0a00                	addi	s0,sp,272
   1326c:	4100                	lw	s0,0(a0)
   1326e:	72657373          	csrrci	t1,0x726,10
   13272:	6974                	flw	fa3,84(a0)
   13274:	76206e6f          	jal	t3,199d6 <_end+0x6603>
   13278:	6f69                	lui	t5,0x1a
   1327a:	616c                	flw	fa1,68(a0)
   1327c:	6974                	flw	fa3,84(a0)
   1327e:	203a6e6f          	jal	t3,b9c80 <_end+0xa68ad>
   13282:	6966                	flw	fs2,88(sp)
   13284:	656c                	flw	fa1,76(a0)
   13286:	0020                	addi	s0,sp,8
   13288:	2f637273          	csrrci	tp,0x2f6,6
   1328c:	2d49                	jal	1391e <_end+0x54b>
   1328e:	52525343          	fmadd.d	ft6,ft4,ft5,fa0,unknown
   13292:	302d4957          	0x302d4957
   13296:	2e31                	jal	135b2 <_end+0x1df>
   13298:	202c0053          	fsgnj.s	ft0,fs8,ft2
   1329c:	696c                	flw	fa1,84(a0)
   1329e:	656e                	flw	fa0,216(sp)
   132a0:	0020                	addi	s0,sp,8
   132a2:	3a003937          	lui	s2,0x3a003
   132a6:	0020                	addi	s0,sp,8
   132a8:	3378                	fld	fa4,224(a4)
   132aa:	0030                	addi	a2,sp,8
   132ac:	0028                	addi	a0,sp,8
   132ae:	2029                	jal	132b8 <end_signature+0x298>
   132b0:	3d21                	jal	130c8 <end_signature+0xa8>
   132b2:	0020                	addi	s0,sp,8
   132b4:	7830                	flw	fa2,112(s0)
   132b6:	3030                	fld	fa2,96(s0)
   132b8:	3030                	fld	fa2,96(s0)
   132ba:	3030                	fld	fa2,96(s0)
   132bc:	4630                	lw	a2,72(a2)
   132be:	0a00                	addi	s0,sp,272
   132c0:	4100                	lw	s0,0(a0)
   132c2:	72657373          	csrrci	t1,0x726,10
   132c6:	6974                	flw	fa3,84(a0)
   132c8:	76206e6f          	jal	t3,19a2a <_end+0x6657>
   132cc:	6f69                	lui	t5,0x1a
   132ce:	616c                	flw	fa1,68(a0)
   132d0:	6974                	flw	fa3,84(a0)
   132d2:	203a6e6f          	jal	t3,b9cd4 <_end+0xa6901>
   132d6:	6966                	flw	fs2,88(sp)
   132d8:	656c                	flw	fa1,76(a0)
   132da:	0020                	addi	s0,sp,8
   132dc:	2f637273          	csrrci	tp,0x2f6,6
   132e0:	2d49                	jal	13972 <_end+0x59f>
   132e2:	52525343          	fmadd.d	ft6,ft4,ft5,fa0,unknown
   132e6:	302d4957          	0x302d4957
   132ea:	2e31                	jal	13606 <_end+0x233>
   132ec:	202c0053          	fsgnj.s	ft0,fs8,ft2
   132f0:	696c                	flw	fa1,84(a0)
   132f2:	656e                	flw	fa0,216(sp)
   132f4:	0020                	addi	s0,sp,8
   132f6:	3038                	fld	fa4,96(s0)
   132f8:	3a00                	fld	fs0,48(a2)
   132fa:	0020                	addi	s0,sp,8
   132fc:	3378                	fld	fa4,224(a4)
   132fe:	0031                	c.nop	12
   13300:	0028                	addi	a0,sp,8
   13302:	2029                	jal	1330c <end_signature+0x2ec>
   13304:	3d21                	jal	1311c <end_signature+0xfc>
   13306:	0020                	addi	s0,sp,8
   13308:	7830                	flw	fa2,112(s0)
   1330a:	3030                	fld	fa2,96(s0)
   1330c:	3030                	fld	fa2,96(s0)
   1330e:	3030                	fld	fa2,96(s0)
   13310:	3031                	jal	12b1c <FN_WriteA0_common+0xaa8>
   13312:	0a00                	addi	s0,sp,272
   13314:	2300                	fld	fs0,0(a4)
   13316:	5420                	lw	s0,104(s0)
   13318:	7365                	lui	t1,0xffff9
   1331a:	2074                	fld	fa3,192(s0)
   1331c:	6170                	flw	fa2,68(a0)
   1331e:	7472                	flw	fs0,60(sp)
   13320:	4120                	lw	s0,64(a0)
   13322:	2031                	jal	1332e <end_signature+0x30e>
   13324:	2d20                	fld	fs0,88(a0)
   13326:	4320                	lw	s0,64(a4)
   13328:	6c706d6f          	jal	s10,1a1ee <_end+0x6e1b>
   1332c:	7465                	lui	s0,0xffff9
   1332e:	0a65                	addi	s4,s4,25
   13330:	2300                	fld	fs0,0(a4)
   13332:	5420                	lw	s0,104(s0)
   13334:	7365                	lui	t1,0xffff9
   13336:	2074                	fld	fa3,192(s0)
   13338:	6170                	flw	fa2,68(a0)
   1333a:	7472                	flw	fs0,60(sp)
   1333c:	4220                	lw	s0,64(a2)
   1333e:	2d20                	fld	fs0,88(a0)
   13340:	7420                	flw	fs0,104(s0)
   13342:	7365                	lui	t1,0xffff9
   13344:	6974                	flw	fa3,84(a0)
   13346:	676e                	flw	fa4,216(sp)
   13348:	7720                	flw	fs0,104(a4)
   1334a:	6972                	flw	fs2,28(sp)
   1334c:	6974                	flw	fa3,84(a0)
   1334e:	676e                	flw	fa4,216(sp)
   13350:	7420                	flw	fs0,104(s0)
   13352:	3078206f          	j	95e58 <_end+0x82a85>
   13356:	000a                	c.slli	zero,0x2
   13358:	7341                	lui	t1,0xffff0
   1335a:	74726573          	csrrsi	a0,0x747,4
   1335e:	6f69                	lui	t5,0x1a
   13360:	206e                	fld	ft0,216(sp)
   13362:	6976                	flw	fs2,92(sp)
   13364:	74616c6f          	jal	s8,29aaa <_end+0x166d7>
   13368:	6f69                	lui	t5,0x1a
   1336a:	3a6e                	fld	fs4,248(sp)
   1336c:	6620                	flw	fs0,72(a2)
   1336e:	6c69                	lui	s8,0x1a
   13370:	2065                	jal	13418 <_end+0x45>
   13372:	7300                	flw	fs0,32(a4)
   13374:	6372                	flw	ft6,28(sp)
   13376:	432d492f          	0x432d492f
   1337a:	57525253          	0x57525253
   1337e:	2d49                	jal	13a10 <_end+0x63d>
   13380:	3130                	fld	fa2,96(a0)
   13382:	532e                	lw	t1,232(sp)
   13384:	2c00                	fld	fs0,24(s0)
   13386:	6c20                	flw	fs0,88(s0)
   13388:	6e69                	lui	t3,0x1a
   1338a:	2065                	jal	13432 <_end+0x5f>
   1338c:	3900                	fld	fs0,48(a0)
   1338e:	203a0037          	lui	zero,0x203a0
   13392:	7800                	flw	fs0,48(s0)
   13394:	0030                	addi	a2,sp,8
   13396:	0028                	addi	a0,sp,8
   13398:	2029                	jal	133a2 <end_signature+0x382>
   1339a:	3d21                	jal	131b2 <end_signature+0x192>
   1339c:	0020                	addi	s0,sp,8
   1339e:	7830                	flw	fa2,112(s0)
   133a0:	3030                	fld	fa2,96(s0)
   133a2:	3030                	fld	fa2,96(s0)
   133a4:	3030                	fld	fa2,96(s0)
   133a6:	3030                	fld	fa2,96(s0)
   133a8:	0a00                	addi	s0,sp,272
   133aa:	2300                	fld	fs0,0(a4)
   133ac:	5420                	lw	s0,104(s0)
   133ae:	7365                	lui	t1,0xffff9
   133b0:	2074                	fld	fa3,192(s0)
   133b2:	6170                	flw	fa2,68(a0)
   133b4:	7472                	flw	fs0,60(sp)
   133b6:	4120                	lw	s0,64(a0)
   133b8:	2032                	fld	ft0,264(sp)
   133ba:	2d20                	fld	fs0,88(a0)
   133bc:	4320                	lw	s0,64(a4)
   133be:	6c706d6f          	jal	s10,1a284 <_end+0x6eb1>
   133c2:	7465                	lui	s0,0xffff9
   133c4:	0a65                	addi	s4,s4,25
   133c6:	2300                	fld	fs0,0(a4)
   133c8:	5420                	lw	s0,104(s0)
   133ca:	7365                	lui	t1,0xffff9
   133cc:	2074                	fld	fa3,192(s0)
   133ce:	6e45                	lui	t3,0x11
   133d0:	0a64                	addi	s1,sp,284
	...
