
/Users/benselfridge/RISCV/riscv-compliance/work//I-CSRRSI-01.elf:     file format elf32-littleriscv


Disassembly of section .text.init:

00010000 <_start>:
   10000:	04c0006f          	j	1004c <reset_vector>

00010004 <trap_vector>:
   10004:	34202f73          	csrr	t5,mcause
   10008:	00800f93          	li	t6,8
   1000c:	03ff0a63          	beq	t5,t6,10040 <write_tohost>
   10010:	00900f93          	li	t6,9
   10014:	03ff0663          	beq	t5,t6,10040 <write_tohost>
   10018:	00b00f93          	li	t6,11
   1001c:	03ff0263          	beq	t5,t6,10040 <write_tohost>
   10020:	ffff0f17          	auipc	t5,0xffff0
   10024:	fe0f0f13          	addi	t5,t5,-32 # 0 <_start-0x10000>
   10028:	000f0463          	beqz	t5,10030 <trap_vector+0x2c>
   1002c:	000f0067          	jr	t5
   10030:	34202f73          	csrr	t5,mcause
   10034:	000f5463          	bgez	t5,1003c <handle_exception>
   10038:	0040006f          	j	1003c <handle_exception>

0001003c <handle_exception>:
   1003c:	5391e193          	ori	gp,gp,1337

00010040 <write_tohost>:
   10040:	00001f17          	auipc	t5,0x1
   10044:	fc3f2023          	sw	gp,-64(t5) # 11000 <tohost>
   10048:	ff9ff06f          	j	10040 <write_tohost>

0001004c <reset_vector>:
   1004c:	f1402573          	csrr	a0,mhartid
   10050:	00051063          	bnez	a0,10050 <reset_vector+0x4>
   10054:	00000297          	auipc	t0,0x0
   10058:	01028293          	addi	t0,t0,16 # 10064 <reset_vector+0x18>
   1005c:	30529073          	csrw	mtvec,t0
   10060:	18005073          	csrwi	satp,0
   10064:	00000297          	auipc	t0,0x0
   10068:	01c28293          	addi	t0,t0,28 # 10080 <reset_vector+0x34>
   1006c:	30529073          	csrw	mtvec,t0
   10070:	fff00293          	li	t0,-1
   10074:	3b029073          	csrw	pmpaddr0,t0
   10078:	01f00293          	li	t0,31
   1007c:	3a029073          	csrw	pmpcfg0,t0
   10080:	00000297          	auipc	t0,0x0
   10084:	01828293          	addi	t0,t0,24 # 10098 <reset_vector+0x4c>
   10088:	30529073          	csrw	mtvec,t0
   1008c:	30205073          	csrwi	medeleg,0
   10090:	30305073          	csrwi	mideleg,0
   10094:	30405073          	csrwi	mie,0
   10098:	00000193          	li	gp,0
   1009c:	00000297          	auipc	t0,0x0
   100a0:	f6828293          	addi	t0,t0,-152 # 10004 <trap_vector>
   100a4:	30529073          	csrw	mtvec,t0
   100a8:	00100513          	li	a0,1
   100ac:	01f51513          	slli	a0,a0,0x1f
   100b0:	00054863          	bltz	a0,100c0 <reset_vector+0x74>
   100b4:	00000013          	nop
   100b8:	00100193          	li	gp,1
   100bc:	00000073          	ecall
   100c0:	ffff0297          	auipc	t0,0xffff0
   100c4:	f4028293          	addi	t0,t0,-192 # 0 <_start-0x10000>
   100c8:	00028e63          	beqz	t0,100e4 <reset_vector+0x98>
   100cc:	10529073          	csrw	stvec,t0
   100d0:	0000b2b7          	lui	t0,0xb
   100d4:	10928293          	addi	t0,t0,265 # b109 <_start-0x4ef7>
   100d8:	30229073          	csrw	medeleg,t0
   100dc:	30202373          	csrr	t1,medeleg
   100e0:	f4629ee3          	bne	t0,t1,1003c <handle_exception>
   100e4:	30005073          	csrwi	mstatus,0
   100e8:	00002537          	lui	a0,0x2
   100ec:	80050513          	addi	a0,a0,-2048 # 1800 <_start-0xe800>
   100f0:	30052073          	csrs	mstatus,a0
   100f4:	00000297          	auipc	t0,0x0
   100f8:	01428293          	addi	t0,t0,20 # 10108 <reset_vector+0xbc>
   100fc:	34129073          	csrw	mepc,t0
   10100:	f1402573          	csrr	a0,mhartid
   10104:	30200073          	mret
   10108:	00002797          	auipc	a5,0x2
   1010c:	ef878793          	addi	a5,a5,-264 # 12000 <begin_signature>
   10110:	34001073          	csrw	mscratch,zero
   10114:	3400e0f3          	csrrsi	ra,mscratch,1
   10118:	340010f3          	csrrw	ra,mscratch,zero
   1011c:	34006173          	csrrsi	sp,mscratch,0
   10120:	34001173          	csrrw	sp,mscratch,zero
   10124:	340fe1f3          	csrrsi	gp,mscratch,31
   10128:	340011f3          	csrrw	gp,mscratch,zero
   1012c:	34086273          	csrrsi	tp,mscratch,16
   10130:	34001273          	csrrw	tp,mscratch,zero
   10134:	3407e2f3          	csrrsi	t0,mscratch,15
   10138:	340012f3          	csrrw	t0,mscratch,zero
   1013c:	0007a023          	sw	zero,0(a5)
   10140:	0017a223          	sw	ra,4(a5)
   10144:	0027a423          	sw	sp,8(a5)
   10148:	0037a623          	sw	gp,12(a5)
   1014c:	0047a823          	sw	tp,16(a5)
   10150:	0057aa23          	sw	t0,20(a5)
   10154:	00002297          	auipc	t0,0x2
   10158:	ec428293          	addi	t0,t0,-316 # 12018 <test_A2_res>
   1015c:	34001073          	csrw	mscratch,zero
   10160:	3400e5f3          	csrrsi	a1,mscratch,1
   10164:	34006673          	csrrsi	a2,mscratch,0
   10168:	340fe6f3          	csrrsi	a3,mscratch,31
   1016c:	34086773          	csrrsi	a4,mscratch,16
   10170:	3407e7f3          	csrrsi	a5,mscratch,15
   10174:	34006873          	csrrsi	a6,mscratch,0
   10178:	0002a023          	sw	zero,0(t0)
   1017c:	00b2a223          	sw	a1,4(t0)
   10180:	00c2a423          	sw	a2,8(t0)
   10184:	00d2a623          	sw	a3,12(t0)
   10188:	00e2a823          	sw	a4,16(t0)
   1018c:	00f2aa23          	sw	a5,20(t0)
   10190:	0102ac23          	sw	a6,24(t0)
   10194:	00002097          	auipc	ra,0x2
   10198:	ea008093          	addi	ra,ra,-352 # 12034 <test_B_res>
   1019c:	32165a37          	lui	s4,0x32165
   101a0:	498a0a13          	addi	s4,s4,1176 # 32165498 <_end+0x32153458>
   101a4:	340a1073          	csrw	mscratch,s4
   101a8:	3407e073          	csrsi	mscratch,15
   101ac:	340a1af3          	csrrw	s5,mscratch,s4
   101b0:	0000a023          	sw	zero,0(ra)
   101b4:	0150a223          	sw	s5,4(ra)
   101b8:	0140a423          	sw	s4,8(ra)
   101bc:	00000013          	nop
   101c0:	00100193          	li	gp,1
   101c4:	00000073          	ecall
   101c8:	c0001073          	unimp
	...

Disassembly of section .tohost:

00011000 <tohost>:
	...

00011100 <fromhost>:
	...

Disassembly of section .data:

00012000 <begin_signature>:
   12000:	ffff                	0xffff
   12002:	ffff                	0xffff
   12004:	ffff                	0xffff
   12006:	ffff                	0xffff
   12008:	ffff                	0xffff
   1200a:	ffff                	0xffff
   1200c:	ffff                	0xffff
   1200e:	ffff                	0xffff
   12010:	ffff                	0xffff
   12012:	ffff                	0xffff
   12014:	ffff                	0xffff
   12016:	ffff                	0xffff

00012018 <test_A2_res>:
   12018:	ffff                	0xffff
   1201a:	ffff                	0xffff
   1201c:	ffff                	0xffff
   1201e:	ffff                	0xffff
   12020:	ffff                	0xffff
   12022:	ffff                	0xffff
   12024:	ffff                	0xffff
   12026:	ffff                	0xffff
   12028:	ffff                	0xffff
   1202a:	ffff                	0xffff
   1202c:	ffff                	0xffff
   1202e:	ffff                	0xffff
   12030:	ffff                	0xffff
   12032:	ffff                	0xffff

00012034 <test_B_res>:
   12034:	ffff                	0xffff
   12036:	ffff                	0xffff
   12038:	ffff                	0xffff
   1203a:	ffff                	0xffff
   1203c:	ffff                	0xffff
   1203e:	ffff                	0xffff
