
/home/benselfridge/riscv-compliance/work//I-CSRRCI-01.elf:     file format elf32-littleriscv


Disassembly of section .text.init:

00010000 <_start>:
   10000:	04c0006f          	j	1004c <reset_vector>

00010004 <trap_vector>:
   10004:	34202f73          	csrr	t5,mcause
   10008:	00800f93          	li	t6,8
   1000c:	03ff0a63          	beq	t5,t6,10040 <write_tohost>
   10010:	00900f93          	li	t6,9
   10014:	03ff0663          	beq	t5,t6,10040 <write_tohost>
   10018:	00b00f93          	li	t6,11
   1001c:	03ff0263          	beq	t5,t6,10040 <write_tohost>
   10020:	ffff0f17          	auipc	t5,0xffff0
   10024:	fe0f0f13          	addi	t5,t5,-32 # 0 <_start-0x10000>
   10028:	000f0463          	beqz	t5,10030 <trap_vector+0x2c>
   1002c:	000f0067          	jr	t5
   10030:	34202f73          	csrr	t5,mcause
   10034:	000f5463          	bgez	t5,1003c <handle_exception>
   10038:	0040006f          	j	1003c <handle_exception>

0001003c <handle_exception>:
   1003c:	5391e193          	ori	gp,gp,1337

00010040 <write_tohost>:
   10040:	00001f17          	auipc	t5,0x1
   10044:	fc3f2023          	sw	gp,-64(t5) # 11000 <tohost>
   10048:	ff9ff06f          	j	10040 <write_tohost>

0001004c <reset_vector>:
   1004c:	f1402573          	csrr	a0,mhartid
   10050:	00051063          	bnez	a0,10050 <reset_vector+0x4>
   10054:	00000297          	auipc	t0,0x0
   10058:	01028293          	addi	t0,t0,16 # 10064 <reset_vector+0x18>
   1005c:	30529073          	csrw	mtvec,t0
   10060:	18005073          	csrwi	satp,0
   10064:	00000297          	auipc	t0,0x0
   10068:	01c28293          	addi	t0,t0,28 # 10080 <reset_vector+0x34>
   1006c:	30529073          	csrw	mtvec,t0
   10070:	fff00293          	li	t0,-1
   10074:	3b029073          	csrw	pmpaddr0,t0
   10078:	01f00293          	li	t0,31
   1007c:	3a029073          	csrw	pmpcfg0,t0
   10080:	00000297          	auipc	t0,0x0
   10084:	01828293          	addi	t0,t0,24 # 10098 <reset_vector+0x4c>
   10088:	30529073          	csrw	mtvec,t0
   1008c:	30205073          	csrwi	medeleg,0
   10090:	30305073          	csrwi	mideleg,0
   10094:	30405073          	csrwi	mie,0
   10098:	00000193          	li	gp,0
   1009c:	00000297          	auipc	t0,0x0
   100a0:	f6828293          	addi	t0,t0,-152 # 10004 <trap_vector>
   100a4:	30529073          	csrw	mtvec,t0
   100a8:	00100513          	li	a0,1
   100ac:	01f51513          	slli	a0,a0,0x1f
   100b0:	00054863          	bltz	a0,100c0 <reset_vector+0x74>
   100b4:	0000100f          	fence.i
   100b8:	00100193          	li	gp,1
   100bc:	00000073          	ecall
   100c0:	ffff0297          	auipc	t0,0xffff0
   100c4:	f4028293          	addi	t0,t0,-192 # 0 <_start-0x10000>
   100c8:	00028e63          	beqz	t0,100e4 <reset_vector+0x98>
   100cc:	10529073          	csrw	stvec,t0
   100d0:	0000b2b7          	lui	t0,0xb
   100d4:	10928293          	addi	t0,t0,265 # b109 <_start-0x4ef7>
   100d8:	30229073          	csrw	medeleg,t0
   100dc:	30202373          	csrr	t1,medeleg
   100e0:	f4629ee3          	bne	t0,t1,1003c <handle_exception>
   100e4:	30005073          	csrwi	mstatus,0
   100e8:	00002537          	lui	a0,0x2
   100ec:	80050513          	addi	a0,a0,-2048 # 1800 <_start-0xe800>
   100f0:	30052073          	csrs	mstatus,a0
   100f4:	00000297          	auipc	t0,0x0
   100f8:	01428293          	addi	t0,t0,20 # 10108 <reset_vector+0xbc>
   100fc:	34129073          	csrw	mepc,t0
   10100:	f1402573          	csrr	a0,mhartid
   10104:	30200073          	mret
   10108:	00000293          	li	t0,0
   1010c:	08500e63          	beq	zero,t0,101a8 <reset_vector+0x15c>
   10110:	00003517          	auipc	a0,0x3
   10114:	f3050513          	addi	a0,a0,-208 # 13040 <end_signature>
   10118:	6e9010ef          	jal	ra,12000 <FN_WriteStr>
   1011c:	00003517          	auipc	a0,0x3
   10120:	f3f50513          	addi	a0,a0,-193 # 1305b <end_signature+0x1b>
   10124:	6dd010ef          	jal	ra,12000 <FN_WriteStr>
   10128:	00003517          	auipc	a0,0x3
   1012c:	f4550513          	addi	a0,a0,-187 # 1306d <end_signature+0x2d>
   10130:	6d1010ef          	jal	ra,12000 <FN_WriteStr>
   10134:	00003517          	auipc	a0,0x3
   10138:	f4150513          	addi	a0,a0,-191 # 13075 <end_signature+0x35>
   1013c:	6c5010ef          	jal	ra,12000 <FN_WriteStr>
   10140:	00003517          	auipc	a0,0x3
   10144:	f3850513          	addi	a0,a0,-200 # 13078 <end_signature+0x38>
   10148:	6b9010ef          	jal	ra,12000 <FN_WriteStr>
   1014c:	00003517          	auipc	a0,0x3
   10150:	f2f50513          	addi	a0,a0,-209 # 1307b <end_signature+0x3b>
   10154:	6ad010ef          	jal	ra,12000 <FN_WriteStr>
   10158:	00003517          	auipc	a0,0x3
   1015c:	f2650513          	addi	a0,a0,-218 # 1307e <end_signature+0x3e>
   10160:	6a1010ef          	jal	ra,12000 <FN_WriteStr>
   10164:	00000513          	li	a0,0
   10168:	6b5010ef          	jal	ra,1201c <FN_WriteA0>
   1016c:	00003517          	auipc	a0,0x3
   10170:	f1450513          	addi	a0,a0,-236 # 13080 <end_signature+0x40>
   10174:	68d010ef          	jal	ra,12000 <FN_WriteStr>
   10178:	00003517          	auipc	a0,0x3
   1017c:	f0e50513          	addi	a0,a0,-242 # 13086 <end_signature+0x46>
   10180:	681010ef          	jal	ra,12000 <FN_WriteStr>
   10184:	00003517          	auipc	a0,0x3
   10188:	f0d50513          	addi	a0,a0,-243 # 13091 <end_signature+0x51>
   1018c:	675010ef          	jal	ra,12000 <FN_WriteStr>
   10190:	06400193          	li	gp,100
   10194:	0000100f          	fence.i
   10198:	00018063          	beqz	gp,10198 <reset_vector+0x14c>
   1019c:	00119193          	slli	gp,gp,0x1
   101a0:	0011e193          	ori	gp,gp,1
   101a4:	00000073          	ecall
   101a8:	00003517          	auipc	a0,0x3
   101ac:	eeb50513          	addi	a0,a0,-277 # 13093 <end_signature+0x53>
   101b0:	651010ef          	jal	ra,12000 <FN_WriteStr>
   101b4:	00003517          	auipc	a0,0x3
   101b8:	f1150513          	addi	a0,a0,-239 # 130c5 <end_signature+0x85>
   101bc:	645010ef          	jal	ra,12000 <FN_WriteStr>
   101c0:	00003797          	auipc	a5,0x3
   101c4:	e4078793          	addi	a5,a5,-448 # 13000 <begin_signature>
   101c8:	fff00413          	li	s0,-1
   101cc:	34041073          	csrw	mscratch,s0
   101d0:	3400f0f3          	csrrci	ra,mscratch,1
   101d4:	340410f3          	csrrw	ra,mscratch,s0
   101d8:	34007173          	csrrci	sp,mscratch,0
   101dc:	34041173          	csrrw	sp,mscratch,s0
   101e0:	340ff1f3          	csrrci	gp,mscratch,31
   101e4:	340411f3          	csrrw	gp,mscratch,s0
   101e8:	34087273          	csrrci	tp,mscratch,16
   101ec:	34041273          	csrrw	tp,mscratch,s0
   101f0:	3407f2f3          	csrrci	t0,mscratch,15
   101f4:	340412f3          	csrrw	t0,mscratch,s0
   101f8:	0007a023          	sw	zero,0(a5)
   101fc:	0017a223          	sw	ra,4(a5)
   10200:	0027a423          	sw	sp,8(a5)
   10204:	0037a623          	sw	gp,12(a5)
   10208:	0047a823          	sw	tp,16(a5)
   1020c:	0057aa23          	sw	t0,20(a5)
   10210:	0087ac23          	sw	s0,24(a5)
   10214:	fff00013          	li	zero,-1
   10218:	00000293          	li	t0,0
   1021c:	08500e63          	beq	zero,t0,102b8 <reset_vector+0x26c>
   10220:	00003517          	auipc	a0,0x3
   10224:	ece50513          	addi	a0,a0,-306 # 130ee <end_signature+0xae>
   10228:	5d9010ef          	jal	ra,12000 <FN_WriteStr>
   1022c:	00003517          	auipc	a0,0x3
   10230:	edd50513          	addi	a0,a0,-291 # 13109 <end_signature+0xc9>
   10234:	5cd010ef          	jal	ra,12000 <FN_WriteStr>
   10238:	00003517          	auipc	a0,0x3
   1023c:	ee350513          	addi	a0,a0,-285 # 1311b <end_signature+0xdb>
   10240:	5c1010ef          	jal	ra,12000 <FN_WriteStr>
   10244:	00003517          	auipc	a0,0x3
   10248:	edf50513          	addi	a0,a0,-289 # 13123 <end_signature+0xe3>
   1024c:	5b5010ef          	jal	ra,12000 <FN_WriteStr>
   10250:	00003517          	auipc	a0,0x3
   10254:	ed650513          	addi	a0,a0,-298 # 13126 <end_signature+0xe6>
   10258:	5a9010ef          	jal	ra,12000 <FN_WriteStr>
   1025c:	00003517          	auipc	a0,0x3
   10260:	ecd50513          	addi	a0,a0,-307 # 13129 <end_signature+0xe9>
   10264:	59d010ef          	jal	ra,12000 <FN_WriteStr>
   10268:	00003517          	auipc	a0,0x3
   1026c:	ec450513          	addi	a0,a0,-316 # 1312c <end_signature+0xec>
   10270:	591010ef          	jal	ra,12000 <FN_WriteStr>
   10274:	00000513          	li	a0,0
   10278:	5a5010ef          	jal	ra,1201c <FN_WriteA0>
   1027c:	00003517          	auipc	a0,0x3
   10280:	eb250513          	addi	a0,a0,-334 # 1312e <end_signature+0xee>
   10284:	57d010ef          	jal	ra,12000 <FN_WriteStr>
   10288:	00003517          	auipc	a0,0x3
   1028c:	eac50513          	addi	a0,a0,-340 # 13134 <end_signature+0xf4>
   10290:	571010ef          	jal	ra,12000 <FN_WriteStr>
   10294:	00003517          	auipc	a0,0x3
   10298:	eab50513          	addi	a0,a0,-341 # 1313f <end_signature+0xff>
   1029c:	565010ef          	jal	ra,12000 <FN_WriteStr>
   102a0:	06400193          	li	gp,100
   102a4:	0000100f          	fence.i
   102a8:	00018063          	beqz	gp,102a8 <reset_vector+0x25c>
   102ac:	00119193          	slli	gp,gp,0x1
   102b0:	0011e193          	ori	gp,gp,1
   102b4:	00000073          	ecall
   102b8:	fff00293          	li	t0,-1
   102bc:	08510e63          	beq	sp,t0,10358 <reset_vector+0x30c>
   102c0:	00003517          	auipc	a0,0x3
   102c4:	e8150513          	addi	a0,a0,-383 # 13141 <end_signature+0x101>
   102c8:	539010ef          	jal	ra,12000 <FN_WriteStr>
   102cc:	00003517          	auipc	a0,0x3
   102d0:	e9050513          	addi	a0,a0,-368 # 1315c <end_signature+0x11c>
   102d4:	52d010ef          	jal	ra,12000 <FN_WriteStr>
   102d8:	00003517          	auipc	a0,0x3
   102dc:	e9650513          	addi	a0,a0,-362 # 1316e <end_signature+0x12e>
   102e0:	521010ef          	jal	ra,12000 <FN_WriteStr>
   102e4:	00003517          	auipc	a0,0x3
   102e8:	e9250513          	addi	a0,a0,-366 # 13176 <end_signature+0x136>
   102ec:	515010ef          	jal	ra,12000 <FN_WriteStr>
   102f0:	00003517          	auipc	a0,0x3
   102f4:	e8950513          	addi	a0,a0,-375 # 13179 <end_signature+0x139>
   102f8:	509010ef          	jal	ra,12000 <FN_WriteStr>
   102fc:	00003517          	auipc	a0,0x3
   10300:	e8050513          	addi	a0,a0,-384 # 1317c <end_signature+0x13c>
   10304:	4fd010ef          	jal	ra,12000 <FN_WriteStr>
   10308:	00003517          	auipc	a0,0x3
   1030c:	e7750513          	addi	a0,a0,-393 # 1317f <end_signature+0x13f>
   10310:	4f1010ef          	jal	ra,12000 <FN_WriteStr>
   10314:	00010513          	mv	a0,sp
   10318:	505010ef          	jal	ra,1201c <FN_WriteA0>
   1031c:	00003517          	auipc	a0,0x3
   10320:	e6550513          	addi	a0,a0,-411 # 13181 <end_signature+0x141>
   10324:	4dd010ef          	jal	ra,12000 <FN_WriteStr>
   10328:	00003517          	auipc	a0,0x3
   1032c:	e5f50513          	addi	a0,a0,-417 # 13187 <end_signature+0x147>
   10330:	4d1010ef          	jal	ra,12000 <FN_WriteStr>
   10334:	00003517          	auipc	a0,0x3
   10338:	e5e50513          	addi	a0,a0,-418 # 13192 <end_signature+0x152>
   1033c:	4c5010ef          	jal	ra,12000 <FN_WriteStr>
   10340:	06400193          	li	gp,100
   10344:	0000100f          	fence.i
   10348:	00018063          	beqz	gp,10348 <reset_vector+0x2fc>
   1034c:	00119193          	slli	gp,gp,0x1
   10350:	0011e193          	ori	gp,gp,1
   10354:	00000073          	ecall
   10358:	fe000293          	li	t0,-32
   1035c:	08518e63          	beq	gp,t0,103f8 <reset_vector+0x3ac>
   10360:	00003517          	auipc	a0,0x3
   10364:	e3450513          	addi	a0,a0,-460 # 13194 <end_signature+0x154>
   10368:	499010ef          	jal	ra,12000 <FN_WriteStr>
   1036c:	00003517          	auipc	a0,0x3
   10370:	e4350513          	addi	a0,a0,-445 # 131af <end_signature+0x16f>
   10374:	48d010ef          	jal	ra,12000 <FN_WriteStr>
   10378:	00003517          	auipc	a0,0x3
   1037c:	e4950513          	addi	a0,a0,-439 # 131c1 <end_signature+0x181>
   10380:	481010ef          	jal	ra,12000 <FN_WriteStr>
   10384:	00003517          	auipc	a0,0x3
   10388:	e4550513          	addi	a0,a0,-443 # 131c9 <end_signature+0x189>
   1038c:	475010ef          	jal	ra,12000 <FN_WriteStr>
   10390:	00003517          	auipc	a0,0x3
   10394:	e3c50513          	addi	a0,a0,-452 # 131cc <end_signature+0x18c>
   10398:	469010ef          	jal	ra,12000 <FN_WriteStr>
   1039c:	00003517          	auipc	a0,0x3
   103a0:	e3350513          	addi	a0,a0,-461 # 131cf <end_signature+0x18f>
   103a4:	45d010ef          	jal	ra,12000 <FN_WriteStr>
   103a8:	00003517          	auipc	a0,0x3
   103ac:	e2a50513          	addi	a0,a0,-470 # 131d2 <end_signature+0x192>
   103b0:	451010ef          	jal	ra,12000 <FN_WriteStr>
   103b4:	00018513          	mv	a0,gp
   103b8:	465010ef          	jal	ra,1201c <FN_WriteA0>
   103bc:	00003517          	auipc	a0,0x3
   103c0:	e1850513          	addi	a0,a0,-488 # 131d4 <end_signature+0x194>
   103c4:	43d010ef          	jal	ra,12000 <FN_WriteStr>
   103c8:	00003517          	auipc	a0,0x3
   103cc:	e1250513          	addi	a0,a0,-494 # 131da <end_signature+0x19a>
   103d0:	431010ef          	jal	ra,12000 <FN_WriteStr>
   103d4:	00003517          	auipc	a0,0x3
   103d8:	e1150513          	addi	a0,a0,-495 # 131e5 <end_signature+0x1a5>
   103dc:	425010ef          	jal	ra,12000 <FN_WriteStr>
   103e0:	06400193          	li	gp,100
   103e4:	0000100f          	fence.i
   103e8:	00018063          	beqz	gp,103e8 <reset_vector+0x39c>
   103ec:	00119193          	slli	gp,gp,0x1
   103f0:	0011e193          	ori	gp,gp,1
   103f4:	00000073          	ecall
   103f8:	fef00293          	li	t0,-17
   103fc:	08520e63          	beq	tp,t0,10498 <reset_vector+0x44c>
   10400:	00003517          	auipc	a0,0x3
   10404:	de750513          	addi	a0,a0,-537 # 131e7 <end_signature+0x1a7>
   10408:	3f9010ef          	jal	ra,12000 <FN_WriteStr>
   1040c:	00003517          	auipc	a0,0x3
   10410:	df650513          	addi	a0,a0,-522 # 13202 <end_signature+0x1c2>
   10414:	3ed010ef          	jal	ra,12000 <FN_WriteStr>
   10418:	00003517          	auipc	a0,0x3
   1041c:	dfc50513          	addi	a0,a0,-516 # 13214 <end_signature+0x1d4>
   10420:	3e1010ef          	jal	ra,12000 <FN_WriteStr>
   10424:	00003517          	auipc	a0,0x3
   10428:	df850513          	addi	a0,a0,-520 # 1321c <end_signature+0x1dc>
   1042c:	3d5010ef          	jal	ra,12000 <FN_WriteStr>
   10430:	00003517          	auipc	a0,0x3
   10434:	def50513          	addi	a0,a0,-529 # 1321f <end_signature+0x1df>
   10438:	3c9010ef          	jal	ra,12000 <FN_WriteStr>
   1043c:	00003517          	auipc	a0,0x3
   10440:	de650513          	addi	a0,a0,-538 # 13222 <end_signature+0x1e2>
   10444:	3bd010ef          	jal	ra,12000 <FN_WriteStr>
   10448:	00003517          	auipc	a0,0x3
   1044c:	ddd50513          	addi	a0,a0,-547 # 13225 <end_signature+0x1e5>
   10450:	3b1010ef          	jal	ra,12000 <FN_WriteStr>
   10454:	00020513          	mv	a0,tp
   10458:	3c5010ef          	jal	ra,1201c <FN_WriteA0>
   1045c:	00003517          	auipc	a0,0x3
   10460:	dcb50513          	addi	a0,a0,-565 # 13227 <end_signature+0x1e7>
   10464:	39d010ef          	jal	ra,12000 <FN_WriteStr>
   10468:	00003517          	auipc	a0,0x3
   1046c:	dc550513          	addi	a0,a0,-571 # 1322d <end_signature+0x1ed>
   10470:	391010ef          	jal	ra,12000 <FN_WriteStr>
   10474:	00003517          	auipc	a0,0x3
   10478:	dc450513          	addi	a0,a0,-572 # 13238 <end_signature+0x1f8>
   1047c:	385010ef          	jal	ra,12000 <FN_WriteStr>
   10480:	06400193          	li	gp,100
   10484:	0000100f          	fence.i
   10488:	00018063          	beqz	gp,10488 <reset_vector+0x43c>
   1048c:	00119193          	slli	gp,gp,0x1
   10490:	0011e193          	ori	gp,gp,1
   10494:	00000073          	ecall
   10498:	00000293          	li	t0,0
   1049c:	08528e63          	beq	t0,t0,10538 <reset_vector+0x4ec>
   104a0:	00003517          	auipc	a0,0x3
   104a4:	d9a50513          	addi	a0,a0,-614 # 1323a <end_signature+0x1fa>
   104a8:	359010ef          	jal	ra,12000 <FN_WriteStr>
   104ac:	00003517          	auipc	a0,0x3
   104b0:	da950513          	addi	a0,a0,-599 # 13255 <end_signature+0x215>
   104b4:	34d010ef          	jal	ra,12000 <FN_WriteStr>
   104b8:	00003517          	auipc	a0,0x3
   104bc:	daf50513          	addi	a0,a0,-593 # 13267 <end_signature+0x227>
   104c0:	341010ef          	jal	ra,12000 <FN_WriteStr>
   104c4:	00003517          	auipc	a0,0x3
   104c8:	dab50513          	addi	a0,a0,-597 # 1326f <end_signature+0x22f>
   104cc:	335010ef          	jal	ra,12000 <FN_WriteStr>
   104d0:	00003517          	auipc	a0,0x3
   104d4:	da250513          	addi	a0,a0,-606 # 13272 <end_signature+0x232>
   104d8:	329010ef          	jal	ra,12000 <FN_WriteStr>
   104dc:	00003517          	auipc	a0,0x3
   104e0:	d9950513          	addi	a0,a0,-615 # 13275 <end_signature+0x235>
   104e4:	31d010ef          	jal	ra,12000 <FN_WriteStr>
   104e8:	00003517          	auipc	a0,0x3
   104ec:	d9050513          	addi	a0,a0,-624 # 13278 <end_signature+0x238>
   104f0:	311010ef          	jal	ra,12000 <FN_WriteStr>
   104f4:	00028513          	mv	a0,t0
   104f8:	325010ef          	jal	ra,1201c <FN_WriteA0>
   104fc:	00003517          	auipc	a0,0x3
   10500:	d7e50513          	addi	a0,a0,-642 # 1327a <end_signature+0x23a>
   10504:	2fd010ef          	jal	ra,12000 <FN_WriteStr>
   10508:	00003517          	auipc	a0,0x3
   1050c:	d7850513          	addi	a0,a0,-648 # 13280 <end_signature+0x240>
   10510:	2f1010ef          	jal	ra,12000 <FN_WriteStr>
   10514:	00003517          	auipc	a0,0x3
   10518:	d7750513          	addi	a0,a0,-649 # 1328b <end_signature+0x24b>
   1051c:	2e5010ef          	jal	ra,12000 <FN_WriteStr>
   10520:	06400193          	li	gp,100
   10524:	0000100f          	fence.i
   10528:	00018063          	beqz	gp,10528 <reset_vector+0x4dc>
   1052c:	00119193          	slli	gp,gp,0x1
   10530:	0011e193          	ori	gp,gp,1
   10534:	00000073          	ecall
   10538:	fff00293          	li	t0,-1
   1053c:	08540e63          	beq	s0,t0,105d8 <reset_vector+0x58c>
   10540:	00003517          	auipc	a0,0x3
   10544:	d4d50513          	addi	a0,a0,-691 # 1328d <end_signature+0x24d>
   10548:	2b9010ef          	jal	ra,12000 <FN_WriteStr>
   1054c:	00003517          	auipc	a0,0x3
   10550:	d5c50513          	addi	a0,a0,-676 # 132a8 <end_signature+0x268>
   10554:	2ad010ef          	jal	ra,12000 <FN_WriteStr>
   10558:	00003517          	auipc	a0,0x3
   1055c:	d6250513          	addi	a0,a0,-670 # 132ba <end_signature+0x27a>
   10560:	2a1010ef          	jal	ra,12000 <FN_WriteStr>
   10564:	00003517          	auipc	a0,0x3
   10568:	d5e50513          	addi	a0,a0,-674 # 132c2 <end_signature+0x282>
   1056c:	295010ef          	jal	ra,12000 <FN_WriteStr>
   10570:	00003517          	auipc	a0,0x3
   10574:	d5550513          	addi	a0,a0,-683 # 132c5 <end_signature+0x285>
   10578:	289010ef          	jal	ra,12000 <FN_WriteStr>
   1057c:	00003517          	auipc	a0,0x3
   10580:	d4c50513          	addi	a0,a0,-692 # 132c8 <end_signature+0x288>
   10584:	27d010ef          	jal	ra,12000 <FN_WriteStr>
   10588:	00003517          	auipc	a0,0x3
   1058c:	d4350513          	addi	a0,a0,-701 # 132cb <end_signature+0x28b>
   10590:	271010ef          	jal	ra,12000 <FN_WriteStr>
   10594:	00040513          	mv	a0,s0
   10598:	285010ef          	jal	ra,1201c <FN_WriteA0>
   1059c:	00003517          	auipc	a0,0x3
   105a0:	d3150513          	addi	a0,a0,-719 # 132cd <end_signature+0x28d>
   105a4:	25d010ef          	jal	ra,12000 <FN_WriteStr>
   105a8:	00003517          	auipc	a0,0x3
   105ac:	d2b50513          	addi	a0,a0,-725 # 132d3 <end_signature+0x293>
   105b0:	251010ef          	jal	ra,12000 <FN_WriteStr>
   105b4:	00003517          	auipc	a0,0x3
   105b8:	d2a50513          	addi	a0,a0,-726 # 132de <end_signature+0x29e>
   105bc:	245010ef          	jal	ra,12000 <FN_WriteStr>
   105c0:	06400193          	li	gp,100
   105c4:	0000100f          	fence.i
   105c8:	00018063          	beqz	gp,105c8 <reset_vector+0x57c>
   105cc:	00119193          	slli	gp,gp,0x1
   105d0:	0011e193          	ori	gp,gp,1
   105d4:	00000073          	ecall
   105d8:	00003517          	auipc	a0,0x3
   105dc:	d0850513          	addi	a0,a0,-760 # 132e0 <end_signature+0x2a0>
   105e0:	221010ef          	jal	ra,12000 <FN_WriteStr>
   105e4:	00003517          	auipc	a0,0x3
   105e8:	d1850513          	addi	a0,a0,-744 # 132fc <end_signature+0x2bc>
   105ec:	215010ef          	jal	ra,12000 <FN_WriteStr>
   105f0:	00003297          	auipc	t0,0x3
   105f4:	a2c28293          	addi	t0,t0,-1492 # 1301c <test_A2_res>
   105f8:	fff00413          	li	s0,-1
   105fc:	34041073          	csrw	mscratch,s0
   10600:	3400f5f3          	csrrci	a1,mscratch,1
   10604:	34007673          	csrrci	a2,mscratch,0
   10608:	340ff6f3          	csrrci	a3,mscratch,31
   1060c:	34087773          	csrrci	a4,mscratch,16
   10610:	3407f7f3          	csrrci	a5,mscratch,15
   10614:	34007873          	csrrci	a6,mscratch,0
   10618:	00b2a023          	sw	a1,0(t0)
   1061c:	00c2a223          	sw	a2,4(t0)
   10620:	00d2a423          	sw	a3,8(t0)
   10624:	00e2a623          	sw	a4,12(t0)
   10628:	00f2a823          	sw	a5,16(t0)
   1062c:	0102aa23          	sw	a6,20(t0)
   10630:	0082ac23          	sw	s0,24(t0)
   10634:	fff00293          	li	t0,-1
   10638:	08558e63          	beq	a1,t0,106d4 <reset_vector+0x688>
   1063c:	00003517          	auipc	a0,0x3
   10640:	ce950513          	addi	a0,a0,-791 # 13325 <end_signature+0x2e5>
   10644:	1bd010ef          	jal	ra,12000 <FN_WriteStr>
   10648:	00003517          	auipc	a0,0x3
   1064c:	cf850513          	addi	a0,a0,-776 # 13340 <end_signature+0x300>
   10650:	1b1010ef          	jal	ra,12000 <FN_WriteStr>
   10654:	00003517          	auipc	a0,0x3
   10658:	cfe50513          	addi	a0,a0,-770 # 13352 <end_signature+0x312>
   1065c:	1a5010ef          	jal	ra,12000 <FN_WriteStr>
   10660:	00003517          	auipc	a0,0x3
   10664:	cfa50513          	addi	a0,a0,-774 # 1335a <end_signature+0x31a>
   10668:	199010ef          	jal	ra,12000 <FN_WriteStr>
   1066c:	00003517          	auipc	a0,0x3
   10670:	cf250513          	addi	a0,a0,-782 # 1335e <end_signature+0x31e>
   10674:	18d010ef          	jal	ra,12000 <FN_WriteStr>
   10678:	00003517          	auipc	a0,0x3
   1067c:	ce950513          	addi	a0,a0,-791 # 13361 <end_signature+0x321>
   10680:	181010ef          	jal	ra,12000 <FN_WriteStr>
   10684:	00003517          	auipc	a0,0x3
   10688:	ce150513          	addi	a0,a0,-799 # 13365 <end_signature+0x325>
   1068c:	175010ef          	jal	ra,12000 <FN_WriteStr>
   10690:	00058513          	mv	a0,a1
   10694:	189010ef          	jal	ra,1201c <FN_WriteA0>
   10698:	00003517          	auipc	a0,0x3
   1069c:	ccf50513          	addi	a0,a0,-817 # 13367 <end_signature+0x327>
   106a0:	161010ef          	jal	ra,12000 <FN_WriteStr>
   106a4:	00003517          	auipc	a0,0x3
   106a8:	cc950513          	addi	a0,a0,-823 # 1336d <end_signature+0x32d>
   106ac:	155010ef          	jal	ra,12000 <FN_WriteStr>
   106b0:	00003517          	auipc	a0,0x3
   106b4:	cc850513          	addi	a0,a0,-824 # 13378 <end_signature+0x338>
   106b8:	149010ef          	jal	ra,12000 <FN_WriteStr>
   106bc:	06400193          	li	gp,100
   106c0:	0000100f          	fence.i
   106c4:	00018063          	beqz	gp,106c4 <reset_vector+0x678>
   106c8:	00119193          	slli	gp,gp,0x1
   106cc:	0011e193          	ori	gp,gp,1
   106d0:	00000073          	ecall
   106d4:	ffe00293          	li	t0,-2
   106d8:	08560e63          	beq	a2,t0,10774 <reset_vector+0x728>
   106dc:	00003517          	auipc	a0,0x3
   106e0:	c9e50513          	addi	a0,a0,-866 # 1337a <end_signature+0x33a>
   106e4:	11d010ef          	jal	ra,12000 <FN_WriteStr>
   106e8:	00003517          	auipc	a0,0x3
   106ec:	cad50513          	addi	a0,a0,-851 # 13395 <end_signature+0x355>
   106f0:	111010ef          	jal	ra,12000 <FN_WriteStr>
   106f4:	00003517          	auipc	a0,0x3
   106f8:	cb350513          	addi	a0,a0,-845 # 133a7 <end_signature+0x367>
   106fc:	105010ef          	jal	ra,12000 <FN_WriteStr>
   10700:	00003517          	auipc	a0,0x3
   10704:	caf50513          	addi	a0,a0,-849 # 133af <end_signature+0x36f>
   10708:	0f9010ef          	jal	ra,12000 <FN_WriteStr>
   1070c:	00003517          	auipc	a0,0x3
   10710:	ca750513          	addi	a0,a0,-857 # 133b3 <end_signature+0x373>
   10714:	0ed010ef          	jal	ra,12000 <FN_WriteStr>
   10718:	00003517          	auipc	a0,0x3
   1071c:	c9e50513          	addi	a0,a0,-866 # 133b6 <end_signature+0x376>
   10720:	0e1010ef          	jal	ra,12000 <FN_WriteStr>
   10724:	00003517          	auipc	a0,0x3
   10728:	c9650513          	addi	a0,a0,-874 # 133ba <end_signature+0x37a>
   1072c:	0d5010ef          	jal	ra,12000 <FN_WriteStr>
   10730:	00060513          	mv	a0,a2
   10734:	0e9010ef          	jal	ra,1201c <FN_WriteA0>
   10738:	00003517          	auipc	a0,0x3
   1073c:	c8450513          	addi	a0,a0,-892 # 133bc <end_signature+0x37c>
   10740:	0c1010ef          	jal	ra,12000 <FN_WriteStr>
   10744:	00003517          	auipc	a0,0x3
   10748:	c7e50513          	addi	a0,a0,-898 # 133c2 <end_signature+0x382>
   1074c:	0b5010ef          	jal	ra,12000 <FN_WriteStr>
   10750:	00003517          	auipc	a0,0x3
   10754:	c7d50513          	addi	a0,a0,-899 # 133cd <end_signature+0x38d>
   10758:	0a9010ef          	jal	ra,12000 <FN_WriteStr>
   1075c:	06400193          	li	gp,100
   10760:	0000100f          	fence.i
   10764:	00018063          	beqz	gp,10764 <reset_vector+0x718>
   10768:	00119193          	slli	gp,gp,0x1
   1076c:	0011e193          	ori	gp,gp,1
   10770:	00000073          	ecall
   10774:	ffe00293          	li	t0,-2
   10778:	08568e63          	beq	a3,t0,10814 <reset_vector+0x7c8>
   1077c:	00003517          	auipc	a0,0x3
   10780:	c5350513          	addi	a0,a0,-941 # 133cf <end_signature+0x38f>
   10784:	07d010ef          	jal	ra,12000 <FN_WriteStr>
   10788:	00003517          	auipc	a0,0x3
   1078c:	c6250513          	addi	a0,a0,-926 # 133ea <end_signature+0x3aa>
   10790:	071010ef          	jal	ra,12000 <FN_WriteStr>
   10794:	00003517          	auipc	a0,0x3
   10798:	c6850513          	addi	a0,a0,-920 # 133fc <end_signature+0x3bc>
   1079c:	065010ef          	jal	ra,12000 <FN_WriteStr>
   107a0:	00003517          	auipc	a0,0x3
   107a4:	c6450513          	addi	a0,a0,-924 # 13404 <end_signature+0x3c4>
   107a8:	059010ef          	jal	ra,12000 <FN_WriteStr>
   107ac:	00003517          	auipc	a0,0x3
   107b0:	c5c50513          	addi	a0,a0,-932 # 13408 <end_signature+0x3c8>
   107b4:	04d010ef          	jal	ra,12000 <FN_WriteStr>
   107b8:	00003517          	auipc	a0,0x3
   107bc:	c5350513          	addi	a0,a0,-941 # 1340b <end_signature+0x3cb>
   107c0:	041010ef          	jal	ra,12000 <FN_WriteStr>
   107c4:	00003517          	auipc	a0,0x3
   107c8:	c4b50513          	addi	a0,a0,-949 # 1340f <end_signature+0x3cf>
   107cc:	035010ef          	jal	ra,12000 <FN_WriteStr>
   107d0:	00068513          	mv	a0,a3
   107d4:	049010ef          	jal	ra,1201c <FN_WriteA0>
   107d8:	00003517          	auipc	a0,0x3
   107dc:	c3950513          	addi	a0,a0,-967 # 13411 <end_signature+0x3d1>
   107e0:	021010ef          	jal	ra,12000 <FN_WriteStr>
   107e4:	00003517          	auipc	a0,0x3
   107e8:	c3350513          	addi	a0,a0,-973 # 13417 <end_signature+0x3d7>
   107ec:	015010ef          	jal	ra,12000 <FN_WriteStr>
   107f0:	00003517          	auipc	a0,0x3
   107f4:	c3250513          	addi	a0,a0,-974 # 13422 <end_signature+0x3e2>
   107f8:	009010ef          	jal	ra,12000 <FN_WriteStr>
   107fc:	06400193          	li	gp,100
   10800:	0000100f          	fence.i
   10804:	00018063          	beqz	gp,10804 <reset_vector+0x7b8>
   10808:	00119193          	slli	gp,gp,0x1
   1080c:	0011e193          	ori	gp,gp,1
   10810:	00000073          	ecall
   10814:	fe000293          	li	t0,-32
   10818:	08570e63          	beq	a4,t0,108b4 <reset_vector+0x868>
   1081c:	00003517          	auipc	a0,0x3
   10820:	c0850513          	addi	a0,a0,-1016 # 13424 <end_signature+0x3e4>
   10824:	7dc010ef          	jal	ra,12000 <FN_WriteStr>
   10828:	00003517          	auipc	a0,0x3
   1082c:	c1750513          	addi	a0,a0,-1001 # 1343f <end_signature+0x3ff>
   10830:	7d0010ef          	jal	ra,12000 <FN_WriteStr>
   10834:	00003517          	auipc	a0,0x3
   10838:	c1d50513          	addi	a0,a0,-995 # 13451 <end_signature+0x411>
   1083c:	7c4010ef          	jal	ra,12000 <FN_WriteStr>
   10840:	00003517          	auipc	a0,0x3
   10844:	c1950513          	addi	a0,a0,-999 # 13459 <end_signature+0x419>
   10848:	7b8010ef          	jal	ra,12000 <FN_WriteStr>
   1084c:	00003517          	auipc	a0,0x3
   10850:	c1150513          	addi	a0,a0,-1007 # 1345d <end_signature+0x41d>
   10854:	7ac010ef          	jal	ra,12000 <FN_WriteStr>
   10858:	00003517          	auipc	a0,0x3
   1085c:	c0850513          	addi	a0,a0,-1016 # 13460 <end_signature+0x420>
   10860:	7a0010ef          	jal	ra,12000 <FN_WriteStr>
   10864:	00003517          	auipc	a0,0x3
   10868:	c0050513          	addi	a0,a0,-1024 # 13464 <end_signature+0x424>
   1086c:	794010ef          	jal	ra,12000 <FN_WriteStr>
   10870:	00070513          	mv	a0,a4
   10874:	7a8010ef          	jal	ra,1201c <FN_WriteA0>
   10878:	00003517          	auipc	a0,0x3
   1087c:	bee50513          	addi	a0,a0,-1042 # 13466 <end_signature+0x426>
   10880:	780010ef          	jal	ra,12000 <FN_WriteStr>
   10884:	00003517          	auipc	a0,0x3
   10888:	be850513          	addi	a0,a0,-1048 # 1346c <end_signature+0x42c>
   1088c:	774010ef          	jal	ra,12000 <FN_WriteStr>
   10890:	00003517          	auipc	a0,0x3
   10894:	be750513          	addi	a0,a0,-1049 # 13477 <end_signature+0x437>
   10898:	768010ef          	jal	ra,12000 <FN_WriteStr>
   1089c:	06400193          	li	gp,100
   108a0:	0000100f          	fence.i
   108a4:	00018063          	beqz	gp,108a4 <reset_vector+0x858>
   108a8:	00119193          	slli	gp,gp,0x1
   108ac:	0011e193          	ori	gp,gp,1
   108b0:	00000073          	ecall
   108b4:	fe000293          	li	t0,-32
   108b8:	08578e63          	beq	a5,t0,10954 <reset_vector+0x908>
   108bc:	00003517          	auipc	a0,0x3
   108c0:	bbd50513          	addi	a0,a0,-1091 # 13479 <end_signature+0x439>
   108c4:	73c010ef          	jal	ra,12000 <FN_WriteStr>
   108c8:	00003517          	auipc	a0,0x3
   108cc:	bcc50513          	addi	a0,a0,-1076 # 13494 <end_signature+0x454>
   108d0:	730010ef          	jal	ra,12000 <FN_WriteStr>
   108d4:	00003517          	auipc	a0,0x3
   108d8:	bd250513          	addi	a0,a0,-1070 # 134a6 <end_signature+0x466>
   108dc:	724010ef          	jal	ra,12000 <FN_WriteStr>
   108e0:	00003517          	auipc	a0,0x3
   108e4:	bce50513          	addi	a0,a0,-1074 # 134ae <end_signature+0x46e>
   108e8:	718010ef          	jal	ra,12000 <FN_WriteStr>
   108ec:	00003517          	auipc	a0,0x3
   108f0:	bc650513          	addi	a0,a0,-1082 # 134b2 <end_signature+0x472>
   108f4:	70c010ef          	jal	ra,12000 <FN_WriteStr>
   108f8:	00003517          	auipc	a0,0x3
   108fc:	bbd50513          	addi	a0,a0,-1091 # 134b5 <end_signature+0x475>
   10900:	700010ef          	jal	ra,12000 <FN_WriteStr>
   10904:	00003517          	auipc	a0,0x3
   10908:	bb550513          	addi	a0,a0,-1099 # 134b9 <end_signature+0x479>
   1090c:	6f4010ef          	jal	ra,12000 <FN_WriteStr>
   10910:	00078513          	mv	a0,a5
   10914:	708010ef          	jal	ra,1201c <FN_WriteA0>
   10918:	00003517          	auipc	a0,0x3
   1091c:	ba350513          	addi	a0,a0,-1117 # 134bb <end_signature+0x47b>
   10920:	6e0010ef          	jal	ra,12000 <FN_WriteStr>
   10924:	00003517          	auipc	a0,0x3
   10928:	b9d50513          	addi	a0,a0,-1123 # 134c1 <end_signature+0x481>
   1092c:	6d4010ef          	jal	ra,12000 <FN_WriteStr>
   10930:	00003517          	auipc	a0,0x3
   10934:	b9c50513          	addi	a0,a0,-1124 # 134cc <end_signature+0x48c>
   10938:	6c8010ef          	jal	ra,12000 <FN_WriteStr>
   1093c:	06400193          	li	gp,100
   10940:	0000100f          	fence.i
   10944:	00018063          	beqz	gp,10944 <reset_vector+0x8f8>
   10948:	00119193          	slli	gp,gp,0x1
   1094c:	0011e193          	ori	gp,gp,1
   10950:	00000073          	ecall
   10954:	fe000293          	li	t0,-32
   10958:	08580e63          	beq	a6,t0,109f4 <reset_vector+0x9a8>
   1095c:	00003517          	auipc	a0,0x3
   10960:	b7250513          	addi	a0,a0,-1166 # 134ce <end_signature+0x48e>
   10964:	69c010ef          	jal	ra,12000 <FN_WriteStr>
   10968:	00003517          	auipc	a0,0x3
   1096c:	b8150513          	addi	a0,a0,-1151 # 134e9 <end_signature+0x4a9>
   10970:	690010ef          	jal	ra,12000 <FN_WriteStr>
   10974:	00003517          	auipc	a0,0x3
   10978:	b8750513          	addi	a0,a0,-1145 # 134fb <end_signature+0x4bb>
   1097c:	684010ef          	jal	ra,12000 <FN_WriteStr>
   10980:	00003517          	auipc	a0,0x3
   10984:	b8350513          	addi	a0,a0,-1149 # 13503 <end_signature+0x4c3>
   10988:	678010ef          	jal	ra,12000 <FN_WriteStr>
   1098c:	00003517          	auipc	a0,0x3
   10990:	b7b50513          	addi	a0,a0,-1157 # 13507 <end_signature+0x4c7>
   10994:	66c010ef          	jal	ra,12000 <FN_WriteStr>
   10998:	00003517          	auipc	a0,0x3
   1099c:	b7250513          	addi	a0,a0,-1166 # 1350a <end_signature+0x4ca>
   109a0:	660010ef          	jal	ra,12000 <FN_WriteStr>
   109a4:	00003517          	auipc	a0,0x3
   109a8:	b6a50513          	addi	a0,a0,-1174 # 1350e <end_signature+0x4ce>
   109ac:	654010ef          	jal	ra,12000 <FN_WriteStr>
   109b0:	00080513          	mv	a0,a6
   109b4:	668010ef          	jal	ra,1201c <FN_WriteA0>
   109b8:	00003517          	auipc	a0,0x3
   109bc:	b5850513          	addi	a0,a0,-1192 # 13510 <end_signature+0x4d0>
   109c0:	640010ef          	jal	ra,12000 <FN_WriteStr>
   109c4:	00003517          	auipc	a0,0x3
   109c8:	b5250513          	addi	a0,a0,-1198 # 13516 <end_signature+0x4d6>
   109cc:	634010ef          	jal	ra,12000 <FN_WriteStr>
   109d0:	00003517          	auipc	a0,0x3
   109d4:	b5150513          	addi	a0,a0,-1199 # 13521 <end_signature+0x4e1>
   109d8:	628010ef          	jal	ra,12000 <FN_WriteStr>
   109dc:	06400193          	li	gp,100
   109e0:	0000100f          	fence.i
   109e4:	00018063          	beqz	gp,109e4 <reset_vector+0x998>
   109e8:	00119193          	slli	gp,gp,0x1
   109ec:	0011e193          	ori	gp,gp,1
   109f0:	00000073          	ecall
   109f4:	fff00293          	li	t0,-1
   109f8:	08540e63          	beq	s0,t0,10a94 <reset_vector+0xa48>
   109fc:	00003517          	auipc	a0,0x3
   10a00:	b2750513          	addi	a0,a0,-1241 # 13523 <end_signature+0x4e3>
   10a04:	5fc010ef          	jal	ra,12000 <FN_WriteStr>
   10a08:	00003517          	auipc	a0,0x3
   10a0c:	b3650513          	addi	a0,a0,-1226 # 1353e <end_signature+0x4fe>
   10a10:	5f0010ef          	jal	ra,12000 <FN_WriteStr>
   10a14:	00003517          	auipc	a0,0x3
   10a18:	b3c50513          	addi	a0,a0,-1220 # 13550 <end_signature+0x510>
   10a1c:	5e4010ef          	jal	ra,12000 <FN_WriteStr>
   10a20:	00003517          	auipc	a0,0x3
   10a24:	b3850513          	addi	a0,a0,-1224 # 13558 <end_signature+0x518>
   10a28:	5d8010ef          	jal	ra,12000 <FN_WriteStr>
   10a2c:	00003517          	auipc	a0,0x3
   10a30:	b3050513          	addi	a0,a0,-1232 # 1355c <end_signature+0x51c>
   10a34:	5cc010ef          	jal	ra,12000 <FN_WriteStr>
   10a38:	00003517          	auipc	a0,0x3
   10a3c:	b2750513          	addi	a0,a0,-1241 # 1355f <end_signature+0x51f>
   10a40:	5c0010ef          	jal	ra,12000 <FN_WriteStr>
   10a44:	00003517          	auipc	a0,0x3
   10a48:	b1e50513          	addi	a0,a0,-1250 # 13562 <end_signature+0x522>
   10a4c:	5b4010ef          	jal	ra,12000 <FN_WriteStr>
   10a50:	00040513          	mv	a0,s0
   10a54:	5c8010ef          	jal	ra,1201c <FN_WriteA0>
   10a58:	00003517          	auipc	a0,0x3
   10a5c:	b0c50513          	addi	a0,a0,-1268 # 13564 <end_signature+0x524>
   10a60:	5a0010ef          	jal	ra,12000 <FN_WriteStr>
   10a64:	00003517          	auipc	a0,0x3
   10a68:	b0650513          	addi	a0,a0,-1274 # 1356a <end_signature+0x52a>
   10a6c:	594010ef          	jal	ra,12000 <FN_WriteStr>
   10a70:	00003517          	auipc	a0,0x3
   10a74:	b0550513          	addi	a0,a0,-1275 # 13575 <end_signature+0x535>
   10a78:	588010ef          	jal	ra,12000 <FN_WriteStr>
   10a7c:	06400193          	li	gp,100
   10a80:	0000100f          	fence.i
   10a84:	00018063          	beqz	gp,10a84 <reset_vector+0xa38>
   10a88:	00119193          	slli	gp,gp,0x1
   10a8c:	0011e193          	ori	gp,gp,1
   10a90:	00000073          	ecall
   10a94:	00003517          	auipc	a0,0x3
   10a98:	ae350513          	addi	a0,a0,-1309 # 13577 <end_signature+0x537>
   10a9c:	564010ef          	jal	ra,12000 <FN_WriteStr>
   10aa0:	00003517          	auipc	a0,0x3
   10aa4:	af350513          	addi	a0,a0,-1293 # 13593 <end_signature+0x553>
   10aa8:	558010ef          	jal	ra,12000 <FN_WriteStr>
   10aac:	00002097          	auipc	ra,0x2
   10ab0:	58c08093          	addi	ra,ra,1420 # 13038 <test_B_res>
   10ab4:	32165a37          	lui	s4,0x32165
   10ab8:	498a0a13          	addi	s4,s4,1176 # 32165498 <_end+0x32151e0d>
   10abc:	340a1073          	csrw	mscratch,s4
   10ac0:	3407f073          	csrci	mscratch,15
   10ac4:	340a1a73          	csrrw	s4,mscratch,s4
   10ac8:	0000a023          	sw	zero,0(ra)
   10acc:	0140a223          	sw	s4,4(ra)
   10ad0:	00000293          	li	t0,0
   10ad4:	08500e63          	beq	zero,t0,10b70 <reset_vector+0xb24>
   10ad8:	00003517          	auipc	a0,0x3
   10adc:	ae250513          	addi	a0,a0,-1310 # 135ba <end_signature+0x57a>
   10ae0:	520010ef          	jal	ra,12000 <FN_WriteStr>
   10ae4:	00003517          	auipc	a0,0x3
   10ae8:	af150513          	addi	a0,a0,-1295 # 135d5 <end_signature+0x595>
   10aec:	514010ef          	jal	ra,12000 <FN_WriteStr>
   10af0:	00003517          	auipc	a0,0x3
   10af4:	af750513          	addi	a0,a0,-1289 # 135e7 <end_signature+0x5a7>
   10af8:	508010ef          	jal	ra,12000 <FN_WriteStr>
   10afc:	00003517          	auipc	a0,0x3
   10b00:	af350513          	addi	a0,a0,-1293 # 135ef <end_signature+0x5af>
   10b04:	4fc010ef          	jal	ra,12000 <FN_WriteStr>
   10b08:	00003517          	auipc	a0,0x3
   10b0c:	aeb50513          	addi	a0,a0,-1301 # 135f3 <end_signature+0x5b3>
   10b10:	4f0010ef          	jal	ra,12000 <FN_WriteStr>
   10b14:	00003517          	auipc	a0,0x3
   10b18:	ae250513          	addi	a0,a0,-1310 # 135f6 <end_signature+0x5b6>
   10b1c:	4e4010ef          	jal	ra,12000 <FN_WriteStr>
   10b20:	00003517          	auipc	a0,0x3
   10b24:	ad950513          	addi	a0,a0,-1319 # 135f9 <end_signature+0x5b9>
   10b28:	4d8010ef          	jal	ra,12000 <FN_WriteStr>
   10b2c:	00000513          	li	a0,0
   10b30:	4ec010ef          	jal	ra,1201c <FN_WriteA0>
   10b34:	00003517          	auipc	a0,0x3
   10b38:	ac750513          	addi	a0,a0,-1337 # 135fb <end_signature+0x5bb>
   10b3c:	4c4010ef          	jal	ra,12000 <FN_WriteStr>
   10b40:	00003517          	auipc	a0,0x3
   10b44:	ac150513          	addi	a0,a0,-1343 # 13601 <end_signature+0x5c1>
   10b48:	4b8010ef          	jal	ra,12000 <FN_WriteStr>
   10b4c:	00003517          	auipc	a0,0x3
   10b50:	ac050513          	addi	a0,a0,-1344 # 1360c <end_signature+0x5cc>
   10b54:	4ac010ef          	jal	ra,12000 <FN_WriteStr>
   10b58:	06400193          	li	gp,100
   10b5c:	0000100f          	fence.i
   10b60:	00018063          	beqz	gp,10b60 <reset_vector+0xb14>
   10b64:	00119193          	slli	gp,gp,0x1
   10b68:	0011e193          	ori	gp,gp,1
   10b6c:	00000073          	ecall
   10b70:	321652b7          	lui	t0,0x32165
   10b74:	49028293          	addi	t0,t0,1168 # 32165490 <_end+0x32151e05>
   10b78:	085a0e63          	beq	s4,t0,10c14 <reset_vector+0xbc8>
   10b7c:	00003517          	auipc	a0,0x3
   10b80:	a9250513          	addi	a0,a0,-1390 # 1360e <end_signature+0x5ce>
   10b84:	47c010ef          	jal	ra,12000 <FN_WriteStr>
   10b88:	00003517          	auipc	a0,0x3
   10b8c:	aa150513          	addi	a0,a0,-1375 # 13629 <end_signature+0x5e9>
   10b90:	470010ef          	jal	ra,12000 <FN_WriteStr>
   10b94:	00003517          	auipc	a0,0x3
   10b98:	aa750513          	addi	a0,a0,-1369 # 1363b <end_signature+0x5fb>
   10b9c:	464010ef          	jal	ra,12000 <FN_WriteStr>
   10ba0:	00003517          	auipc	a0,0x3
   10ba4:	aa350513          	addi	a0,a0,-1373 # 13643 <end_signature+0x603>
   10ba8:	458010ef          	jal	ra,12000 <FN_WriteStr>
   10bac:	00003517          	auipc	a0,0x3
   10bb0:	a9b50513          	addi	a0,a0,-1381 # 13647 <end_signature+0x607>
   10bb4:	44c010ef          	jal	ra,12000 <FN_WriteStr>
   10bb8:	00003517          	auipc	a0,0x3
   10bbc:	a9250513          	addi	a0,a0,-1390 # 1364a <end_signature+0x60a>
   10bc0:	440010ef          	jal	ra,12000 <FN_WriteStr>
   10bc4:	00003517          	auipc	a0,0x3
   10bc8:	a8a50513          	addi	a0,a0,-1398 # 1364e <end_signature+0x60e>
   10bcc:	434010ef          	jal	ra,12000 <FN_WriteStr>
   10bd0:	000a0513          	mv	a0,s4
   10bd4:	448010ef          	jal	ra,1201c <FN_WriteA0>
   10bd8:	00003517          	auipc	a0,0x3
   10bdc:	a7850513          	addi	a0,a0,-1416 # 13650 <end_signature+0x610>
   10be0:	420010ef          	jal	ra,12000 <FN_WriteStr>
   10be4:	00003517          	auipc	a0,0x3
   10be8:	a7250513          	addi	a0,a0,-1422 # 13656 <end_signature+0x616>
   10bec:	414010ef          	jal	ra,12000 <FN_WriteStr>
   10bf0:	00003517          	auipc	a0,0x3
   10bf4:	a7150513          	addi	a0,a0,-1423 # 13661 <end_signature+0x621>
   10bf8:	408010ef          	jal	ra,12000 <FN_WriteStr>
   10bfc:	06400193          	li	gp,100
   10c00:	0000100f          	fence.i
   10c04:	00018063          	beqz	gp,10c04 <reset_vector+0xbb8>
   10c08:	00119193          	slli	gp,gp,0x1
   10c0c:	0011e193          	ori	gp,gp,1
   10c10:	00000073          	ecall
   10c14:	00003517          	auipc	a0,0x3
   10c18:	a4f50513          	addi	a0,a0,-1457 # 13663 <end_signature+0x623>
   10c1c:	3e4010ef          	jal	ra,12000 <FN_WriteStr>
   10c20:	00003517          	auipc	a0,0x3
   10c24:	a5f50513          	addi	a0,a0,-1441 # 1367f <end_signature+0x63f>
   10c28:	3d8010ef          	jal	ra,12000 <FN_WriteStr>
   10c2c:	0000100f          	fence.i
   10c30:	00100193          	li	gp,1
   10c34:	00000073          	ecall
   10c38:	c0001073          	unimp
	...

Disassembly of section .tohost:

00011000 <tohost>:
	...

00011100 <fromhost>:
	...

Disassembly of section .text:

00012000 <FN_WriteStr>:
   12000:	00050293          	mv	t0,a0
   12004:	0002c503          	lbu	a0,0(t0)
   12008:	00128293          	addi	t0,t0,1
   1200c:	00050663          	beqz	a0,12018 <FN_WriteStr+0x18>
   12010:	0005200b          	0x5200b
   12014:	ff1ff06f          	j	12004 <FN_WriteStr+0x4>
   12018:	00008067          	ret

0001201c <FN_WriteA0>:
   1201c:	00050293          	mv	t0,a0
   12020:	fff00513          	li	a0,-1
   12024:	01f55513          	srli	a0,a0,0x1f
   12028:	00155513          	srli	a0,a0,0x1
   1202c:	02051463          	bnez	a0,12054 <FN_WriteA0_64>

00012030 <FN_WriteA0_32>:
   12030:	00800313          	li	t1,8
   12034:	00439393          	slli	t2,t2,0x4
   12038:	00f2f513          	andi	a0,t0,15
   1203c:	0042d293          	srli	t0,t0,0x4
   12040:	00a3e3b3          	or	t2,t2,a0
   12044:	fff30313          	addi	t1,t1,-1
   12048:	fe0316e3          	bnez	t1,12034 <FN_WriteA0_32+0x4>
   1204c:	00800313          	li	t1,8
   12050:	0240006f          	j	12074 <FN_WriteA0_common>

00012054 <FN_WriteA0_64>:
   12054:	01000313          	li	t1,16
   12058:	00439393          	slli	t2,t2,0x4
   1205c:	00f2f513          	andi	a0,t0,15
   12060:	0042d293          	srli	t0,t0,0x4
   12064:	00a3e3b3          	or	t2,t2,a0
   12068:	fff30313          	addi	t1,t1,-1
   1206c:	fe0316e3          	bnez	t1,12058 <FN_WriteA0_64+0x4>
   12070:	01000313          	li	t1,16

00012074 <FN_WriteA0_common>:
   12074:	00a00293          	li	t0,10
   12078:	00f3f513          	andi	a0,t2,15
   1207c:	00554663          	blt	a0,t0,12088 <FN_WriteA0_common+0x14>
   12080:	05750513          	addi	a0,a0,87
   12084:	0080006f          	j	1208c <FN_WriteA0_common+0x18>
   12088:	03050513          	addi	a0,a0,48
   1208c:	0005200b          	0x5200b
   12090:	0043d393          	srli	t2,t2,0x4
   12094:	fff30313          	addi	t1,t1,-1
   12098:	fe0310e3          	bnez	t1,12078 <FN_WriteA0_common+0x4>
   1209c:	00008067          	ret

Disassembly of section .data:

00013000 <begin_signature>:
   13000:	ffff                	0xffff
   13002:	ffff                	0xffff
   13004:	ffff                	0xffff
   13006:	ffff                	0xffff
   13008:	ffff                	0xffff
   1300a:	ffff                	0xffff
   1300c:	ffff                	0xffff
   1300e:	ffff                	0xffff
   13010:	ffff                	0xffff
   13012:	ffff                	0xffff
   13014:	ffff                	0xffff
   13016:	ffff                	0xffff
   13018:	ffff                	0xffff
   1301a:	ffff                	0xffff

0001301c <test_A2_res>:
   1301c:	ffff                	0xffff
   1301e:	ffff                	0xffff
   13020:	ffff                	0xffff
   13022:	ffff                	0xffff
   13024:	ffff                	0xffff
   13026:	ffff                	0xffff
   13028:	ffff                	0xffff
   1302a:	ffff                	0xffff
   1302c:	ffff                	0xffff
   1302e:	ffff                	0xffff
   13030:	ffff                	0xffff
   13032:	ffff                	0xffff
   13034:	ffff                	0xffff
   13036:	ffff                	0xffff

00013038 <test_B_res>:
   13038:	ffff                	0xffff
   1303a:	ffff                	0xffff
   1303c:	ffff                	0xffff
   1303e:	ffff                	0xffff

Disassembly of section .data.string:

00013040 <_end-0x64b>:
   13040:	7341                	lui	t1,0xffff0
   13042:	74726573          	csrrsi	a0,0x747,4
   13046:	6f69                	lui	t5,0x1a
   13048:	206e                	fld	ft0,216(sp)
   1304a:	6976                	flw	fs2,92(sp)
   1304c:	74616c6f          	jal	s8,29792 <_end+0x16107>
   13050:	6f69                	lui	t5,0x1a
   13052:	3a6e                	fld	fs4,248(sp)
   13054:	6620                	flw	fs0,72(a2)
   13056:	6c69                	lui	s8,0x1a
   13058:	2065                	jal	13100 <end_signature+0xc0>
   1305a:	7300                	flw	fs0,32(a4)
   1305c:	6372                	flw	ft6,28(sp)
   1305e:	432d492f          	0x432d492f
   13062:	43525253          	0x43525253
   13066:	2d49                	jal	136f8 <_end+0x6d>
   13068:	3130                	fld	fa2,96(a0)
   1306a:	532e                	lw	t1,232(sp)
   1306c:	2c00                	fld	fs0,24(s0)
   1306e:	6c20                	flw	fs0,88(s0)
   13070:	6e69                	lui	t3,0x1a
   13072:	2065                	jal	1311a <end_signature+0xda>
   13074:	3400                	fld	fs0,40(s0)
   13076:	0031                	c.nop	12
   13078:	203a                	fld	ft0,392(sp)
   1307a:	7800                	flw	fs0,48(s0)
   1307c:	0030                	addi	a2,sp,8
   1307e:	0028                	addi	a0,sp,8
   13080:	2029                	jal	1308a <end_signature+0x4a>
   13082:	3d21                	jal	12e9a <FN_WriteA0_common+0xe26>
   13084:	0020                	addi	s0,sp,8
   13086:	7830                	flw	fa2,112(s0)
   13088:	3030                	fld	fa2,96(s0)
   1308a:	3030                	fld	fa2,96(s0)
   1308c:	3030                	fld	fa2,96(s0)
   1308e:	3030                	fld	fa2,96(s0)
   13090:	0a00                	addi	s0,sp,272
   13092:	2300                	fld	fs0,0(a4)
   13094:	5420                	lw	s0,104(s0)
   13096:	7365                	lui	t1,0xffff9
   13098:	2074                	fld	fa3,192(s0)
   1309a:	6542                	flw	fa0,16(sp)
   1309c:	206e6967          	0x206e6967
   130a0:	6552                	flw	fa0,20(sp)
   130a2:	76726573          	csrrsi	a0,0x767,4
   130a6:	6465                	lui	s0,0x19
   130a8:	7220                	flw	fs0,96(a2)
   130aa:	6765                	lui	a4,0x19
   130ac:	61722073          	csrs	0x617,tp
   130b0:	7828                	flw	fa0,112(s0)
   130b2:	2931                	jal	134ce <end_signature+0x48e>
   130b4:	6120                	flw	fs0,64(a0)
   130b6:	2830                	fld	fa2,80(s0)
   130b8:	3178                	fld	fa4,224(a0)
   130ba:	2930                	fld	fa2,80(a0)
   130bc:	7420                	flw	fs0,104(s0)
   130be:	2830                	fld	fa2,80(s0)
   130c0:	3578                	fld	fa4,232(a0)
   130c2:	0a29                	addi	s4,s4,10
   130c4:	2300                	fld	fs0,0(a4)
   130c6:	5420                	lw	s0,104(s0)
   130c8:	7365                	lui	t1,0xffff9
   130ca:	2074                	fld	fa3,192(s0)
   130cc:	6170                	flw	fa2,68(a0)
   130ce:	7472                	flw	fs0,60(sp)
   130d0:	4120                	lw	s0,64(a0)
   130d2:	2031                	jal	130de <end_signature+0x9e>
   130d4:	202d                	jal	130fe <end_signature+0xbe>
   130d6:	656e6567          	0x656e6567
   130da:	6172                	flw	ft2,28(sp)
   130dc:	206c                	fld	fa1,192(s0)
   130de:	6574                	flw	fa3,76(a0)
   130e0:	6f207473          	csrrci	s0,0x6f2,0
   130e4:	2066                	fld	ft0,88(sp)
   130e6:	72727363          	bleu	t2,tp,1380c <_end+0x181>
   130ea:	000a6963          	bltu	s4,zero,130fc <end_signature+0xbc>
   130ee:	7341                	lui	t1,0xffff0
   130f0:	74726573          	csrrsi	a0,0x747,4
   130f4:	6f69                	lui	t5,0x1a
   130f6:	206e                	fld	ft0,216(sp)
   130f8:	6976                	flw	fs2,92(sp)
   130fa:	74616c6f          	jal	s8,29840 <_end+0x161b5>
   130fe:	6f69                	lui	t5,0x1a
   13100:	3a6e                	fld	fs4,248(sp)
   13102:	6620                	flw	fs0,72(a2)
   13104:	6c69                	lui	s8,0x1a
   13106:	2065                	jal	131ae <end_signature+0x16e>
   13108:	7300                	flw	fs0,32(a4)
   1310a:	6372                	flw	ft6,28(sp)
   1310c:	432d492f          	0x432d492f
   13110:	43525253          	0x43525253
   13114:	2d49                	jal	137a6 <_end+0x11b>
   13116:	3130                	fld	fa2,96(a0)
   13118:	532e                	lw	t1,232(sp)
   1311a:	2c00                	fld	fs0,24(s0)
   1311c:	6c20                	flw	fs0,88(s0)
   1311e:	6e69                	lui	t3,0x1a
   13120:	2065                	jal	131c8 <end_signature+0x188>
   13122:	3800                	fld	fs0,48(s0)
   13124:	0034                	addi	a3,sp,8
   13126:	203a                	fld	ft0,392(sp)
   13128:	7800                	flw	fs0,48(s0)
   1312a:	0030                	addi	a2,sp,8
   1312c:	0028                	addi	a0,sp,8
   1312e:	2029                	jal	13138 <end_signature+0xf8>
   13130:	3d21                	jal	12f48 <FN_WriteA0_common+0xed4>
   13132:	0020                	addi	s0,sp,8
   13134:	7830                	flw	fa2,112(s0)
   13136:	3030                	fld	fa2,96(s0)
   13138:	3030                	fld	fa2,96(s0)
   1313a:	3030                	fld	fa2,96(s0)
   1313c:	3030                	fld	fa2,96(s0)
   1313e:	0a00                	addi	s0,sp,272
   13140:	4100                	lw	s0,0(a0)
   13142:	72657373          	csrrci	t1,0x726,10
   13146:	6974                	flw	fa3,84(a0)
   13148:	76206e6f          	jal	t3,198aa <_end+0x621f>
   1314c:	6f69                	lui	t5,0x1a
   1314e:	616c                	flw	fa1,68(a0)
   13150:	6974                	flw	fa3,84(a0)
   13152:	203a6e6f          	jal	t3,b9b54 <_end+0xa64c9>
   13156:	6966                	flw	fs2,88(sp)
   13158:	656c                	flw	fa1,76(a0)
   1315a:	0020                	addi	s0,sp,8
   1315c:	2f637273          	csrrci	tp,0x2f6,6
   13160:	2d49                	jal	137f2 <_end+0x167>
   13162:	52525343          	fmadd.d	ft6,ft4,ft5,fa0,unknown
   13166:	302d4943          	fmadd.s	fs2,fs10,ft2,ft6,rmm
   1316a:	2e31                	jal	13486 <end_signature+0x446>
   1316c:	202c0053          	fsgnj.s	ft0,fs8,ft2
   13170:	696c                	flw	fa1,84(a0)
   13172:	656e                	flw	fa0,216(sp)
   13174:	0020                	addi	s0,sp,8
   13176:	3638                	fld	fa4,104(a2)
   13178:	3a00                	fld	fs0,48(a2)
   1317a:	0020                	addi	s0,sp,8
   1317c:	3278                	fld	fa4,224(a2)
   1317e:	2800                	fld	fs0,16(s0)
   13180:	2900                	fld	fs0,16(a0)
   13182:	2120                	fld	fs0,64(a0)
   13184:	203d                	jal	131b2 <end_signature+0x172>
   13186:	3000                	fld	fs0,32(s0)
   13188:	4678                	lw	a4,76(a2)
   1318a:	4646                	lw	a2,80(sp)
   1318c:	4646                	lw	a2,80(sp)
   1318e:	4646                	lw	a2,80(sp)
   13190:	0046                	c.slli	zero,0x11
   13192:	000a                	c.slli	zero,0x2
   13194:	7341                	lui	t1,0xffff0
   13196:	74726573          	csrrsi	a0,0x747,4
   1319a:	6f69                	lui	t5,0x1a
   1319c:	206e                	fld	ft0,216(sp)
   1319e:	6976                	flw	fs2,92(sp)
   131a0:	74616c6f          	jal	s8,298e6 <_end+0x1625b>
   131a4:	6f69                	lui	t5,0x1a
   131a6:	3a6e                	fld	fs4,248(sp)
   131a8:	6620                	flw	fs0,72(a2)
   131aa:	6c69                	lui	s8,0x1a
   131ac:	2065                	jal	13254 <end_signature+0x214>
   131ae:	7300                	flw	fs0,32(a4)
   131b0:	6372                	flw	ft6,28(sp)
   131b2:	432d492f          	0x432d492f
   131b6:	43525253          	0x43525253
   131ba:	2d49                	jal	1384c <_end+0x1c1>
   131bc:	3130                	fld	fa2,96(a0)
   131be:	532e                	lw	t1,232(sp)
   131c0:	2c00                	fld	fs0,24(s0)
   131c2:	6c20                	flw	fs0,88(s0)
   131c4:	6e69                	lui	t3,0x1a
   131c6:	2065                	jal	1326e <end_signature+0x22e>
   131c8:	3800                	fld	fs0,48(s0)
   131ca:	203a0037          	lui	zero,0x203a0
   131ce:	7800                	flw	fs0,48(s0)
   131d0:	00280033          	add	zero,a6,sp
   131d4:	2029                	jal	131de <end_signature+0x19e>
   131d6:	3d21                	jal	12fee <FN_WriteA0_common+0xf7a>
   131d8:	0020                	addi	s0,sp,8
   131da:	7830                	flw	fa2,112(s0)
   131dc:	4646                	lw	a2,80(sp)
   131de:	4646                	lw	a2,80(sp)
   131e0:	4646                	lw	a2,80(sp)
   131e2:	3045                	jal	12a82 <FN_WriteA0_common+0xa0e>
   131e4:	0a00                	addi	s0,sp,272
   131e6:	4100                	lw	s0,0(a0)
   131e8:	72657373          	csrrci	t1,0x726,10
   131ec:	6974                	flw	fa3,84(a0)
   131ee:	76206e6f          	jal	t3,19950 <_end+0x62c5>
   131f2:	6f69                	lui	t5,0x1a
   131f4:	616c                	flw	fa1,68(a0)
   131f6:	6974                	flw	fa3,84(a0)
   131f8:	203a6e6f          	jal	t3,b9bfa <_end+0xa656f>
   131fc:	6966                	flw	fs2,88(sp)
   131fe:	656c                	flw	fa1,76(a0)
   13200:	0020                	addi	s0,sp,8
   13202:	2f637273          	csrrci	tp,0x2f6,6
   13206:	2d49                	jal	13898 <_end+0x20d>
   13208:	52525343          	fmadd.d	ft6,ft4,ft5,fa0,unknown
   1320c:	302d4943          	fmadd.s	fs2,fs10,ft2,ft6,rmm
   13210:	2e31                	jal	1352c <end_signature+0x4ec>
   13212:	202c0053          	fsgnj.s	ft0,fs8,ft2
   13216:	696c                	flw	fa1,84(a0)
   13218:	656e                	flw	fa0,216(sp)
   1321a:	0020                	addi	s0,sp,8
   1321c:	3838                	fld	fa4,112(s0)
   1321e:	3a00                	fld	fs0,48(a2)
   13220:	0020                	addi	s0,sp,8
   13222:	3478                	fld	fa4,232(s0)
   13224:	2800                	fld	fs0,16(s0)
   13226:	2900                	fld	fs0,16(a0)
   13228:	2120                	fld	fs0,64(a0)
   1322a:	203d                	jal	13258 <end_signature+0x218>
   1322c:	3000                	fld	fs0,32(s0)
   1322e:	4678                	lw	a4,76(a2)
   13230:	4646                	lw	a2,80(sp)
   13232:	4646                	lw	a2,80(sp)
   13234:	4546                	lw	a0,80(sp)
   13236:	0046                	c.slli	zero,0x11
   13238:	000a                	c.slli	zero,0x2
   1323a:	7341                	lui	t1,0xffff0
   1323c:	74726573          	csrrsi	a0,0x747,4
   13240:	6f69                	lui	t5,0x1a
   13242:	206e                	fld	ft0,216(sp)
   13244:	6976                	flw	fs2,92(sp)
   13246:	74616c6f          	jal	s8,2998c <_end+0x16301>
   1324a:	6f69                	lui	t5,0x1a
   1324c:	3a6e                	fld	fs4,248(sp)
   1324e:	6620                	flw	fs0,72(a2)
   13250:	6c69                	lui	s8,0x1a
   13252:	2065                	jal	132fa <end_signature+0x2ba>
   13254:	7300                	flw	fs0,32(a4)
   13256:	6372                	flw	ft6,28(sp)
   13258:	432d492f          	0x432d492f
   1325c:	43525253          	0x43525253
   13260:	2d49                	jal	138f2 <_end+0x267>
   13262:	3130                	fld	fa2,96(a0)
   13264:	532e                	lw	t1,232(sp)
   13266:	2c00                	fld	fs0,24(s0)
   13268:	6c20                	flw	fs0,88(s0)
   1326a:	6e69                	lui	t3,0x1a
   1326c:	2065                	jal	13314 <end_signature+0x2d4>
   1326e:	3800                	fld	fs0,48(s0)
   13270:	0039                	c.nop	14
   13272:	203a                	fld	ft0,392(sp)
   13274:	7800                	flw	fs0,48(s0)
   13276:	0035                	c.nop	13
   13278:	0028                	addi	a0,sp,8
   1327a:	2029                	jal	13284 <end_signature+0x244>
   1327c:	3d21                	jal	13094 <end_signature+0x54>
   1327e:	0020                	addi	s0,sp,8
   13280:	7830                	flw	fa2,112(s0)
   13282:	3030                	fld	fa2,96(s0)
   13284:	3030                	fld	fa2,96(s0)
   13286:	3030                	fld	fa2,96(s0)
   13288:	3030                	fld	fa2,96(s0)
   1328a:	0a00                	addi	s0,sp,272
   1328c:	4100                	lw	s0,0(a0)
   1328e:	72657373          	csrrci	t1,0x726,10
   13292:	6974                	flw	fa3,84(a0)
   13294:	76206e6f          	jal	t3,199f6 <_end+0x636b>
   13298:	6f69                	lui	t5,0x1a
   1329a:	616c                	flw	fa1,68(a0)
   1329c:	6974                	flw	fa3,84(a0)
   1329e:	203a6e6f          	jal	t3,b9ca0 <_end+0xa6615>
   132a2:	6966                	flw	fs2,88(sp)
   132a4:	656c                	flw	fa1,76(a0)
   132a6:	0020                	addi	s0,sp,8
   132a8:	2f637273          	csrrci	tp,0x2f6,6
   132ac:	2d49                	jal	1393e <_end+0x2b3>
   132ae:	52525343          	fmadd.d	ft6,ft4,ft5,fa0,unknown
   132b2:	302d4943          	fmadd.s	fs2,fs10,ft2,ft6,rmm
   132b6:	2e31                	jal	135d2 <end_signature+0x592>
   132b8:	202c0053          	fsgnj.s	ft0,fs8,ft2
   132bc:	696c                	flw	fa1,84(a0)
   132be:	656e                	flw	fa0,216(sp)
   132c0:	0020                	addi	s0,sp,8
   132c2:	3039                	jal	12ad0 <FN_WriteA0_common+0xa5c>
   132c4:	3a00                	fld	fs0,48(a2)
   132c6:	0020                	addi	s0,sp,8
   132c8:	3878                	fld	fa4,240(s0)
   132ca:	2800                	fld	fs0,16(s0)
   132cc:	2900                	fld	fs0,16(a0)
   132ce:	2120                	fld	fs0,64(a0)
   132d0:	203d                	jal	132fe <end_signature+0x2be>
   132d2:	3000                	fld	fs0,32(s0)
   132d4:	4678                	lw	a4,76(a2)
   132d6:	4646                	lw	a2,80(sp)
   132d8:	4646                	lw	a2,80(sp)
   132da:	4646                	lw	a2,80(sp)
   132dc:	0046                	c.slli	zero,0x11
   132de:	000a                	c.slli	zero,0x2
   132e0:	65542023          	sw	s5,1600(s0) # 19640 <_end+0x5fb5>
   132e4:	70207473          	csrrci	s0,0x702,0
   132e8:	7261                	lui	tp,0xffff8
   132ea:	2074                	fld	fa3,192(s0)
   132ec:	3141                	jal	12f6c <FN_WriteA0_common+0xef8>
   132ee:	2020                	fld	fs0,64(s0)
   132f0:	202d                	jal	1331a <end_signature+0x2da>
   132f2:	706d6f43          	fmadd.s	ft10,fs10,ft6,fa4,unknown
   132f6:	656c                	flw	fa1,76(a0)
   132f8:	6574                	flw	fa3,76(a0)
   132fa:	000a                	c.slli	zero,0x2
   132fc:	65542023          	sw	s5,1600(s0)
   13300:	70207473          	csrrci	s0,0x702,0
   13304:	7261                	lui	tp,0xffff8
   13306:	2074                	fld	fa3,192(s0)
   13308:	3241                	jal	12c88 <FN_WriteA0_common+0xc14>
   1330a:	2d20                	fld	fs0,88(a0)
   1330c:	6720                	flw	fs0,72(a4)
   1330e:	6e65                	lui	t3,0x19
   13310:	7265                	lui	tp,0xffff9
   13312:	6c61                	lui	s8,0x18
   13314:	7420                	flw	fs0,104(s0)
   13316:	7365                	lui	t1,0xffff9
   13318:	2074                	fld	fa3,192(s0)
   1331a:	6320666f          	jal	a2,1994c <_end+0x62c1>
   1331e:	63727273          	csrrci	tp,0x637,4
   13322:	0a69                	addi	s4,s4,26
   13324:	4100                	lw	s0,0(a0)
   13326:	72657373          	csrrci	t1,0x726,10
   1332a:	6974                	flw	fa3,84(a0)
   1332c:	76206e6f          	jal	t3,19a8e <_end+0x6403>
   13330:	6f69                	lui	t5,0x1a
   13332:	616c                	flw	fa1,68(a0)
   13334:	6974                	flw	fa3,84(a0)
   13336:	203a6e6f          	jal	t3,b9d38 <_end+0xa66ad>
   1333a:	6966                	flw	fs2,88(sp)
   1333c:	656c                	flw	fa1,76(a0)
   1333e:	0020                	addi	s0,sp,8
   13340:	2f637273          	csrrci	tp,0x2f6,6
   13344:	2d49                	jal	139d6 <_end+0x34b>
   13346:	52525343          	fmadd.d	ft6,ft4,ft5,fa0,unknown
   1334a:	302d4943          	fmadd.s	fs2,fs10,ft2,ft6,rmm
   1334e:	2e31                	jal	1366a <end_signature+0x62a>
   13350:	202c0053          	fsgnj.s	ft0,fs8,ft2
   13354:	696c                	flw	fa1,84(a0)
   13356:	656e                	flw	fa0,216(sp)
   13358:	0020                	addi	s0,sp,8
   1335a:	3231                	jal	12c66 <FN_WriteA0_common+0xbf2>
   1335c:	0032                	c.slli	zero,0xc
   1335e:	203a                	fld	ft0,392(sp)
   13360:	7800                	flw	fs0,48(s0)
   13362:	3131                	jal	12f6e <FN_WriteA0_common+0xefa>
   13364:	2800                	fld	fs0,16(s0)
   13366:	2900                	fld	fs0,16(a0)
   13368:	2120                	fld	fs0,64(a0)
   1336a:	203d                	jal	13398 <end_signature+0x358>
   1336c:	3000                	fld	fs0,32(s0)
   1336e:	4678                	lw	a4,76(a2)
   13370:	4646                	lw	a2,80(sp)
   13372:	4646                	lw	a2,80(sp)
   13374:	4646                	lw	a2,80(sp)
   13376:	0046                	c.slli	zero,0x11
   13378:	000a                	c.slli	zero,0x2
   1337a:	7341                	lui	t1,0xffff0
   1337c:	74726573          	csrrsi	a0,0x747,4
   13380:	6f69                	lui	t5,0x1a
   13382:	206e                	fld	ft0,216(sp)
   13384:	6976                	flw	fs2,92(sp)
   13386:	74616c6f          	jal	s8,29acc <_end+0x16441>
   1338a:	6f69                	lui	t5,0x1a
   1338c:	3a6e                	fld	fs4,248(sp)
   1338e:	6620                	flw	fs0,72(a2)
   13390:	6c69                	lui	s8,0x1a
   13392:	2065                	jal	1343a <end_signature+0x3fa>
   13394:	7300                	flw	fs0,32(a4)
   13396:	6372                	flw	ft6,28(sp)
   13398:	432d492f          	0x432d492f
   1339c:	43525253          	0x43525253
   133a0:	2d49                	jal	13a32 <_end+0x3a7>
   133a2:	3130                	fld	fa2,96(a0)
   133a4:	532e                	lw	t1,232(sp)
   133a6:	2c00                	fld	fs0,24(s0)
   133a8:	6c20                	flw	fs0,88(s0)
   133aa:	6e69                	lui	t3,0x1a
   133ac:	2065                	jal	13454 <end_signature+0x414>
   133ae:	3100                	fld	fs0,32(a0)
   133b0:	3332                	fld	ft6,296(sp)
   133b2:	3a00                	fld	fs0,48(a2)
   133b4:	0020                	addi	s0,sp,8
   133b6:	3178                	fld	fa4,224(a0)
   133b8:	0032                	c.slli	zero,0xc
   133ba:	0028                	addi	a0,sp,8
   133bc:	2029                	jal	133c6 <end_signature+0x386>
   133be:	3d21                	jal	131d6 <end_signature+0x196>
   133c0:	0020                	addi	s0,sp,8
   133c2:	7830                	flw	fa2,112(s0)
   133c4:	4646                	lw	a2,80(sp)
   133c6:	4646                	lw	a2,80(sp)
   133c8:	4646                	lw	a2,80(sp)
   133ca:	4546                	lw	a0,80(sp)
   133cc:	0a00                	addi	s0,sp,272
   133ce:	4100                	lw	s0,0(a0)
   133d0:	72657373          	csrrci	t1,0x726,10
   133d4:	6974                	flw	fa3,84(a0)
   133d6:	76206e6f          	jal	t3,19b38 <_end+0x64ad>
   133da:	6f69                	lui	t5,0x1a
   133dc:	616c                	flw	fa1,68(a0)
   133de:	6974                	flw	fa3,84(a0)
   133e0:	203a6e6f          	jal	t3,b9de2 <_end+0xa6757>
   133e4:	6966                	flw	fs2,88(sp)
   133e6:	656c                	flw	fa1,76(a0)
   133e8:	0020                	addi	s0,sp,8
   133ea:	2f637273          	csrrci	tp,0x2f6,6
   133ee:	2d49                	jal	13a80 <_end+0x3f5>
   133f0:	52525343          	fmadd.d	ft6,ft4,ft5,fa0,unknown
   133f4:	302d4943          	fmadd.s	fs2,fs10,ft2,ft6,rmm
   133f8:	2e31                	jal	13714 <_end+0x89>
   133fa:	202c0053          	fsgnj.s	ft0,fs8,ft2
   133fe:	696c                	flw	fa1,84(a0)
   13400:	656e                	flw	fa0,216(sp)
   13402:	0020                	addi	s0,sp,8
   13404:	3231                	jal	12d10 <FN_WriteA0_common+0xc9c>
   13406:	0034                	addi	a3,sp,8
   13408:	203a                	fld	ft0,392(sp)
   1340a:	7800                	flw	fs0,48(s0)
   1340c:	3331                	jal	13118 <end_signature+0xd8>
   1340e:	2800                	fld	fs0,16(s0)
   13410:	2900                	fld	fs0,16(a0)
   13412:	2120                	fld	fs0,64(a0)
   13414:	203d                	jal	13442 <end_signature+0x402>
   13416:	3000                	fld	fs0,32(s0)
   13418:	4678                	lw	a4,76(a2)
   1341a:	4646                	lw	a2,80(sp)
   1341c:	4646                	lw	a2,80(sp)
   1341e:	4646                	lw	a2,80(sp)
   13420:	0045                	c.nop	17
   13422:	000a                	c.slli	zero,0x2
   13424:	7341                	lui	t1,0xffff0
   13426:	74726573          	csrrsi	a0,0x747,4
   1342a:	6f69                	lui	t5,0x1a
   1342c:	206e                	fld	ft0,216(sp)
   1342e:	6976                	flw	fs2,92(sp)
   13430:	74616c6f          	jal	s8,29b76 <_end+0x164eb>
   13434:	6f69                	lui	t5,0x1a
   13436:	3a6e                	fld	fs4,248(sp)
   13438:	6620                	flw	fs0,72(a2)
   1343a:	6c69                	lui	s8,0x1a
   1343c:	2065                	jal	134e4 <end_signature+0x4a4>
   1343e:	7300                	flw	fs0,32(a4)
   13440:	6372                	flw	ft6,28(sp)
   13442:	432d492f          	0x432d492f
   13446:	43525253          	0x43525253
   1344a:	2d49                	jal	13adc <_end+0x451>
   1344c:	3130                	fld	fa2,96(a0)
   1344e:	532e                	lw	t1,232(sp)
   13450:	2c00                	fld	fs0,24(s0)
   13452:	6c20                	flw	fs0,88(s0)
   13454:	6e69                	lui	t3,0x1a
   13456:	2065                	jal	134fe <end_signature+0x4be>
   13458:	3100                	fld	fs0,32(a0)
   1345a:	3532                	fld	fa0,296(sp)
   1345c:	3a00                	fld	fs0,48(a2)
   1345e:	0020                	addi	s0,sp,8
   13460:	3178                	fld	fa4,224(a0)
   13462:	0034                	addi	a3,sp,8
   13464:	0028                	addi	a0,sp,8
   13466:	2029                	jal	13470 <end_signature+0x430>
   13468:	3d21                	jal	13280 <end_signature+0x240>
   1346a:	0020                	addi	s0,sp,8
   1346c:	7830                	flw	fa2,112(s0)
   1346e:	4646                	lw	a2,80(sp)
   13470:	4646                	lw	a2,80(sp)
   13472:	4646                	lw	a2,80(sp)
   13474:	3045                	jal	12d14 <FN_WriteA0_common+0xca0>
   13476:	0a00                	addi	s0,sp,272
   13478:	4100                	lw	s0,0(a0)
   1347a:	72657373          	csrrci	t1,0x726,10
   1347e:	6974                	flw	fa3,84(a0)
   13480:	76206e6f          	jal	t3,19be2 <_end+0x6557>
   13484:	6f69                	lui	t5,0x1a
   13486:	616c                	flw	fa1,68(a0)
   13488:	6974                	flw	fa3,84(a0)
   1348a:	203a6e6f          	jal	t3,b9e8c <_end+0xa6801>
   1348e:	6966                	flw	fs2,88(sp)
   13490:	656c                	flw	fa1,76(a0)
   13492:	0020                	addi	s0,sp,8
   13494:	2f637273          	csrrci	tp,0x2f6,6
   13498:	2d49                	jal	13b2a <_end+0x49f>
   1349a:	52525343          	fmadd.d	ft6,ft4,ft5,fa0,unknown
   1349e:	302d4943          	fmadd.s	fs2,fs10,ft2,ft6,rmm
   134a2:	2e31                	jal	137be <_end+0x133>
   134a4:	202c0053          	fsgnj.s	ft0,fs8,ft2
   134a8:	696c                	flw	fa1,84(a0)
   134aa:	656e                	flw	fa0,216(sp)
   134ac:	0020                	addi	s0,sp,8
   134ae:	3231                	jal	12dba <FN_WriteA0_common+0xd46>
   134b0:	0036                	c.slli	zero,0xd
   134b2:	203a                	fld	ft0,392(sp)
   134b4:	7800                	flw	fs0,48(s0)
   134b6:	3531                	jal	132c2 <end_signature+0x282>
   134b8:	2800                	fld	fs0,16(s0)
   134ba:	2900                	fld	fs0,16(a0)
   134bc:	2120                	fld	fs0,64(a0)
   134be:	203d                	jal	134ec <end_signature+0x4ac>
   134c0:	3000                	fld	fs0,32(s0)
   134c2:	4678                	lw	a4,76(a2)
   134c4:	4646                	lw	a2,80(sp)
   134c6:	4646                	lw	a2,80(sp)
   134c8:	4546                	lw	a0,80(sp)
   134ca:	0030                	addi	a2,sp,8
   134cc:	000a                	c.slli	zero,0x2
   134ce:	7341                	lui	t1,0xffff0
   134d0:	74726573          	csrrsi	a0,0x747,4
   134d4:	6f69                	lui	t5,0x1a
   134d6:	206e                	fld	ft0,216(sp)
   134d8:	6976                	flw	fs2,92(sp)
   134da:	74616c6f          	jal	s8,29c20 <_end+0x16595>
   134de:	6f69                	lui	t5,0x1a
   134e0:	3a6e                	fld	fs4,248(sp)
   134e2:	6620                	flw	fs0,72(a2)
   134e4:	6c69                	lui	s8,0x1a
   134e6:	2065                	jal	1358e <end_signature+0x54e>
   134e8:	7300                	flw	fs0,32(a4)
   134ea:	6372                	flw	ft6,28(sp)
   134ec:	432d492f          	0x432d492f
   134f0:	43525253          	0x43525253
   134f4:	2d49                	jal	13b86 <_end+0x4fb>
   134f6:	3130                	fld	fa2,96(a0)
   134f8:	532e                	lw	t1,232(sp)
   134fa:	2c00                	fld	fs0,24(s0)
   134fc:	6c20                	flw	fs0,88(s0)
   134fe:	6e69                	lui	t3,0x1a
   13500:	2065                	jal	135a8 <end_signature+0x568>
   13502:	3100                	fld	fs0,32(a0)
   13504:	3732                	fld	fa4,296(sp)
   13506:	3a00                	fld	fs0,48(a2)
   13508:	0020                	addi	s0,sp,8
   1350a:	3178                	fld	fa4,224(a0)
   1350c:	0036                	c.slli	zero,0xd
   1350e:	0028                	addi	a0,sp,8
   13510:	2029                	jal	1351a <end_signature+0x4da>
   13512:	3d21                	jal	1332a <end_signature+0x2ea>
   13514:	0020                	addi	s0,sp,8
   13516:	7830                	flw	fa2,112(s0)
   13518:	4646                	lw	a2,80(sp)
   1351a:	4646                	lw	a2,80(sp)
   1351c:	4646                	lw	a2,80(sp)
   1351e:	3045                	jal	12dbe <FN_WriteA0_common+0xd4a>
   13520:	0a00                	addi	s0,sp,272
   13522:	4100                	lw	s0,0(a0)
   13524:	72657373          	csrrci	t1,0x726,10
   13528:	6974                	flw	fa3,84(a0)
   1352a:	76206e6f          	jal	t3,19c8c <_end+0x6601>
   1352e:	6f69                	lui	t5,0x1a
   13530:	616c                	flw	fa1,68(a0)
   13532:	6974                	flw	fa3,84(a0)
   13534:	203a6e6f          	jal	t3,b9f36 <_end+0xa68ab>
   13538:	6966                	flw	fs2,88(sp)
   1353a:	656c                	flw	fa1,76(a0)
   1353c:	0020                	addi	s0,sp,8
   1353e:	2f637273          	csrrci	tp,0x2f6,6
   13542:	2d49                	jal	13bd4 <_end+0x549>
   13544:	52525343          	fmadd.d	ft6,ft4,ft5,fa0,unknown
   13548:	302d4943          	fmadd.s	fs2,fs10,ft2,ft6,rmm
   1354c:	2e31                	jal	13868 <_end+0x1dd>
   1354e:	202c0053          	fsgnj.s	ft0,fs8,ft2
   13552:	696c                	flw	fa1,84(a0)
   13554:	656e                	flw	fa0,216(sp)
   13556:	0020                	addi	s0,sp,8
   13558:	3231                	jal	12e64 <FN_WriteA0_common+0xdf0>
   1355a:	0038                	addi	a4,sp,8
   1355c:	203a                	fld	ft0,392(sp)
   1355e:	7800                	flw	fs0,48(s0)
   13560:	0038                	addi	a4,sp,8
   13562:	0028                	addi	a0,sp,8
   13564:	2029                	jal	1356e <end_signature+0x52e>
   13566:	3d21                	jal	1337e <end_signature+0x33e>
   13568:	0020                	addi	s0,sp,8
   1356a:	7830                	flw	fa2,112(s0)
   1356c:	4646                	lw	a2,80(sp)
   1356e:	4646                	lw	a2,80(sp)
   13570:	4646                	lw	a2,80(sp)
   13572:	4646                	lw	a2,80(sp)
   13574:	0a00                	addi	s0,sp,272
   13576:	2300                	fld	fs0,0(a4)
   13578:	5420                	lw	s0,104(s0)
   1357a:	7365                	lui	t1,0xffff9
   1357c:	2074                	fld	fa3,192(s0)
   1357e:	6170                	flw	fa2,68(a0)
   13580:	7472                	flw	fs0,60(sp)
   13582:	4120                	lw	s0,64(a0)
   13584:	2032                	fld	ft0,264(sp)
   13586:	2d20                	fld	fs0,88(a0)
   13588:	4320                	lw	s0,64(a4)
   1358a:	6c706d6f          	jal	s10,1a450 <_end+0x6dc5>
   1358e:	7465                	lui	s0,0xffff9
   13590:	0a65                	addi	s4,s4,25
   13592:	2300                	fld	fs0,0(a4)
   13594:	5420                	lw	s0,104(s0)
   13596:	7365                	lui	t1,0xffff9
   13598:	2074                	fld	fa3,192(s0)
   1359a:	6170                	flw	fa2,68(a0)
   1359c:	7472                	flw	fs0,60(sp)
   1359e:	4220                	lw	s0,64(a2)
   135a0:	2d20                	fld	fs0,88(a0)
   135a2:	7420                	flw	fs0,104(s0)
   135a4:	7365                	lui	t1,0xffff9
   135a6:	6974                	flw	fa3,84(a0)
   135a8:	676e                	flw	fa4,216(sp)
   135aa:	7720                	flw	fs0,104(a4)
   135ac:	6972                	flw	fs2,28(sp)
   135ae:	6974                	flw	fa3,84(a0)
   135b0:	676e                	flw	fa4,216(sp)
   135b2:	7420                	flw	fs0,104(s0)
   135b4:	3078206f          	j	960ba <_end+0x82a2f>
   135b8:	000a                	c.slli	zero,0x2
   135ba:	7341                	lui	t1,0xffff0
   135bc:	74726573          	csrrsi	a0,0x747,4
   135c0:	6f69                	lui	t5,0x1a
   135c2:	206e                	fld	ft0,216(sp)
   135c4:	6976                	flw	fs2,92(sp)
   135c6:	74616c6f          	jal	s8,29d0c <_end+0x16681>
   135ca:	6f69                	lui	t5,0x1a
   135cc:	3a6e                	fld	fs4,248(sp)
   135ce:	6620                	flw	fs0,72(a2)
   135d0:	6c69                	lui	s8,0x1a
   135d2:	2065                	jal	1367a <end_signature+0x63a>
   135d4:	7300                	flw	fs0,32(a4)
   135d6:	6372                	flw	ft6,28(sp)
   135d8:	432d492f          	0x432d492f
   135dc:	43525253          	0x43525253
   135e0:	2d49                	jal	13c72 <_end+0x5e7>
   135e2:	3130                	fld	fa2,96(a0)
   135e4:	532e                	lw	t1,232(sp)
   135e6:	2c00                	fld	fs0,24(s0)
   135e8:	6c20                	flw	fs0,88(s0)
   135ea:	6e69                	lui	t3,0x1a
   135ec:	2065                	jal	13694 <_end+0x9>
   135ee:	3100                	fld	fs0,32(a0)
   135f0:	3135                	jal	1321c <end_signature+0x1dc>
   135f2:	3a00                	fld	fs0,48(a2)
   135f4:	0020                	addi	s0,sp,8
   135f6:	3078                	fld	fa4,224(s0)
   135f8:	2800                	fld	fs0,16(s0)
   135fa:	2900                	fld	fs0,16(a0)
   135fc:	2120                	fld	fs0,64(a0)
   135fe:	203d                	jal	1362c <end_signature+0x5ec>
   13600:	3000                	fld	fs0,32(s0)
   13602:	3078                	fld	fa4,224(s0)
   13604:	3030                	fld	fa2,96(s0)
   13606:	3030                	fld	fa2,96(s0)
   13608:	3030                	fld	fa2,96(s0)
   1360a:	0030                	addi	a2,sp,8
   1360c:	000a                	c.slli	zero,0x2
   1360e:	7341                	lui	t1,0xffff0
   13610:	74726573          	csrrsi	a0,0x747,4
   13614:	6f69                	lui	t5,0x1a
   13616:	206e                	fld	ft0,216(sp)
   13618:	6976                	flw	fs2,92(sp)
   1361a:	74616c6f          	jal	s8,29d60 <_end+0x166d5>
   1361e:	6f69                	lui	t5,0x1a
   13620:	3a6e                	fld	fs4,248(sp)
   13622:	6620                	flw	fs0,72(a2)
   13624:	6c69                	lui	s8,0x1a
   13626:	2065                	jal	136ce <_end+0x43>
   13628:	7300                	flw	fs0,32(a4)
   1362a:	6372                	flw	ft6,28(sp)
   1362c:	432d492f          	0x432d492f
   13630:	43525253          	0x43525253
   13634:	2d49                	jal	13cc6 <_end+0x63b>
   13636:	3130                	fld	fa2,96(a0)
   13638:	532e                	lw	t1,232(sp)
   1363a:	2c00                	fld	fs0,24(s0)
   1363c:	6c20                	flw	fs0,88(s0)
   1363e:	6e69                	lui	t3,0x1a
   13640:	2065                	jal	136e8 <_end+0x5d>
   13642:	3100                	fld	fs0,32(a0)
   13644:	3235                	jal	12f70 <FN_WriteA0_common+0xefc>
   13646:	3a00                	fld	fs0,48(a2)
   13648:	0020                	addi	s0,sp,8
   1364a:	3278                	fld	fa4,224(a2)
   1364c:	0030                	addi	a2,sp,8
   1364e:	0028                	addi	a0,sp,8
   13650:	2029                	jal	1365a <end_signature+0x61a>
   13652:	3d21                	jal	1346a <end_signature+0x42a>
   13654:	0020                	addi	s0,sp,8
   13656:	7830                	flw	fa2,112(s0)
   13658:	36313233          	0x36313233
   1365c:	3435                	jal	13088 <end_signature+0x48>
   1365e:	3039                	jal	12e6c <FN_WriteA0_common+0xdf8>
   13660:	0a00                	addi	s0,sp,272
   13662:	2300                	fld	fs0,0(a4)
   13664:	5420                	lw	s0,104(s0)
   13666:	7365                	lui	t1,0xffff9
   13668:	2074                	fld	fa3,192(s0)
   1366a:	6170                	flw	fa2,68(a0)
   1366c:	7472                	flw	fs0,60(sp)
   1366e:	4120                	lw	s0,64(a0)
   13670:	2d202033          	0x2d202033
   13674:	4320                	lw	s0,64(a4)
   13676:	6c706d6f          	jal	s10,1a53c <_end+0x6eb1>
   1367a:	7465                	lui	s0,0xffff9
   1367c:	0a65                	addi	s4,s4,25
   1367e:	2300                	fld	fs0,0(a4)
   13680:	5420                	lw	s0,104(s0)
   13682:	7365                	lui	t1,0xffff9
   13684:	2074                	fld	fa3,192(s0)
   13686:	6e45                	lui	t3,0x11
   13688:	0a64                	addi	s1,sp,284
	...
