
/home/benselfridge/riscv-compliance/work//I-IO.elf:     file format elf32-littleriscv


Disassembly of section .text.init:

00010000 <_start>:
   10000:	04c0006f          	j	1004c <reset_vector>

00010004 <trap_vector>:
   10004:	34202f73          	csrr	t5,mcause
   10008:	00800f93          	li	t6,8
   1000c:	03ff0a63          	beq	t5,t6,10040 <write_tohost>
   10010:	00900f93          	li	t6,9
   10014:	03ff0663          	beq	t5,t6,10040 <write_tohost>
   10018:	00b00f93          	li	t6,11
   1001c:	03ff0263          	beq	t5,t6,10040 <write_tohost>
   10020:	ffff0f17          	auipc	t5,0xffff0
   10024:	fe0f0f13          	addi	t5,t5,-32 # 0 <_start-0x10000>
   10028:	000f0463          	beqz	t5,10030 <trap_vector+0x2c>
   1002c:	000f0067          	jr	t5
   10030:	34202f73          	csrr	t5,mcause
   10034:	000f5463          	bgez	t5,1003c <handle_exception>
   10038:	0040006f          	j	1003c <handle_exception>

0001003c <handle_exception>:
   1003c:	5391e193          	ori	gp,gp,1337

00010040 <write_tohost>:
   10040:	00003f17          	auipc	t5,0x3
   10044:	fc3f2023          	sw	gp,-64(t5) # 13000 <tohost>
   10048:	ff9ff06f          	j	10040 <write_tohost>

0001004c <reset_vector>:
   1004c:	f1402573          	csrr	a0,mhartid
   10050:	00051063          	bnez	a0,10050 <reset_vector+0x4>
   10054:	00000297          	auipc	t0,0x0
   10058:	01028293          	addi	t0,t0,16 # 10064 <reset_vector+0x18>
   1005c:	30529073          	csrw	mtvec,t0
   10060:	18005073          	csrwi	satp,0
   10064:	00000297          	auipc	t0,0x0
   10068:	01c28293          	addi	t0,t0,28 # 10080 <reset_vector+0x34>
   1006c:	30529073          	csrw	mtvec,t0
   10070:	fff00293          	li	t0,-1
   10074:	3b029073          	csrw	pmpaddr0,t0
   10078:	01f00293          	li	t0,31
   1007c:	3a029073          	csrw	pmpcfg0,t0
   10080:	00000297          	auipc	t0,0x0
   10084:	01828293          	addi	t0,t0,24 # 10098 <reset_vector+0x4c>
   10088:	30529073          	csrw	mtvec,t0
   1008c:	30205073          	csrwi	medeleg,0
   10090:	30305073          	csrwi	mideleg,0
   10094:	30405073          	csrwi	mie,0
   10098:	00000193          	li	gp,0
   1009c:	00000297          	auipc	t0,0x0
   100a0:	f6828293          	addi	t0,t0,-152 # 10004 <trap_vector>
   100a4:	30529073          	csrw	mtvec,t0
   100a8:	00100513          	li	a0,1
   100ac:	01f51513          	slli	a0,a0,0x1f
   100b0:	00054863          	bltz	a0,100c0 <reset_vector+0x74>
   100b4:	0000100f          	fence.i
   100b8:	00100193          	li	gp,1
   100bc:	00000073          	ecall
   100c0:	ffff0297          	auipc	t0,0xffff0
   100c4:	f4028293          	addi	t0,t0,-192 # 0 <_start-0x10000>
   100c8:	00028e63          	beqz	t0,100e4 <reset_vector+0x98>
   100cc:	10529073          	csrw	stvec,t0
   100d0:	0000b2b7          	lui	t0,0xb
   100d4:	10928293          	addi	t0,t0,265 # b109 <_start-0x4ef7>
   100d8:	30229073          	csrw	medeleg,t0
   100dc:	30202373          	csrr	t1,medeleg
   100e0:	f4629ee3          	bne	t0,t1,1003c <handle_exception>
   100e4:	30005073          	csrwi	mstatus,0
   100e8:	00002537          	lui	a0,0x2
   100ec:	80050513          	addi	a0,a0,-2048 # 1800 <_start-0xe800>
   100f0:	30052073          	csrs	mstatus,a0
   100f4:	00000297          	auipc	t0,0x0
   100f8:	01428293          	addi	t0,t0,20 # 10108 <reset_vector+0xbc>
   100fc:	34129073          	csrw	mepc,t0
   10100:	f1402573          	csrr	a0,mhartid
   10104:	30200073          	mret
   10108:	00000293          	li	t0,0
   1010c:	08500e63          	beq	zero,t0,101a8 <reset_vector+0x15c>
   10110:	00005517          	auipc	a0,0x5
   10114:	fd050513          	addi	a0,a0,-48 # 150e0 <end_signature>
   10118:	6e9030ef          	jal	ra,14000 <FN_WriteStr>
   1011c:	00005517          	auipc	a0,0x5
   10120:	fdf50513          	addi	a0,a0,-33 # 150fb <end_signature+0x1b>
   10124:	6dd030ef          	jal	ra,14000 <FN_WriteStr>
   10128:	00005517          	auipc	a0,0x5
   1012c:	fde50513          	addi	a0,a0,-34 # 15106 <end_signature+0x26>
   10130:	6d1030ef          	jal	ra,14000 <FN_WriteStr>
   10134:	00005517          	auipc	a0,0x5
   10138:	fda50513          	addi	a0,a0,-38 # 1510e <end_signature+0x2e>
   1013c:	6c5030ef          	jal	ra,14000 <FN_WriteStr>
   10140:	00005517          	auipc	a0,0x5
   10144:	fd150513          	addi	a0,a0,-47 # 15111 <end_signature+0x31>
   10148:	6b9030ef          	jal	ra,14000 <FN_WriteStr>
   1014c:	00005517          	auipc	a0,0x5
   10150:	fc850513          	addi	a0,a0,-56 # 15114 <end_signature+0x34>
   10154:	6ad030ef          	jal	ra,14000 <FN_WriteStr>
   10158:	00005517          	auipc	a0,0x5
   1015c:	fbf50513          	addi	a0,a0,-65 # 15117 <end_signature+0x37>
   10160:	6a1030ef          	jal	ra,14000 <FN_WriteStr>
   10164:	00000513          	li	a0,0
   10168:	6b5030ef          	jal	ra,1401c <FN_WriteA0>
   1016c:	00005517          	auipc	a0,0x5
   10170:	fad50513          	addi	a0,a0,-83 # 15119 <end_signature+0x39>
   10174:	68d030ef          	jal	ra,14000 <FN_WriteStr>
   10178:	00005517          	auipc	a0,0x5
   1017c:	fa750513          	addi	a0,a0,-89 # 1511f <end_signature+0x3f>
   10180:	681030ef          	jal	ra,14000 <FN_WriteStr>
   10184:	00005517          	auipc	a0,0x5
   10188:	fa650513          	addi	a0,a0,-90 # 1512a <end_signature+0x4a>
   1018c:	675030ef          	jal	ra,14000 <FN_WriteStr>
   10190:	06400193          	li	gp,100
   10194:	0000100f          	fence.i
   10198:	00018063          	beqz	gp,10198 <reset_vector+0x14c>
   1019c:	00119193          	slli	gp,gp,0x1
   101a0:	0011e193          	ori	gp,gp,1
   101a4:	00000073          	ecall
   101a8:	00005517          	auipc	a0,0x5
   101ac:	f8450513          	addi	a0,a0,-124 # 1512c <end_signature+0x4c>
   101b0:	651030ef          	jal	ra,14000 <FN_WriteStr>
   101b4:	00005517          	auipc	a0,0x5
   101b8:	faa50513          	addi	a0,a0,-86 # 1515e <end_signature+0x7e>
   101bc:	645030ef          	jal	ra,14000 <FN_WriteStr>
   101c0:	00005097          	auipc	ra,0x5
   101c4:	e4008093          	addi	ra,ra,-448 # 15000 <test_A1_data>
   101c8:	00005117          	auipc	sp,0x5
   101cc:	e6810113          	addi	sp,sp,-408 # 15030 <begin_signature>
   101d0:	0000a183          	lw	gp,0(ra)
   101d4:	00000213          	li	tp,0
   101d8:	00100293          	li	t0,1
   101dc:	fff00313          	li	t1,-1
   101e0:	800003b7          	lui	t2,0x80000
   101e4:	fff38393          	addi	t2,t2,-1 # 7fffffff <_end+0x7ffe9e83>
   101e8:	80000437          	lui	s0,0x80000
   101ec:	00418233          	add	tp,gp,tp
   101f0:	005182b3          	add	t0,gp,t0
   101f4:	00618333          	add	t1,gp,t1
   101f8:	007183b3          	add	t2,gp,t2
   101fc:	00818433          	add	s0,gp,s0
   10200:	00312023          	sw	gp,0(sp)
   10204:	00412223          	sw	tp,4(sp)
   10208:	00512423          	sw	t0,8(sp)
   1020c:	00612623          	sw	t1,12(sp)
   10210:	00712823          	sw	t2,16(sp)
   10214:	00812a23          	sw	s0,20(sp)
   10218:	fff00013          	li	zero,-1
   1021c:	00000293          	li	t0,0
   10220:	08518e63          	beq	gp,t0,102bc <reset_vector+0x270>
   10224:	00005517          	auipc	a0,0x5
   10228:	f8c50513          	addi	a0,a0,-116 # 151b0 <end_signature+0xd0>
   1022c:	5d5030ef          	jal	ra,14000 <FN_WriteStr>
   10230:	00005517          	auipc	a0,0x5
   10234:	f9b50513          	addi	a0,a0,-101 # 151cb <end_signature+0xeb>
   10238:	5c9030ef          	jal	ra,14000 <FN_WriteStr>
   1023c:	00005517          	auipc	a0,0x5
   10240:	f9a50513          	addi	a0,a0,-102 # 151d6 <end_signature+0xf6>
   10244:	5bd030ef          	jal	ra,14000 <FN_WriteStr>
   10248:	00005517          	auipc	a0,0x5
   1024c:	f9650513          	addi	a0,a0,-106 # 151de <end_signature+0xfe>
   10250:	5b1030ef          	jal	ra,14000 <FN_WriteStr>
   10254:	00005517          	auipc	a0,0x5
   10258:	f8d50513          	addi	a0,a0,-115 # 151e1 <end_signature+0x101>
   1025c:	5a5030ef          	jal	ra,14000 <FN_WriteStr>
   10260:	00005517          	auipc	a0,0x5
   10264:	f8450513          	addi	a0,a0,-124 # 151e4 <end_signature+0x104>
   10268:	599030ef          	jal	ra,14000 <FN_WriteStr>
   1026c:	00005517          	auipc	a0,0x5
   10270:	f7b50513          	addi	a0,a0,-133 # 151e7 <end_signature+0x107>
   10274:	58d030ef          	jal	ra,14000 <FN_WriteStr>
   10278:	00018513          	mv	a0,gp
   1027c:	5a1030ef          	jal	ra,1401c <FN_WriteA0>
   10280:	00005517          	auipc	a0,0x5
   10284:	f6950513          	addi	a0,a0,-151 # 151e9 <end_signature+0x109>
   10288:	579030ef          	jal	ra,14000 <FN_WriteStr>
   1028c:	00005517          	auipc	a0,0x5
   10290:	f6350513          	addi	a0,a0,-157 # 151ef <end_signature+0x10f>
   10294:	56d030ef          	jal	ra,14000 <FN_WriteStr>
   10298:	00005517          	auipc	a0,0x5
   1029c:	f6250513          	addi	a0,a0,-158 # 151fa <end_signature+0x11a>
   102a0:	561030ef          	jal	ra,14000 <FN_WriteStr>
   102a4:	06400193          	li	gp,100
   102a8:	0000100f          	fence.i
   102ac:	00018063          	beqz	gp,102ac <reset_vector+0x260>
   102b0:	00119193          	slli	gp,gp,0x1
   102b4:	0011e193          	ori	gp,gp,1
   102b8:	00000073          	ecall
   102bc:	00000293          	li	t0,0
   102c0:	08520e63          	beq	tp,t0,1035c <reset_vector+0x310>
   102c4:	00005517          	auipc	a0,0x5
   102c8:	f3850513          	addi	a0,a0,-200 # 151fc <end_signature+0x11c>
   102cc:	535030ef          	jal	ra,14000 <FN_WriteStr>
   102d0:	00005517          	auipc	a0,0x5
   102d4:	f4750513          	addi	a0,a0,-185 # 15217 <end_signature+0x137>
   102d8:	529030ef          	jal	ra,14000 <FN_WriteStr>
   102dc:	00005517          	auipc	a0,0x5
   102e0:	f4650513          	addi	a0,a0,-186 # 15222 <end_signature+0x142>
   102e4:	51d030ef          	jal	ra,14000 <FN_WriteStr>
   102e8:	00005517          	auipc	a0,0x5
   102ec:	f4250513          	addi	a0,a0,-190 # 1522a <end_signature+0x14a>
   102f0:	511030ef          	jal	ra,14000 <FN_WriteStr>
   102f4:	00005517          	auipc	a0,0x5
   102f8:	f3950513          	addi	a0,a0,-199 # 1522d <end_signature+0x14d>
   102fc:	505030ef          	jal	ra,14000 <FN_WriteStr>
   10300:	00005517          	auipc	a0,0x5
   10304:	f3050513          	addi	a0,a0,-208 # 15230 <end_signature+0x150>
   10308:	4f9030ef          	jal	ra,14000 <FN_WriteStr>
   1030c:	00005517          	auipc	a0,0x5
   10310:	f2750513          	addi	a0,a0,-217 # 15233 <end_signature+0x153>
   10314:	4ed030ef          	jal	ra,14000 <FN_WriteStr>
   10318:	00020513          	mv	a0,tp
   1031c:	501030ef          	jal	ra,1401c <FN_WriteA0>
   10320:	00005517          	auipc	a0,0x5
   10324:	f1550513          	addi	a0,a0,-235 # 15235 <end_signature+0x155>
   10328:	4d9030ef          	jal	ra,14000 <FN_WriteStr>
   1032c:	00005517          	auipc	a0,0x5
   10330:	f0f50513          	addi	a0,a0,-241 # 1523b <end_signature+0x15b>
   10334:	4cd030ef          	jal	ra,14000 <FN_WriteStr>
   10338:	00005517          	auipc	a0,0x5
   1033c:	f0e50513          	addi	a0,a0,-242 # 15246 <end_signature+0x166>
   10340:	4c1030ef          	jal	ra,14000 <FN_WriteStr>
   10344:	06400193          	li	gp,100
   10348:	0000100f          	fence.i
   1034c:	00018063          	beqz	gp,1034c <reset_vector+0x300>
   10350:	00119193          	slli	gp,gp,0x1
   10354:	0011e193          	ori	gp,gp,1
   10358:	00000073          	ecall
   1035c:	00000293          	li	t0,0
   10360:	08528e63          	beq	t0,t0,103fc <reset_vector+0x3b0>
   10364:	00005517          	auipc	a0,0x5
   10368:	ee450513          	addi	a0,a0,-284 # 15248 <end_signature+0x168>
   1036c:	495030ef          	jal	ra,14000 <FN_WriteStr>
   10370:	00005517          	auipc	a0,0x5
   10374:	ef350513          	addi	a0,a0,-269 # 15263 <end_signature+0x183>
   10378:	489030ef          	jal	ra,14000 <FN_WriteStr>
   1037c:	00005517          	auipc	a0,0x5
   10380:	ef250513          	addi	a0,a0,-270 # 1526e <end_signature+0x18e>
   10384:	47d030ef          	jal	ra,14000 <FN_WriteStr>
   10388:	00005517          	auipc	a0,0x5
   1038c:	eee50513          	addi	a0,a0,-274 # 15276 <end_signature+0x196>
   10390:	471030ef          	jal	ra,14000 <FN_WriteStr>
   10394:	00005517          	auipc	a0,0x5
   10398:	ee550513          	addi	a0,a0,-283 # 15279 <end_signature+0x199>
   1039c:	465030ef          	jal	ra,14000 <FN_WriteStr>
   103a0:	00005517          	auipc	a0,0x5
   103a4:	edc50513          	addi	a0,a0,-292 # 1527c <end_signature+0x19c>
   103a8:	459030ef          	jal	ra,14000 <FN_WriteStr>
   103ac:	00005517          	auipc	a0,0x5
   103b0:	ed350513          	addi	a0,a0,-301 # 1527f <end_signature+0x19f>
   103b4:	44d030ef          	jal	ra,14000 <FN_WriteStr>
   103b8:	00028513          	mv	a0,t0
   103bc:	461030ef          	jal	ra,1401c <FN_WriteA0>
   103c0:	00005517          	auipc	a0,0x5
   103c4:	ec150513          	addi	a0,a0,-319 # 15281 <end_signature+0x1a1>
   103c8:	439030ef          	jal	ra,14000 <FN_WriteStr>
   103cc:	00005517          	auipc	a0,0x5
   103d0:	ebb50513          	addi	a0,a0,-325 # 15287 <end_signature+0x1a7>
   103d4:	42d030ef          	jal	ra,14000 <FN_WriteStr>
   103d8:	00005517          	auipc	a0,0x5
   103dc:	eba50513          	addi	a0,a0,-326 # 15292 <end_signature+0x1b2>
   103e0:	421030ef          	jal	ra,14000 <FN_WriteStr>
   103e4:	06400193          	li	gp,100
   103e8:	0000100f          	fence.i
   103ec:	00018063          	beqz	gp,103ec <reset_vector+0x3a0>
   103f0:	00119193          	slli	gp,gp,0x1
   103f4:	0011e193          	ori	gp,gp,1
   103f8:	00000073          	ecall
   103fc:	fff00293          	li	t0,-1
   10400:	08530e63          	beq	t1,t0,1049c <reset_vector+0x450>
   10404:	00005517          	auipc	a0,0x5
   10408:	e9050513          	addi	a0,a0,-368 # 15294 <end_signature+0x1b4>
   1040c:	3f5030ef          	jal	ra,14000 <FN_WriteStr>
   10410:	00005517          	auipc	a0,0x5
   10414:	e9f50513          	addi	a0,a0,-353 # 152af <end_signature+0x1cf>
   10418:	3e9030ef          	jal	ra,14000 <FN_WriteStr>
   1041c:	00005517          	auipc	a0,0x5
   10420:	e9e50513          	addi	a0,a0,-354 # 152ba <end_signature+0x1da>
   10424:	3dd030ef          	jal	ra,14000 <FN_WriteStr>
   10428:	00005517          	auipc	a0,0x5
   1042c:	e9a50513          	addi	a0,a0,-358 # 152c2 <end_signature+0x1e2>
   10430:	3d1030ef          	jal	ra,14000 <FN_WriteStr>
   10434:	00005517          	auipc	a0,0x5
   10438:	e9150513          	addi	a0,a0,-367 # 152c5 <end_signature+0x1e5>
   1043c:	3c5030ef          	jal	ra,14000 <FN_WriteStr>
   10440:	00005517          	auipc	a0,0x5
   10444:	e8850513          	addi	a0,a0,-376 # 152c8 <end_signature+0x1e8>
   10448:	3b9030ef          	jal	ra,14000 <FN_WriteStr>
   1044c:	00005517          	auipc	a0,0x5
   10450:	e7f50513          	addi	a0,a0,-385 # 152cb <end_signature+0x1eb>
   10454:	3ad030ef          	jal	ra,14000 <FN_WriteStr>
   10458:	00030513          	mv	a0,t1
   1045c:	3c1030ef          	jal	ra,1401c <FN_WriteA0>
   10460:	00005517          	auipc	a0,0x5
   10464:	e6d50513          	addi	a0,a0,-403 # 152cd <end_signature+0x1ed>
   10468:	399030ef          	jal	ra,14000 <FN_WriteStr>
   1046c:	00005517          	auipc	a0,0x5
   10470:	e6750513          	addi	a0,a0,-409 # 152d3 <end_signature+0x1f3>
   10474:	38d030ef          	jal	ra,14000 <FN_WriteStr>
   10478:	00005517          	auipc	a0,0x5
   1047c:	e6650513          	addi	a0,a0,-410 # 152de <end_signature+0x1fe>
   10480:	381030ef          	jal	ra,14000 <FN_WriteStr>
   10484:	06400193          	li	gp,100
   10488:	0000100f          	fence.i
   1048c:	00018063          	beqz	gp,1048c <reset_vector+0x440>
   10490:	00119193          	slli	gp,gp,0x1
   10494:	0011e193          	ori	gp,gp,1
   10498:	00000073          	ecall
   1049c:	800002b7          	lui	t0,0x80000
   104a0:	fff28293          	addi	t0,t0,-1 # 7fffffff <_end+0x7ffe9e83>
   104a4:	08538e63          	beq	t2,t0,10540 <reset_vector+0x4f4>
   104a8:	00005517          	auipc	a0,0x5
   104ac:	e3850513          	addi	a0,a0,-456 # 152e0 <end_signature+0x200>
   104b0:	351030ef          	jal	ra,14000 <FN_WriteStr>
   104b4:	00005517          	auipc	a0,0x5
   104b8:	e4750513          	addi	a0,a0,-441 # 152fb <end_signature+0x21b>
   104bc:	345030ef          	jal	ra,14000 <FN_WriteStr>
   104c0:	00005517          	auipc	a0,0x5
   104c4:	e4650513          	addi	a0,a0,-442 # 15306 <end_signature+0x226>
   104c8:	339030ef          	jal	ra,14000 <FN_WriteStr>
   104cc:	00005517          	auipc	a0,0x5
   104d0:	e4250513          	addi	a0,a0,-446 # 1530e <end_signature+0x22e>
   104d4:	32d030ef          	jal	ra,14000 <FN_WriteStr>
   104d8:	00005517          	auipc	a0,0x5
   104dc:	e3950513          	addi	a0,a0,-455 # 15311 <end_signature+0x231>
   104e0:	321030ef          	jal	ra,14000 <FN_WriteStr>
   104e4:	00005517          	auipc	a0,0x5
   104e8:	e3050513          	addi	a0,a0,-464 # 15314 <end_signature+0x234>
   104ec:	315030ef          	jal	ra,14000 <FN_WriteStr>
   104f0:	00005517          	auipc	a0,0x5
   104f4:	e2750513          	addi	a0,a0,-473 # 15317 <end_signature+0x237>
   104f8:	309030ef          	jal	ra,14000 <FN_WriteStr>
   104fc:	00038513          	mv	a0,t2
   10500:	31d030ef          	jal	ra,1401c <FN_WriteA0>
   10504:	00005517          	auipc	a0,0x5
   10508:	e1550513          	addi	a0,a0,-491 # 15319 <end_signature+0x239>
   1050c:	2f5030ef          	jal	ra,14000 <FN_WriteStr>
   10510:	00005517          	auipc	a0,0x5
   10514:	e0f50513          	addi	a0,a0,-497 # 1531f <end_signature+0x23f>
   10518:	2e9030ef          	jal	ra,14000 <FN_WriteStr>
   1051c:	00005517          	auipc	a0,0x5
   10520:	e0e50513          	addi	a0,a0,-498 # 1532a <end_signature+0x24a>
   10524:	2dd030ef          	jal	ra,14000 <FN_WriteStr>
   10528:	06400193          	li	gp,100
   1052c:	0000100f          	fence.i
   10530:	00018063          	beqz	gp,10530 <reset_vector+0x4e4>
   10534:	00119193          	slli	gp,gp,0x1
   10538:	0011e193          	ori	gp,gp,1
   1053c:	00000073          	ecall
   10540:	800002b7          	lui	t0,0x80000
   10544:	08540e63          	beq	s0,t0,105e0 <reset_vector+0x594>
   10548:	00005517          	auipc	a0,0x5
   1054c:	de450513          	addi	a0,a0,-540 # 1532c <end_signature+0x24c>
   10550:	2b1030ef          	jal	ra,14000 <FN_WriteStr>
   10554:	00005517          	auipc	a0,0x5
   10558:	df350513          	addi	a0,a0,-525 # 15347 <end_signature+0x267>
   1055c:	2a5030ef          	jal	ra,14000 <FN_WriteStr>
   10560:	00005517          	auipc	a0,0x5
   10564:	df250513          	addi	a0,a0,-526 # 15352 <end_signature+0x272>
   10568:	299030ef          	jal	ra,14000 <FN_WriteStr>
   1056c:	00005517          	auipc	a0,0x5
   10570:	dee50513          	addi	a0,a0,-530 # 1535a <end_signature+0x27a>
   10574:	28d030ef          	jal	ra,14000 <FN_WriteStr>
   10578:	00005517          	auipc	a0,0x5
   1057c:	de550513          	addi	a0,a0,-539 # 1535d <end_signature+0x27d>
   10580:	281030ef          	jal	ra,14000 <FN_WriteStr>
   10584:	00005517          	auipc	a0,0x5
   10588:	ddc50513          	addi	a0,a0,-548 # 15360 <end_signature+0x280>
   1058c:	275030ef          	jal	ra,14000 <FN_WriteStr>
   10590:	00005517          	auipc	a0,0x5
   10594:	dd350513          	addi	a0,a0,-557 # 15363 <end_signature+0x283>
   10598:	269030ef          	jal	ra,14000 <FN_WriteStr>
   1059c:	00040513          	mv	a0,s0
   105a0:	27d030ef          	jal	ra,1401c <FN_WriteA0>
   105a4:	00005517          	auipc	a0,0x5
   105a8:	dc150513          	addi	a0,a0,-575 # 15365 <end_signature+0x285>
   105ac:	255030ef          	jal	ra,14000 <FN_WriteStr>
   105b0:	00005517          	auipc	a0,0x5
   105b4:	dbb50513          	addi	a0,a0,-581 # 1536b <end_signature+0x28b>
   105b8:	249030ef          	jal	ra,14000 <FN_WriteStr>
   105bc:	00005517          	auipc	a0,0x5
   105c0:	dba50513          	addi	a0,a0,-582 # 15376 <end_signature+0x296>
   105c4:	23d030ef          	jal	ra,14000 <FN_WriteStr>
   105c8:	06400193          	li	gp,100
   105cc:	0000100f          	fence.i
   105d0:	00018063          	beqz	gp,105d0 <reset_vector+0x584>
   105d4:	00119193          	slli	gp,gp,0x1
   105d8:	0011e193          	ori	gp,gp,1
   105dc:	00000073          	ecall
   105e0:	00005517          	auipc	a0,0x5
   105e4:	d9850513          	addi	a0,a0,-616 # 15378 <end_signature+0x298>
   105e8:	219030ef          	jal	ra,14000 <FN_WriteStr>
   105ec:	00005517          	auipc	a0,0x5
   105f0:	da750513          	addi	a0,a0,-601 # 15393 <end_signature+0x2b3>
   105f4:	20d030ef          	jal	ra,14000 <FN_WriteStr>
   105f8:	00005097          	auipc	ra,0x5
   105fc:	a0c08093          	addi	ra,ra,-1524 # 15004 <test_A2_data>
   10600:	00005117          	auipc	sp,0x5
   10604:	a4810113          	addi	sp,sp,-1464 # 15048 <test_A2_res>
   10608:	0000a403          	lw	s0,0(ra)
   1060c:	00000493          	li	s1,0
   10610:	00100513          	li	a0,1
   10614:	fff00593          	li	a1,-1
   10618:	80000637          	lui	a2,0x80000
   1061c:	fff60613          	addi	a2,a2,-1 # 7fffffff <_end+0x7ffe9e83>
   10620:	800006b7          	lui	a3,0x80000
   10624:	009404b3          	add	s1,s0,s1
   10628:	00a40533          	add	a0,s0,a0
   1062c:	00b405b3          	add	a1,s0,a1
   10630:	00c40633          	add	a2,s0,a2
   10634:	00d406b3          	add	a3,s0,a3
   10638:	00812023          	sw	s0,0(sp)
   1063c:	00912223          	sw	s1,4(sp)
   10640:	00a12423          	sw	a0,8(sp)
   10644:	00b12623          	sw	a1,12(sp)
   10648:	00c12823          	sw	a2,16(sp)
   1064c:	00d12a23          	sw	a3,20(sp)
   10650:	00100293          	li	t0,1
   10654:	08540e63          	beq	s0,t0,106f0 <reset_vector+0x6a4>
   10658:	00005517          	auipc	a0,0x5
   1065c:	d8d50513          	addi	a0,a0,-627 # 153e5 <end_signature+0x305>
   10660:	1a1030ef          	jal	ra,14000 <FN_WriteStr>
   10664:	00005517          	auipc	a0,0x5
   10668:	d9c50513          	addi	a0,a0,-612 # 15400 <end_signature+0x320>
   1066c:	195030ef          	jal	ra,14000 <FN_WriteStr>
   10670:	00005517          	auipc	a0,0x5
   10674:	d9b50513          	addi	a0,a0,-613 # 1540b <end_signature+0x32b>
   10678:	189030ef          	jal	ra,14000 <FN_WriteStr>
   1067c:	00005517          	auipc	a0,0x5
   10680:	d9750513          	addi	a0,a0,-617 # 15413 <end_signature+0x333>
   10684:	17d030ef          	jal	ra,14000 <FN_WriteStr>
   10688:	00005517          	auipc	a0,0x5
   1068c:	d8f50513          	addi	a0,a0,-625 # 15417 <end_signature+0x337>
   10690:	171030ef          	jal	ra,14000 <FN_WriteStr>
   10694:	00005517          	auipc	a0,0x5
   10698:	d8650513          	addi	a0,a0,-634 # 1541a <end_signature+0x33a>
   1069c:	165030ef          	jal	ra,14000 <FN_WriteStr>
   106a0:	00005517          	auipc	a0,0x5
   106a4:	d7d50513          	addi	a0,a0,-643 # 1541d <end_signature+0x33d>
   106a8:	159030ef          	jal	ra,14000 <FN_WriteStr>
   106ac:	00040513          	mv	a0,s0
   106b0:	16d030ef          	jal	ra,1401c <FN_WriteA0>
   106b4:	00005517          	auipc	a0,0x5
   106b8:	d6b50513          	addi	a0,a0,-661 # 1541f <end_signature+0x33f>
   106bc:	145030ef          	jal	ra,14000 <FN_WriteStr>
   106c0:	00005517          	auipc	a0,0x5
   106c4:	d6550513          	addi	a0,a0,-667 # 15425 <end_signature+0x345>
   106c8:	139030ef          	jal	ra,14000 <FN_WriteStr>
   106cc:	00005517          	auipc	a0,0x5
   106d0:	d6450513          	addi	a0,a0,-668 # 15430 <end_signature+0x350>
   106d4:	12d030ef          	jal	ra,14000 <FN_WriteStr>
   106d8:	06400193          	li	gp,100
   106dc:	0000100f          	fence.i
   106e0:	00018063          	beqz	gp,106e0 <reset_vector+0x694>
   106e4:	00119193          	slli	gp,gp,0x1
   106e8:	0011e193          	ori	gp,gp,1
   106ec:	00000073          	ecall
   106f0:	00100293          	li	t0,1
   106f4:	08548e63          	beq	s1,t0,10790 <reset_vector+0x744>
   106f8:	00005517          	auipc	a0,0x5
   106fc:	d3a50513          	addi	a0,a0,-710 # 15432 <end_signature+0x352>
   10700:	101030ef          	jal	ra,14000 <FN_WriteStr>
   10704:	00005517          	auipc	a0,0x5
   10708:	d4950513          	addi	a0,a0,-695 # 1544d <end_signature+0x36d>
   1070c:	0f5030ef          	jal	ra,14000 <FN_WriteStr>
   10710:	00005517          	auipc	a0,0x5
   10714:	d4850513          	addi	a0,a0,-696 # 15458 <end_signature+0x378>
   10718:	0e9030ef          	jal	ra,14000 <FN_WriteStr>
   1071c:	00005517          	auipc	a0,0x5
   10720:	d4450513          	addi	a0,a0,-700 # 15460 <end_signature+0x380>
   10724:	0dd030ef          	jal	ra,14000 <FN_WriteStr>
   10728:	00005517          	auipc	a0,0x5
   1072c:	d3c50513          	addi	a0,a0,-708 # 15464 <end_signature+0x384>
   10730:	0d1030ef          	jal	ra,14000 <FN_WriteStr>
   10734:	00005517          	auipc	a0,0x5
   10738:	d3350513          	addi	a0,a0,-717 # 15467 <end_signature+0x387>
   1073c:	0c5030ef          	jal	ra,14000 <FN_WriteStr>
   10740:	00005517          	auipc	a0,0x5
   10744:	d2a50513          	addi	a0,a0,-726 # 1546a <end_signature+0x38a>
   10748:	0b9030ef          	jal	ra,14000 <FN_WriteStr>
   1074c:	00048513          	mv	a0,s1
   10750:	0cd030ef          	jal	ra,1401c <FN_WriteA0>
   10754:	00005517          	auipc	a0,0x5
   10758:	d1850513          	addi	a0,a0,-744 # 1546c <end_signature+0x38c>
   1075c:	0a5030ef          	jal	ra,14000 <FN_WriteStr>
   10760:	00005517          	auipc	a0,0x5
   10764:	d1250513          	addi	a0,a0,-750 # 15472 <end_signature+0x392>
   10768:	099030ef          	jal	ra,14000 <FN_WriteStr>
   1076c:	00005517          	auipc	a0,0x5
   10770:	d1150513          	addi	a0,a0,-751 # 1547d <end_signature+0x39d>
   10774:	08d030ef          	jal	ra,14000 <FN_WriteStr>
   10778:	06400193          	li	gp,100
   1077c:	0000100f          	fence.i
   10780:	00018063          	beqz	gp,10780 <reset_vector+0x734>
   10784:	00119193          	slli	gp,gp,0x1
   10788:	0011e193          	ori	gp,gp,1
   1078c:	00000073          	ecall
   10790:	00000293          	li	t0,0
   10794:	08558e63          	beq	a1,t0,10830 <reset_vector+0x7e4>
   10798:	00005517          	auipc	a0,0x5
   1079c:	ce750513          	addi	a0,a0,-793 # 1547f <end_signature+0x39f>
   107a0:	061030ef          	jal	ra,14000 <FN_WriteStr>
   107a4:	00005517          	auipc	a0,0x5
   107a8:	cf650513          	addi	a0,a0,-778 # 1549a <end_signature+0x3ba>
   107ac:	055030ef          	jal	ra,14000 <FN_WriteStr>
   107b0:	00005517          	auipc	a0,0x5
   107b4:	cf550513          	addi	a0,a0,-779 # 154a5 <end_signature+0x3c5>
   107b8:	049030ef          	jal	ra,14000 <FN_WriteStr>
   107bc:	00005517          	auipc	a0,0x5
   107c0:	cf150513          	addi	a0,a0,-783 # 154ad <end_signature+0x3cd>
   107c4:	03d030ef          	jal	ra,14000 <FN_WriteStr>
   107c8:	00005517          	auipc	a0,0x5
   107cc:	ce950513          	addi	a0,a0,-791 # 154b1 <end_signature+0x3d1>
   107d0:	031030ef          	jal	ra,14000 <FN_WriteStr>
   107d4:	00005517          	auipc	a0,0x5
   107d8:	ce050513          	addi	a0,a0,-800 # 154b4 <end_signature+0x3d4>
   107dc:	025030ef          	jal	ra,14000 <FN_WriteStr>
   107e0:	00005517          	auipc	a0,0x5
   107e4:	cd850513          	addi	a0,a0,-808 # 154b8 <end_signature+0x3d8>
   107e8:	019030ef          	jal	ra,14000 <FN_WriteStr>
   107ec:	00058513          	mv	a0,a1
   107f0:	02d030ef          	jal	ra,1401c <FN_WriteA0>
   107f4:	00005517          	auipc	a0,0x5
   107f8:	cc650513          	addi	a0,a0,-826 # 154ba <end_signature+0x3da>
   107fc:	005030ef          	jal	ra,14000 <FN_WriteStr>
   10800:	00005517          	auipc	a0,0x5
   10804:	cc050513          	addi	a0,a0,-832 # 154c0 <end_signature+0x3e0>
   10808:	7f8030ef          	jal	ra,14000 <FN_WriteStr>
   1080c:	00005517          	auipc	a0,0x5
   10810:	cbf50513          	addi	a0,a0,-833 # 154cb <end_signature+0x3eb>
   10814:	7ec030ef          	jal	ra,14000 <FN_WriteStr>
   10818:	06400193          	li	gp,100
   1081c:	0000100f          	fence.i
   10820:	00018063          	beqz	gp,10820 <reset_vector+0x7d4>
   10824:	00119193          	slli	gp,gp,0x1
   10828:	0011e193          	ori	gp,gp,1
   1082c:	00000073          	ecall
   10830:	800002b7          	lui	t0,0x80000
   10834:	08560e63          	beq	a2,t0,108d0 <reset_vector+0x884>
   10838:	00005517          	auipc	a0,0x5
   1083c:	c9550513          	addi	a0,a0,-875 # 154cd <end_signature+0x3ed>
   10840:	7c0030ef          	jal	ra,14000 <FN_WriteStr>
   10844:	00005517          	auipc	a0,0x5
   10848:	ca450513          	addi	a0,a0,-860 # 154e8 <end_signature+0x408>
   1084c:	7b4030ef          	jal	ra,14000 <FN_WriteStr>
   10850:	00005517          	auipc	a0,0x5
   10854:	ca350513          	addi	a0,a0,-861 # 154f3 <end_signature+0x413>
   10858:	7a8030ef          	jal	ra,14000 <FN_WriteStr>
   1085c:	00005517          	auipc	a0,0x5
   10860:	c9f50513          	addi	a0,a0,-865 # 154fb <end_signature+0x41b>
   10864:	79c030ef          	jal	ra,14000 <FN_WriteStr>
   10868:	00005517          	auipc	a0,0x5
   1086c:	c9750513          	addi	a0,a0,-873 # 154ff <end_signature+0x41f>
   10870:	790030ef          	jal	ra,14000 <FN_WriteStr>
   10874:	00005517          	auipc	a0,0x5
   10878:	c8e50513          	addi	a0,a0,-882 # 15502 <end_signature+0x422>
   1087c:	784030ef          	jal	ra,14000 <FN_WriteStr>
   10880:	00005517          	auipc	a0,0x5
   10884:	c8650513          	addi	a0,a0,-890 # 15506 <end_signature+0x426>
   10888:	778030ef          	jal	ra,14000 <FN_WriteStr>
   1088c:	00060513          	mv	a0,a2
   10890:	78c030ef          	jal	ra,1401c <FN_WriteA0>
   10894:	00005517          	auipc	a0,0x5
   10898:	c7450513          	addi	a0,a0,-908 # 15508 <end_signature+0x428>
   1089c:	764030ef          	jal	ra,14000 <FN_WriteStr>
   108a0:	00005517          	auipc	a0,0x5
   108a4:	c6e50513          	addi	a0,a0,-914 # 1550e <end_signature+0x42e>
   108a8:	758030ef          	jal	ra,14000 <FN_WriteStr>
   108ac:	00005517          	auipc	a0,0x5
   108b0:	c6d50513          	addi	a0,a0,-915 # 15519 <end_signature+0x439>
   108b4:	74c030ef          	jal	ra,14000 <FN_WriteStr>
   108b8:	06400193          	li	gp,100
   108bc:	0000100f          	fence.i
   108c0:	00018063          	beqz	gp,108c0 <reset_vector+0x874>
   108c4:	00119193          	slli	gp,gp,0x1
   108c8:	0011e193          	ori	gp,gp,1
   108cc:	00000073          	ecall
   108d0:	800002b7          	lui	t0,0x80000
   108d4:	00128293          	addi	t0,t0,1 # 80000001 <_end+0x7ffe9e85>
   108d8:	08568e63          	beq	a3,t0,10974 <reset_vector+0x928>
   108dc:	00005517          	auipc	a0,0x5
   108e0:	c3f50513          	addi	a0,a0,-961 # 1551b <end_signature+0x43b>
   108e4:	71c030ef          	jal	ra,14000 <FN_WriteStr>
   108e8:	00005517          	auipc	a0,0x5
   108ec:	c4e50513          	addi	a0,a0,-946 # 15536 <end_signature+0x456>
   108f0:	710030ef          	jal	ra,14000 <FN_WriteStr>
   108f4:	00005517          	auipc	a0,0x5
   108f8:	c4d50513          	addi	a0,a0,-947 # 15541 <end_signature+0x461>
   108fc:	704030ef          	jal	ra,14000 <FN_WriteStr>
   10900:	00005517          	auipc	a0,0x5
   10904:	c4950513          	addi	a0,a0,-951 # 15549 <end_signature+0x469>
   10908:	6f8030ef          	jal	ra,14000 <FN_WriteStr>
   1090c:	00005517          	auipc	a0,0x5
   10910:	c4150513          	addi	a0,a0,-959 # 1554d <end_signature+0x46d>
   10914:	6ec030ef          	jal	ra,14000 <FN_WriteStr>
   10918:	00005517          	auipc	a0,0x5
   1091c:	c3850513          	addi	a0,a0,-968 # 15550 <end_signature+0x470>
   10920:	6e0030ef          	jal	ra,14000 <FN_WriteStr>
   10924:	00005517          	auipc	a0,0x5
   10928:	c3050513          	addi	a0,a0,-976 # 15554 <end_signature+0x474>
   1092c:	6d4030ef          	jal	ra,14000 <FN_WriteStr>
   10930:	00068513          	mv	a0,a3
   10934:	6e8030ef          	jal	ra,1401c <FN_WriteA0>
   10938:	00005517          	auipc	a0,0x5
   1093c:	c1e50513          	addi	a0,a0,-994 # 15556 <end_signature+0x476>
   10940:	6c0030ef          	jal	ra,14000 <FN_WriteStr>
   10944:	00005517          	auipc	a0,0x5
   10948:	c1850513          	addi	a0,a0,-1000 # 1555c <end_signature+0x47c>
   1094c:	6b4030ef          	jal	ra,14000 <FN_WriteStr>
   10950:	00005517          	auipc	a0,0x5
   10954:	c1750513          	addi	a0,a0,-1001 # 15567 <end_signature+0x487>
   10958:	6a8030ef          	jal	ra,14000 <FN_WriteStr>
   1095c:	06400193          	li	gp,100
   10960:	0000100f          	fence.i
   10964:	00018063          	beqz	gp,10964 <reset_vector+0x918>
   10968:	00119193          	slli	gp,gp,0x1
   1096c:	0011e193          	ori	gp,gp,1
   10970:	00000073          	ecall
   10974:	00005517          	auipc	a0,0x5
   10978:	bf550513          	addi	a0,a0,-1035 # 15569 <end_signature+0x489>
   1097c:	684030ef          	jal	ra,14000 <FN_WriteStr>
   10980:	00005517          	auipc	a0,0x5
   10984:	c0450513          	addi	a0,a0,-1020 # 15584 <end_signature+0x4a4>
   10988:	678030ef          	jal	ra,14000 <FN_WriteStr>
   1098c:	00004097          	auipc	ra,0x4
   10990:	67c08093          	addi	ra,ra,1660 # 15008 <test_A3_data>
   10994:	00004117          	auipc	sp,0x4
   10998:	6cc10113          	addi	sp,sp,1740 # 15060 <test_A3_res>
   1099c:	0000a683          	lw	a3,0(ra)
   109a0:	00000713          	li	a4,0
   109a4:	00100793          	li	a5,1
   109a8:	fff00813          	li	a6,-1
   109ac:	800008b7          	lui	a7,0x80000
   109b0:	fff88893          	addi	a7,a7,-1 # 7fffffff <_end+0x7ffe9e83>
   109b4:	80000937          	lui	s2,0x80000
   109b8:	00e68733          	add	a4,a3,a4
   109bc:	00f687b3          	add	a5,a3,a5
   109c0:	01068833          	add	a6,a3,a6
   109c4:	011688b3          	add	a7,a3,a7
   109c8:	01268933          	add	s2,a3,s2
   109cc:	00d12023          	sw	a3,0(sp)
   109d0:	00e12223          	sw	a4,4(sp)
   109d4:	00f12423          	sw	a5,8(sp)
   109d8:	01012623          	sw	a6,12(sp)
   109dc:	01112823          	sw	a7,16(sp)
   109e0:	01212a23          	sw	s2,20(sp)
   109e4:	fff00293          	li	t0,-1
   109e8:	08568e63          	beq	a3,t0,10a84 <reset_vector+0xa38>
   109ec:	00005517          	auipc	a0,0x5
   109f0:	beb50513          	addi	a0,a0,-1045 # 155d7 <end_signature+0x4f7>
   109f4:	60c030ef          	jal	ra,14000 <FN_WriteStr>
   109f8:	00005517          	auipc	a0,0x5
   109fc:	bfa50513          	addi	a0,a0,-1030 # 155f2 <end_signature+0x512>
   10a00:	600030ef          	jal	ra,14000 <FN_WriteStr>
   10a04:	00005517          	auipc	a0,0x5
   10a08:	bf950513          	addi	a0,a0,-1031 # 155fd <end_signature+0x51d>
   10a0c:	5f4030ef          	jal	ra,14000 <FN_WriteStr>
   10a10:	00005517          	auipc	a0,0x5
   10a14:	bf550513          	addi	a0,a0,-1035 # 15605 <end_signature+0x525>
   10a18:	5e8030ef          	jal	ra,14000 <FN_WriteStr>
   10a1c:	00005517          	auipc	a0,0x5
   10a20:	bed50513          	addi	a0,a0,-1043 # 15609 <end_signature+0x529>
   10a24:	5dc030ef          	jal	ra,14000 <FN_WriteStr>
   10a28:	00005517          	auipc	a0,0x5
   10a2c:	be450513          	addi	a0,a0,-1052 # 1560c <end_signature+0x52c>
   10a30:	5d0030ef          	jal	ra,14000 <FN_WriteStr>
   10a34:	00005517          	auipc	a0,0x5
   10a38:	bdc50513          	addi	a0,a0,-1060 # 15610 <end_signature+0x530>
   10a3c:	5c4030ef          	jal	ra,14000 <FN_WriteStr>
   10a40:	00068513          	mv	a0,a3
   10a44:	5d8030ef          	jal	ra,1401c <FN_WriteA0>
   10a48:	00005517          	auipc	a0,0x5
   10a4c:	bca50513          	addi	a0,a0,-1078 # 15612 <end_signature+0x532>
   10a50:	5b0030ef          	jal	ra,14000 <FN_WriteStr>
   10a54:	00005517          	auipc	a0,0x5
   10a58:	bc450513          	addi	a0,a0,-1084 # 15618 <end_signature+0x538>
   10a5c:	5a4030ef          	jal	ra,14000 <FN_WriteStr>
   10a60:	00005517          	auipc	a0,0x5
   10a64:	bc350513          	addi	a0,a0,-1085 # 15623 <end_signature+0x543>
   10a68:	598030ef          	jal	ra,14000 <FN_WriteStr>
   10a6c:	06400193          	li	gp,100
   10a70:	0000100f          	fence.i
   10a74:	00018063          	beqz	gp,10a74 <reset_vector+0xa28>
   10a78:	00119193          	slli	gp,gp,0x1
   10a7c:	0011e193          	ori	gp,gp,1
   10a80:	00000073          	ecall
   10a84:	fff00293          	li	t0,-1
   10a88:	08570e63          	beq	a4,t0,10b24 <reset_vector+0xad8>
   10a8c:	00005517          	auipc	a0,0x5
   10a90:	b9950513          	addi	a0,a0,-1127 # 15625 <end_signature+0x545>
   10a94:	56c030ef          	jal	ra,14000 <FN_WriteStr>
   10a98:	00005517          	auipc	a0,0x5
   10a9c:	ba850513          	addi	a0,a0,-1112 # 15640 <end_signature+0x560>
   10aa0:	560030ef          	jal	ra,14000 <FN_WriteStr>
   10aa4:	00005517          	auipc	a0,0x5
   10aa8:	ba750513          	addi	a0,a0,-1113 # 1564b <end_signature+0x56b>
   10aac:	554030ef          	jal	ra,14000 <FN_WriteStr>
   10ab0:	00005517          	auipc	a0,0x5
   10ab4:	ba350513          	addi	a0,a0,-1117 # 15653 <end_signature+0x573>
   10ab8:	548030ef          	jal	ra,14000 <FN_WriteStr>
   10abc:	00005517          	auipc	a0,0x5
   10ac0:	b9b50513          	addi	a0,a0,-1125 # 15657 <end_signature+0x577>
   10ac4:	53c030ef          	jal	ra,14000 <FN_WriteStr>
   10ac8:	00005517          	auipc	a0,0x5
   10acc:	b9250513          	addi	a0,a0,-1134 # 1565a <end_signature+0x57a>
   10ad0:	530030ef          	jal	ra,14000 <FN_WriteStr>
   10ad4:	00005517          	auipc	a0,0x5
   10ad8:	b8a50513          	addi	a0,a0,-1142 # 1565e <end_signature+0x57e>
   10adc:	524030ef          	jal	ra,14000 <FN_WriteStr>
   10ae0:	00070513          	mv	a0,a4
   10ae4:	538030ef          	jal	ra,1401c <FN_WriteA0>
   10ae8:	00005517          	auipc	a0,0x5
   10aec:	b7850513          	addi	a0,a0,-1160 # 15660 <end_signature+0x580>
   10af0:	510030ef          	jal	ra,14000 <FN_WriteStr>
   10af4:	00005517          	auipc	a0,0x5
   10af8:	b7250513          	addi	a0,a0,-1166 # 15666 <end_signature+0x586>
   10afc:	504030ef          	jal	ra,14000 <FN_WriteStr>
   10b00:	00005517          	auipc	a0,0x5
   10b04:	b7150513          	addi	a0,a0,-1167 # 15671 <end_signature+0x591>
   10b08:	4f8030ef          	jal	ra,14000 <FN_WriteStr>
   10b0c:	06400193          	li	gp,100
   10b10:	0000100f          	fence.i
   10b14:	00018063          	beqz	gp,10b14 <reset_vector+0xac8>
   10b18:	00119193          	slli	gp,gp,0x1
   10b1c:	0011e193          	ori	gp,gp,1
   10b20:	00000073          	ecall
   10b24:	00000293          	li	t0,0
   10b28:	08578e63          	beq	a5,t0,10bc4 <reset_vector+0xb78>
   10b2c:	00005517          	auipc	a0,0x5
   10b30:	b4750513          	addi	a0,a0,-1209 # 15673 <end_signature+0x593>
   10b34:	4cc030ef          	jal	ra,14000 <FN_WriteStr>
   10b38:	00005517          	auipc	a0,0x5
   10b3c:	b5650513          	addi	a0,a0,-1194 # 1568e <end_signature+0x5ae>
   10b40:	4c0030ef          	jal	ra,14000 <FN_WriteStr>
   10b44:	00005517          	auipc	a0,0x5
   10b48:	b5550513          	addi	a0,a0,-1195 # 15699 <end_signature+0x5b9>
   10b4c:	4b4030ef          	jal	ra,14000 <FN_WriteStr>
   10b50:	00005517          	auipc	a0,0x5
   10b54:	b5150513          	addi	a0,a0,-1199 # 156a1 <end_signature+0x5c1>
   10b58:	4a8030ef          	jal	ra,14000 <FN_WriteStr>
   10b5c:	00005517          	auipc	a0,0x5
   10b60:	b4950513          	addi	a0,a0,-1207 # 156a5 <end_signature+0x5c5>
   10b64:	49c030ef          	jal	ra,14000 <FN_WriteStr>
   10b68:	00005517          	auipc	a0,0x5
   10b6c:	b4050513          	addi	a0,a0,-1216 # 156a8 <end_signature+0x5c8>
   10b70:	490030ef          	jal	ra,14000 <FN_WriteStr>
   10b74:	00005517          	auipc	a0,0x5
   10b78:	b3850513          	addi	a0,a0,-1224 # 156ac <end_signature+0x5cc>
   10b7c:	484030ef          	jal	ra,14000 <FN_WriteStr>
   10b80:	00078513          	mv	a0,a5
   10b84:	498030ef          	jal	ra,1401c <FN_WriteA0>
   10b88:	00005517          	auipc	a0,0x5
   10b8c:	b2650513          	addi	a0,a0,-1242 # 156ae <end_signature+0x5ce>
   10b90:	470030ef          	jal	ra,14000 <FN_WriteStr>
   10b94:	00005517          	auipc	a0,0x5
   10b98:	b2050513          	addi	a0,a0,-1248 # 156b4 <end_signature+0x5d4>
   10b9c:	464030ef          	jal	ra,14000 <FN_WriteStr>
   10ba0:	00005517          	auipc	a0,0x5
   10ba4:	b1f50513          	addi	a0,a0,-1249 # 156bf <end_signature+0x5df>
   10ba8:	458030ef          	jal	ra,14000 <FN_WriteStr>
   10bac:	06400193          	li	gp,100
   10bb0:	0000100f          	fence.i
   10bb4:	00018063          	beqz	gp,10bb4 <reset_vector+0xb68>
   10bb8:	00119193          	slli	gp,gp,0x1
   10bbc:	0011e193          	ori	gp,gp,1
   10bc0:	00000073          	ecall
   10bc4:	ffe00293          	li	t0,-2
   10bc8:	08580e63          	beq	a6,t0,10c64 <reset_vector+0xc18>
   10bcc:	00005517          	auipc	a0,0x5
   10bd0:	af550513          	addi	a0,a0,-1291 # 156c1 <end_signature+0x5e1>
   10bd4:	42c030ef          	jal	ra,14000 <FN_WriteStr>
   10bd8:	00005517          	auipc	a0,0x5
   10bdc:	b0450513          	addi	a0,a0,-1276 # 156dc <end_signature+0x5fc>
   10be0:	420030ef          	jal	ra,14000 <FN_WriteStr>
   10be4:	00005517          	auipc	a0,0x5
   10be8:	b0350513          	addi	a0,a0,-1277 # 156e7 <end_signature+0x607>
   10bec:	414030ef          	jal	ra,14000 <FN_WriteStr>
   10bf0:	00005517          	auipc	a0,0x5
   10bf4:	aff50513          	addi	a0,a0,-1281 # 156ef <end_signature+0x60f>
   10bf8:	408030ef          	jal	ra,14000 <FN_WriteStr>
   10bfc:	00005517          	auipc	a0,0x5
   10c00:	af750513          	addi	a0,a0,-1289 # 156f3 <end_signature+0x613>
   10c04:	3fc030ef          	jal	ra,14000 <FN_WriteStr>
   10c08:	00005517          	auipc	a0,0x5
   10c0c:	aee50513          	addi	a0,a0,-1298 # 156f6 <end_signature+0x616>
   10c10:	3f0030ef          	jal	ra,14000 <FN_WriteStr>
   10c14:	00005517          	auipc	a0,0x5
   10c18:	ae650513          	addi	a0,a0,-1306 # 156fa <end_signature+0x61a>
   10c1c:	3e4030ef          	jal	ra,14000 <FN_WriteStr>
   10c20:	00080513          	mv	a0,a6
   10c24:	3f8030ef          	jal	ra,1401c <FN_WriteA0>
   10c28:	00005517          	auipc	a0,0x5
   10c2c:	ad450513          	addi	a0,a0,-1324 # 156fc <end_signature+0x61c>
   10c30:	3d0030ef          	jal	ra,14000 <FN_WriteStr>
   10c34:	00005517          	auipc	a0,0x5
   10c38:	ace50513          	addi	a0,a0,-1330 # 15702 <end_signature+0x622>
   10c3c:	3c4030ef          	jal	ra,14000 <FN_WriteStr>
   10c40:	00005517          	auipc	a0,0x5
   10c44:	acd50513          	addi	a0,a0,-1331 # 1570d <end_signature+0x62d>
   10c48:	3b8030ef          	jal	ra,14000 <FN_WriteStr>
   10c4c:	06400193          	li	gp,100
   10c50:	0000100f          	fence.i
   10c54:	00018063          	beqz	gp,10c54 <reset_vector+0xc08>
   10c58:	00119193          	slli	gp,gp,0x1
   10c5c:	0011e193          	ori	gp,gp,1
   10c60:	00000073          	ecall
   10c64:	800002b7          	lui	t0,0x80000
   10c68:	ffe28293          	addi	t0,t0,-2 # 7ffffffe <_end+0x7ffe9e82>
   10c6c:	08588e63          	beq	a7,t0,10d08 <reset_vector+0xcbc>
   10c70:	00005517          	auipc	a0,0x5
   10c74:	a9f50513          	addi	a0,a0,-1377 # 1570f <end_signature+0x62f>
   10c78:	388030ef          	jal	ra,14000 <FN_WriteStr>
   10c7c:	00005517          	auipc	a0,0x5
   10c80:	aae50513          	addi	a0,a0,-1362 # 1572a <end_signature+0x64a>
   10c84:	37c030ef          	jal	ra,14000 <FN_WriteStr>
   10c88:	00005517          	auipc	a0,0x5
   10c8c:	aad50513          	addi	a0,a0,-1363 # 15735 <end_signature+0x655>
   10c90:	370030ef          	jal	ra,14000 <FN_WriteStr>
   10c94:	00005517          	auipc	a0,0x5
   10c98:	aa950513          	addi	a0,a0,-1367 # 1573d <end_signature+0x65d>
   10c9c:	364030ef          	jal	ra,14000 <FN_WriteStr>
   10ca0:	00005517          	auipc	a0,0x5
   10ca4:	aa150513          	addi	a0,a0,-1375 # 15741 <end_signature+0x661>
   10ca8:	358030ef          	jal	ra,14000 <FN_WriteStr>
   10cac:	00005517          	auipc	a0,0x5
   10cb0:	a9850513          	addi	a0,a0,-1384 # 15744 <end_signature+0x664>
   10cb4:	34c030ef          	jal	ra,14000 <FN_WriteStr>
   10cb8:	00005517          	auipc	a0,0x5
   10cbc:	a9050513          	addi	a0,a0,-1392 # 15748 <end_signature+0x668>
   10cc0:	340030ef          	jal	ra,14000 <FN_WriteStr>
   10cc4:	00088513          	mv	a0,a7
   10cc8:	354030ef          	jal	ra,1401c <FN_WriteA0>
   10ccc:	00005517          	auipc	a0,0x5
   10cd0:	a7e50513          	addi	a0,a0,-1410 # 1574a <end_signature+0x66a>
   10cd4:	32c030ef          	jal	ra,14000 <FN_WriteStr>
   10cd8:	00005517          	auipc	a0,0x5
   10cdc:	a7850513          	addi	a0,a0,-1416 # 15750 <end_signature+0x670>
   10ce0:	320030ef          	jal	ra,14000 <FN_WriteStr>
   10ce4:	00005517          	auipc	a0,0x5
   10ce8:	a7750513          	addi	a0,a0,-1417 # 1575b <end_signature+0x67b>
   10cec:	314030ef          	jal	ra,14000 <FN_WriteStr>
   10cf0:	06400193          	li	gp,100
   10cf4:	0000100f          	fence.i
   10cf8:	00018063          	beqz	gp,10cf8 <reset_vector+0xcac>
   10cfc:	00119193          	slli	gp,gp,0x1
   10d00:	0011e193          	ori	gp,gp,1
   10d04:	00000073          	ecall
   10d08:	800002b7          	lui	t0,0x80000
   10d0c:	fff28293          	addi	t0,t0,-1 # 7fffffff <_end+0x7ffe9e83>
   10d10:	08590e63          	beq	s2,t0,10dac <reset_vector+0xd60>
   10d14:	00005517          	auipc	a0,0x5
   10d18:	a4950513          	addi	a0,a0,-1463 # 1575d <end_signature+0x67d>
   10d1c:	2e4030ef          	jal	ra,14000 <FN_WriteStr>
   10d20:	00005517          	auipc	a0,0x5
   10d24:	a5850513          	addi	a0,a0,-1448 # 15778 <end_signature+0x698>
   10d28:	2d8030ef          	jal	ra,14000 <FN_WriteStr>
   10d2c:	00005517          	auipc	a0,0x5
   10d30:	a5750513          	addi	a0,a0,-1449 # 15783 <end_signature+0x6a3>
   10d34:	2cc030ef          	jal	ra,14000 <FN_WriteStr>
   10d38:	00005517          	auipc	a0,0x5
   10d3c:	a5350513          	addi	a0,a0,-1453 # 1578b <end_signature+0x6ab>
   10d40:	2c0030ef          	jal	ra,14000 <FN_WriteStr>
   10d44:	00005517          	auipc	a0,0x5
   10d48:	a4b50513          	addi	a0,a0,-1461 # 1578f <end_signature+0x6af>
   10d4c:	2b4030ef          	jal	ra,14000 <FN_WriteStr>
   10d50:	00005517          	auipc	a0,0x5
   10d54:	a4250513          	addi	a0,a0,-1470 # 15792 <end_signature+0x6b2>
   10d58:	2a8030ef          	jal	ra,14000 <FN_WriteStr>
   10d5c:	00005517          	auipc	a0,0x5
   10d60:	a3a50513          	addi	a0,a0,-1478 # 15796 <end_signature+0x6b6>
   10d64:	29c030ef          	jal	ra,14000 <FN_WriteStr>
   10d68:	00090513          	mv	a0,s2
   10d6c:	2b0030ef          	jal	ra,1401c <FN_WriteA0>
   10d70:	00005517          	auipc	a0,0x5
   10d74:	a2850513          	addi	a0,a0,-1496 # 15798 <end_signature+0x6b8>
   10d78:	288030ef          	jal	ra,14000 <FN_WriteStr>
   10d7c:	00005517          	auipc	a0,0x5
   10d80:	a2250513          	addi	a0,a0,-1502 # 1579e <end_signature+0x6be>
   10d84:	27c030ef          	jal	ra,14000 <FN_WriteStr>
   10d88:	00005517          	auipc	a0,0x5
   10d8c:	a2150513          	addi	a0,a0,-1503 # 157a9 <end_signature+0x6c9>
   10d90:	270030ef          	jal	ra,14000 <FN_WriteStr>
   10d94:	06400193          	li	gp,100
   10d98:	0000100f          	fence.i
   10d9c:	00018063          	beqz	gp,10d9c <reset_vector+0xd50>
   10da0:	00119193          	slli	gp,gp,0x1
   10da4:	0011e193          	ori	gp,gp,1
   10da8:	00000073          	ecall
   10dac:	00005517          	auipc	a0,0x5
   10db0:	9ff50513          	addi	a0,a0,-1537 # 157ab <end_signature+0x6cb>
   10db4:	24c030ef          	jal	ra,14000 <FN_WriteStr>
   10db8:	00005517          	auipc	a0,0x5
   10dbc:	a0e50513          	addi	a0,a0,-1522 # 157c6 <end_signature+0x6e6>
   10dc0:	240030ef          	jal	ra,14000 <FN_WriteStr>
   10dc4:	00004097          	auipc	ra,0x4
   10dc8:	24808093          	addi	ra,ra,584 # 1500c <test_A4_data>
   10dcc:	00004117          	auipc	sp,0x4
   10dd0:	2ac10113          	addi	sp,sp,684 # 15078 <test_A4_res>
   10dd4:	0000a903          	lw	s2,0(ra)
   10dd8:	00000993          	li	s3,0
   10ddc:	00100a13          	li	s4,1
   10de0:	fff00a93          	li	s5,-1
   10de4:	80000b37          	lui	s6,0x80000
   10de8:	fffb0b13          	addi	s6,s6,-1 # 7fffffff <_end+0x7ffe9e83>
   10dec:	80000bb7          	lui	s7,0x80000
   10df0:	013909b3          	add	s3,s2,s3
   10df4:	01490a33          	add	s4,s2,s4
   10df8:	01590ab3          	add	s5,s2,s5
   10dfc:	01690b33          	add	s6,s2,s6
   10e00:	01790bb3          	add	s7,s2,s7
   10e04:	01212023          	sw	s2,0(sp)
   10e08:	01312223          	sw	s3,4(sp)
   10e0c:	01412423          	sw	s4,8(sp)
   10e10:	01512623          	sw	s5,12(sp)
   10e14:	01612823          	sw	s6,16(sp)
   10e18:	01712a23          	sw	s7,20(sp)
   10e1c:	800002b7          	lui	t0,0x80000
   10e20:	fff28293          	addi	t0,t0,-1 # 7fffffff <_end+0x7ffe9e83>
   10e24:	08590e63          	beq	s2,t0,10ec0 <reset_vector+0xe74>
   10e28:	00005517          	auipc	a0,0x5
   10e2c:	9f950513          	addi	a0,a0,-1543 # 15821 <end_signature+0x741>
   10e30:	1d0030ef          	jal	ra,14000 <FN_WriteStr>
   10e34:	00005517          	auipc	a0,0x5
   10e38:	a0850513          	addi	a0,a0,-1528 # 1583c <end_signature+0x75c>
   10e3c:	1c4030ef          	jal	ra,14000 <FN_WriteStr>
   10e40:	00005517          	auipc	a0,0x5
   10e44:	a0750513          	addi	a0,a0,-1529 # 15847 <end_signature+0x767>
   10e48:	1b8030ef          	jal	ra,14000 <FN_WriteStr>
   10e4c:	00005517          	auipc	a0,0x5
   10e50:	a0350513          	addi	a0,a0,-1533 # 1584f <end_signature+0x76f>
   10e54:	1ac030ef          	jal	ra,14000 <FN_WriteStr>
   10e58:	00005517          	auipc	a0,0x5
   10e5c:	9fb50513          	addi	a0,a0,-1541 # 15853 <end_signature+0x773>
   10e60:	1a0030ef          	jal	ra,14000 <FN_WriteStr>
   10e64:	00005517          	auipc	a0,0x5
   10e68:	9f250513          	addi	a0,a0,-1550 # 15856 <end_signature+0x776>
   10e6c:	194030ef          	jal	ra,14000 <FN_WriteStr>
   10e70:	00005517          	auipc	a0,0x5
   10e74:	9ea50513          	addi	a0,a0,-1558 # 1585a <end_signature+0x77a>
   10e78:	188030ef          	jal	ra,14000 <FN_WriteStr>
   10e7c:	00090513          	mv	a0,s2
   10e80:	19c030ef          	jal	ra,1401c <FN_WriteA0>
   10e84:	00005517          	auipc	a0,0x5
   10e88:	9d850513          	addi	a0,a0,-1576 # 1585c <end_signature+0x77c>
   10e8c:	174030ef          	jal	ra,14000 <FN_WriteStr>
   10e90:	00005517          	auipc	a0,0x5
   10e94:	9d250513          	addi	a0,a0,-1582 # 15862 <end_signature+0x782>
   10e98:	168030ef          	jal	ra,14000 <FN_WriteStr>
   10e9c:	00005517          	auipc	a0,0x5
   10ea0:	9d150513          	addi	a0,a0,-1583 # 1586d <end_signature+0x78d>
   10ea4:	15c030ef          	jal	ra,14000 <FN_WriteStr>
   10ea8:	06400193          	li	gp,100
   10eac:	0000100f          	fence.i
   10eb0:	00018063          	beqz	gp,10eb0 <reset_vector+0xe64>
   10eb4:	00119193          	slli	gp,gp,0x1
   10eb8:	0011e193          	ori	gp,gp,1
   10ebc:	00000073          	ecall
   10ec0:	800002b7          	lui	t0,0x80000
   10ec4:	fff28293          	addi	t0,t0,-1 # 7fffffff <_end+0x7ffe9e83>
   10ec8:	08598e63          	beq	s3,t0,10f64 <reset_vector+0xf18>
   10ecc:	00005517          	auipc	a0,0x5
   10ed0:	9a350513          	addi	a0,a0,-1629 # 1586f <end_signature+0x78f>
   10ed4:	12c030ef          	jal	ra,14000 <FN_WriteStr>
   10ed8:	00005517          	auipc	a0,0x5
   10edc:	9b250513          	addi	a0,a0,-1614 # 1588a <end_signature+0x7aa>
   10ee0:	120030ef          	jal	ra,14000 <FN_WriteStr>
   10ee4:	00005517          	auipc	a0,0x5
   10ee8:	9b150513          	addi	a0,a0,-1615 # 15895 <end_signature+0x7b5>
   10eec:	114030ef          	jal	ra,14000 <FN_WriteStr>
   10ef0:	00005517          	auipc	a0,0x5
   10ef4:	9ad50513          	addi	a0,a0,-1619 # 1589d <end_signature+0x7bd>
   10ef8:	108030ef          	jal	ra,14000 <FN_WriteStr>
   10efc:	00005517          	auipc	a0,0x5
   10f00:	9a550513          	addi	a0,a0,-1627 # 158a1 <end_signature+0x7c1>
   10f04:	0fc030ef          	jal	ra,14000 <FN_WriteStr>
   10f08:	00005517          	auipc	a0,0x5
   10f0c:	99c50513          	addi	a0,a0,-1636 # 158a4 <end_signature+0x7c4>
   10f10:	0f0030ef          	jal	ra,14000 <FN_WriteStr>
   10f14:	00005517          	auipc	a0,0x5
   10f18:	99450513          	addi	a0,a0,-1644 # 158a8 <end_signature+0x7c8>
   10f1c:	0e4030ef          	jal	ra,14000 <FN_WriteStr>
   10f20:	00098513          	mv	a0,s3
   10f24:	0f8030ef          	jal	ra,1401c <FN_WriteA0>
   10f28:	00005517          	auipc	a0,0x5
   10f2c:	98250513          	addi	a0,a0,-1662 # 158aa <end_signature+0x7ca>
   10f30:	0d0030ef          	jal	ra,14000 <FN_WriteStr>
   10f34:	00005517          	auipc	a0,0x5
   10f38:	97c50513          	addi	a0,a0,-1668 # 158b0 <end_signature+0x7d0>
   10f3c:	0c4030ef          	jal	ra,14000 <FN_WriteStr>
   10f40:	00005517          	auipc	a0,0x5
   10f44:	97b50513          	addi	a0,a0,-1669 # 158bb <end_signature+0x7db>
   10f48:	0b8030ef          	jal	ra,14000 <FN_WriteStr>
   10f4c:	06400193          	li	gp,100
   10f50:	0000100f          	fence.i
   10f54:	00018063          	beqz	gp,10f54 <reset_vector+0xf08>
   10f58:	00119193          	slli	gp,gp,0x1
   10f5c:	0011e193          	ori	gp,gp,1
   10f60:	00000073          	ecall
   10f64:	800002b7          	lui	t0,0x80000
   10f68:	085a0e63          	beq	s4,t0,11004 <reset_vector+0xfb8>
   10f6c:	00005517          	auipc	a0,0x5
   10f70:	95150513          	addi	a0,a0,-1711 # 158bd <end_signature+0x7dd>
   10f74:	08c030ef          	jal	ra,14000 <FN_WriteStr>
   10f78:	00005517          	auipc	a0,0x5
   10f7c:	96050513          	addi	a0,a0,-1696 # 158d8 <end_signature+0x7f8>
   10f80:	080030ef          	jal	ra,14000 <FN_WriteStr>
   10f84:	00005517          	auipc	a0,0x5
   10f88:	95f50513          	addi	a0,a0,-1697 # 158e3 <end_signature+0x803>
   10f8c:	074030ef          	jal	ra,14000 <FN_WriteStr>
   10f90:	00005517          	auipc	a0,0x5
   10f94:	95b50513          	addi	a0,a0,-1701 # 158eb <end_signature+0x80b>
   10f98:	068030ef          	jal	ra,14000 <FN_WriteStr>
   10f9c:	00005517          	auipc	a0,0x5
   10fa0:	95350513          	addi	a0,a0,-1709 # 158ef <end_signature+0x80f>
   10fa4:	05c030ef          	jal	ra,14000 <FN_WriteStr>
   10fa8:	00005517          	auipc	a0,0x5
   10fac:	94a50513          	addi	a0,a0,-1718 # 158f2 <end_signature+0x812>
   10fb0:	050030ef          	jal	ra,14000 <FN_WriteStr>
   10fb4:	00005517          	auipc	a0,0x5
   10fb8:	94250513          	addi	a0,a0,-1726 # 158f6 <end_signature+0x816>
   10fbc:	044030ef          	jal	ra,14000 <FN_WriteStr>
   10fc0:	000a0513          	mv	a0,s4
   10fc4:	058030ef          	jal	ra,1401c <FN_WriteA0>
   10fc8:	00005517          	auipc	a0,0x5
   10fcc:	93050513          	addi	a0,a0,-1744 # 158f8 <end_signature+0x818>
   10fd0:	030030ef          	jal	ra,14000 <FN_WriteStr>
   10fd4:	00005517          	auipc	a0,0x5
   10fd8:	92a50513          	addi	a0,a0,-1750 # 158fe <end_signature+0x81e>
   10fdc:	024030ef          	jal	ra,14000 <FN_WriteStr>
   10fe0:	00005517          	auipc	a0,0x5
   10fe4:	92950513          	addi	a0,a0,-1751 # 15909 <end_signature+0x829>
   10fe8:	018030ef          	jal	ra,14000 <FN_WriteStr>
   10fec:	06400193          	li	gp,100
   10ff0:	0000100f          	fence.i
   10ff4:	00018063          	beqz	gp,10ff4 <reset_vector+0xfa8>
   10ff8:	00119193          	slli	gp,gp,0x1
   10ffc:	0011e193          	ori	gp,gp,1
   11000:	00000073          	ecall
   11004:	800002b7          	lui	t0,0x80000
   11008:	ffe28293          	addi	t0,t0,-2 # 7ffffffe <_end+0x7ffe9e82>
   1100c:	085a8e63          	beq	s5,t0,110a8 <reset_vector+0x105c>
   11010:	00005517          	auipc	a0,0x5
   11014:	8fb50513          	addi	a0,a0,-1797 # 1590b <end_signature+0x82b>
   11018:	7e9020ef          	jal	ra,14000 <FN_WriteStr>
   1101c:	00005517          	auipc	a0,0x5
   11020:	90a50513          	addi	a0,a0,-1782 # 15926 <end_signature+0x846>
   11024:	7dd020ef          	jal	ra,14000 <FN_WriteStr>
   11028:	00005517          	auipc	a0,0x5
   1102c:	90950513          	addi	a0,a0,-1783 # 15931 <end_signature+0x851>
   11030:	7d1020ef          	jal	ra,14000 <FN_WriteStr>
   11034:	00005517          	auipc	a0,0x5
   11038:	90550513          	addi	a0,a0,-1787 # 15939 <end_signature+0x859>
   1103c:	7c5020ef          	jal	ra,14000 <FN_WriteStr>
   11040:	00005517          	auipc	a0,0x5
   11044:	8fd50513          	addi	a0,a0,-1795 # 1593d <end_signature+0x85d>
   11048:	7b9020ef          	jal	ra,14000 <FN_WriteStr>
   1104c:	00005517          	auipc	a0,0x5
   11050:	8f450513          	addi	a0,a0,-1804 # 15940 <end_signature+0x860>
   11054:	7ad020ef          	jal	ra,14000 <FN_WriteStr>
   11058:	00005517          	auipc	a0,0x5
   1105c:	8ec50513          	addi	a0,a0,-1812 # 15944 <end_signature+0x864>
   11060:	7a1020ef          	jal	ra,14000 <FN_WriteStr>
   11064:	000a8513          	mv	a0,s5
   11068:	7b5020ef          	jal	ra,1401c <FN_WriteA0>
   1106c:	00005517          	auipc	a0,0x5
   11070:	8da50513          	addi	a0,a0,-1830 # 15946 <end_signature+0x866>
   11074:	78d020ef          	jal	ra,14000 <FN_WriteStr>
   11078:	00005517          	auipc	a0,0x5
   1107c:	8d450513          	addi	a0,a0,-1836 # 1594c <end_signature+0x86c>
   11080:	781020ef          	jal	ra,14000 <FN_WriteStr>
   11084:	00005517          	auipc	a0,0x5
   11088:	8d350513          	addi	a0,a0,-1837 # 15957 <end_signature+0x877>
   1108c:	775020ef          	jal	ra,14000 <FN_WriteStr>
   11090:	06400193          	li	gp,100
   11094:	0000100f          	fence.i
   11098:	00018063          	beqz	gp,11098 <reset_vector+0x104c>
   1109c:	00119193          	slli	gp,gp,0x1
   110a0:	0011e193          	ori	gp,gp,1
   110a4:	00000073          	ecall
   110a8:	ffe00293          	li	t0,-2
   110ac:	085b0e63          	beq	s6,t0,11148 <reset_vector+0x10fc>
   110b0:	00005517          	auipc	a0,0x5
   110b4:	8a950513          	addi	a0,a0,-1879 # 15959 <end_signature+0x879>
   110b8:	749020ef          	jal	ra,14000 <FN_WriteStr>
   110bc:	00005517          	auipc	a0,0x5
   110c0:	8b850513          	addi	a0,a0,-1864 # 15974 <end_signature+0x894>
   110c4:	73d020ef          	jal	ra,14000 <FN_WriteStr>
   110c8:	00005517          	auipc	a0,0x5
   110cc:	8b750513          	addi	a0,a0,-1865 # 1597f <end_signature+0x89f>
   110d0:	731020ef          	jal	ra,14000 <FN_WriteStr>
   110d4:	00005517          	auipc	a0,0x5
   110d8:	8b350513          	addi	a0,a0,-1869 # 15987 <end_signature+0x8a7>
   110dc:	725020ef          	jal	ra,14000 <FN_WriteStr>
   110e0:	00005517          	auipc	a0,0x5
   110e4:	8ab50513          	addi	a0,a0,-1877 # 1598b <end_signature+0x8ab>
   110e8:	719020ef          	jal	ra,14000 <FN_WriteStr>
   110ec:	00005517          	auipc	a0,0x5
   110f0:	8a250513          	addi	a0,a0,-1886 # 1598e <end_signature+0x8ae>
   110f4:	70d020ef          	jal	ra,14000 <FN_WriteStr>
   110f8:	00005517          	auipc	a0,0x5
   110fc:	89a50513          	addi	a0,a0,-1894 # 15992 <end_signature+0x8b2>
   11100:	701020ef          	jal	ra,14000 <FN_WriteStr>
   11104:	000b0513          	mv	a0,s6
   11108:	715020ef          	jal	ra,1401c <FN_WriteA0>
   1110c:	00005517          	auipc	a0,0x5
   11110:	88850513          	addi	a0,a0,-1912 # 15994 <end_signature+0x8b4>
   11114:	6ed020ef          	jal	ra,14000 <FN_WriteStr>
   11118:	00005517          	auipc	a0,0x5
   1111c:	88250513          	addi	a0,a0,-1918 # 1599a <end_signature+0x8ba>
   11120:	6e1020ef          	jal	ra,14000 <FN_WriteStr>
   11124:	00005517          	auipc	a0,0x5
   11128:	88150513          	addi	a0,a0,-1919 # 159a5 <end_signature+0x8c5>
   1112c:	6d5020ef          	jal	ra,14000 <FN_WriteStr>
   11130:	06400193          	li	gp,100
   11134:	0000100f          	fence.i
   11138:	00018063          	beqz	gp,11138 <reset_vector+0x10ec>
   1113c:	00119193          	slli	gp,gp,0x1
   11140:	0011e193          	ori	gp,gp,1
   11144:	00000073          	ecall
   11148:	fff00293          	li	t0,-1
   1114c:	085b8e63          	beq	s7,t0,111e8 <reset_vector+0x119c>
   11150:	00005517          	auipc	a0,0x5
   11154:	85750513          	addi	a0,a0,-1961 # 159a7 <end_signature+0x8c7>
   11158:	6a9020ef          	jal	ra,14000 <FN_WriteStr>
   1115c:	00005517          	auipc	a0,0x5
   11160:	86650513          	addi	a0,a0,-1946 # 159c2 <end_signature+0x8e2>
   11164:	69d020ef          	jal	ra,14000 <FN_WriteStr>
   11168:	00005517          	auipc	a0,0x5
   1116c:	86550513          	addi	a0,a0,-1947 # 159cd <end_signature+0x8ed>
   11170:	691020ef          	jal	ra,14000 <FN_WriteStr>
   11174:	00005517          	auipc	a0,0x5
   11178:	86150513          	addi	a0,a0,-1951 # 159d5 <end_signature+0x8f5>
   1117c:	685020ef          	jal	ra,14000 <FN_WriteStr>
   11180:	00005517          	auipc	a0,0x5
   11184:	85950513          	addi	a0,a0,-1959 # 159d9 <end_signature+0x8f9>
   11188:	679020ef          	jal	ra,14000 <FN_WriteStr>
   1118c:	00005517          	auipc	a0,0x5
   11190:	85050513          	addi	a0,a0,-1968 # 159dc <end_signature+0x8fc>
   11194:	66d020ef          	jal	ra,14000 <FN_WriteStr>
   11198:	00005517          	auipc	a0,0x5
   1119c:	84850513          	addi	a0,a0,-1976 # 159e0 <end_signature+0x900>
   111a0:	661020ef          	jal	ra,14000 <FN_WriteStr>
   111a4:	000b8513          	mv	a0,s7
   111a8:	675020ef          	jal	ra,1401c <FN_WriteA0>
   111ac:	00005517          	auipc	a0,0x5
   111b0:	83650513          	addi	a0,a0,-1994 # 159e2 <end_signature+0x902>
   111b4:	64d020ef          	jal	ra,14000 <FN_WriteStr>
   111b8:	00005517          	auipc	a0,0x5
   111bc:	83050513          	addi	a0,a0,-2000 # 159e8 <end_signature+0x908>
   111c0:	641020ef          	jal	ra,14000 <FN_WriteStr>
   111c4:	00005517          	auipc	a0,0x5
   111c8:	82f50513          	addi	a0,a0,-2001 # 159f3 <end_signature+0x913>
   111cc:	635020ef          	jal	ra,14000 <FN_WriteStr>
   111d0:	06400193          	li	gp,100
   111d4:	0000100f          	fence.i
   111d8:	00018063          	beqz	gp,111d8 <reset_vector+0x118c>
   111dc:	00119193          	slli	gp,gp,0x1
   111e0:	0011e193          	ori	gp,gp,1
   111e4:	00000073          	ecall
   111e8:	00005517          	auipc	a0,0x5
   111ec:	80d50513          	addi	a0,a0,-2035 # 159f5 <end_signature+0x915>
   111f0:	611020ef          	jal	ra,14000 <FN_WriteStr>
   111f4:	00005517          	auipc	a0,0x5
   111f8:	81c50513          	addi	a0,a0,-2020 # 15a10 <end_signature+0x930>
   111fc:	605020ef          	jal	ra,14000 <FN_WriteStr>
   11200:	00004097          	auipc	ra,0x4
   11204:	e1008093          	addi	ra,ra,-496 # 15010 <test_A5_data>
   11208:	00004117          	auipc	sp,0x4
   1120c:	e8810113          	addi	sp,sp,-376 # 15090 <test_A5_res>
   11210:	0000ab83          	lw	s7,0(ra)
   11214:	00000c13          	li	s8,0
   11218:	00100c93          	li	s9,1
   1121c:	fff00d13          	li	s10,-1
   11220:	80000db7          	lui	s11,0x80000
   11224:	fffd8d93          	addi	s11,s11,-1 # 7fffffff <_end+0x7ffe9e83>
   11228:	80000e37          	lui	t3,0x80000
   1122c:	018b8c33          	add	s8,s7,s8
   11230:	019b8cb3          	add	s9,s7,s9
   11234:	01ab8d33          	add	s10,s7,s10
   11238:	01bb8db3          	add	s11,s7,s11
   1123c:	01cb8e33          	add	t3,s7,t3
   11240:	01712023          	sw	s7,0(sp)
   11244:	01812223          	sw	s8,4(sp)
   11248:	01912423          	sw	s9,8(sp)
   1124c:	01a12623          	sw	s10,12(sp)
   11250:	01b12823          	sw	s11,16(sp)
   11254:	01c12a23          	sw	t3,20(sp)
   11258:	800002b7          	lui	t0,0x80000
   1125c:	085b8e63          	beq	s7,t0,112f8 <reset_vector+0x12ac>
   11260:	00005517          	auipc	a0,0x5
   11264:	80b50513          	addi	a0,a0,-2037 # 15a6b <end_signature+0x98b>
   11268:	599020ef          	jal	ra,14000 <FN_WriteStr>
   1126c:	00005517          	auipc	a0,0x5
   11270:	81a50513          	addi	a0,a0,-2022 # 15a86 <end_signature+0x9a6>
   11274:	58d020ef          	jal	ra,14000 <FN_WriteStr>
   11278:	00005517          	auipc	a0,0x5
   1127c:	81950513          	addi	a0,a0,-2023 # 15a91 <end_signature+0x9b1>
   11280:	581020ef          	jal	ra,14000 <FN_WriteStr>
   11284:	00005517          	auipc	a0,0x5
   11288:	81550513          	addi	a0,a0,-2027 # 15a99 <end_signature+0x9b9>
   1128c:	575020ef          	jal	ra,14000 <FN_WriteStr>
   11290:	00005517          	auipc	a0,0x5
   11294:	80d50513          	addi	a0,a0,-2035 # 15a9d <end_signature+0x9bd>
   11298:	569020ef          	jal	ra,14000 <FN_WriteStr>
   1129c:	00005517          	auipc	a0,0x5
   112a0:	80450513          	addi	a0,a0,-2044 # 15aa0 <end_signature+0x9c0>
   112a4:	55d020ef          	jal	ra,14000 <FN_WriteStr>
   112a8:	00004517          	auipc	a0,0x4
   112ac:	7fc50513          	addi	a0,a0,2044 # 15aa4 <end_signature+0x9c4>
   112b0:	551020ef          	jal	ra,14000 <FN_WriteStr>
   112b4:	000b8513          	mv	a0,s7
   112b8:	565020ef          	jal	ra,1401c <FN_WriteA0>
   112bc:	00004517          	auipc	a0,0x4
   112c0:	7ea50513          	addi	a0,a0,2026 # 15aa6 <end_signature+0x9c6>
   112c4:	53d020ef          	jal	ra,14000 <FN_WriteStr>
   112c8:	00004517          	auipc	a0,0x4
   112cc:	7e450513          	addi	a0,a0,2020 # 15aac <end_signature+0x9cc>
   112d0:	531020ef          	jal	ra,14000 <FN_WriteStr>
   112d4:	00004517          	auipc	a0,0x4
   112d8:	7e350513          	addi	a0,a0,2019 # 15ab7 <end_signature+0x9d7>
   112dc:	525020ef          	jal	ra,14000 <FN_WriteStr>
   112e0:	06400193          	li	gp,100
   112e4:	0000100f          	fence.i
   112e8:	00018063          	beqz	gp,112e8 <reset_vector+0x129c>
   112ec:	00119193          	slli	gp,gp,0x1
   112f0:	0011e193          	ori	gp,gp,1
   112f4:	00000073          	ecall
   112f8:	800002b7          	lui	t0,0x80000
   112fc:	085c0e63          	beq	s8,t0,11398 <reset_vector+0x134c>
   11300:	00004517          	auipc	a0,0x4
   11304:	7b950513          	addi	a0,a0,1977 # 15ab9 <end_signature+0x9d9>
   11308:	4f9020ef          	jal	ra,14000 <FN_WriteStr>
   1130c:	00004517          	auipc	a0,0x4
   11310:	7c850513          	addi	a0,a0,1992 # 15ad4 <end_signature+0x9f4>
   11314:	4ed020ef          	jal	ra,14000 <FN_WriteStr>
   11318:	00004517          	auipc	a0,0x4
   1131c:	7c750513          	addi	a0,a0,1991 # 15adf <end_signature+0x9ff>
   11320:	4e1020ef          	jal	ra,14000 <FN_WriteStr>
   11324:	00004517          	auipc	a0,0x4
   11328:	7c350513          	addi	a0,a0,1987 # 15ae7 <end_signature+0xa07>
   1132c:	4d5020ef          	jal	ra,14000 <FN_WriteStr>
   11330:	00004517          	auipc	a0,0x4
   11334:	7bb50513          	addi	a0,a0,1979 # 15aeb <end_signature+0xa0b>
   11338:	4c9020ef          	jal	ra,14000 <FN_WriteStr>
   1133c:	00004517          	auipc	a0,0x4
   11340:	7b250513          	addi	a0,a0,1970 # 15aee <end_signature+0xa0e>
   11344:	4bd020ef          	jal	ra,14000 <FN_WriteStr>
   11348:	00004517          	auipc	a0,0x4
   1134c:	7aa50513          	addi	a0,a0,1962 # 15af2 <end_signature+0xa12>
   11350:	4b1020ef          	jal	ra,14000 <FN_WriteStr>
   11354:	000c0513          	mv	a0,s8
   11358:	4c5020ef          	jal	ra,1401c <FN_WriteA0>
   1135c:	00004517          	auipc	a0,0x4
   11360:	79850513          	addi	a0,a0,1944 # 15af4 <end_signature+0xa14>
   11364:	49d020ef          	jal	ra,14000 <FN_WriteStr>
   11368:	00004517          	auipc	a0,0x4
   1136c:	79250513          	addi	a0,a0,1938 # 15afa <end_signature+0xa1a>
   11370:	491020ef          	jal	ra,14000 <FN_WriteStr>
   11374:	00004517          	auipc	a0,0x4
   11378:	79150513          	addi	a0,a0,1937 # 15b05 <end_signature+0xa25>
   1137c:	485020ef          	jal	ra,14000 <FN_WriteStr>
   11380:	06400193          	li	gp,100
   11384:	0000100f          	fence.i
   11388:	00018063          	beqz	gp,11388 <reset_vector+0x133c>
   1138c:	00119193          	slli	gp,gp,0x1
   11390:	0011e193          	ori	gp,gp,1
   11394:	00000073          	ecall
   11398:	800002b7          	lui	t0,0x80000
   1139c:	00128293          	addi	t0,t0,1 # 80000001 <_end+0x7ffe9e85>
   113a0:	085c8e63          	beq	s9,t0,1143c <reset_vector+0x13f0>
   113a4:	00004517          	auipc	a0,0x4
   113a8:	76350513          	addi	a0,a0,1891 # 15b07 <end_signature+0xa27>
   113ac:	455020ef          	jal	ra,14000 <FN_WriteStr>
   113b0:	00004517          	auipc	a0,0x4
   113b4:	77250513          	addi	a0,a0,1906 # 15b22 <end_signature+0xa42>
   113b8:	449020ef          	jal	ra,14000 <FN_WriteStr>
   113bc:	00004517          	auipc	a0,0x4
   113c0:	77150513          	addi	a0,a0,1905 # 15b2d <end_signature+0xa4d>
   113c4:	43d020ef          	jal	ra,14000 <FN_WriteStr>
   113c8:	00004517          	auipc	a0,0x4
   113cc:	76d50513          	addi	a0,a0,1901 # 15b35 <end_signature+0xa55>
   113d0:	431020ef          	jal	ra,14000 <FN_WriteStr>
   113d4:	00004517          	auipc	a0,0x4
   113d8:	76550513          	addi	a0,a0,1893 # 15b39 <end_signature+0xa59>
   113dc:	425020ef          	jal	ra,14000 <FN_WriteStr>
   113e0:	00004517          	auipc	a0,0x4
   113e4:	75c50513          	addi	a0,a0,1884 # 15b3c <end_signature+0xa5c>
   113e8:	419020ef          	jal	ra,14000 <FN_WriteStr>
   113ec:	00004517          	auipc	a0,0x4
   113f0:	75450513          	addi	a0,a0,1876 # 15b40 <end_signature+0xa60>
   113f4:	40d020ef          	jal	ra,14000 <FN_WriteStr>
   113f8:	000c8513          	mv	a0,s9
   113fc:	421020ef          	jal	ra,1401c <FN_WriteA0>
   11400:	00004517          	auipc	a0,0x4
   11404:	74250513          	addi	a0,a0,1858 # 15b42 <end_signature+0xa62>
   11408:	3f9020ef          	jal	ra,14000 <FN_WriteStr>
   1140c:	00004517          	auipc	a0,0x4
   11410:	73c50513          	addi	a0,a0,1852 # 15b48 <end_signature+0xa68>
   11414:	3ed020ef          	jal	ra,14000 <FN_WriteStr>
   11418:	00004517          	auipc	a0,0x4
   1141c:	73b50513          	addi	a0,a0,1851 # 15b53 <end_signature+0xa73>
   11420:	3e1020ef          	jal	ra,14000 <FN_WriteStr>
   11424:	06400193          	li	gp,100
   11428:	0000100f          	fence.i
   1142c:	00018063          	beqz	gp,1142c <reset_vector+0x13e0>
   11430:	00119193          	slli	gp,gp,0x1
   11434:	0011e193          	ori	gp,gp,1
   11438:	00000073          	ecall
   1143c:	800002b7          	lui	t0,0x80000
   11440:	fff28293          	addi	t0,t0,-1 # 7fffffff <_end+0x7ffe9e83>
   11444:	085d0e63          	beq	s10,t0,114e0 <reset_vector+0x1494>
   11448:	00004517          	auipc	a0,0x4
   1144c:	70d50513          	addi	a0,a0,1805 # 15b55 <end_signature+0xa75>
   11450:	3b1020ef          	jal	ra,14000 <FN_WriteStr>
   11454:	00004517          	auipc	a0,0x4
   11458:	71c50513          	addi	a0,a0,1820 # 15b70 <end_signature+0xa90>
   1145c:	3a5020ef          	jal	ra,14000 <FN_WriteStr>
   11460:	00004517          	auipc	a0,0x4
   11464:	71b50513          	addi	a0,a0,1819 # 15b7b <end_signature+0xa9b>
   11468:	399020ef          	jal	ra,14000 <FN_WriteStr>
   1146c:	00004517          	auipc	a0,0x4
   11470:	71750513          	addi	a0,a0,1815 # 15b83 <end_signature+0xaa3>
   11474:	38d020ef          	jal	ra,14000 <FN_WriteStr>
   11478:	00004517          	auipc	a0,0x4
   1147c:	70f50513          	addi	a0,a0,1807 # 15b87 <end_signature+0xaa7>
   11480:	381020ef          	jal	ra,14000 <FN_WriteStr>
   11484:	00004517          	auipc	a0,0x4
   11488:	70650513          	addi	a0,a0,1798 # 15b8a <end_signature+0xaaa>
   1148c:	375020ef          	jal	ra,14000 <FN_WriteStr>
   11490:	00004517          	auipc	a0,0x4
   11494:	6fe50513          	addi	a0,a0,1790 # 15b8e <end_signature+0xaae>
   11498:	369020ef          	jal	ra,14000 <FN_WriteStr>
   1149c:	000d0513          	mv	a0,s10
   114a0:	37d020ef          	jal	ra,1401c <FN_WriteA0>
   114a4:	00004517          	auipc	a0,0x4
   114a8:	6ec50513          	addi	a0,a0,1772 # 15b90 <end_signature+0xab0>
   114ac:	355020ef          	jal	ra,14000 <FN_WriteStr>
   114b0:	00004517          	auipc	a0,0x4
   114b4:	6e650513          	addi	a0,a0,1766 # 15b96 <end_signature+0xab6>
   114b8:	349020ef          	jal	ra,14000 <FN_WriteStr>
   114bc:	00004517          	auipc	a0,0x4
   114c0:	6e550513          	addi	a0,a0,1765 # 15ba1 <end_signature+0xac1>
   114c4:	33d020ef          	jal	ra,14000 <FN_WriteStr>
   114c8:	06400193          	li	gp,100
   114cc:	0000100f          	fence.i
   114d0:	00018063          	beqz	gp,114d0 <reset_vector+0x1484>
   114d4:	00119193          	slli	gp,gp,0x1
   114d8:	0011e193          	ori	gp,gp,1
   114dc:	00000073          	ecall
   114e0:	fff00293          	li	t0,-1
   114e4:	085d8e63          	beq	s11,t0,11580 <reset_vector+0x1534>
   114e8:	00004517          	auipc	a0,0x4
   114ec:	6bb50513          	addi	a0,a0,1723 # 15ba3 <end_signature+0xac3>
   114f0:	311020ef          	jal	ra,14000 <FN_WriteStr>
   114f4:	00004517          	auipc	a0,0x4
   114f8:	6ca50513          	addi	a0,a0,1738 # 15bbe <end_signature+0xade>
   114fc:	305020ef          	jal	ra,14000 <FN_WriteStr>
   11500:	00004517          	auipc	a0,0x4
   11504:	6c950513          	addi	a0,a0,1737 # 15bc9 <end_signature+0xae9>
   11508:	2f9020ef          	jal	ra,14000 <FN_WriteStr>
   1150c:	00004517          	auipc	a0,0x4
   11510:	6c550513          	addi	a0,a0,1733 # 15bd1 <end_signature+0xaf1>
   11514:	2ed020ef          	jal	ra,14000 <FN_WriteStr>
   11518:	00004517          	auipc	a0,0x4
   1151c:	6bd50513          	addi	a0,a0,1725 # 15bd5 <end_signature+0xaf5>
   11520:	2e1020ef          	jal	ra,14000 <FN_WriteStr>
   11524:	00004517          	auipc	a0,0x4
   11528:	6b450513          	addi	a0,a0,1716 # 15bd8 <end_signature+0xaf8>
   1152c:	2d5020ef          	jal	ra,14000 <FN_WriteStr>
   11530:	00004517          	auipc	a0,0x4
   11534:	6ac50513          	addi	a0,a0,1708 # 15bdc <end_signature+0xafc>
   11538:	2c9020ef          	jal	ra,14000 <FN_WriteStr>
   1153c:	000d8513          	mv	a0,s11
   11540:	2dd020ef          	jal	ra,1401c <FN_WriteA0>
   11544:	00004517          	auipc	a0,0x4
   11548:	69a50513          	addi	a0,a0,1690 # 15bde <end_signature+0xafe>
   1154c:	2b5020ef          	jal	ra,14000 <FN_WriteStr>
   11550:	00004517          	auipc	a0,0x4
   11554:	69450513          	addi	a0,a0,1684 # 15be4 <end_signature+0xb04>
   11558:	2a9020ef          	jal	ra,14000 <FN_WriteStr>
   1155c:	00004517          	auipc	a0,0x4
   11560:	69350513          	addi	a0,a0,1683 # 15bef <end_signature+0xb0f>
   11564:	29d020ef          	jal	ra,14000 <FN_WriteStr>
   11568:	06400193          	li	gp,100
   1156c:	0000100f          	fence.i
   11570:	00018063          	beqz	gp,11570 <reset_vector+0x1524>
   11574:	00119193          	slli	gp,gp,0x1
   11578:	0011e193          	ori	gp,gp,1
   1157c:	00000073          	ecall
   11580:	00000293          	li	t0,0
   11584:	085e0e63          	beq	t3,t0,11620 <reset_vector+0x15d4>
   11588:	00004517          	auipc	a0,0x4
   1158c:	66950513          	addi	a0,a0,1641 # 15bf1 <end_signature+0xb11>
   11590:	271020ef          	jal	ra,14000 <FN_WriteStr>
   11594:	00004517          	auipc	a0,0x4
   11598:	67850513          	addi	a0,a0,1656 # 15c0c <end_signature+0xb2c>
   1159c:	265020ef          	jal	ra,14000 <FN_WriteStr>
   115a0:	00004517          	auipc	a0,0x4
   115a4:	67750513          	addi	a0,a0,1655 # 15c17 <end_signature+0xb37>
   115a8:	259020ef          	jal	ra,14000 <FN_WriteStr>
   115ac:	00004517          	auipc	a0,0x4
   115b0:	67350513          	addi	a0,a0,1651 # 15c1f <end_signature+0xb3f>
   115b4:	24d020ef          	jal	ra,14000 <FN_WriteStr>
   115b8:	00004517          	auipc	a0,0x4
   115bc:	66b50513          	addi	a0,a0,1643 # 15c23 <end_signature+0xb43>
   115c0:	241020ef          	jal	ra,14000 <FN_WriteStr>
   115c4:	00004517          	auipc	a0,0x4
   115c8:	66250513          	addi	a0,a0,1634 # 15c26 <end_signature+0xb46>
   115cc:	235020ef          	jal	ra,14000 <FN_WriteStr>
   115d0:	00004517          	auipc	a0,0x4
   115d4:	65a50513          	addi	a0,a0,1626 # 15c2a <end_signature+0xb4a>
   115d8:	229020ef          	jal	ra,14000 <FN_WriteStr>
   115dc:	000e0513          	mv	a0,t3
   115e0:	23d020ef          	jal	ra,1401c <FN_WriteA0>
   115e4:	00004517          	auipc	a0,0x4
   115e8:	64850513          	addi	a0,a0,1608 # 15c2c <end_signature+0xb4c>
   115ec:	215020ef          	jal	ra,14000 <FN_WriteStr>
   115f0:	00004517          	auipc	a0,0x4
   115f4:	64250513          	addi	a0,a0,1602 # 15c32 <end_signature+0xb52>
   115f8:	209020ef          	jal	ra,14000 <FN_WriteStr>
   115fc:	00004517          	auipc	a0,0x4
   11600:	64150513          	addi	a0,a0,1601 # 15c3d <end_signature+0xb5d>
   11604:	1fd020ef          	jal	ra,14000 <FN_WriteStr>
   11608:	06400193          	li	gp,100
   1160c:	0000100f          	fence.i
   11610:	00018063          	beqz	gp,11610 <reset_vector+0x15c4>
   11614:	00119193          	slli	gp,gp,0x1
   11618:	0011e193          	ori	gp,gp,1
   1161c:	00000073          	ecall
   11620:	00004517          	auipc	a0,0x4
   11624:	61f50513          	addi	a0,a0,1567 # 15c3f <end_signature+0xb5f>
   11628:	1d9020ef          	jal	ra,14000 <FN_WriteStr>
   1162c:	00004517          	auipc	a0,0x4
   11630:	62e50513          	addi	a0,a0,1582 # 15c5a <end_signature+0xb7a>
   11634:	1cd020ef          	jal	ra,14000 <FN_WriteStr>
   11638:	00004c97          	auipc	s9,0x4
   1163c:	9dcc8c93          	addi	s9,s9,-1572 # 15014 <test_B_data>
   11640:	00004d17          	auipc	s10,0x4
   11644:	a68d0d13          	addi	s10,s10,-1432 # 150a8 <test_B_res>
   11648:	000cae03          	lw	t3,0(s9)
   1164c:	00100d93          	li	s11,1
   11650:	01be0eb3          	add	t4,t3,s11
   11654:	01be8f33          	add	t5,t4,s11
   11658:	01bf0fb3          	add	t6,t5,s11
   1165c:	01bf80b3          	add	ra,t6,s11
   11660:	01b08133          	add	sp,ra,s11
   11664:	01b101b3          	add	gp,sp,s11
   11668:	01bd2023          	sw	s11,0(s10)
   1166c:	01cd2223          	sw	t3,4(s10)
   11670:	01dd2423          	sw	t4,8(s10)
   11674:	01ed2623          	sw	t5,12(s10)
   11678:	01fd2823          	sw	t6,16(s10)
   1167c:	001d2a23          	sw	ra,20(s10)
   11680:	002d2c23          	sw	sp,24(s10)
   11684:	003d2e23          	sw	gp,28(s10)
   11688:	00100293          	li	t0,1
   1168c:	085d8e63          	beq	s11,t0,11728 <reset_vector+0x16dc>
   11690:	00004517          	auipc	a0,0x4
   11694:	60350513          	addi	a0,a0,1539 # 15c93 <end_signature+0xbb3>
   11698:	169020ef          	jal	ra,14000 <FN_WriteStr>
   1169c:	00004517          	auipc	a0,0x4
   116a0:	61250513          	addi	a0,a0,1554 # 15cae <end_signature+0xbce>
   116a4:	15d020ef          	jal	ra,14000 <FN_WriteStr>
   116a8:	00004517          	auipc	a0,0x4
   116ac:	61150513          	addi	a0,a0,1553 # 15cb9 <end_signature+0xbd9>
   116b0:	151020ef          	jal	ra,14000 <FN_WriteStr>
   116b4:	00004517          	auipc	a0,0x4
   116b8:	60d50513          	addi	a0,a0,1549 # 15cc1 <end_signature+0xbe1>
   116bc:	145020ef          	jal	ra,14000 <FN_WriteStr>
   116c0:	00004517          	auipc	a0,0x4
   116c4:	60550513          	addi	a0,a0,1541 # 15cc5 <end_signature+0xbe5>
   116c8:	139020ef          	jal	ra,14000 <FN_WriteStr>
   116cc:	00004517          	auipc	a0,0x4
   116d0:	5fc50513          	addi	a0,a0,1532 # 15cc8 <end_signature+0xbe8>
   116d4:	12d020ef          	jal	ra,14000 <FN_WriteStr>
   116d8:	00004517          	auipc	a0,0x4
   116dc:	5f450513          	addi	a0,a0,1524 # 15ccc <end_signature+0xbec>
   116e0:	121020ef          	jal	ra,14000 <FN_WriteStr>
   116e4:	000d8513          	mv	a0,s11
   116e8:	135020ef          	jal	ra,1401c <FN_WriteA0>
   116ec:	00004517          	auipc	a0,0x4
   116f0:	5e250513          	addi	a0,a0,1506 # 15cce <end_signature+0xbee>
   116f4:	10d020ef          	jal	ra,14000 <FN_WriteStr>
   116f8:	00004517          	auipc	a0,0x4
   116fc:	5dc50513          	addi	a0,a0,1500 # 15cd4 <end_signature+0xbf4>
   11700:	101020ef          	jal	ra,14000 <FN_WriteStr>
   11704:	00004517          	auipc	a0,0x4
   11708:	5db50513          	addi	a0,a0,1499 # 15cdf <end_signature+0xbff>
   1170c:	0f5020ef          	jal	ra,14000 <FN_WriteStr>
   11710:	06400193          	li	gp,100
   11714:	0000100f          	fence.i
   11718:	00018063          	beqz	gp,11718 <reset_vector+0x16cc>
   1171c:	00119193          	slli	gp,gp,0x1
   11720:	0011e193          	ori	gp,gp,1
   11724:	00000073          	ecall
   11728:	0000b2b7          	lui	t0,0xb
   1172c:	bcd28293          	addi	t0,t0,-1075 # abcd <_start-0x5433>
   11730:	085e0e63          	beq	t3,t0,117cc <reset_vector+0x1780>
   11734:	00004517          	auipc	a0,0x4
   11738:	5ad50513          	addi	a0,a0,1453 # 15ce1 <end_signature+0xc01>
   1173c:	0c5020ef          	jal	ra,14000 <FN_WriteStr>
   11740:	00004517          	auipc	a0,0x4
   11744:	5bc50513          	addi	a0,a0,1468 # 15cfc <end_signature+0xc1c>
   11748:	0b9020ef          	jal	ra,14000 <FN_WriteStr>
   1174c:	00004517          	auipc	a0,0x4
   11750:	5bb50513          	addi	a0,a0,1467 # 15d07 <end_signature+0xc27>
   11754:	0ad020ef          	jal	ra,14000 <FN_WriteStr>
   11758:	00004517          	auipc	a0,0x4
   1175c:	5b750513          	addi	a0,a0,1463 # 15d0f <end_signature+0xc2f>
   11760:	0a1020ef          	jal	ra,14000 <FN_WriteStr>
   11764:	00004517          	auipc	a0,0x4
   11768:	5af50513          	addi	a0,a0,1455 # 15d13 <end_signature+0xc33>
   1176c:	095020ef          	jal	ra,14000 <FN_WriteStr>
   11770:	00004517          	auipc	a0,0x4
   11774:	5a650513          	addi	a0,a0,1446 # 15d16 <end_signature+0xc36>
   11778:	089020ef          	jal	ra,14000 <FN_WriteStr>
   1177c:	00004517          	auipc	a0,0x4
   11780:	59e50513          	addi	a0,a0,1438 # 15d1a <end_signature+0xc3a>
   11784:	07d020ef          	jal	ra,14000 <FN_WriteStr>
   11788:	000e0513          	mv	a0,t3
   1178c:	091020ef          	jal	ra,1401c <FN_WriteA0>
   11790:	00004517          	auipc	a0,0x4
   11794:	58c50513          	addi	a0,a0,1420 # 15d1c <end_signature+0xc3c>
   11798:	069020ef          	jal	ra,14000 <FN_WriteStr>
   1179c:	00004517          	auipc	a0,0x4
   117a0:	58650513          	addi	a0,a0,1414 # 15d22 <end_signature+0xc42>
   117a4:	05d020ef          	jal	ra,14000 <FN_WriteStr>
   117a8:	00004517          	auipc	a0,0x4
   117ac:	58550513          	addi	a0,a0,1413 # 15d2d <end_signature+0xc4d>
   117b0:	051020ef          	jal	ra,14000 <FN_WriteStr>
   117b4:	06400193          	li	gp,100
   117b8:	0000100f          	fence.i
   117bc:	00018063          	beqz	gp,117bc <reset_vector+0x1770>
   117c0:	00119193          	slli	gp,gp,0x1
   117c4:	0011e193          	ori	gp,gp,1
   117c8:	00000073          	ecall
   117cc:	0000b2b7          	lui	t0,0xb
   117d0:	bce28293          	addi	t0,t0,-1074 # abce <_start-0x5432>
   117d4:	085e8e63          	beq	t4,t0,11870 <reset_vector+0x1824>
   117d8:	00004517          	auipc	a0,0x4
   117dc:	55750513          	addi	a0,a0,1367 # 15d2f <end_signature+0xc4f>
   117e0:	021020ef          	jal	ra,14000 <FN_WriteStr>
   117e4:	00004517          	auipc	a0,0x4
   117e8:	56650513          	addi	a0,a0,1382 # 15d4a <end_signature+0xc6a>
   117ec:	015020ef          	jal	ra,14000 <FN_WriteStr>
   117f0:	00004517          	auipc	a0,0x4
   117f4:	56550513          	addi	a0,a0,1381 # 15d55 <end_signature+0xc75>
   117f8:	009020ef          	jal	ra,14000 <FN_WriteStr>
   117fc:	00004517          	auipc	a0,0x4
   11800:	56150513          	addi	a0,a0,1377 # 15d5d <end_signature+0xc7d>
   11804:	7fc020ef          	jal	ra,14000 <FN_WriteStr>
   11808:	00004517          	auipc	a0,0x4
   1180c:	55950513          	addi	a0,a0,1369 # 15d61 <end_signature+0xc81>
   11810:	7f0020ef          	jal	ra,14000 <FN_WriteStr>
   11814:	00004517          	auipc	a0,0x4
   11818:	55050513          	addi	a0,a0,1360 # 15d64 <end_signature+0xc84>
   1181c:	7e4020ef          	jal	ra,14000 <FN_WriteStr>
   11820:	00004517          	auipc	a0,0x4
   11824:	54850513          	addi	a0,a0,1352 # 15d68 <end_signature+0xc88>
   11828:	7d8020ef          	jal	ra,14000 <FN_WriteStr>
   1182c:	000e8513          	mv	a0,t4
   11830:	7ec020ef          	jal	ra,1401c <FN_WriteA0>
   11834:	00004517          	auipc	a0,0x4
   11838:	53650513          	addi	a0,a0,1334 # 15d6a <end_signature+0xc8a>
   1183c:	7c4020ef          	jal	ra,14000 <FN_WriteStr>
   11840:	00004517          	auipc	a0,0x4
   11844:	53050513          	addi	a0,a0,1328 # 15d70 <end_signature+0xc90>
   11848:	7b8020ef          	jal	ra,14000 <FN_WriteStr>
   1184c:	00004517          	auipc	a0,0x4
   11850:	52f50513          	addi	a0,a0,1327 # 15d7b <end_signature+0xc9b>
   11854:	7ac020ef          	jal	ra,14000 <FN_WriteStr>
   11858:	06400193          	li	gp,100
   1185c:	0000100f          	fence.i
   11860:	00018063          	beqz	gp,11860 <reset_vector+0x1814>
   11864:	00119193          	slli	gp,gp,0x1
   11868:	0011e193          	ori	gp,gp,1
   1186c:	00000073          	ecall
   11870:	0000b2b7          	lui	t0,0xb
   11874:	bcf28293          	addi	t0,t0,-1073 # abcf <_start-0x5431>
   11878:	085f0e63          	beq	t5,t0,11914 <reset_vector+0x18c8>
   1187c:	00004517          	auipc	a0,0x4
   11880:	50150513          	addi	a0,a0,1281 # 15d7d <end_signature+0xc9d>
   11884:	77c020ef          	jal	ra,14000 <FN_WriteStr>
   11888:	00004517          	auipc	a0,0x4
   1188c:	51050513          	addi	a0,a0,1296 # 15d98 <end_signature+0xcb8>
   11890:	770020ef          	jal	ra,14000 <FN_WriteStr>
   11894:	00004517          	auipc	a0,0x4
   11898:	50f50513          	addi	a0,a0,1295 # 15da3 <end_signature+0xcc3>
   1189c:	764020ef          	jal	ra,14000 <FN_WriteStr>
   118a0:	00004517          	auipc	a0,0x4
   118a4:	50b50513          	addi	a0,a0,1291 # 15dab <end_signature+0xccb>
   118a8:	758020ef          	jal	ra,14000 <FN_WriteStr>
   118ac:	00004517          	auipc	a0,0x4
   118b0:	50350513          	addi	a0,a0,1283 # 15daf <end_signature+0xccf>
   118b4:	74c020ef          	jal	ra,14000 <FN_WriteStr>
   118b8:	00004517          	auipc	a0,0x4
   118bc:	4fa50513          	addi	a0,a0,1274 # 15db2 <end_signature+0xcd2>
   118c0:	740020ef          	jal	ra,14000 <FN_WriteStr>
   118c4:	00004517          	auipc	a0,0x4
   118c8:	4f250513          	addi	a0,a0,1266 # 15db6 <end_signature+0xcd6>
   118cc:	734020ef          	jal	ra,14000 <FN_WriteStr>
   118d0:	000f0513          	mv	a0,t5
   118d4:	748020ef          	jal	ra,1401c <FN_WriteA0>
   118d8:	00004517          	auipc	a0,0x4
   118dc:	4e050513          	addi	a0,a0,1248 # 15db8 <end_signature+0xcd8>
   118e0:	720020ef          	jal	ra,14000 <FN_WriteStr>
   118e4:	00004517          	auipc	a0,0x4
   118e8:	4da50513          	addi	a0,a0,1242 # 15dbe <end_signature+0xcde>
   118ec:	714020ef          	jal	ra,14000 <FN_WriteStr>
   118f0:	00004517          	auipc	a0,0x4
   118f4:	4d950513          	addi	a0,a0,1241 # 15dc9 <end_signature+0xce9>
   118f8:	708020ef          	jal	ra,14000 <FN_WriteStr>
   118fc:	06400193          	li	gp,100
   11900:	0000100f          	fence.i
   11904:	00018063          	beqz	gp,11904 <reset_vector+0x18b8>
   11908:	00119193          	slli	gp,gp,0x1
   1190c:	0011e193          	ori	gp,gp,1
   11910:	00000073          	ecall
   11914:	0000b2b7          	lui	t0,0xb
   11918:	bd028293          	addi	t0,t0,-1072 # abd0 <_start-0x5430>
   1191c:	085f8e63          	beq	t6,t0,119b8 <reset_vector+0x196c>
   11920:	00004517          	auipc	a0,0x4
   11924:	4ab50513          	addi	a0,a0,1195 # 15dcb <end_signature+0xceb>
   11928:	6d8020ef          	jal	ra,14000 <FN_WriteStr>
   1192c:	00004517          	auipc	a0,0x4
   11930:	4ba50513          	addi	a0,a0,1210 # 15de6 <end_signature+0xd06>
   11934:	6cc020ef          	jal	ra,14000 <FN_WriteStr>
   11938:	00004517          	auipc	a0,0x4
   1193c:	4b950513          	addi	a0,a0,1209 # 15df1 <end_signature+0xd11>
   11940:	6c0020ef          	jal	ra,14000 <FN_WriteStr>
   11944:	00004517          	auipc	a0,0x4
   11948:	4b550513          	addi	a0,a0,1205 # 15df9 <end_signature+0xd19>
   1194c:	6b4020ef          	jal	ra,14000 <FN_WriteStr>
   11950:	00004517          	auipc	a0,0x4
   11954:	4ad50513          	addi	a0,a0,1197 # 15dfd <end_signature+0xd1d>
   11958:	6a8020ef          	jal	ra,14000 <FN_WriteStr>
   1195c:	00004517          	auipc	a0,0x4
   11960:	4a450513          	addi	a0,a0,1188 # 15e00 <end_signature+0xd20>
   11964:	69c020ef          	jal	ra,14000 <FN_WriteStr>
   11968:	00004517          	auipc	a0,0x4
   1196c:	49c50513          	addi	a0,a0,1180 # 15e04 <end_signature+0xd24>
   11970:	690020ef          	jal	ra,14000 <FN_WriteStr>
   11974:	000f8513          	mv	a0,t6
   11978:	6a4020ef          	jal	ra,1401c <FN_WriteA0>
   1197c:	00004517          	auipc	a0,0x4
   11980:	48a50513          	addi	a0,a0,1162 # 15e06 <end_signature+0xd26>
   11984:	67c020ef          	jal	ra,14000 <FN_WriteStr>
   11988:	00004517          	auipc	a0,0x4
   1198c:	48450513          	addi	a0,a0,1156 # 15e0c <end_signature+0xd2c>
   11990:	670020ef          	jal	ra,14000 <FN_WriteStr>
   11994:	00004517          	auipc	a0,0x4
   11998:	48350513          	addi	a0,a0,1155 # 15e17 <end_signature+0xd37>
   1199c:	664020ef          	jal	ra,14000 <FN_WriteStr>
   119a0:	06400193          	li	gp,100
   119a4:	0000100f          	fence.i
   119a8:	00018063          	beqz	gp,119a8 <reset_vector+0x195c>
   119ac:	00119193          	slli	gp,gp,0x1
   119b0:	0011e193          	ori	gp,gp,1
   119b4:	00000073          	ecall
   119b8:	0000b2b7          	lui	t0,0xb
   119bc:	bd128293          	addi	t0,t0,-1071 # abd1 <_start-0x542f>
   119c0:	08508e63          	beq	ra,t0,11a5c <reset_vector+0x1a10>
   119c4:	00004517          	auipc	a0,0x4
   119c8:	45550513          	addi	a0,a0,1109 # 15e19 <end_signature+0xd39>
   119cc:	634020ef          	jal	ra,14000 <FN_WriteStr>
   119d0:	00004517          	auipc	a0,0x4
   119d4:	46450513          	addi	a0,a0,1124 # 15e34 <end_signature+0xd54>
   119d8:	628020ef          	jal	ra,14000 <FN_WriteStr>
   119dc:	00004517          	auipc	a0,0x4
   119e0:	46350513          	addi	a0,a0,1123 # 15e3f <end_signature+0xd5f>
   119e4:	61c020ef          	jal	ra,14000 <FN_WriteStr>
   119e8:	00004517          	auipc	a0,0x4
   119ec:	45f50513          	addi	a0,a0,1119 # 15e47 <end_signature+0xd67>
   119f0:	610020ef          	jal	ra,14000 <FN_WriteStr>
   119f4:	00004517          	auipc	a0,0x4
   119f8:	45750513          	addi	a0,a0,1111 # 15e4b <end_signature+0xd6b>
   119fc:	604020ef          	jal	ra,14000 <FN_WriteStr>
   11a00:	00004517          	auipc	a0,0x4
   11a04:	44e50513          	addi	a0,a0,1102 # 15e4e <end_signature+0xd6e>
   11a08:	5f8020ef          	jal	ra,14000 <FN_WriteStr>
   11a0c:	00004517          	auipc	a0,0x4
   11a10:	44550513          	addi	a0,a0,1093 # 15e51 <end_signature+0xd71>
   11a14:	5ec020ef          	jal	ra,14000 <FN_WriteStr>
   11a18:	00008513          	mv	a0,ra
   11a1c:	600020ef          	jal	ra,1401c <FN_WriteA0>
   11a20:	00004517          	auipc	a0,0x4
   11a24:	43350513          	addi	a0,a0,1075 # 15e53 <end_signature+0xd73>
   11a28:	5d8020ef          	jal	ra,14000 <FN_WriteStr>
   11a2c:	00004517          	auipc	a0,0x4
   11a30:	42d50513          	addi	a0,a0,1069 # 15e59 <end_signature+0xd79>
   11a34:	5cc020ef          	jal	ra,14000 <FN_WriteStr>
   11a38:	00004517          	auipc	a0,0x4
   11a3c:	42c50513          	addi	a0,a0,1068 # 15e64 <end_signature+0xd84>
   11a40:	5c0020ef          	jal	ra,14000 <FN_WriteStr>
   11a44:	06400193          	li	gp,100
   11a48:	0000100f          	fence.i
   11a4c:	00018063          	beqz	gp,11a4c <reset_vector+0x1a00>
   11a50:	00119193          	slli	gp,gp,0x1
   11a54:	0011e193          	ori	gp,gp,1
   11a58:	00000073          	ecall
   11a5c:	0000b2b7          	lui	t0,0xb
   11a60:	bd228293          	addi	t0,t0,-1070 # abd2 <_start-0x542e>
   11a64:	08510e63          	beq	sp,t0,11b00 <reset_vector+0x1ab4>
   11a68:	00004517          	auipc	a0,0x4
   11a6c:	3fe50513          	addi	a0,a0,1022 # 15e66 <end_signature+0xd86>
   11a70:	590020ef          	jal	ra,14000 <FN_WriteStr>
   11a74:	00004517          	auipc	a0,0x4
   11a78:	40d50513          	addi	a0,a0,1037 # 15e81 <end_signature+0xda1>
   11a7c:	584020ef          	jal	ra,14000 <FN_WriteStr>
   11a80:	00004517          	auipc	a0,0x4
   11a84:	40c50513          	addi	a0,a0,1036 # 15e8c <end_signature+0xdac>
   11a88:	578020ef          	jal	ra,14000 <FN_WriteStr>
   11a8c:	00004517          	auipc	a0,0x4
   11a90:	40850513          	addi	a0,a0,1032 # 15e94 <end_signature+0xdb4>
   11a94:	56c020ef          	jal	ra,14000 <FN_WriteStr>
   11a98:	00004517          	auipc	a0,0x4
   11a9c:	40050513          	addi	a0,a0,1024 # 15e98 <end_signature+0xdb8>
   11aa0:	560020ef          	jal	ra,14000 <FN_WriteStr>
   11aa4:	00004517          	auipc	a0,0x4
   11aa8:	3f750513          	addi	a0,a0,1015 # 15e9b <end_signature+0xdbb>
   11aac:	554020ef          	jal	ra,14000 <FN_WriteStr>
   11ab0:	00004517          	auipc	a0,0x4
   11ab4:	3ee50513          	addi	a0,a0,1006 # 15e9e <end_signature+0xdbe>
   11ab8:	548020ef          	jal	ra,14000 <FN_WriteStr>
   11abc:	00010513          	mv	a0,sp
   11ac0:	55c020ef          	jal	ra,1401c <FN_WriteA0>
   11ac4:	00004517          	auipc	a0,0x4
   11ac8:	3dc50513          	addi	a0,a0,988 # 15ea0 <end_signature+0xdc0>
   11acc:	534020ef          	jal	ra,14000 <FN_WriteStr>
   11ad0:	00004517          	auipc	a0,0x4
   11ad4:	3d650513          	addi	a0,a0,982 # 15ea6 <end_signature+0xdc6>
   11ad8:	528020ef          	jal	ra,14000 <FN_WriteStr>
   11adc:	00004517          	auipc	a0,0x4
   11ae0:	3d550513          	addi	a0,a0,981 # 15eb1 <end_signature+0xdd1>
   11ae4:	51c020ef          	jal	ra,14000 <FN_WriteStr>
   11ae8:	06400193          	li	gp,100
   11aec:	0000100f          	fence.i
   11af0:	00018063          	beqz	gp,11af0 <reset_vector+0x1aa4>
   11af4:	00119193          	slli	gp,gp,0x1
   11af8:	0011e193          	ori	gp,gp,1
   11afc:	00000073          	ecall
   11b00:	0000b2b7          	lui	t0,0xb
   11b04:	bd328293          	addi	t0,t0,-1069 # abd3 <_start-0x542d>
   11b08:	08518e63          	beq	gp,t0,11ba4 <reset_vector+0x1b58>
   11b0c:	00004517          	auipc	a0,0x4
   11b10:	3a750513          	addi	a0,a0,935 # 15eb3 <end_signature+0xdd3>
   11b14:	4ec020ef          	jal	ra,14000 <FN_WriteStr>
   11b18:	00004517          	auipc	a0,0x4
   11b1c:	3b650513          	addi	a0,a0,950 # 15ece <end_signature+0xdee>
   11b20:	4e0020ef          	jal	ra,14000 <FN_WriteStr>
   11b24:	00004517          	auipc	a0,0x4
   11b28:	3b550513          	addi	a0,a0,949 # 15ed9 <end_signature+0xdf9>
   11b2c:	4d4020ef          	jal	ra,14000 <FN_WriteStr>
   11b30:	00004517          	auipc	a0,0x4
   11b34:	3b150513          	addi	a0,a0,945 # 15ee1 <end_signature+0xe01>
   11b38:	4c8020ef          	jal	ra,14000 <FN_WriteStr>
   11b3c:	00004517          	auipc	a0,0x4
   11b40:	3a950513          	addi	a0,a0,937 # 15ee5 <end_signature+0xe05>
   11b44:	4bc020ef          	jal	ra,14000 <FN_WriteStr>
   11b48:	00004517          	auipc	a0,0x4
   11b4c:	3a050513          	addi	a0,a0,928 # 15ee8 <end_signature+0xe08>
   11b50:	4b0020ef          	jal	ra,14000 <FN_WriteStr>
   11b54:	00004517          	auipc	a0,0x4
   11b58:	39750513          	addi	a0,a0,919 # 15eeb <end_signature+0xe0b>
   11b5c:	4a4020ef          	jal	ra,14000 <FN_WriteStr>
   11b60:	00018513          	mv	a0,gp
   11b64:	4b8020ef          	jal	ra,1401c <FN_WriteA0>
   11b68:	00004517          	auipc	a0,0x4
   11b6c:	38550513          	addi	a0,a0,901 # 15eed <end_signature+0xe0d>
   11b70:	490020ef          	jal	ra,14000 <FN_WriteStr>
   11b74:	00004517          	auipc	a0,0x4
   11b78:	37f50513          	addi	a0,a0,895 # 15ef3 <end_signature+0xe13>
   11b7c:	484020ef          	jal	ra,14000 <FN_WriteStr>
   11b80:	00004517          	auipc	a0,0x4
   11b84:	37e50513          	addi	a0,a0,894 # 15efe <end_signature+0xe1e>
   11b88:	478020ef          	jal	ra,14000 <FN_WriteStr>
   11b8c:	06400193          	li	gp,100
   11b90:	0000100f          	fence.i
   11b94:	00018063          	beqz	gp,11b94 <reset_vector+0x1b48>
   11b98:	00119193          	slli	gp,gp,0x1
   11b9c:	0011e193          	ori	gp,gp,1
   11ba0:	00000073          	ecall
   11ba4:	00004517          	auipc	a0,0x4
   11ba8:	35c50513          	addi	a0,a0,860 # 15f00 <end_signature+0xe20>
   11bac:	454020ef          	jal	ra,14000 <FN_WriteStr>
   11bb0:	00004517          	auipc	a0,0x4
   11bb4:	36a50513          	addi	a0,a0,874 # 15f1a <end_signature+0xe3a>
   11bb8:	448020ef          	jal	ra,14000 <FN_WriteStr>
   11bbc:	00003097          	auipc	ra,0x3
   11bc0:	45c08093          	addi	ra,ra,1116 # 15018 <test_C_data>
   11bc4:	00003117          	auipc	sp,0x3
   11bc8:	50410113          	addi	sp,sp,1284 # 150c8 <test_C_res>
   11bcc:	0000ae03          	lw	t3,0(ra)
   11bd0:	f7ff9db7          	lui	s11,0xf7ff9
   11bd4:	818d8d93          	addi	s11,s11,-2024 # f7ff8818 <_end+0xf7fe269c>
   11bd8:	01be0033          	add	zero,t3,s11
   11bdc:	00012023          	sw	zero,0(sp)
   11be0:	00000293          	li	t0,0
   11be4:	08500e63          	beq	zero,t0,11c80 <reset_vector+0x1c34>
   11be8:	00004517          	auipc	a0,0x4
   11bec:	35950513          	addi	a0,a0,857 # 15f41 <end_signature+0xe61>
   11bf0:	410020ef          	jal	ra,14000 <FN_WriteStr>
   11bf4:	00004517          	auipc	a0,0x4
   11bf8:	36850513          	addi	a0,a0,872 # 15f5c <end_signature+0xe7c>
   11bfc:	404020ef          	jal	ra,14000 <FN_WriteStr>
   11c00:	00004517          	auipc	a0,0x4
   11c04:	36750513          	addi	a0,a0,871 # 15f67 <end_signature+0xe87>
   11c08:	3f8020ef          	jal	ra,14000 <FN_WriteStr>
   11c0c:	00004517          	auipc	a0,0x4
   11c10:	36350513          	addi	a0,a0,867 # 15f6f <end_signature+0xe8f>
   11c14:	3ec020ef          	jal	ra,14000 <FN_WriteStr>
   11c18:	00004517          	auipc	a0,0x4
   11c1c:	35b50513          	addi	a0,a0,859 # 15f73 <end_signature+0xe93>
   11c20:	3e0020ef          	jal	ra,14000 <FN_WriteStr>
   11c24:	00004517          	auipc	a0,0x4
   11c28:	35250513          	addi	a0,a0,850 # 15f76 <end_signature+0xe96>
   11c2c:	3d4020ef          	jal	ra,14000 <FN_WriteStr>
   11c30:	00004517          	auipc	a0,0x4
   11c34:	34950513          	addi	a0,a0,841 # 15f79 <end_signature+0xe99>
   11c38:	3c8020ef          	jal	ra,14000 <FN_WriteStr>
   11c3c:	00000513          	li	a0,0
   11c40:	3dc020ef          	jal	ra,1401c <FN_WriteA0>
   11c44:	00004517          	auipc	a0,0x4
   11c48:	33750513          	addi	a0,a0,823 # 15f7b <end_signature+0xe9b>
   11c4c:	3b4020ef          	jal	ra,14000 <FN_WriteStr>
   11c50:	00004517          	auipc	a0,0x4
   11c54:	33150513          	addi	a0,a0,817 # 15f81 <end_signature+0xea1>
   11c58:	3a8020ef          	jal	ra,14000 <FN_WriteStr>
   11c5c:	00004517          	auipc	a0,0x4
   11c60:	33050513          	addi	a0,a0,816 # 15f8c <end_signature+0xeac>
   11c64:	39c020ef          	jal	ra,14000 <FN_WriteStr>
   11c68:	06400193          	li	gp,100
   11c6c:	0000100f          	fence.i
   11c70:	00018063          	beqz	gp,11c70 <reset_vector+0x1c24>
   11c74:	00119193          	slli	gp,gp,0x1
   11c78:	0011e193          	ori	gp,gp,1
   11c7c:	00000073          	ecall
   11c80:	00004517          	auipc	a0,0x4
   11c84:	30e50513          	addi	a0,a0,782 # 15f8e <end_signature+0xeae>
   11c88:	378020ef          	jal	ra,14000 <FN_WriteStr>
   11c8c:	00004517          	auipc	a0,0x4
   11c90:	31c50513          	addi	a0,a0,796 # 15fa8 <end_signature+0xec8>
   11c94:	36c020ef          	jal	ra,14000 <FN_WriteStr>
   11c98:	00003097          	auipc	ra,0x3
   11c9c:	38408093          	addi	ra,ra,900 # 1501c <test_D_data>
   11ca0:	00003117          	auipc	sp,0x3
   11ca4:	42c10113          	addi	sp,sp,1068 # 150cc <test_D_res>
   11ca8:	0000ae03          	lw	t3,0(ra)
   11cac:	f7ff9db7          	lui	s11,0xf7ff9
   11cb0:	818d8d93          	addi	s11,s11,-2024 # f7ff8818 <_end+0xf7fe269c>
   11cb4:	01be0033          	add	zero,t3,s11
   11cb8:	000002b3          	add	t0,zero,zero
   11cbc:	00012023          	sw	zero,0(sp)
   11cc0:	00512223          	sw	t0,4(sp)
   11cc4:	00000293          	li	t0,0
   11cc8:	08500e63          	beq	zero,t0,11d64 <reset_vector+0x1d18>
   11ccc:	00004517          	auipc	a0,0x4
   11cd0:	30c50513          	addi	a0,a0,780 # 15fd8 <end_signature+0xef8>
   11cd4:	32c020ef          	jal	ra,14000 <FN_WriteStr>
   11cd8:	00004517          	auipc	a0,0x4
   11cdc:	31b50513          	addi	a0,a0,795 # 15ff3 <end_signature+0xf13>
   11ce0:	320020ef          	jal	ra,14000 <FN_WriteStr>
   11ce4:	00004517          	auipc	a0,0x4
   11ce8:	31a50513          	addi	a0,a0,794 # 15ffe <end_signature+0xf1e>
   11cec:	314020ef          	jal	ra,14000 <FN_WriteStr>
   11cf0:	00004517          	auipc	a0,0x4
   11cf4:	31650513          	addi	a0,a0,790 # 16006 <end_signature+0xf26>
   11cf8:	308020ef          	jal	ra,14000 <FN_WriteStr>
   11cfc:	00004517          	auipc	a0,0x4
   11d00:	30e50513          	addi	a0,a0,782 # 1600a <end_signature+0xf2a>
   11d04:	2fc020ef          	jal	ra,14000 <FN_WriteStr>
   11d08:	00004517          	auipc	a0,0x4
   11d0c:	30550513          	addi	a0,a0,773 # 1600d <end_signature+0xf2d>
   11d10:	2f0020ef          	jal	ra,14000 <FN_WriteStr>
   11d14:	00004517          	auipc	a0,0x4
   11d18:	2fc50513          	addi	a0,a0,764 # 16010 <end_signature+0xf30>
   11d1c:	2e4020ef          	jal	ra,14000 <FN_WriteStr>
   11d20:	00000513          	li	a0,0
   11d24:	2f8020ef          	jal	ra,1401c <FN_WriteA0>
   11d28:	00004517          	auipc	a0,0x4
   11d2c:	2ea50513          	addi	a0,a0,746 # 16012 <end_signature+0xf32>
   11d30:	2d0020ef          	jal	ra,14000 <FN_WriteStr>
   11d34:	00004517          	auipc	a0,0x4
   11d38:	2e450513          	addi	a0,a0,740 # 16018 <end_signature+0xf38>
   11d3c:	2c4020ef          	jal	ra,14000 <FN_WriteStr>
   11d40:	00004517          	auipc	a0,0x4
   11d44:	2e350513          	addi	a0,a0,739 # 16023 <end_signature+0xf43>
   11d48:	2b8020ef          	jal	ra,14000 <FN_WriteStr>
   11d4c:	06400193          	li	gp,100
   11d50:	0000100f          	fence.i
   11d54:	00018063          	beqz	gp,11d54 <reset_vector+0x1d08>
   11d58:	00119193          	slli	gp,gp,0x1
   11d5c:	0011e193          	ori	gp,gp,1
   11d60:	00000073          	ecall
   11d64:	00004517          	auipc	a0,0x4
   11d68:	2c150513          	addi	a0,a0,705 # 16025 <end_signature+0xf45>
   11d6c:	294020ef          	jal	ra,14000 <FN_WriteStr>
   11d70:	00004517          	auipc	a0,0x4
   11d74:	2cf50513          	addi	a0,a0,719 # 1603f <end_signature+0xf5f>
   11d78:	288020ef          	jal	ra,14000 <FN_WriteStr>
   11d7c:	00003097          	auipc	ra,0x3
   11d80:	2a408093          	addi	ra,ra,676 # 15020 <test_E_data>
   11d84:	00003117          	auipc	sp,0x3
   11d88:	35010113          	addi	sp,sp,848 # 150d4 <test_E_res>
   11d8c:	0000a183          	lw	gp,0(ra)
   11d90:	00018233          	add	tp,gp,zero
   11d94:	000202b3          	add	t0,tp,zero
   11d98:	00500333          	add	t1,zero,t0
   11d9c:	00030733          	add	a4,t1,zero
   11da0:	000707b3          	add	a5,a4,zero
   11da4:	00078833          	add	a6,a5,zero
   11da8:	01000cb3          	add	s9,zero,a6
   11dac:	01900d33          	add	s10,zero,s9
   11db0:	000d0db3          	add	s11,s10,zero
   11db4:	00412023          	sw	tp,0(sp)
   11db8:	01a12223          	sw	s10,4(sp)
   11dbc:	01b12423          	sw	s11,8(sp)
   11dc0:	369262b7          	lui	t0,0x36926
   11dc4:	81428293          	addi	t0,t0,-2028 # 36925814 <_end+0x3690f698>
   11dc8:	08520e63          	beq	tp,t0,11e64 <reset_vector+0x1e18>
   11dcc:	00004517          	auipc	a0,0x4
   11dd0:	2a150513          	addi	a0,a0,673 # 1606d <end_signature+0xf8d>
   11dd4:	22c020ef          	jal	ra,14000 <FN_WriteStr>
   11dd8:	00004517          	auipc	a0,0x4
   11ddc:	2b050513          	addi	a0,a0,688 # 16088 <end_signature+0xfa8>
   11de0:	220020ef          	jal	ra,14000 <FN_WriteStr>
   11de4:	00004517          	auipc	a0,0x4
   11de8:	2af50513          	addi	a0,a0,687 # 16093 <end_signature+0xfb3>
   11dec:	214020ef          	jal	ra,14000 <FN_WriteStr>
   11df0:	00004517          	auipc	a0,0x4
   11df4:	2ab50513          	addi	a0,a0,683 # 1609b <end_signature+0xfbb>
   11df8:	208020ef          	jal	ra,14000 <FN_WriteStr>
   11dfc:	00004517          	auipc	a0,0x4
   11e00:	2a350513          	addi	a0,a0,675 # 1609f <end_signature+0xfbf>
   11e04:	1fc020ef          	jal	ra,14000 <FN_WriteStr>
   11e08:	00004517          	auipc	a0,0x4
   11e0c:	29a50513          	addi	a0,a0,666 # 160a2 <end_signature+0xfc2>
   11e10:	1f0020ef          	jal	ra,14000 <FN_WriteStr>
   11e14:	00004517          	auipc	a0,0x4
   11e18:	29150513          	addi	a0,a0,657 # 160a5 <end_signature+0xfc5>
   11e1c:	1e4020ef          	jal	ra,14000 <FN_WriteStr>
   11e20:	00020513          	mv	a0,tp
   11e24:	1f8020ef          	jal	ra,1401c <FN_WriteA0>
   11e28:	00004517          	auipc	a0,0x4
   11e2c:	27f50513          	addi	a0,a0,639 # 160a7 <end_signature+0xfc7>
   11e30:	1d0020ef          	jal	ra,14000 <FN_WriteStr>
   11e34:	00004517          	auipc	a0,0x4
   11e38:	27950513          	addi	a0,a0,633 # 160ad <end_signature+0xfcd>
   11e3c:	1c4020ef          	jal	ra,14000 <FN_WriteStr>
   11e40:	00004517          	auipc	a0,0x4
   11e44:	27850513          	addi	a0,a0,632 # 160b8 <end_signature+0xfd8>
   11e48:	1b8020ef          	jal	ra,14000 <FN_WriteStr>
   11e4c:	06400193          	li	gp,100
   11e50:	0000100f          	fence.i
   11e54:	00018063          	beqz	gp,11e54 <reset_vector+0x1e08>
   11e58:	00119193          	slli	gp,gp,0x1
   11e5c:	0011e193          	ori	gp,gp,1
   11e60:	00000073          	ecall
   11e64:	369262b7          	lui	t0,0x36926
   11e68:	81428293          	addi	t0,t0,-2028 # 36925814 <_end+0x3690f698>
   11e6c:	085d0e63          	beq	s10,t0,11f08 <reset_vector+0x1ebc>
   11e70:	00004517          	auipc	a0,0x4
   11e74:	24a50513          	addi	a0,a0,586 # 160ba <end_signature+0xfda>
   11e78:	188020ef          	jal	ra,14000 <FN_WriteStr>
   11e7c:	00004517          	auipc	a0,0x4
   11e80:	25950513          	addi	a0,a0,601 # 160d5 <end_signature+0xff5>
   11e84:	17c020ef          	jal	ra,14000 <FN_WriteStr>
   11e88:	00004517          	auipc	a0,0x4
   11e8c:	25850513          	addi	a0,a0,600 # 160e0 <end_signature+0x1000>
   11e90:	170020ef          	jal	ra,14000 <FN_WriteStr>
   11e94:	00004517          	auipc	a0,0x4
   11e98:	25450513          	addi	a0,a0,596 # 160e8 <end_signature+0x1008>
   11e9c:	164020ef          	jal	ra,14000 <FN_WriteStr>
   11ea0:	00004517          	auipc	a0,0x4
   11ea4:	24c50513          	addi	a0,a0,588 # 160ec <end_signature+0x100c>
   11ea8:	158020ef          	jal	ra,14000 <FN_WriteStr>
   11eac:	00004517          	auipc	a0,0x4
   11eb0:	24350513          	addi	a0,a0,579 # 160ef <end_signature+0x100f>
   11eb4:	14c020ef          	jal	ra,14000 <FN_WriteStr>
   11eb8:	00004517          	auipc	a0,0x4
   11ebc:	23b50513          	addi	a0,a0,571 # 160f3 <end_signature+0x1013>
   11ec0:	140020ef          	jal	ra,14000 <FN_WriteStr>
   11ec4:	000d0513          	mv	a0,s10
   11ec8:	154020ef          	jal	ra,1401c <FN_WriteA0>
   11ecc:	00004517          	auipc	a0,0x4
   11ed0:	22950513          	addi	a0,a0,553 # 160f5 <end_signature+0x1015>
   11ed4:	12c020ef          	jal	ra,14000 <FN_WriteStr>
   11ed8:	00004517          	auipc	a0,0x4
   11edc:	22350513          	addi	a0,a0,547 # 160fb <end_signature+0x101b>
   11ee0:	120020ef          	jal	ra,14000 <FN_WriteStr>
   11ee4:	00004517          	auipc	a0,0x4
   11ee8:	22250513          	addi	a0,a0,546 # 16106 <end_signature+0x1026>
   11eec:	114020ef          	jal	ra,14000 <FN_WriteStr>
   11ef0:	06400193          	li	gp,100
   11ef4:	0000100f          	fence.i
   11ef8:	00018063          	beqz	gp,11ef8 <reset_vector+0x1eac>
   11efc:	00119193          	slli	gp,gp,0x1
   11f00:	0011e193          	ori	gp,gp,1
   11f04:	00000073          	ecall
   11f08:	369262b7          	lui	t0,0x36926
   11f0c:	81428293          	addi	t0,t0,-2028 # 36925814 <_end+0x3690f698>
   11f10:	085d8e63          	beq	s11,t0,11fac <reset_vector+0x1f60>
   11f14:	00004517          	auipc	a0,0x4
   11f18:	1f450513          	addi	a0,a0,500 # 16108 <end_signature+0x1028>
   11f1c:	0e4020ef          	jal	ra,14000 <FN_WriteStr>
   11f20:	00004517          	auipc	a0,0x4
   11f24:	20350513          	addi	a0,a0,515 # 16123 <end_signature+0x1043>
   11f28:	0d8020ef          	jal	ra,14000 <FN_WriteStr>
   11f2c:	00004517          	auipc	a0,0x4
   11f30:	20250513          	addi	a0,a0,514 # 1612e <end_signature+0x104e>
   11f34:	0cc020ef          	jal	ra,14000 <FN_WriteStr>
   11f38:	00004517          	auipc	a0,0x4
   11f3c:	1fe50513          	addi	a0,a0,510 # 16136 <end_signature+0x1056>
   11f40:	0c0020ef          	jal	ra,14000 <FN_WriteStr>
   11f44:	00004517          	auipc	a0,0x4
   11f48:	1f650513          	addi	a0,a0,502 # 1613a <end_signature+0x105a>
   11f4c:	0b4020ef          	jal	ra,14000 <FN_WriteStr>
   11f50:	00004517          	auipc	a0,0x4
   11f54:	1ed50513          	addi	a0,a0,493 # 1613d <end_signature+0x105d>
   11f58:	0a8020ef          	jal	ra,14000 <FN_WriteStr>
   11f5c:	00004517          	auipc	a0,0x4
   11f60:	1e550513          	addi	a0,a0,485 # 16141 <end_signature+0x1061>
   11f64:	09c020ef          	jal	ra,14000 <FN_WriteStr>
   11f68:	000d8513          	mv	a0,s11
   11f6c:	0b0020ef          	jal	ra,1401c <FN_WriteA0>
   11f70:	00004517          	auipc	a0,0x4
   11f74:	1d350513          	addi	a0,a0,467 # 16143 <end_signature+0x1063>
   11f78:	088020ef          	jal	ra,14000 <FN_WriteStr>
   11f7c:	00004517          	auipc	a0,0x4
   11f80:	1cd50513          	addi	a0,a0,461 # 16149 <end_signature+0x1069>
   11f84:	07c020ef          	jal	ra,14000 <FN_WriteStr>
   11f88:	00004517          	auipc	a0,0x4
   11f8c:	1cc50513          	addi	a0,a0,460 # 16154 <end_signature+0x1074>
   11f90:	070020ef          	jal	ra,14000 <FN_WriteStr>
   11f94:	06400193          	li	gp,100
   11f98:	0000100f          	fence.i
   11f9c:	00018063          	beqz	gp,11f9c <reset_vector+0x1f50>
   11fa0:	00119193          	slli	gp,gp,0x1
   11fa4:	0011e193          	ori	gp,gp,1
   11fa8:	00000073          	ecall
   11fac:	00004517          	auipc	a0,0x4
   11fb0:	1aa50513          	addi	a0,a0,426 # 16156 <end_signature+0x1076>
   11fb4:	04c020ef          	jal	ra,14000 <FN_WriteStr>
   11fb8:	00004517          	auipc	a0,0x4
   11fbc:	1b850513          	addi	a0,a0,440 # 16170 <end_signature+0x1090>
   11fc0:	040020ef          	jal	ra,14000 <FN_WriteStr>
   11fc4:	0000100f          	fence.i
   11fc8:	00100193          	li	gp,1
   11fcc:	00000073          	ecall
   11fd0:	c0001073          	unimp
	...

Disassembly of section .tohost:

00013000 <tohost>:
	...

00013100 <fromhost>:
	...

Disassembly of section .text:

00014000 <FN_WriteStr>:
   14000:	00050293          	mv	t0,a0
   14004:	0002c503          	lbu	a0,0(t0)
   14008:	00128293          	addi	t0,t0,1
   1400c:	00050663          	beqz	a0,14018 <FN_WriteStr+0x18>
   14010:	0005200b          	0x5200b
   14014:	ff1ff06f          	j	14004 <FN_WriteStr+0x4>
   14018:	00008067          	ret

0001401c <FN_WriteA0>:
   1401c:	00050293          	mv	t0,a0
   14020:	fff00513          	li	a0,-1
   14024:	01f55513          	srli	a0,a0,0x1f
   14028:	00155513          	srli	a0,a0,0x1
   1402c:	02051463          	bnez	a0,14054 <FN_WriteA0_64>

00014030 <FN_WriteA0_32>:
   14030:	00800313          	li	t1,8
   14034:	00439393          	slli	t2,t2,0x4
   14038:	00f2f513          	andi	a0,t0,15
   1403c:	0042d293          	srli	t0,t0,0x4
   14040:	00a3e3b3          	or	t2,t2,a0
   14044:	fff30313          	addi	t1,t1,-1
   14048:	fe0316e3          	bnez	t1,14034 <FN_WriteA0_32+0x4>
   1404c:	00800313          	li	t1,8
   14050:	0240006f          	j	14074 <FN_WriteA0_common>

00014054 <FN_WriteA0_64>:
   14054:	01000313          	li	t1,16
   14058:	00439393          	slli	t2,t2,0x4
   1405c:	00f2f513          	andi	a0,t0,15
   14060:	0042d293          	srli	t0,t0,0x4
   14064:	00a3e3b3          	or	t2,t2,a0
   14068:	fff30313          	addi	t1,t1,-1
   1406c:	fe0316e3          	bnez	t1,14058 <FN_WriteA0_64+0x4>
   14070:	01000313          	li	t1,16

00014074 <FN_WriteA0_common>:
   14074:	00a00293          	li	t0,10
   14078:	00f3f513          	andi	a0,t2,15
   1407c:	00554663          	blt	a0,t0,14088 <FN_WriteA0_common+0x14>
   14080:	05750513          	addi	a0,a0,87
   14084:	0080006f          	j	1408c <FN_WriteA0_common+0x18>
   14088:	03050513          	addi	a0,a0,48
   1408c:	0005200b          	0x5200b
   14090:	0043d393          	srli	t2,t2,0x4
   14094:	fff30313          	addi	t1,t1,-1
   14098:	fe0310e3          	bnez	t1,14078 <FN_WriteA0_common+0x4>
   1409c:	00008067          	ret
