
/home/benselfridge/riscv-compliance/work//I-JALR-01.elf:     file format elf32-littleriscv


Disassembly of section .text.init:

00010000 <_start>:
   10000:	04c0006f          	j	1004c <reset_vector>

00010004 <trap_vector>:
   10004:	34202f73          	csrr	t5,mcause
   10008:	00800f93          	li	t6,8
   1000c:	03ff0a63          	beq	t5,t6,10040 <write_tohost>
   10010:	00900f93          	li	t6,9
   10014:	03ff0663          	beq	t5,t6,10040 <write_tohost>
   10018:	00b00f93          	li	t6,11
   1001c:	03ff0263          	beq	t5,t6,10040 <write_tohost>
   10020:	ffff0f17          	auipc	t5,0xffff0
   10024:	fe0f0f13          	addi	t5,t5,-32 # 0 <_start-0x10000>
   10028:	000f0463          	beqz	t5,10030 <trap_vector+0x2c>
   1002c:	000f0067          	jr	t5
   10030:	34202f73          	csrr	t5,mcause
   10034:	000f5463          	bgez	t5,1003c <handle_exception>
   10038:	0040006f          	j	1003c <handle_exception>

0001003c <handle_exception>:
   1003c:	5391e193          	ori	gp,gp,1337

00010040 <write_tohost>:
   10040:	00002f17          	auipc	t5,0x2
   10044:	fc3f2023          	sw	gp,-64(t5) # 12000 <tohost>
   10048:	ff9ff06f          	j	10040 <write_tohost>

0001004c <reset_vector>:
   1004c:	f1402573          	csrr	a0,mhartid
   10050:	00051063          	bnez	a0,10050 <reset_vector+0x4>
   10054:	00000297          	auipc	t0,0x0
   10058:	01028293          	addi	t0,t0,16 # 10064 <reset_vector+0x18>
   1005c:	30529073          	csrw	mtvec,t0
   10060:	18005073          	csrwi	satp,0
   10064:	00000297          	auipc	t0,0x0
   10068:	01c28293          	addi	t0,t0,28 # 10080 <reset_vector+0x34>
   1006c:	30529073          	csrw	mtvec,t0
   10070:	fff00293          	li	t0,-1
   10074:	3b029073          	csrw	pmpaddr0,t0
   10078:	01f00293          	li	t0,31
   1007c:	3a029073          	csrw	pmpcfg0,t0
   10080:	00000297          	auipc	t0,0x0
   10084:	01828293          	addi	t0,t0,24 # 10098 <reset_vector+0x4c>
   10088:	30529073          	csrw	mtvec,t0
   1008c:	30205073          	csrwi	medeleg,0
   10090:	30305073          	csrwi	mideleg,0
   10094:	30405073          	csrwi	mie,0
   10098:	00000193          	li	gp,0
   1009c:	00000297          	auipc	t0,0x0
   100a0:	f6828293          	addi	t0,t0,-152 # 10004 <trap_vector>
   100a4:	30529073          	csrw	mtvec,t0
   100a8:	00100513          	li	a0,1
   100ac:	01f51513          	slli	a0,a0,0x1f
   100b0:	00054863          	bltz	a0,100c0 <reset_vector+0x74>
   100b4:	0000100f          	fence.i
   100b8:	00100193          	li	gp,1
   100bc:	00000073          	ecall
   100c0:	ffff0297          	auipc	t0,0xffff0
   100c4:	f4028293          	addi	t0,t0,-192 # 0 <_start-0x10000>
   100c8:	00028e63          	beqz	t0,100e4 <reset_vector+0x98>
   100cc:	10529073          	csrw	stvec,t0
   100d0:	0000b2b7          	lui	t0,0xb
   100d4:	10928293          	addi	t0,t0,265 # b109 <_start-0x4ef7>
   100d8:	30229073          	csrw	medeleg,t0
   100dc:	30202373          	csrr	t1,medeleg
   100e0:	f4629ee3          	bne	t0,t1,1003c <handle_exception>
   100e4:	30005073          	csrwi	mstatus,0
   100e8:	00002537          	lui	a0,0x2
   100ec:	80050513          	addi	a0,a0,-2048 # 1800 <_start-0xe800>
   100f0:	30052073          	csrs	mstatus,a0
   100f4:	00000297          	auipc	t0,0x0
   100f8:	01428293          	addi	t0,t0,20 # 10108 <reset_vector+0xbc>
   100fc:	34129073          	csrw	mepc,t0
   10100:	f1402573          	csrr	a0,mhartid
   10104:	30200073          	mret
   10108:	00000293          	li	t0,0
   1010c:	08500e63          	beq	zero,t0,101a8 <reset_vector+0x15c>
   10110:	00004517          	auipc	a0,0x4
   10114:	f6050513          	addi	a0,a0,-160 # 14070 <end_signature>
   10118:	6e9020ef          	jal	ra,13000 <FN_WriteStr>
   1011c:	00004517          	auipc	a0,0x4
   10120:	f6f50513          	addi	a0,a0,-145 # 1408b <end_signature+0x1b>
   10124:	6dd020ef          	jal	ra,13000 <FN_WriteStr>
   10128:	00004517          	auipc	a0,0x4
   1012c:	f7350513          	addi	a0,a0,-141 # 1409b <end_signature+0x2b>
   10130:	6d1020ef          	jal	ra,13000 <FN_WriteStr>
   10134:	00004517          	auipc	a0,0x4
   10138:	f6f50513          	addi	a0,a0,-145 # 140a3 <end_signature+0x33>
   1013c:	6c5020ef          	jal	ra,13000 <FN_WriteStr>
   10140:	00004517          	auipc	a0,0x4
   10144:	f6650513          	addi	a0,a0,-154 # 140a6 <end_signature+0x36>
   10148:	6b9020ef          	jal	ra,13000 <FN_WriteStr>
   1014c:	00004517          	auipc	a0,0x4
   10150:	f5d50513          	addi	a0,a0,-163 # 140a9 <end_signature+0x39>
   10154:	6ad020ef          	jal	ra,13000 <FN_WriteStr>
   10158:	00004517          	auipc	a0,0x4
   1015c:	f5450513          	addi	a0,a0,-172 # 140ac <end_signature+0x3c>
   10160:	6a1020ef          	jal	ra,13000 <FN_WriteStr>
   10164:	00000513          	li	a0,0
   10168:	6b5020ef          	jal	ra,1301c <FN_WriteA0>
   1016c:	00004517          	auipc	a0,0x4
   10170:	f4250513          	addi	a0,a0,-190 # 140ae <end_signature+0x3e>
   10174:	68d020ef          	jal	ra,13000 <FN_WriteStr>
   10178:	00004517          	auipc	a0,0x4
   1017c:	f3c50513          	addi	a0,a0,-196 # 140b4 <end_signature+0x44>
   10180:	681020ef          	jal	ra,13000 <FN_WriteStr>
   10184:	00004517          	auipc	a0,0x4
   10188:	f3b50513          	addi	a0,a0,-197 # 140bf <end_signature+0x4f>
   1018c:	675020ef          	jal	ra,13000 <FN_WriteStr>
   10190:	06400193          	li	gp,100
   10194:	0000100f          	fence.i
   10198:	00018063          	beqz	gp,10198 <reset_vector+0x14c>
   1019c:	00119193          	slli	gp,gp,0x1
   101a0:	0011e193          	ori	gp,gp,1
   101a4:	00000073          	ecall
   101a8:	00004517          	auipc	a0,0x4
   101ac:	f1950513          	addi	a0,a0,-231 # 140c1 <end_signature+0x51>
   101b0:	651020ef          	jal	ra,13000 <FN_WriteStr>
   101b4:	00004517          	auipc	a0,0x4
   101b8:	f3f50513          	addi	a0,a0,-193 # 140f3 <end_signature+0x83>
   101bc:	645020ef          	jal	ra,13000 <FN_WriteStr>
   101c0:	00004097          	auipc	ra,0x4
   101c4:	e5008093          	addi	ra,ra,-432 # 14010 <begin_signature>
   101c8:	12345137          	lui	sp,0x12345
   101cc:	67810113          	addi	sp,sp,1656 # 12345678 <_end+0x12330c48>
   101d0:	00000197          	auipc	gp,0x0
   101d4:	01018193          	addi	gp,gp,16 # 101e0 <reset_vector+0x194>
   101d8:	00018067          	jr	gp
   101dc:	00000113          	li	sp,0
   101e0:	0000a023          	sw	zero,0(ra)
   101e4:	0020a223          	sw	sp,4(ra)
   101e8:	fff00013          	li	zero,-1
   101ec:	00000293          	li	t0,0
   101f0:	08500e63          	beq	zero,t0,1028c <reset_vector+0x240>
   101f4:	00004517          	auipc	a0,0x4
   101f8:	f2650513          	addi	a0,a0,-218 # 1411a <end_signature+0xaa>
   101fc:	605020ef          	jal	ra,13000 <FN_WriteStr>
   10200:	00004517          	auipc	a0,0x4
   10204:	f3550513          	addi	a0,a0,-203 # 14135 <end_signature+0xc5>
   10208:	5f9020ef          	jal	ra,13000 <FN_WriteStr>
   1020c:	00004517          	auipc	a0,0x4
   10210:	f3950513          	addi	a0,a0,-199 # 14145 <end_signature+0xd5>
   10214:	5ed020ef          	jal	ra,13000 <FN_WriteStr>
   10218:	00004517          	auipc	a0,0x4
   1021c:	f3550513          	addi	a0,a0,-203 # 1414d <end_signature+0xdd>
   10220:	5e1020ef          	jal	ra,13000 <FN_WriteStr>
   10224:	00004517          	auipc	a0,0x4
   10228:	f2c50513          	addi	a0,a0,-212 # 14150 <end_signature+0xe0>
   1022c:	5d5020ef          	jal	ra,13000 <FN_WriteStr>
   10230:	00004517          	auipc	a0,0x4
   10234:	f2350513          	addi	a0,a0,-221 # 14153 <end_signature+0xe3>
   10238:	5c9020ef          	jal	ra,13000 <FN_WriteStr>
   1023c:	00004517          	auipc	a0,0x4
   10240:	f1a50513          	addi	a0,a0,-230 # 14156 <end_signature+0xe6>
   10244:	5bd020ef          	jal	ra,13000 <FN_WriteStr>
   10248:	00000513          	li	a0,0
   1024c:	5d1020ef          	jal	ra,1301c <FN_WriteA0>
   10250:	00004517          	auipc	a0,0x4
   10254:	f0850513          	addi	a0,a0,-248 # 14158 <end_signature+0xe8>
   10258:	5a9020ef          	jal	ra,13000 <FN_WriteStr>
   1025c:	00004517          	auipc	a0,0x4
   10260:	f0250513          	addi	a0,a0,-254 # 1415e <end_signature+0xee>
   10264:	59d020ef          	jal	ra,13000 <FN_WriteStr>
   10268:	00004517          	auipc	a0,0x4
   1026c:	f0150513          	addi	a0,a0,-255 # 14169 <end_signature+0xf9>
   10270:	591020ef          	jal	ra,13000 <FN_WriteStr>
   10274:	06400193          	li	gp,100
   10278:	0000100f          	fence.i
   1027c:	00018063          	beqz	gp,1027c <reset_vector+0x230>
   10280:	00119193          	slli	gp,gp,0x1
   10284:	0011e193          	ori	gp,gp,1
   10288:	00000073          	ecall
   1028c:	123452b7          	lui	t0,0x12345
   10290:	67828293          	addi	t0,t0,1656 # 12345678 <_end+0x12330c48>
   10294:	08510e63          	beq	sp,t0,10330 <reset_vector+0x2e4>
   10298:	00004517          	auipc	a0,0x4
   1029c:	ed350513          	addi	a0,a0,-301 # 1416b <end_signature+0xfb>
   102a0:	561020ef          	jal	ra,13000 <FN_WriteStr>
   102a4:	00004517          	auipc	a0,0x4
   102a8:	ee250513          	addi	a0,a0,-286 # 14186 <end_signature+0x116>
   102ac:	555020ef          	jal	ra,13000 <FN_WriteStr>
   102b0:	00004517          	auipc	a0,0x4
   102b4:	ee650513          	addi	a0,a0,-282 # 14196 <end_signature+0x126>
   102b8:	549020ef          	jal	ra,13000 <FN_WriteStr>
   102bc:	00004517          	auipc	a0,0x4
   102c0:	ee250513          	addi	a0,a0,-286 # 1419e <end_signature+0x12e>
   102c4:	53d020ef          	jal	ra,13000 <FN_WriteStr>
   102c8:	00004517          	auipc	a0,0x4
   102cc:	ed950513          	addi	a0,a0,-295 # 141a1 <end_signature+0x131>
   102d0:	531020ef          	jal	ra,13000 <FN_WriteStr>
   102d4:	00004517          	auipc	a0,0x4
   102d8:	ed050513          	addi	a0,a0,-304 # 141a4 <end_signature+0x134>
   102dc:	525020ef          	jal	ra,13000 <FN_WriteStr>
   102e0:	00004517          	auipc	a0,0x4
   102e4:	ec750513          	addi	a0,a0,-313 # 141a7 <end_signature+0x137>
   102e8:	519020ef          	jal	ra,13000 <FN_WriteStr>
   102ec:	00010513          	mv	a0,sp
   102f0:	52d020ef          	jal	ra,1301c <FN_WriteA0>
   102f4:	00004517          	auipc	a0,0x4
   102f8:	eb550513          	addi	a0,a0,-331 # 141a9 <end_signature+0x139>
   102fc:	505020ef          	jal	ra,13000 <FN_WriteStr>
   10300:	00004517          	auipc	a0,0x4
   10304:	eaf50513          	addi	a0,a0,-337 # 141af <end_signature+0x13f>
   10308:	4f9020ef          	jal	ra,13000 <FN_WriteStr>
   1030c:	00004517          	auipc	a0,0x4
   10310:	eae50513          	addi	a0,a0,-338 # 141ba <end_signature+0x14a>
   10314:	4ed020ef          	jal	ra,13000 <FN_WriteStr>
   10318:	06400193          	li	gp,100
   1031c:	0000100f          	fence.i
   10320:	00018063          	beqz	gp,10320 <reset_vector+0x2d4>
   10324:	00119193          	slli	gp,gp,0x1
   10328:	0011e193          	ori	gp,gp,1
   1032c:	00000073          	ecall
   10330:	00004517          	auipc	a0,0x4
   10334:	e8c50513          	addi	a0,a0,-372 # 141bc <end_signature+0x14c>
   10338:	4c9020ef          	jal	ra,13000 <FN_WriteStr>
   1033c:	00004517          	auipc	a0,0x4
   10340:	e9c50513          	addi	a0,a0,-356 # 141d8 <end_signature+0x168>
   10344:	4bd020ef          	jal	ra,13000 <FN_WriteStr>
   10348:	00004097          	auipc	ra,0x4
   1034c:	cd008093          	addi	ra,ra,-816 # 14018 <test_A2_res>
   10350:	fff00113          	li	sp,-1
   10354:	fff00193          	li	gp,-1
   10358:	0fedd237          	lui	tp,0xfedd
   1035c:	ba920213          	addi	tp,tp,-1111 # fedcba9 <_end+0xfec8179>
   10360:	00000f97          	auipc	t6,0x0
   10364:	038f8f93          	addi	t6,t6,56 # 10398 <reset_vector+0x34c>
   10368:	000f8067          	jr	t6
   1036c:	00000113          	li	sp,0
   10370:	00000193          	li	gp,0
   10374:	00000213          	li	tp,0
   10378:	876541b7          	lui	gp,0x87654
   1037c:	32118193          	addi	gp,gp,801 # 87654321 <_end+0x8763f8f1>
   10380:	00000297          	auipc	t0,0x0
   10384:	03828293          	addi	t0,t0,56 # 103b8 <reset_vector+0x36c>
   10388:	00028067          	jr	t0
   1038c:	00000113          	li	sp,0
   10390:	00000193          	li	gp,0
   10394:	00000213          	li	tp,0
   10398:	9abce137          	lui	sp,0x9abce
   1039c:	ef010113          	addi	sp,sp,-272 # 9abcdef0 <_end+0x9abb94c0>
   103a0:	00000797          	auipc	a5,0x0
   103a4:	fd878793          	addi	a5,a5,-40 # 10378 <reset_vector+0x32c>
   103a8:	00078067          	jr	a5
   103ac:	00000113          	li	sp,0
   103b0:	00000193          	li	gp,0
   103b4:	00000213          	li	tp,0
   103b8:	0000a023          	sw	zero,0(ra)
   103bc:	0020a223          	sw	sp,4(ra)
   103c0:	0030a423          	sw	gp,8(ra)
   103c4:	0040a623          	sw	tp,12(ra)
   103c8:	00000293          	li	t0,0
   103cc:	08500e63          	beq	zero,t0,10468 <reset_vector+0x41c>
   103d0:	00004517          	auipc	a0,0x4
   103d4:	e4150513          	addi	a0,a0,-447 # 14211 <end_signature+0x1a1>
   103d8:	429020ef          	jal	ra,13000 <FN_WriteStr>
   103dc:	00004517          	auipc	a0,0x4
   103e0:	e5050513          	addi	a0,a0,-432 # 1422c <end_signature+0x1bc>
   103e4:	41d020ef          	jal	ra,13000 <FN_WriteStr>
   103e8:	00004517          	auipc	a0,0x4
   103ec:	e5450513          	addi	a0,a0,-428 # 1423c <end_signature+0x1cc>
   103f0:	411020ef          	jal	ra,13000 <FN_WriteStr>
   103f4:	00004517          	auipc	a0,0x4
   103f8:	e5050513          	addi	a0,a0,-432 # 14244 <end_signature+0x1d4>
   103fc:	405020ef          	jal	ra,13000 <FN_WriteStr>
   10400:	00004517          	auipc	a0,0x4
   10404:	e4850513          	addi	a0,a0,-440 # 14248 <end_signature+0x1d8>
   10408:	3f9020ef          	jal	ra,13000 <FN_WriteStr>
   1040c:	00004517          	auipc	a0,0x4
   10410:	e3f50513          	addi	a0,a0,-449 # 1424b <end_signature+0x1db>
   10414:	3ed020ef          	jal	ra,13000 <FN_WriteStr>
   10418:	00004517          	auipc	a0,0x4
   1041c:	e3650513          	addi	a0,a0,-458 # 1424e <end_signature+0x1de>
   10420:	3e1020ef          	jal	ra,13000 <FN_WriteStr>
   10424:	00000513          	li	a0,0
   10428:	3f5020ef          	jal	ra,1301c <FN_WriteA0>
   1042c:	00004517          	auipc	a0,0x4
   10430:	e2450513          	addi	a0,a0,-476 # 14250 <end_signature+0x1e0>
   10434:	3cd020ef          	jal	ra,13000 <FN_WriteStr>
   10438:	00004517          	auipc	a0,0x4
   1043c:	e1e50513          	addi	a0,a0,-482 # 14256 <end_signature+0x1e6>
   10440:	3c1020ef          	jal	ra,13000 <FN_WriteStr>
   10444:	00004517          	auipc	a0,0x4
   10448:	e1d50513          	addi	a0,a0,-483 # 14261 <end_signature+0x1f1>
   1044c:	3b5020ef          	jal	ra,13000 <FN_WriteStr>
   10450:	06400193          	li	gp,100
   10454:	0000100f          	fence.i
   10458:	00018063          	beqz	gp,10458 <reset_vector+0x40c>
   1045c:	00119193          	slli	gp,gp,0x1
   10460:	0011e193          	ori	gp,gp,1
   10464:	00000073          	ecall
   10468:	9abce2b7          	lui	t0,0x9abce
   1046c:	ef028293          	addi	t0,t0,-272 # 9abcdef0 <_end+0x9abb94c0>
   10470:	08510e63          	beq	sp,t0,1050c <reset_vector+0x4c0>
   10474:	00004517          	auipc	a0,0x4
   10478:	def50513          	addi	a0,a0,-529 # 14263 <end_signature+0x1f3>
   1047c:	385020ef          	jal	ra,13000 <FN_WriteStr>
   10480:	00004517          	auipc	a0,0x4
   10484:	dfe50513          	addi	a0,a0,-514 # 1427e <end_signature+0x20e>
   10488:	379020ef          	jal	ra,13000 <FN_WriteStr>
   1048c:	00004517          	auipc	a0,0x4
   10490:	e0250513          	addi	a0,a0,-510 # 1428e <end_signature+0x21e>
   10494:	36d020ef          	jal	ra,13000 <FN_WriteStr>
   10498:	00004517          	auipc	a0,0x4
   1049c:	dfe50513          	addi	a0,a0,-514 # 14296 <end_signature+0x226>
   104a0:	361020ef          	jal	ra,13000 <FN_WriteStr>
   104a4:	00004517          	auipc	a0,0x4
   104a8:	df650513          	addi	a0,a0,-522 # 1429a <end_signature+0x22a>
   104ac:	355020ef          	jal	ra,13000 <FN_WriteStr>
   104b0:	00004517          	auipc	a0,0x4
   104b4:	ded50513          	addi	a0,a0,-531 # 1429d <end_signature+0x22d>
   104b8:	349020ef          	jal	ra,13000 <FN_WriteStr>
   104bc:	00004517          	auipc	a0,0x4
   104c0:	de450513          	addi	a0,a0,-540 # 142a0 <end_signature+0x230>
   104c4:	33d020ef          	jal	ra,13000 <FN_WriteStr>
   104c8:	00010513          	mv	a0,sp
   104cc:	351020ef          	jal	ra,1301c <FN_WriteA0>
   104d0:	00004517          	auipc	a0,0x4
   104d4:	dd250513          	addi	a0,a0,-558 # 142a2 <end_signature+0x232>
   104d8:	329020ef          	jal	ra,13000 <FN_WriteStr>
   104dc:	00004517          	auipc	a0,0x4
   104e0:	dcc50513          	addi	a0,a0,-564 # 142a8 <end_signature+0x238>
   104e4:	31d020ef          	jal	ra,13000 <FN_WriteStr>
   104e8:	00004517          	auipc	a0,0x4
   104ec:	dcb50513          	addi	a0,a0,-565 # 142b3 <end_signature+0x243>
   104f0:	311020ef          	jal	ra,13000 <FN_WriteStr>
   104f4:	06400193          	li	gp,100
   104f8:	0000100f          	fence.i
   104fc:	00018063          	beqz	gp,104fc <reset_vector+0x4b0>
   10500:	00119193          	slli	gp,gp,0x1
   10504:	0011e193          	ori	gp,gp,1
   10508:	00000073          	ecall
   1050c:	876542b7          	lui	t0,0x87654
   10510:	32128293          	addi	t0,t0,801 # 87654321 <_end+0x8763f8f1>
   10514:	08518e63          	beq	gp,t0,105b0 <reset_vector+0x564>
   10518:	00004517          	auipc	a0,0x4
   1051c:	d9d50513          	addi	a0,a0,-611 # 142b5 <end_signature+0x245>
   10520:	2e1020ef          	jal	ra,13000 <FN_WriteStr>
   10524:	00004517          	auipc	a0,0x4
   10528:	dac50513          	addi	a0,a0,-596 # 142d0 <end_signature+0x260>
   1052c:	2d5020ef          	jal	ra,13000 <FN_WriteStr>
   10530:	00004517          	auipc	a0,0x4
   10534:	db050513          	addi	a0,a0,-592 # 142e0 <end_signature+0x270>
   10538:	2c9020ef          	jal	ra,13000 <FN_WriteStr>
   1053c:	00004517          	auipc	a0,0x4
   10540:	dac50513          	addi	a0,a0,-596 # 142e8 <end_signature+0x278>
   10544:	2bd020ef          	jal	ra,13000 <FN_WriteStr>
   10548:	00004517          	auipc	a0,0x4
   1054c:	da450513          	addi	a0,a0,-604 # 142ec <end_signature+0x27c>
   10550:	2b1020ef          	jal	ra,13000 <FN_WriteStr>
   10554:	00004517          	auipc	a0,0x4
   10558:	d9b50513          	addi	a0,a0,-613 # 142ef <end_signature+0x27f>
   1055c:	2a5020ef          	jal	ra,13000 <FN_WriteStr>
   10560:	00004517          	auipc	a0,0x4
   10564:	d9250513          	addi	a0,a0,-622 # 142f2 <end_signature+0x282>
   10568:	299020ef          	jal	ra,13000 <FN_WriteStr>
   1056c:	00018513          	mv	a0,gp
   10570:	2ad020ef          	jal	ra,1301c <FN_WriteA0>
   10574:	00004517          	auipc	a0,0x4
   10578:	d8050513          	addi	a0,a0,-640 # 142f4 <end_signature+0x284>
   1057c:	285020ef          	jal	ra,13000 <FN_WriteStr>
   10580:	00004517          	auipc	a0,0x4
   10584:	d7a50513          	addi	a0,a0,-646 # 142fa <end_signature+0x28a>
   10588:	279020ef          	jal	ra,13000 <FN_WriteStr>
   1058c:	00004517          	auipc	a0,0x4
   10590:	d7950513          	addi	a0,a0,-647 # 14305 <end_signature+0x295>
   10594:	26d020ef          	jal	ra,13000 <FN_WriteStr>
   10598:	06400193          	li	gp,100
   1059c:	0000100f          	fence.i
   105a0:	00018063          	beqz	gp,105a0 <reset_vector+0x554>
   105a4:	00119193          	slli	gp,gp,0x1
   105a8:	0011e193          	ori	gp,gp,1
   105ac:	00000073          	ecall
   105b0:	0fedd2b7          	lui	t0,0xfedd
   105b4:	ba928293          	addi	t0,t0,-1111 # fedcba9 <_end+0xfec8179>
   105b8:	08520e63          	beq	tp,t0,10654 <reset_vector+0x608>
   105bc:	00004517          	auipc	a0,0x4
   105c0:	d4b50513          	addi	a0,a0,-693 # 14307 <end_signature+0x297>
   105c4:	23d020ef          	jal	ra,13000 <FN_WriteStr>
   105c8:	00004517          	auipc	a0,0x4
   105cc:	d5a50513          	addi	a0,a0,-678 # 14322 <end_signature+0x2b2>
   105d0:	231020ef          	jal	ra,13000 <FN_WriteStr>
   105d4:	00004517          	auipc	a0,0x4
   105d8:	d5e50513          	addi	a0,a0,-674 # 14332 <end_signature+0x2c2>
   105dc:	225020ef          	jal	ra,13000 <FN_WriteStr>
   105e0:	00004517          	auipc	a0,0x4
   105e4:	d5a50513          	addi	a0,a0,-678 # 1433a <end_signature+0x2ca>
   105e8:	219020ef          	jal	ra,13000 <FN_WriteStr>
   105ec:	00004517          	auipc	a0,0x4
   105f0:	d5250513          	addi	a0,a0,-686 # 1433e <end_signature+0x2ce>
   105f4:	20d020ef          	jal	ra,13000 <FN_WriteStr>
   105f8:	00004517          	auipc	a0,0x4
   105fc:	d4950513          	addi	a0,a0,-695 # 14341 <end_signature+0x2d1>
   10600:	201020ef          	jal	ra,13000 <FN_WriteStr>
   10604:	00004517          	auipc	a0,0x4
   10608:	d4050513          	addi	a0,a0,-704 # 14344 <end_signature+0x2d4>
   1060c:	1f5020ef          	jal	ra,13000 <FN_WriteStr>
   10610:	00020513          	mv	a0,tp
   10614:	209020ef          	jal	ra,1301c <FN_WriteA0>
   10618:	00004517          	auipc	a0,0x4
   1061c:	d2e50513          	addi	a0,a0,-722 # 14346 <end_signature+0x2d6>
   10620:	1e1020ef          	jal	ra,13000 <FN_WriteStr>
   10624:	00004517          	auipc	a0,0x4
   10628:	d2850513          	addi	a0,a0,-728 # 1434c <end_signature+0x2dc>
   1062c:	1d5020ef          	jal	ra,13000 <FN_WriteStr>
   10630:	00004517          	auipc	a0,0x4
   10634:	d2750513          	addi	a0,a0,-729 # 14357 <end_signature+0x2e7>
   10638:	1c9020ef          	jal	ra,13000 <FN_WriteStr>
   1063c:	06400193          	li	gp,100
   10640:	0000100f          	fence.i
   10644:	00018063          	beqz	gp,10644 <reset_vector+0x5f8>
   10648:	00119193          	slli	gp,gp,0x1
   1064c:	0011e193          	ori	gp,gp,1
   10650:	00000073          	ecall
   10654:	00004517          	auipc	a0,0x4
   10658:	d0550513          	addi	a0,a0,-763 # 14359 <end_signature+0x2e9>
   1065c:	1a5020ef          	jal	ra,13000 <FN_WriteStr>
   10660:	00004517          	auipc	a0,0x4
   10664:	d1550513          	addi	a0,a0,-747 # 14375 <end_signature+0x305>
   10668:	199020ef          	jal	ra,13000 <FN_WriteStr>
   1066c:	00004497          	auipc	s1,0x4
   10670:	99448493          	addi	s1,s1,-1644 # 14000 <test_B1_data>
   10674:	00004517          	auipc	a0,0x4
   10678:	9b450513          	addi	a0,a0,-1612 # 14028 <test_B1_res>
   1067c:	fff00113          	li	sp,-1
   10680:	fff00193          	li	gp,-1
   10684:	fff00213          	li	tp,-1
   10688:	fff00293          	li	t0,-1
   1068c:	55555337          	lui	t1,0x55555
   10690:	55530313          	addi	t1,t1,1365 # 55555555 <_end+0x55540b25>
   10694:	0004ac83          	lw	s9,0(s1)
   10698:	0044ac03          	lw	s8,4(s1)
   1069c:	00000397          	auipc	t2,0x0
   106a0:	03438393          	addi	t2,t2,52 # 106d0 <B1b_link+0x14>
   106a4:	000380e7          	jalr	t2

000106a8 <B1a_link>:
   106a8:	222221b7          	lui	gp,0x22222
   106ac:	22218193          	addi	gp,gp,546 # 22222222 <_end+0x2220d7f2>
   106b0:	00000417          	auipc	s0,0x0
   106b4:	04040413          	addi	s0,s0,64 # 106f0 <B1b_link+0x34>
   106b8:	00040fe7          	jalr	t6,s0

000106bc <B1b_link>:
   106bc:	444442b7          	lui	t0,0x44444
   106c0:	44428293          	addi	t0,t0,1092 # 44444444 <_end+0x4442fa14>
   106c4:	00000f17          	auipc	t5,0x0
   106c8:	04cf0f13          	addi	t5,t5,76 # 10710 <B1b_link+0x54>
   106cc:	000f0067          	jr	t5
   106d0:	11111137          	lui	sp,0x11111
   106d4:	11110113          	addi	sp,sp,273 # 11111111 <_end+0x110fc6e1>
   106d8:	00008067          	ret
   106dc:	00000113          	li	sp,0
   106e0:	00000193          	li	gp,0
   106e4:	00000213          	li	tp,0
   106e8:	00000293          	li	t0,0
   106ec:	00000313          	li	t1,0
   106f0:	33333237          	lui	tp,0x33333
   106f4:	33320213          	addi	tp,tp,819 # 33333333 <_end+0x3331e903>
   106f8:	000f8067          	jr	t6
   106fc:	00000113          	li	sp,0
   10700:	00000193          	li	gp,0
   10704:	00000213          	li	tp,0
   10708:	00000293          	li	t0,0
   1070c:	00000313          	li	t1,0
   10710:	0190c3b3          	xor	t2,ra,s9
   10714:	018fc433          	xor	s0,t6,s8
   10718:	00252023          	sw	sp,0(a0)
   1071c:	00352223          	sw	gp,4(a0)
   10720:	00452423          	sw	tp,8(a0)
   10724:	00552623          	sw	t0,12(a0)
   10728:	00652823          	sw	t1,16(a0)
   1072c:	00752a23          	sw	t2,20(a0)
   10730:	00852c23          	sw	s0,24(a0)
   10734:	111112b7          	lui	t0,0x11111
   10738:	11128293          	addi	t0,t0,273 # 11111111 <_end+0x110fc6e1>
   1073c:	08510e63          	beq	sp,t0,107d8 <B1b_link+0x11c>
   10740:	00004517          	auipc	a0,0x4
   10744:	c5e50513          	addi	a0,a0,-930 # 1439e <end_signature+0x32e>
   10748:	0b9020ef          	jal	ra,13000 <FN_WriteStr>
   1074c:	00004517          	auipc	a0,0x4
   10750:	c6d50513          	addi	a0,a0,-915 # 143b9 <end_signature+0x349>
   10754:	0ad020ef          	jal	ra,13000 <FN_WriteStr>
   10758:	00004517          	auipc	a0,0x4
   1075c:	c7150513          	addi	a0,a0,-911 # 143c9 <end_signature+0x359>
   10760:	0a1020ef          	jal	ra,13000 <FN_WriteStr>
   10764:	00004517          	auipc	a0,0x4
   10768:	c6d50513          	addi	a0,a0,-915 # 143d1 <end_signature+0x361>
   1076c:	095020ef          	jal	ra,13000 <FN_WriteStr>
   10770:	00004517          	auipc	a0,0x4
   10774:	c6550513          	addi	a0,a0,-923 # 143d5 <end_signature+0x365>
   10778:	089020ef          	jal	ra,13000 <FN_WriteStr>
   1077c:	00004517          	auipc	a0,0x4
   10780:	c5c50513          	addi	a0,a0,-932 # 143d8 <end_signature+0x368>
   10784:	07d020ef          	jal	ra,13000 <FN_WriteStr>
   10788:	00004517          	auipc	a0,0x4
   1078c:	c5350513          	addi	a0,a0,-941 # 143db <end_signature+0x36b>
   10790:	071020ef          	jal	ra,13000 <FN_WriteStr>
   10794:	00010513          	mv	a0,sp
   10798:	085020ef          	jal	ra,1301c <FN_WriteA0>
   1079c:	00004517          	auipc	a0,0x4
   107a0:	c4150513          	addi	a0,a0,-959 # 143dd <end_signature+0x36d>
   107a4:	05d020ef          	jal	ra,13000 <FN_WriteStr>
   107a8:	00004517          	auipc	a0,0x4
   107ac:	c3b50513          	addi	a0,a0,-965 # 143e3 <end_signature+0x373>
   107b0:	051020ef          	jal	ra,13000 <FN_WriteStr>
   107b4:	00004517          	auipc	a0,0x4
   107b8:	c3a50513          	addi	a0,a0,-966 # 143ee <end_signature+0x37e>
   107bc:	045020ef          	jal	ra,13000 <FN_WriteStr>
   107c0:	06400193          	li	gp,100
   107c4:	0000100f          	fence.i
   107c8:	00018063          	beqz	gp,107c8 <B1b_link+0x10c>
   107cc:	00119193          	slli	gp,gp,0x1
   107d0:	0011e193          	ori	gp,gp,1
   107d4:	00000073          	ecall
   107d8:	222222b7          	lui	t0,0x22222
   107dc:	22228293          	addi	t0,t0,546 # 22222222 <_end+0x2220d7f2>
   107e0:	08518e63          	beq	gp,t0,1087c <B1b_link+0x1c0>
   107e4:	00004517          	auipc	a0,0x4
   107e8:	c0c50513          	addi	a0,a0,-1012 # 143f0 <end_signature+0x380>
   107ec:	015020ef          	jal	ra,13000 <FN_WriteStr>
   107f0:	00004517          	auipc	a0,0x4
   107f4:	c1b50513          	addi	a0,a0,-997 # 1440b <end_signature+0x39b>
   107f8:	009020ef          	jal	ra,13000 <FN_WriteStr>
   107fc:	00004517          	auipc	a0,0x4
   10800:	c1f50513          	addi	a0,a0,-993 # 1441b <end_signature+0x3ab>
   10804:	7fc020ef          	jal	ra,13000 <FN_WriteStr>
   10808:	00004517          	auipc	a0,0x4
   1080c:	c1b50513          	addi	a0,a0,-997 # 14423 <end_signature+0x3b3>
   10810:	7f0020ef          	jal	ra,13000 <FN_WriteStr>
   10814:	00004517          	auipc	a0,0x4
   10818:	c1350513          	addi	a0,a0,-1005 # 14427 <end_signature+0x3b7>
   1081c:	7e4020ef          	jal	ra,13000 <FN_WriteStr>
   10820:	00004517          	auipc	a0,0x4
   10824:	c0a50513          	addi	a0,a0,-1014 # 1442a <end_signature+0x3ba>
   10828:	7d8020ef          	jal	ra,13000 <FN_WriteStr>
   1082c:	00004517          	auipc	a0,0x4
   10830:	c0150513          	addi	a0,a0,-1023 # 1442d <end_signature+0x3bd>
   10834:	7cc020ef          	jal	ra,13000 <FN_WriteStr>
   10838:	00018513          	mv	a0,gp
   1083c:	7e0020ef          	jal	ra,1301c <FN_WriteA0>
   10840:	00004517          	auipc	a0,0x4
   10844:	bef50513          	addi	a0,a0,-1041 # 1442f <end_signature+0x3bf>
   10848:	7b8020ef          	jal	ra,13000 <FN_WriteStr>
   1084c:	00004517          	auipc	a0,0x4
   10850:	be950513          	addi	a0,a0,-1047 # 14435 <end_signature+0x3c5>
   10854:	7ac020ef          	jal	ra,13000 <FN_WriteStr>
   10858:	00004517          	auipc	a0,0x4
   1085c:	be850513          	addi	a0,a0,-1048 # 14440 <end_signature+0x3d0>
   10860:	7a0020ef          	jal	ra,13000 <FN_WriteStr>
   10864:	06400193          	li	gp,100
   10868:	0000100f          	fence.i
   1086c:	00018063          	beqz	gp,1086c <B1b_link+0x1b0>
   10870:	00119193          	slli	gp,gp,0x1
   10874:	0011e193          	ori	gp,gp,1
   10878:	00000073          	ecall
   1087c:	333332b7          	lui	t0,0x33333
   10880:	33328293          	addi	t0,t0,819 # 33333333 <_end+0x3331e903>
   10884:	08520e63          	beq	tp,t0,10920 <B1b_link+0x264>
   10888:	00004517          	auipc	a0,0x4
   1088c:	bba50513          	addi	a0,a0,-1094 # 14442 <end_signature+0x3d2>
   10890:	770020ef          	jal	ra,13000 <FN_WriteStr>
   10894:	00004517          	auipc	a0,0x4
   10898:	bc950513          	addi	a0,a0,-1079 # 1445d <end_signature+0x3ed>
   1089c:	764020ef          	jal	ra,13000 <FN_WriteStr>
   108a0:	00004517          	auipc	a0,0x4
   108a4:	bcd50513          	addi	a0,a0,-1075 # 1446d <end_signature+0x3fd>
   108a8:	758020ef          	jal	ra,13000 <FN_WriteStr>
   108ac:	00004517          	auipc	a0,0x4
   108b0:	bc950513          	addi	a0,a0,-1079 # 14475 <end_signature+0x405>
   108b4:	74c020ef          	jal	ra,13000 <FN_WriteStr>
   108b8:	00004517          	auipc	a0,0x4
   108bc:	bc150513          	addi	a0,a0,-1087 # 14479 <end_signature+0x409>
   108c0:	740020ef          	jal	ra,13000 <FN_WriteStr>
   108c4:	00004517          	auipc	a0,0x4
   108c8:	bb850513          	addi	a0,a0,-1096 # 1447c <end_signature+0x40c>
   108cc:	734020ef          	jal	ra,13000 <FN_WriteStr>
   108d0:	00004517          	auipc	a0,0x4
   108d4:	baf50513          	addi	a0,a0,-1105 # 1447f <end_signature+0x40f>
   108d8:	728020ef          	jal	ra,13000 <FN_WriteStr>
   108dc:	00020513          	mv	a0,tp
   108e0:	73c020ef          	jal	ra,1301c <FN_WriteA0>
   108e4:	00004517          	auipc	a0,0x4
   108e8:	b9d50513          	addi	a0,a0,-1123 # 14481 <end_signature+0x411>
   108ec:	714020ef          	jal	ra,13000 <FN_WriteStr>
   108f0:	00004517          	auipc	a0,0x4
   108f4:	b9750513          	addi	a0,a0,-1129 # 14487 <end_signature+0x417>
   108f8:	708020ef          	jal	ra,13000 <FN_WriteStr>
   108fc:	00004517          	auipc	a0,0x4
   10900:	b9650513          	addi	a0,a0,-1130 # 14492 <end_signature+0x422>
   10904:	6fc020ef          	jal	ra,13000 <FN_WriteStr>
   10908:	06400193          	li	gp,100
   1090c:	0000100f          	fence.i
   10910:	00018063          	beqz	gp,10910 <B1b_link+0x254>
   10914:	00119193          	slli	gp,gp,0x1
   10918:	0011e193          	ori	gp,gp,1
   1091c:	00000073          	ecall
   10920:	00000293          	li	t0,0
   10924:	08528e63          	beq	t0,t0,109c0 <B1b_link+0x304>
   10928:	00004517          	auipc	a0,0x4
   1092c:	b6c50513          	addi	a0,a0,-1172 # 14494 <end_signature+0x424>
   10930:	6d0020ef          	jal	ra,13000 <FN_WriteStr>
   10934:	00004517          	auipc	a0,0x4
   10938:	b7b50513          	addi	a0,a0,-1157 # 144af <end_signature+0x43f>
   1093c:	6c4020ef          	jal	ra,13000 <FN_WriteStr>
   10940:	00004517          	auipc	a0,0x4
   10944:	b7f50513          	addi	a0,a0,-1153 # 144bf <end_signature+0x44f>
   10948:	6b8020ef          	jal	ra,13000 <FN_WriteStr>
   1094c:	00004517          	auipc	a0,0x4
   10950:	b7b50513          	addi	a0,a0,-1157 # 144c7 <end_signature+0x457>
   10954:	6ac020ef          	jal	ra,13000 <FN_WriteStr>
   10958:	00004517          	auipc	a0,0x4
   1095c:	b7350513          	addi	a0,a0,-1165 # 144cb <end_signature+0x45b>
   10960:	6a0020ef          	jal	ra,13000 <FN_WriteStr>
   10964:	00004517          	auipc	a0,0x4
   10968:	b6a50513          	addi	a0,a0,-1174 # 144ce <end_signature+0x45e>
   1096c:	694020ef          	jal	ra,13000 <FN_WriteStr>
   10970:	00004517          	auipc	a0,0x4
   10974:	b6150513          	addi	a0,a0,-1183 # 144d1 <end_signature+0x461>
   10978:	688020ef          	jal	ra,13000 <FN_WriteStr>
   1097c:	00028513          	mv	a0,t0
   10980:	69c020ef          	jal	ra,1301c <FN_WriteA0>
   10984:	00004517          	auipc	a0,0x4
   10988:	b4f50513          	addi	a0,a0,-1201 # 144d3 <end_signature+0x463>
   1098c:	674020ef          	jal	ra,13000 <FN_WriteStr>
   10990:	00004517          	auipc	a0,0x4
   10994:	b4950513          	addi	a0,a0,-1207 # 144d9 <end_signature+0x469>
   10998:	668020ef          	jal	ra,13000 <FN_WriteStr>
   1099c:	00004517          	auipc	a0,0x4
   109a0:	b4850513          	addi	a0,a0,-1208 # 144e4 <end_signature+0x474>
   109a4:	65c020ef          	jal	ra,13000 <FN_WriteStr>
   109a8:	06400193          	li	gp,100
   109ac:	0000100f          	fence.i
   109b0:	00018063          	beqz	gp,109b0 <B1b_link+0x2f4>
   109b4:	00119193          	slli	gp,gp,0x1
   109b8:	0011e193          	ori	gp,gp,1
   109bc:	00000073          	ecall
   109c0:	555552b7          	lui	t0,0x55555
   109c4:	55528293          	addi	t0,t0,1365 # 55555555 <_end+0x55540b25>
   109c8:	08530e63          	beq	t1,t0,10a64 <B1b_link+0x3a8>
   109cc:	00004517          	auipc	a0,0x4
   109d0:	b1a50513          	addi	a0,a0,-1254 # 144e6 <end_signature+0x476>
   109d4:	62c020ef          	jal	ra,13000 <FN_WriteStr>
   109d8:	00004517          	auipc	a0,0x4
   109dc:	b2950513          	addi	a0,a0,-1239 # 14501 <end_signature+0x491>
   109e0:	620020ef          	jal	ra,13000 <FN_WriteStr>
   109e4:	00004517          	auipc	a0,0x4
   109e8:	b2d50513          	addi	a0,a0,-1235 # 14511 <end_signature+0x4a1>
   109ec:	614020ef          	jal	ra,13000 <FN_WriteStr>
   109f0:	00004517          	auipc	a0,0x4
   109f4:	b2950513          	addi	a0,a0,-1239 # 14519 <end_signature+0x4a9>
   109f8:	608020ef          	jal	ra,13000 <FN_WriteStr>
   109fc:	00004517          	auipc	a0,0x4
   10a00:	b2150513          	addi	a0,a0,-1247 # 1451d <end_signature+0x4ad>
   10a04:	5fc020ef          	jal	ra,13000 <FN_WriteStr>
   10a08:	00004517          	auipc	a0,0x4
   10a0c:	b1850513          	addi	a0,a0,-1256 # 14520 <end_signature+0x4b0>
   10a10:	5f0020ef          	jal	ra,13000 <FN_WriteStr>
   10a14:	00004517          	auipc	a0,0x4
   10a18:	b0f50513          	addi	a0,a0,-1265 # 14523 <end_signature+0x4b3>
   10a1c:	5e4020ef          	jal	ra,13000 <FN_WriteStr>
   10a20:	00030513          	mv	a0,t1
   10a24:	5f8020ef          	jal	ra,1301c <FN_WriteA0>
   10a28:	00004517          	auipc	a0,0x4
   10a2c:	afd50513          	addi	a0,a0,-1283 # 14525 <end_signature+0x4b5>
   10a30:	5d0020ef          	jal	ra,13000 <FN_WriteStr>
   10a34:	00004517          	auipc	a0,0x4
   10a38:	af750513          	addi	a0,a0,-1289 # 1452b <end_signature+0x4bb>
   10a3c:	5c4020ef          	jal	ra,13000 <FN_WriteStr>
   10a40:	00004517          	auipc	a0,0x4
   10a44:	af650513          	addi	a0,a0,-1290 # 14536 <end_signature+0x4c6>
   10a48:	5b8020ef          	jal	ra,13000 <FN_WriteStr>
   10a4c:	06400193          	li	gp,100
   10a50:	0000100f          	fence.i
   10a54:	00018063          	beqz	gp,10a54 <B1b_link+0x398>
   10a58:	00119193          	slli	gp,gp,0x1
   10a5c:	0011e193          	ori	gp,gp,1
   10a60:	00000073          	ecall
   10a64:	00000293          	li	t0,0
   10a68:	08538e63          	beq	t2,t0,10b04 <B1b_link+0x448>
   10a6c:	00004517          	auipc	a0,0x4
   10a70:	acc50513          	addi	a0,a0,-1332 # 14538 <end_signature+0x4c8>
   10a74:	58c020ef          	jal	ra,13000 <FN_WriteStr>
   10a78:	00004517          	auipc	a0,0x4
   10a7c:	adb50513          	addi	a0,a0,-1317 # 14553 <end_signature+0x4e3>
   10a80:	580020ef          	jal	ra,13000 <FN_WriteStr>
   10a84:	00004517          	auipc	a0,0x4
   10a88:	adf50513          	addi	a0,a0,-1313 # 14563 <end_signature+0x4f3>
   10a8c:	574020ef          	jal	ra,13000 <FN_WriteStr>
   10a90:	00004517          	auipc	a0,0x4
   10a94:	adb50513          	addi	a0,a0,-1317 # 1456b <end_signature+0x4fb>
   10a98:	568020ef          	jal	ra,13000 <FN_WriteStr>
   10a9c:	00004517          	auipc	a0,0x4
   10aa0:	ad350513          	addi	a0,a0,-1325 # 1456f <end_signature+0x4ff>
   10aa4:	55c020ef          	jal	ra,13000 <FN_WriteStr>
   10aa8:	00004517          	auipc	a0,0x4
   10aac:	aca50513          	addi	a0,a0,-1334 # 14572 <end_signature+0x502>
   10ab0:	550020ef          	jal	ra,13000 <FN_WriteStr>
   10ab4:	00004517          	auipc	a0,0x4
   10ab8:	ac150513          	addi	a0,a0,-1343 # 14575 <end_signature+0x505>
   10abc:	544020ef          	jal	ra,13000 <FN_WriteStr>
   10ac0:	00038513          	mv	a0,t2
   10ac4:	558020ef          	jal	ra,1301c <FN_WriteA0>
   10ac8:	00004517          	auipc	a0,0x4
   10acc:	aaf50513          	addi	a0,a0,-1361 # 14577 <end_signature+0x507>
   10ad0:	530020ef          	jal	ra,13000 <FN_WriteStr>
   10ad4:	00004517          	auipc	a0,0x4
   10ad8:	aa950513          	addi	a0,a0,-1367 # 1457d <end_signature+0x50d>
   10adc:	524020ef          	jal	ra,13000 <FN_WriteStr>
   10ae0:	00004517          	auipc	a0,0x4
   10ae4:	aa850513          	addi	a0,a0,-1368 # 14588 <end_signature+0x518>
   10ae8:	518020ef          	jal	ra,13000 <FN_WriteStr>
   10aec:	06400193          	li	gp,100
   10af0:	0000100f          	fence.i
   10af4:	00018063          	beqz	gp,10af4 <B1b_link+0x438>
   10af8:	00119193          	slli	gp,gp,0x1
   10afc:	0011e193          	ori	gp,gp,1
   10b00:	00000073          	ecall
   10b04:	00000293          	li	t0,0
   10b08:	08540e63          	beq	s0,t0,10ba4 <B1b_link+0x4e8>
   10b0c:	00004517          	auipc	a0,0x4
   10b10:	a7e50513          	addi	a0,a0,-1410 # 1458a <end_signature+0x51a>
   10b14:	4ec020ef          	jal	ra,13000 <FN_WriteStr>
   10b18:	00004517          	auipc	a0,0x4
   10b1c:	a8d50513          	addi	a0,a0,-1395 # 145a5 <end_signature+0x535>
   10b20:	4e0020ef          	jal	ra,13000 <FN_WriteStr>
   10b24:	00004517          	auipc	a0,0x4
   10b28:	a9150513          	addi	a0,a0,-1391 # 145b5 <end_signature+0x545>
   10b2c:	4d4020ef          	jal	ra,13000 <FN_WriteStr>
   10b30:	00004517          	auipc	a0,0x4
   10b34:	a8d50513          	addi	a0,a0,-1395 # 145bd <end_signature+0x54d>
   10b38:	4c8020ef          	jal	ra,13000 <FN_WriteStr>
   10b3c:	00004517          	auipc	a0,0x4
   10b40:	a8550513          	addi	a0,a0,-1403 # 145c1 <end_signature+0x551>
   10b44:	4bc020ef          	jal	ra,13000 <FN_WriteStr>
   10b48:	00004517          	auipc	a0,0x4
   10b4c:	a7c50513          	addi	a0,a0,-1412 # 145c4 <end_signature+0x554>
   10b50:	4b0020ef          	jal	ra,13000 <FN_WriteStr>
   10b54:	00004517          	auipc	a0,0x4
   10b58:	a7350513          	addi	a0,a0,-1421 # 145c7 <end_signature+0x557>
   10b5c:	4a4020ef          	jal	ra,13000 <FN_WriteStr>
   10b60:	00040513          	mv	a0,s0
   10b64:	4b8020ef          	jal	ra,1301c <FN_WriteA0>
   10b68:	00004517          	auipc	a0,0x4
   10b6c:	a6150513          	addi	a0,a0,-1439 # 145c9 <end_signature+0x559>
   10b70:	490020ef          	jal	ra,13000 <FN_WriteStr>
   10b74:	00004517          	auipc	a0,0x4
   10b78:	a5b50513          	addi	a0,a0,-1445 # 145cf <end_signature+0x55f>
   10b7c:	484020ef          	jal	ra,13000 <FN_WriteStr>
   10b80:	00004517          	auipc	a0,0x4
   10b84:	a5a50513          	addi	a0,a0,-1446 # 145da <end_signature+0x56a>
   10b88:	478020ef          	jal	ra,13000 <FN_WriteStr>
   10b8c:	06400193          	li	gp,100
   10b90:	0000100f          	fence.i
   10b94:	00018063          	beqz	gp,10b94 <B1b_link+0x4d8>
   10b98:	00119193          	slli	gp,gp,0x1
   10b9c:	0011e193          	ori	gp,gp,1
   10ba0:	00000073          	ecall
   10ba4:	00004517          	auipc	a0,0x4
   10ba8:	a3850513          	addi	a0,a0,-1480 # 145dc <end_signature+0x56c>
   10bac:	454020ef          	jal	ra,13000 <FN_WriteStr>
   10bb0:	00004517          	auipc	a0,0x4
   10bb4:	a4850513          	addi	a0,a0,-1464 # 145f8 <end_signature+0x588>
   10bb8:	448020ef          	jal	ra,13000 <FN_WriteStr>
   10bbc:	00003497          	auipc	s1,0x3
   10bc0:	44c48493          	addi	s1,s1,1100 # 14008 <test_B2_data>
   10bc4:	00003517          	auipc	a0,0x3
   10bc8:	48050513          	addi	a0,a0,1152 # 14044 <test_B2_res>
   10bcc:	fff00113          	li	sp,-1
   10bd0:	fff00193          	li	gp,-1
   10bd4:	fff00213          	li	tp,-1
   10bd8:	fff00293          	li	t0,-1
   10bdc:	fff00313          	li	t1,-1
   10be0:	0004ac03          	lw	s8,0(s1)
   10be4:	0044ac83          	lw	s9,4(s1)
   10be8:	00000797          	auipc	a5,0x0
   10bec:	02c78793          	addi	a5,a5,44 # 10c14 <B1b_link+0x558>
   10bf0:	00078067          	jr	a5
   10bf4:	777771b7          	lui	gp,0x77777
   10bf8:	77718193          	addi	gp,gp,1911 # 77777777 <_end+0x77762d47>
   10bfc:	001f8067          	jr	1(t6)
   10c00:	00000113          	li	sp,0
   10c04:	00000193          	li	gp,0
   10c08:	00000213          	li	tp,0
   10c0c:	00000293          	li	t0,0
   10c10:	00000313          	li	t1,0
   10c14:	66666137          	lui	sp,0x66666
   10c18:	66610113          	addi	sp,sp,1638 # 66666666 <_end+0x66651c36>
   10c1c:	00000f97          	auipc	t6,0x0
   10c20:	fd9f8f93          	addi	t6,t6,-39 # 10bf5 <B1b_link+0x539>
   10c24:	000f8fe7          	jalr	t6,t6

00010c28 <B2b_link>:
   10c28:	88889237          	lui	tp,0x88889
   10c2c:	88820213          	addi	tp,tp,-1912 # 88888888 <_end+0x88873e58>
   10c30:	00000097          	auipc	ra,0x0
   10c34:	02108093          	addi	ra,ra,33 # 10c51 <B2c_link+0x15>
   10c38:	000080e7          	jalr	ra

00010c3c <B2c_link>:
   10c3c:	aaaab337          	lui	t1,0xaaaab
   10c40:	aaa30313          	addi	t1,t1,-1366 # aaaaaaaa <_end+0xaaa9607a>
   10c44:	00000f17          	auipc	t5,0x0
   10c48:	02cf0f13          	addi	t5,t5,44 # 10c70 <B2c_link+0x34>
   10c4c:	000f0067          	jr	t5
   10c50:	9999a2b7          	lui	t0,0x9999a
   10c54:	99928293          	addi	t0,t0,-1639 # 99999999 <_end+0x99984f69>
   10c58:	00108067          	jr	1(ra)
   10c5c:	00000113          	li	sp,0
   10c60:	00000193          	li	gp,0
   10c64:	00000213          	li	tp,0
   10c68:	00000293          	li	t0,0
   10c6c:	00000313          	li	t1,0
   10c70:	018fc3b3          	xor	t2,t6,s8
   10c74:	0190c433          	xor	s0,ra,s9
   10c78:	00252023          	sw	sp,0(a0)
   10c7c:	00352223          	sw	gp,4(a0)
   10c80:	00452423          	sw	tp,8(a0)
   10c84:	00552623          	sw	t0,12(a0)
   10c88:	00652823          	sw	t1,16(a0)
   10c8c:	00752a23          	sw	t2,20(a0)
   10c90:	00852c23          	sw	s0,24(a0)
   10c94:	666662b7          	lui	t0,0x66666
   10c98:	66628293          	addi	t0,t0,1638 # 66666666 <_end+0x66651c36>
   10c9c:	08510e63          	beq	sp,t0,10d38 <B2c_link+0xfc>
   10ca0:	00004517          	auipc	a0,0x4
   10ca4:	9a050513          	addi	a0,a0,-1632 # 14640 <end_signature+0x5d0>
   10ca8:	358020ef          	jal	ra,13000 <FN_WriteStr>
   10cac:	00004517          	auipc	a0,0x4
   10cb0:	9af50513          	addi	a0,a0,-1617 # 1465b <end_signature+0x5eb>
   10cb4:	34c020ef          	jal	ra,13000 <FN_WriteStr>
   10cb8:	00004517          	auipc	a0,0x4
   10cbc:	9b350513          	addi	a0,a0,-1613 # 1466b <end_signature+0x5fb>
   10cc0:	340020ef          	jal	ra,13000 <FN_WriteStr>
   10cc4:	00004517          	auipc	a0,0x4
   10cc8:	9af50513          	addi	a0,a0,-1617 # 14673 <end_signature+0x603>
   10ccc:	334020ef          	jal	ra,13000 <FN_WriteStr>
   10cd0:	00004517          	auipc	a0,0x4
   10cd4:	9a750513          	addi	a0,a0,-1625 # 14677 <end_signature+0x607>
   10cd8:	328020ef          	jal	ra,13000 <FN_WriteStr>
   10cdc:	00004517          	auipc	a0,0x4
   10ce0:	99e50513          	addi	a0,a0,-1634 # 1467a <end_signature+0x60a>
   10ce4:	31c020ef          	jal	ra,13000 <FN_WriteStr>
   10ce8:	00004517          	auipc	a0,0x4
   10cec:	99550513          	addi	a0,a0,-1643 # 1467d <end_signature+0x60d>
   10cf0:	310020ef          	jal	ra,13000 <FN_WriteStr>
   10cf4:	00010513          	mv	a0,sp
   10cf8:	324020ef          	jal	ra,1301c <FN_WriteA0>
   10cfc:	00004517          	auipc	a0,0x4
   10d00:	98350513          	addi	a0,a0,-1661 # 1467f <end_signature+0x60f>
   10d04:	2fc020ef          	jal	ra,13000 <FN_WriteStr>
   10d08:	00004517          	auipc	a0,0x4
   10d0c:	97d50513          	addi	a0,a0,-1667 # 14685 <end_signature+0x615>
   10d10:	2f0020ef          	jal	ra,13000 <FN_WriteStr>
   10d14:	00004517          	auipc	a0,0x4
   10d18:	97c50513          	addi	a0,a0,-1668 # 14690 <end_signature+0x620>
   10d1c:	2e4020ef          	jal	ra,13000 <FN_WriteStr>
   10d20:	06400193          	li	gp,100
   10d24:	0000100f          	fence.i
   10d28:	00018063          	beqz	gp,10d28 <B2c_link+0xec>
   10d2c:	00119193          	slli	gp,gp,0x1
   10d30:	0011e193          	ori	gp,gp,1
   10d34:	00000073          	ecall
   10d38:	777772b7          	lui	t0,0x77777
   10d3c:	77728293          	addi	t0,t0,1911 # 77777777 <_end+0x77762d47>
   10d40:	08518e63          	beq	gp,t0,10ddc <B2c_link+0x1a0>
   10d44:	00004517          	auipc	a0,0x4
   10d48:	94e50513          	addi	a0,a0,-1714 # 14692 <end_signature+0x622>
   10d4c:	2b4020ef          	jal	ra,13000 <FN_WriteStr>
   10d50:	00004517          	auipc	a0,0x4
   10d54:	95d50513          	addi	a0,a0,-1699 # 146ad <end_signature+0x63d>
   10d58:	2a8020ef          	jal	ra,13000 <FN_WriteStr>
   10d5c:	00004517          	auipc	a0,0x4
   10d60:	96150513          	addi	a0,a0,-1695 # 146bd <end_signature+0x64d>
   10d64:	29c020ef          	jal	ra,13000 <FN_WriteStr>
   10d68:	00004517          	auipc	a0,0x4
   10d6c:	95d50513          	addi	a0,a0,-1699 # 146c5 <end_signature+0x655>
   10d70:	290020ef          	jal	ra,13000 <FN_WriteStr>
   10d74:	00004517          	auipc	a0,0x4
   10d78:	95550513          	addi	a0,a0,-1707 # 146c9 <end_signature+0x659>
   10d7c:	284020ef          	jal	ra,13000 <FN_WriteStr>
   10d80:	00004517          	auipc	a0,0x4
   10d84:	94c50513          	addi	a0,a0,-1716 # 146cc <end_signature+0x65c>
   10d88:	278020ef          	jal	ra,13000 <FN_WriteStr>
   10d8c:	00004517          	auipc	a0,0x4
   10d90:	94350513          	addi	a0,a0,-1725 # 146cf <end_signature+0x65f>
   10d94:	26c020ef          	jal	ra,13000 <FN_WriteStr>
   10d98:	00018513          	mv	a0,gp
   10d9c:	280020ef          	jal	ra,1301c <FN_WriteA0>
   10da0:	00004517          	auipc	a0,0x4
   10da4:	93150513          	addi	a0,a0,-1743 # 146d1 <end_signature+0x661>
   10da8:	258020ef          	jal	ra,13000 <FN_WriteStr>
   10dac:	00004517          	auipc	a0,0x4
   10db0:	92b50513          	addi	a0,a0,-1749 # 146d7 <end_signature+0x667>
   10db4:	24c020ef          	jal	ra,13000 <FN_WriteStr>
   10db8:	00004517          	auipc	a0,0x4
   10dbc:	92a50513          	addi	a0,a0,-1750 # 146e2 <end_signature+0x672>
   10dc0:	240020ef          	jal	ra,13000 <FN_WriteStr>
   10dc4:	06400193          	li	gp,100
   10dc8:	0000100f          	fence.i
   10dcc:	00018063          	beqz	gp,10dcc <B2c_link+0x190>
   10dd0:	00119193          	slli	gp,gp,0x1
   10dd4:	0011e193          	ori	gp,gp,1
   10dd8:	00000073          	ecall
   10ddc:	888892b7          	lui	t0,0x88889
   10de0:	88828293          	addi	t0,t0,-1912 # 88888888 <_end+0x88873e58>
   10de4:	08520e63          	beq	tp,t0,10e80 <B2c_link+0x244>
   10de8:	00004517          	auipc	a0,0x4
   10dec:	8fc50513          	addi	a0,a0,-1796 # 146e4 <end_signature+0x674>
   10df0:	210020ef          	jal	ra,13000 <FN_WriteStr>
   10df4:	00004517          	auipc	a0,0x4
   10df8:	90b50513          	addi	a0,a0,-1781 # 146ff <end_signature+0x68f>
   10dfc:	204020ef          	jal	ra,13000 <FN_WriteStr>
   10e00:	00004517          	auipc	a0,0x4
   10e04:	90f50513          	addi	a0,a0,-1777 # 1470f <end_signature+0x69f>
   10e08:	1f8020ef          	jal	ra,13000 <FN_WriteStr>
   10e0c:	00004517          	auipc	a0,0x4
   10e10:	90b50513          	addi	a0,a0,-1781 # 14717 <end_signature+0x6a7>
   10e14:	1ec020ef          	jal	ra,13000 <FN_WriteStr>
   10e18:	00004517          	auipc	a0,0x4
   10e1c:	90350513          	addi	a0,a0,-1789 # 1471b <end_signature+0x6ab>
   10e20:	1e0020ef          	jal	ra,13000 <FN_WriteStr>
   10e24:	00004517          	auipc	a0,0x4
   10e28:	8fa50513          	addi	a0,a0,-1798 # 1471e <end_signature+0x6ae>
   10e2c:	1d4020ef          	jal	ra,13000 <FN_WriteStr>
   10e30:	00004517          	auipc	a0,0x4
   10e34:	8f150513          	addi	a0,a0,-1807 # 14721 <end_signature+0x6b1>
   10e38:	1c8020ef          	jal	ra,13000 <FN_WriteStr>
   10e3c:	00020513          	mv	a0,tp
   10e40:	1dc020ef          	jal	ra,1301c <FN_WriteA0>
   10e44:	00004517          	auipc	a0,0x4
   10e48:	8df50513          	addi	a0,a0,-1825 # 14723 <end_signature+0x6b3>
   10e4c:	1b4020ef          	jal	ra,13000 <FN_WriteStr>
   10e50:	00004517          	auipc	a0,0x4
   10e54:	8d950513          	addi	a0,a0,-1831 # 14729 <end_signature+0x6b9>
   10e58:	1a8020ef          	jal	ra,13000 <FN_WriteStr>
   10e5c:	00004517          	auipc	a0,0x4
   10e60:	8d850513          	addi	a0,a0,-1832 # 14734 <end_signature+0x6c4>
   10e64:	19c020ef          	jal	ra,13000 <FN_WriteStr>
   10e68:	06400193          	li	gp,100
   10e6c:	0000100f          	fence.i
   10e70:	00018063          	beqz	gp,10e70 <B2c_link+0x234>
   10e74:	00119193          	slli	gp,gp,0x1
   10e78:	0011e193          	ori	gp,gp,1
   10e7c:	00000073          	ecall
   10e80:	00000293          	li	t0,0
   10e84:	08528e63          	beq	t0,t0,10f20 <B2c_link+0x2e4>
   10e88:	00004517          	auipc	a0,0x4
   10e8c:	8ae50513          	addi	a0,a0,-1874 # 14736 <end_signature+0x6c6>
   10e90:	170020ef          	jal	ra,13000 <FN_WriteStr>
   10e94:	00004517          	auipc	a0,0x4
   10e98:	8bd50513          	addi	a0,a0,-1859 # 14751 <end_signature+0x6e1>
   10e9c:	164020ef          	jal	ra,13000 <FN_WriteStr>
   10ea0:	00004517          	auipc	a0,0x4
   10ea4:	8c150513          	addi	a0,a0,-1855 # 14761 <end_signature+0x6f1>
   10ea8:	158020ef          	jal	ra,13000 <FN_WriteStr>
   10eac:	00004517          	auipc	a0,0x4
   10eb0:	8bd50513          	addi	a0,a0,-1859 # 14769 <end_signature+0x6f9>
   10eb4:	14c020ef          	jal	ra,13000 <FN_WriteStr>
   10eb8:	00004517          	auipc	a0,0x4
   10ebc:	8b550513          	addi	a0,a0,-1867 # 1476d <end_signature+0x6fd>
   10ec0:	140020ef          	jal	ra,13000 <FN_WriteStr>
   10ec4:	00004517          	auipc	a0,0x4
   10ec8:	8ac50513          	addi	a0,a0,-1876 # 14770 <end_signature+0x700>
   10ecc:	134020ef          	jal	ra,13000 <FN_WriteStr>
   10ed0:	00004517          	auipc	a0,0x4
   10ed4:	8a350513          	addi	a0,a0,-1885 # 14773 <end_signature+0x703>
   10ed8:	128020ef          	jal	ra,13000 <FN_WriteStr>
   10edc:	00028513          	mv	a0,t0
   10ee0:	13c020ef          	jal	ra,1301c <FN_WriteA0>
   10ee4:	00004517          	auipc	a0,0x4
   10ee8:	89150513          	addi	a0,a0,-1903 # 14775 <end_signature+0x705>
   10eec:	114020ef          	jal	ra,13000 <FN_WriteStr>
   10ef0:	00004517          	auipc	a0,0x4
   10ef4:	88b50513          	addi	a0,a0,-1909 # 1477b <end_signature+0x70b>
   10ef8:	108020ef          	jal	ra,13000 <FN_WriteStr>
   10efc:	00004517          	auipc	a0,0x4
   10f00:	88a50513          	addi	a0,a0,-1910 # 14786 <end_signature+0x716>
   10f04:	0fc020ef          	jal	ra,13000 <FN_WriteStr>
   10f08:	06400193          	li	gp,100
   10f0c:	0000100f          	fence.i
   10f10:	00018063          	beqz	gp,10f10 <B2c_link+0x2d4>
   10f14:	00119193          	slli	gp,gp,0x1
   10f18:	0011e193          	ori	gp,gp,1
   10f1c:	00000073          	ecall
   10f20:	aaaab2b7          	lui	t0,0xaaaab
   10f24:	aaa28293          	addi	t0,t0,-1366 # aaaaaaaa <_end+0xaaa9607a>
   10f28:	08530e63          	beq	t1,t0,10fc4 <B2c_link+0x388>
   10f2c:	00004517          	auipc	a0,0x4
   10f30:	85c50513          	addi	a0,a0,-1956 # 14788 <end_signature+0x718>
   10f34:	0cc020ef          	jal	ra,13000 <FN_WriteStr>
   10f38:	00004517          	auipc	a0,0x4
   10f3c:	86b50513          	addi	a0,a0,-1941 # 147a3 <end_signature+0x733>
   10f40:	0c0020ef          	jal	ra,13000 <FN_WriteStr>
   10f44:	00004517          	auipc	a0,0x4
   10f48:	86f50513          	addi	a0,a0,-1937 # 147b3 <end_signature+0x743>
   10f4c:	0b4020ef          	jal	ra,13000 <FN_WriteStr>
   10f50:	00004517          	auipc	a0,0x4
   10f54:	86b50513          	addi	a0,a0,-1941 # 147bb <end_signature+0x74b>
   10f58:	0a8020ef          	jal	ra,13000 <FN_WriteStr>
   10f5c:	00004517          	auipc	a0,0x4
   10f60:	86350513          	addi	a0,a0,-1949 # 147bf <end_signature+0x74f>
   10f64:	09c020ef          	jal	ra,13000 <FN_WriteStr>
   10f68:	00004517          	auipc	a0,0x4
   10f6c:	85a50513          	addi	a0,a0,-1958 # 147c2 <end_signature+0x752>
   10f70:	090020ef          	jal	ra,13000 <FN_WriteStr>
   10f74:	00004517          	auipc	a0,0x4
   10f78:	85150513          	addi	a0,a0,-1967 # 147c5 <end_signature+0x755>
   10f7c:	084020ef          	jal	ra,13000 <FN_WriteStr>
   10f80:	00030513          	mv	a0,t1
   10f84:	098020ef          	jal	ra,1301c <FN_WriteA0>
   10f88:	00004517          	auipc	a0,0x4
   10f8c:	83f50513          	addi	a0,a0,-1985 # 147c7 <end_signature+0x757>
   10f90:	070020ef          	jal	ra,13000 <FN_WriteStr>
   10f94:	00004517          	auipc	a0,0x4
   10f98:	83950513          	addi	a0,a0,-1991 # 147cd <end_signature+0x75d>
   10f9c:	064020ef          	jal	ra,13000 <FN_WriteStr>
   10fa0:	00004517          	auipc	a0,0x4
   10fa4:	83850513          	addi	a0,a0,-1992 # 147d8 <end_signature+0x768>
   10fa8:	058020ef          	jal	ra,13000 <FN_WriteStr>
   10fac:	06400193          	li	gp,100
   10fb0:	0000100f          	fence.i
   10fb4:	00018063          	beqz	gp,10fb4 <B2c_link+0x378>
   10fb8:	00119193          	slli	gp,gp,0x1
   10fbc:	0011e193          	ori	gp,gp,1
   10fc0:	00000073          	ecall
   10fc4:	00000293          	li	t0,0
   10fc8:	08538e63          	beq	t2,t0,11064 <B2c_link+0x428>
   10fcc:	00004517          	auipc	a0,0x4
   10fd0:	80e50513          	addi	a0,a0,-2034 # 147da <end_signature+0x76a>
   10fd4:	02c020ef          	jal	ra,13000 <FN_WriteStr>
   10fd8:	00004517          	auipc	a0,0x4
   10fdc:	81d50513          	addi	a0,a0,-2019 # 147f5 <end_signature+0x785>
   10fe0:	020020ef          	jal	ra,13000 <FN_WriteStr>
   10fe4:	00004517          	auipc	a0,0x4
   10fe8:	82150513          	addi	a0,a0,-2015 # 14805 <end_signature+0x795>
   10fec:	014020ef          	jal	ra,13000 <FN_WriteStr>
   10ff0:	00004517          	auipc	a0,0x4
   10ff4:	81d50513          	addi	a0,a0,-2019 # 1480d <end_signature+0x79d>
   10ff8:	008020ef          	jal	ra,13000 <FN_WriteStr>
   10ffc:	00004517          	auipc	a0,0x4
   11000:	81550513          	addi	a0,a0,-2027 # 14811 <end_signature+0x7a1>
   11004:	7fd010ef          	jal	ra,13000 <FN_WriteStr>
   11008:	00004517          	auipc	a0,0x4
   1100c:	80c50513          	addi	a0,a0,-2036 # 14814 <end_signature+0x7a4>
   11010:	7f1010ef          	jal	ra,13000 <FN_WriteStr>
   11014:	00004517          	auipc	a0,0x4
   11018:	80350513          	addi	a0,a0,-2045 # 14817 <end_signature+0x7a7>
   1101c:	7e5010ef          	jal	ra,13000 <FN_WriteStr>
   11020:	00038513          	mv	a0,t2
   11024:	7f9010ef          	jal	ra,1301c <FN_WriteA0>
   11028:	00003517          	auipc	a0,0x3
   1102c:	7f150513          	addi	a0,a0,2033 # 14819 <end_signature+0x7a9>
   11030:	7d1010ef          	jal	ra,13000 <FN_WriteStr>
   11034:	00003517          	auipc	a0,0x3
   11038:	7eb50513          	addi	a0,a0,2027 # 1481f <end_signature+0x7af>
   1103c:	7c5010ef          	jal	ra,13000 <FN_WriteStr>
   11040:	00003517          	auipc	a0,0x3
   11044:	7ea50513          	addi	a0,a0,2026 # 1482a <end_signature+0x7ba>
   11048:	7b9010ef          	jal	ra,13000 <FN_WriteStr>
   1104c:	06400193          	li	gp,100
   11050:	0000100f          	fence.i
   11054:	00018063          	beqz	gp,11054 <B2c_link+0x418>
   11058:	00119193          	slli	gp,gp,0x1
   1105c:	0011e193          	ori	gp,gp,1
   11060:	00000073          	ecall
   11064:	00000293          	li	t0,0
   11068:	08540e63          	beq	s0,t0,11104 <B2c_link+0x4c8>
   1106c:	00003517          	auipc	a0,0x3
   11070:	7c050513          	addi	a0,a0,1984 # 1482c <end_signature+0x7bc>
   11074:	78d010ef          	jal	ra,13000 <FN_WriteStr>
   11078:	00003517          	auipc	a0,0x3
   1107c:	7cf50513          	addi	a0,a0,1999 # 14847 <end_signature+0x7d7>
   11080:	781010ef          	jal	ra,13000 <FN_WriteStr>
   11084:	00003517          	auipc	a0,0x3
   11088:	7d350513          	addi	a0,a0,2003 # 14857 <end_signature+0x7e7>
   1108c:	775010ef          	jal	ra,13000 <FN_WriteStr>
   11090:	00003517          	auipc	a0,0x3
   11094:	7cf50513          	addi	a0,a0,1999 # 1485f <end_signature+0x7ef>
   11098:	769010ef          	jal	ra,13000 <FN_WriteStr>
   1109c:	00003517          	auipc	a0,0x3
   110a0:	7c750513          	addi	a0,a0,1991 # 14863 <end_signature+0x7f3>
   110a4:	75d010ef          	jal	ra,13000 <FN_WriteStr>
   110a8:	00003517          	auipc	a0,0x3
   110ac:	7be50513          	addi	a0,a0,1982 # 14866 <end_signature+0x7f6>
   110b0:	751010ef          	jal	ra,13000 <FN_WriteStr>
   110b4:	00003517          	auipc	a0,0x3
   110b8:	7b550513          	addi	a0,a0,1973 # 14869 <end_signature+0x7f9>
   110bc:	745010ef          	jal	ra,13000 <FN_WriteStr>
   110c0:	00040513          	mv	a0,s0
   110c4:	759010ef          	jal	ra,1301c <FN_WriteA0>
   110c8:	00003517          	auipc	a0,0x3
   110cc:	7a350513          	addi	a0,a0,1955 # 1486b <end_signature+0x7fb>
   110d0:	731010ef          	jal	ra,13000 <FN_WriteStr>
   110d4:	00003517          	auipc	a0,0x3
   110d8:	79d50513          	addi	a0,a0,1949 # 14871 <end_signature+0x801>
   110dc:	725010ef          	jal	ra,13000 <FN_WriteStr>
   110e0:	00003517          	auipc	a0,0x3
   110e4:	79c50513          	addi	a0,a0,1948 # 1487c <end_signature+0x80c>
   110e8:	719010ef          	jal	ra,13000 <FN_WriteStr>
   110ec:	06400193          	li	gp,100
   110f0:	0000100f          	fence.i
   110f4:	00018063          	beqz	gp,110f4 <B2c_link+0x4b8>
   110f8:	00119193          	slli	gp,gp,0x1
   110fc:	0011e193          	ori	gp,gp,1
   11100:	00000073          	ecall
   11104:	00003517          	auipc	a0,0x3
   11108:	77a50513          	addi	a0,a0,1914 # 1487e <end_signature+0x80e>
   1110c:	6f5010ef          	jal	ra,13000 <FN_WriteStr>
   11110:	00003517          	auipc	a0,0x3
   11114:	78a50513          	addi	a0,a0,1930 # 1489a <end_signature+0x82a>
   11118:	6e9010ef          	jal	ra,13000 <FN_WriteStr>
   1111c:	00003097          	auipc	ra,0x3
   11120:	f4408093          	addi	ra,ra,-188 # 14060 <test_C_res>
   11124:	11111237          	lui	tp,0x11111
   11128:	11120213          	addi	tp,tp,273 # 11111111 <_end+0x110fc6e1>
   1112c:	00000197          	auipc	gp,0x0
   11130:	00f18193          	addi	gp,gp,15 # 1113b <B2c_link+0x4ff>
   11134:	00118067          	jr	1(gp)
   11138:	00000213          	li	tp,0
   1113c:	222222b7          	lui	t0,0x22222
   11140:	22228293          	addi	t0,t0,546 # 22222222 <_end+0x2220d7f2>
   11144:	00000197          	auipc	gp,0x0
   11148:	01118193          	addi	gp,gp,17 # 11155 <B2c_link+0x519>
   1114c:	fff18067          	jr	-1(gp)
   11150:	00000293          	li	t0,0
   11154:	33333337          	lui	t1,0x33333
   11158:	33330313          	addi	t1,t1,819 # 33333333 <_end+0x3331e903>
   1115c:	00000197          	auipc	gp,0x0
   11160:	81118193          	addi	gp,gp,-2031 # 1096d <B1b_link+0x2b1>
   11164:	7ff18067          	jr	2047(gp)
   11168:	00000313          	li	t1,0
   1116c:	444443b7          	lui	t2,0x44444
   11170:	44438393          	addi	t2,t2,1092 # 44444444 <_end+0x4442fa14>
   11174:	00001197          	auipc	gp,0x1
   11178:	81018193          	addi	gp,gp,-2032 # 11984 <B2c_link+0xd48>
   1117c:	80018067          	jr	-2048(gp)
   11180:	00000393          	li	t2,0
   11184:	0040a023          	sw	tp,0(ra)
   11188:	0050a223          	sw	t0,4(ra)
   1118c:	0060a423          	sw	t1,8(ra)
   11190:	0070a623          	sw	t2,12(ra)
   11194:	111112b7          	lui	t0,0x11111
   11198:	11128293          	addi	t0,t0,273 # 11111111 <_end+0x110fc6e1>
   1119c:	08520e63          	beq	tp,t0,11238 <B2c_link+0x5fc>
   111a0:	00003517          	auipc	a0,0x3
   111a4:	72050513          	addi	a0,a0,1824 # 148c0 <end_signature+0x850>
   111a8:	659010ef          	jal	ra,13000 <FN_WriteStr>
   111ac:	00003517          	auipc	a0,0x3
   111b0:	72f50513          	addi	a0,a0,1839 # 148db <end_signature+0x86b>
   111b4:	64d010ef          	jal	ra,13000 <FN_WriteStr>
   111b8:	00003517          	auipc	a0,0x3
   111bc:	73350513          	addi	a0,a0,1843 # 148eb <end_signature+0x87b>
   111c0:	641010ef          	jal	ra,13000 <FN_WriteStr>
   111c4:	00003517          	auipc	a0,0x3
   111c8:	72f50513          	addi	a0,a0,1839 # 148f3 <end_signature+0x883>
   111cc:	635010ef          	jal	ra,13000 <FN_WriteStr>
   111d0:	00003517          	auipc	a0,0x3
   111d4:	72750513          	addi	a0,a0,1831 # 148f7 <end_signature+0x887>
   111d8:	629010ef          	jal	ra,13000 <FN_WriteStr>
   111dc:	00003517          	auipc	a0,0x3
   111e0:	71e50513          	addi	a0,a0,1822 # 148fa <end_signature+0x88a>
   111e4:	61d010ef          	jal	ra,13000 <FN_WriteStr>
   111e8:	00003517          	auipc	a0,0x3
   111ec:	71550513          	addi	a0,a0,1813 # 148fd <end_signature+0x88d>
   111f0:	611010ef          	jal	ra,13000 <FN_WriteStr>
   111f4:	00020513          	mv	a0,tp
   111f8:	625010ef          	jal	ra,1301c <FN_WriteA0>
   111fc:	00003517          	auipc	a0,0x3
   11200:	70350513          	addi	a0,a0,1795 # 148ff <end_signature+0x88f>
   11204:	5fd010ef          	jal	ra,13000 <FN_WriteStr>
   11208:	00003517          	auipc	a0,0x3
   1120c:	6fd50513          	addi	a0,a0,1789 # 14905 <end_signature+0x895>
   11210:	5f1010ef          	jal	ra,13000 <FN_WriteStr>
   11214:	00003517          	auipc	a0,0x3
   11218:	6fc50513          	addi	a0,a0,1788 # 14910 <end_signature+0x8a0>
   1121c:	5e5010ef          	jal	ra,13000 <FN_WriteStr>
   11220:	06400193          	li	gp,100
   11224:	0000100f          	fence.i
   11228:	00018063          	beqz	gp,11228 <B2c_link+0x5ec>
   1122c:	00119193          	slli	gp,gp,0x1
   11230:	0011e193          	ori	gp,gp,1
   11234:	00000073          	ecall
   11238:	222222b7          	lui	t0,0x22222
   1123c:	22228293          	addi	t0,t0,546 # 22222222 <_end+0x2220d7f2>
   11240:	08528e63          	beq	t0,t0,112dc <B2c_link+0x6a0>
   11244:	00003517          	auipc	a0,0x3
   11248:	6ce50513          	addi	a0,a0,1742 # 14912 <end_signature+0x8a2>
   1124c:	5b5010ef          	jal	ra,13000 <FN_WriteStr>
   11250:	00003517          	auipc	a0,0x3
   11254:	6dd50513          	addi	a0,a0,1757 # 1492d <end_signature+0x8bd>
   11258:	5a9010ef          	jal	ra,13000 <FN_WriteStr>
   1125c:	00003517          	auipc	a0,0x3
   11260:	6e150513          	addi	a0,a0,1761 # 1493d <end_signature+0x8cd>
   11264:	59d010ef          	jal	ra,13000 <FN_WriteStr>
   11268:	00003517          	auipc	a0,0x3
   1126c:	6dd50513          	addi	a0,a0,1757 # 14945 <end_signature+0x8d5>
   11270:	591010ef          	jal	ra,13000 <FN_WriteStr>
   11274:	00003517          	auipc	a0,0x3
   11278:	6d550513          	addi	a0,a0,1749 # 14949 <end_signature+0x8d9>
   1127c:	585010ef          	jal	ra,13000 <FN_WriteStr>
   11280:	00003517          	auipc	a0,0x3
   11284:	6cc50513          	addi	a0,a0,1740 # 1494c <end_signature+0x8dc>
   11288:	579010ef          	jal	ra,13000 <FN_WriteStr>
   1128c:	00003517          	auipc	a0,0x3
   11290:	6c350513          	addi	a0,a0,1731 # 1494f <end_signature+0x8df>
   11294:	56d010ef          	jal	ra,13000 <FN_WriteStr>
   11298:	00028513          	mv	a0,t0
   1129c:	581010ef          	jal	ra,1301c <FN_WriteA0>
   112a0:	00003517          	auipc	a0,0x3
   112a4:	6b150513          	addi	a0,a0,1713 # 14951 <end_signature+0x8e1>
   112a8:	559010ef          	jal	ra,13000 <FN_WriteStr>
   112ac:	00003517          	auipc	a0,0x3
   112b0:	6ab50513          	addi	a0,a0,1707 # 14957 <end_signature+0x8e7>
   112b4:	54d010ef          	jal	ra,13000 <FN_WriteStr>
   112b8:	00003517          	auipc	a0,0x3
   112bc:	6aa50513          	addi	a0,a0,1706 # 14962 <end_signature+0x8f2>
   112c0:	541010ef          	jal	ra,13000 <FN_WriteStr>
   112c4:	06400193          	li	gp,100
   112c8:	0000100f          	fence.i
   112cc:	00018063          	beqz	gp,112cc <B2c_link+0x690>
   112d0:	00119193          	slli	gp,gp,0x1
   112d4:	0011e193          	ori	gp,gp,1
   112d8:	00000073          	ecall
   112dc:	333332b7          	lui	t0,0x33333
   112e0:	33328293          	addi	t0,t0,819 # 33333333 <_end+0x3331e903>
   112e4:	08530e63          	beq	t1,t0,11380 <B2c_link+0x744>
   112e8:	00003517          	auipc	a0,0x3
   112ec:	67c50513          	addi	a0,a0,1660 # 14964 <end_signature+0x8f4>
   112f0:	511010ef          	jal	ra,13000 <FN_WriteStr>
   112f4:	00003517          	auipc	a0,0x3
   112f8:	68b50513          	addi	a0,a0,1675 # 1497f <end_signature+0x90f>
   112fc:	505010ef          	jal	ra,13000 <FN_WriteStr>
   11300:	00003517          	auipc	a0,0x3
   11304:	68f50513          	addi	a0,a0,1679 # 1498f <end_signature+0x91f>
   11308:	4f9010ef          	jal	ra,13000 <FN_WriteStr>
   1130c:	00003517          	auipc	a0,0x3
   11310:	68b50513          	addi	a0,a0,1675 # 14997 <end_signature+0x927>
   11314:	4ed010ef          	jal	ra,13000 <FN_WriteStr>
   11318:	00003517          	auipc	a0,0x3
   1131c:	68350513          	addi	a0,a0,1667 # 1499b <end_signature+0x92b>
   11320:	4e1010ef          	jal	ra,13000 <FN_WriteStr>
   11324:	00003517          	auipc	a0,0x3
   11328:	67a50513          	addi	a0,a0,1658 # 1499e <end_signature+0x92e>
   1132c:	4d5010ef          	jal	ra,13000 <FN_WriteStr>
   11330:	00003517          	auipc	a0,0x3
   11334:	67150513          	addi	a0,a0,1649 # 149a1 <end_signature+0x931>
   11338:	4c9010ef          	jal	ra,13000 <FN_WriteStr>
   1133c:	00030513          	mv	a0,t1
   11340:	4dd010ef          	jal	ra,1301c <FN_WriteA0>
   11344:	00003517          	auipc	a0,0x3
   11348:	65f50513          	addi	a0,a0,1631 # 149a3 <end_signature+0x933>
   1134c:	4b5010ef          	jal	ra,13000 <FN_WriteStr>
   11350:	00003517          	auipc	a0,0x3
   11354:	65950513          	addi	a0,a0,1625 # 149a9 <end_signature+0x939>
   11358:	4a9010ef          	jal	ra,13000 <FN_WriteStr>
   1135c:	00003517          	auipc	a0,0x3
   11360:	65850513          	addi	a0,a0,1624 # 149b4 <end_signature+0x944>
   11364:	49d010ef          	jal	ra,13000 <FN_WriteStr>
   11368:	06400193          	li	gp,100
   1136c:	0000100f          	fence.i
   11370:	00018063          	beqz	gp,11370 <B2c_link+0x734>
   11374:	00119193          	slli	gp,gp,0x1
   11378:	0011e193          	ori	gp,gp,1
   1137c:	00000073          	ecall
   11380:	444442b7          	lui	t0,0x44444
   11384:	44428293          	addi	t0,t0,1092 # 44444444 <_end+0x4442fa14>
   11388:	08538e63          	beq	t2,t0,11424 <B2c_link+0x7e8>
   1138c:	00003517          	auipc	a0,0x3
   11390:	62a50513          	addi	a0,a0,1578 # 149b6 <end_signature+0x946>
   11394:	46d010ef          	jal	ra,13000 <FN_WriteStr>
   11398:	00003517          	auipc	a0,0x3
   1139c:	63950513          	addi	a0,a0,1593 # 149d1 <end_signature+0x961>
   113a0:	461010ef          	jal	ra,13000 <FN_WriteStr>
   113a4:	00003517          	auipc	a0,0x3
   113a8:	63d50513          	addi	a0,a0,1597 # 149e1 <end_signature+0x971>
   113ac:	455010ef          	jal	ra,13000 <FN_WriteStr>
   113b0:	00003517          	auipc	a0,0x3
   113b4:	63950513          	addi	a0,a0,1593 # 149e9 <end_signature+0x979>
   113b8:	449010ef          	jal	ra,13000 <FN_WriteStr>
   113bc:	00003517          	auipc	a0,0x3
   113c0:	63150513          	addi	a0,a0,1585 # 149ed <end_signature+0x97d>
   113c4:	43d010ef          	jal	ra,13000 <FN_WriteStr>
   113c8:	00003517          	auipc	a0,0x3
   113cc:	62850513          	addi	a0,a0,1576 # 149f0 <end_signature+0x980>
   113d0:	431010ef          	jal	ra,13000 <FN_WriteStr>
   113d4:	00003517          	auipc	a0,0x3
   113d8:	61f50513          	addi	a0,a0,1567 # 149f3 <end_signature+0x983>
   113dc:	425010ef          	jal	ra,13000 <FN_WriteStr>
   113e0:	00038513          	mv	a0,t2
   113e4:	439010ef          	jal	ra,1301c <FN_WriteA0>
   113e8:	00003517          	auipc	a0,0x3
   113ec:	60d50513          	addi	a0,a0,1549 # 149f5 <end_signature+0x985>
   113f0:	411010ef          	jal	ra,13000 <FN_WriteStr>
   113f4:	00003517          	auipc	a0,0x3
   113f8:	60750513          	addi	a0,a0,1543 # 149fb <end_signature+0x98b>
   113fc:	405010ef          	jal	ra,13000 <FN_WriteStr>
   11400:	00003517          	auipc	a0,0x3
   11404:	60650513          	addi	a0,a0,1542 # 14a06 <end_signature+0x996>
   11408:	3f9010ef          	jal	ra,13000 <FN_WriteStr>
   1140c:	06400193          	li	gp,100
   11410:	0000100f          	fence.i
   11414:	00018063          	beqz	gp,11414 <B2c_link+0x7d8>
   11418:	00119193          	slli	gp,gp,0x1
   1141c:	0011e193          	ori	gp,gp,1
   11420:	00000073          	ecall
   11424:	00003517          	auipc	a0,0x3
   11428:	5e450513          	addi	a0,a0,1508 # 14a08 <end_signature+0x998>
   1142c:	3d5010ef          	jal	ra,13000 <FN_WriteStr>
   11430:	00003517          	auipc	a0,0x3
   11434:	5f450513          	addi	a0,a0,1524 # 14a24 <end_signature+0x9b4>
   11438:	3c9010ef          	jal	ra,13000 <FN_WriteStr>
   1143c:	0000100f          	fence.i
   11440:	00100193          	li	gp,1
   11444:	00000073          	ecall
   11448:	c0001073          	unimp
	...

Disassembly of section .tohost:

00012000 <tohost>:
	...

00012100 <fromhost>:
	...

Disassembly of section .text:

00013000 <FN_WriteStr>:
   13000:	00050293          	mv	t0,a0
   13004:	0002c503          	lbu	a0,0(t0)
   13008:	00128293          	addi	t0,t0,1
   1300c:	00050663          	beqz	a0,13018 <FN_WriteStr+0x18>
   13010:	0005200b          	0x5200b
   13014:	ff1ff06f          	j	13004 <FN_WriteStr+0x4>
   13018:	00008067          	ret

0001301c <FN_WriteA0>:
   1301c:	00050293          	mv	t0,a0
   13020:	fff00513          	li	a0,-1
   13024:	01f55513          	srli	a0,a0,0x1f
   13028:	00155513          	srli	a0,a0,0x1
   1302c:	02051463          	bnez	a0,13054 <FN_WriteA0_64>

00013030 <FN_WriteA0_32>:
   13030:	00800313          	li	t1,8
   13034:	00439393          	slli	t2,t2,0x4
   13038:	00f2f513          	andi	a0,t0,15
   1303c:	0042d293          	srli	t0,t0,0x4
   13040:	00a3e3b3          	or	t2,t2,a0
   13044:	fff30313          	addi	t1,t1,-1
   13048:	fe0316e3          	bnez	t1,13034 <FN_WriteA0_32+0x4>
   1304c:	00800313          	li	t1,8
   13050:	0240006f          	j	13074 <FN_WriteA0_common>

00013054 <FN_WriteA0_64>:
   13054:	01000313          	li	t1,16
   13058:	00439393          	slli	t2,t2,0x4
   1305c:	00f2f513          	andi	a0,t0,15
   13060:	0042d293          	srli	t0,t0,0x4
   13064:	00a3e3b3          	or	t2,t2,a0
   13068:	fff30313          	addi	t1,t1,-1
   1306c:	fe0316e3          	bnez	t1,13058 <FN_WriteA0_64+0x4>
   13070:	01000313          	li	t1,16

00013074 <FN_WriteA0_common>:
   13074:	00a00293          	li	t0,10
   13078:	00f3f513          	andi	a0,t2,15
   1307c:	00554663          	blt	a0,t0,13088 <FN_WriteA0_common+0x14>
   13080:	05750513          	addi	a0,a0,87
   13084:	0080006f          	j	1308c <FN_WriteA0_common+0x18>
   13088:	03050513          	addi	a0,a0,48
   1308c:	0005200b          	0x5200b
   13090:	0043d393          	srli	t2,t2,0x4
   13094:	fff30313          	addi	t1,t1,-1
   13098:	fe0310e3          	bnez	t1,13078 <FN_WriteA0_common+0x4>
   1309c:	00008067          	ret
