
/home/benselfridge/riscv-compliance/work//I-LBU-01.elf:     file format elf32-littleriscv


Disassembly of section .text.init:

00010000 <_start>:
   10000:	04c0006f          	j	1004c <reset_vector>

00010004 <trap_vector>:
   10004:	34202f73          	csrr	t5,mcause
   10008:	00800f93          	li	t6,8
   1000c:	03ff0a63          	beq	t5,t6,10040 <write_tohost>
   10010:	00900f93          	li	t6,9
   10014:	03ff0663          	beq	t5,t6,10040 <write_tohost>
   10018:	00b00f93          	li	t6,11
   1001c:	03ff0263          	beq	t5,t6,10040 <write_tohost>
   10020:	ffff0f17          	auipc	t5,0xffff0
   10024:	fe0f0f13          	addi	t5,t5,-32 # 0 <_start-0x10000>
   10028:	000f0463          	beqz	t5,10030 <trap_vector+0x2c>
   1002c:	000f0067          	jr	t5
   10030:	34202f73          	csrr	t5,mcause
   10034:	000f5463          	bgez	t5,1003c <handle_exception>
   10038:	0040006f          	j	1003c <handle_exception>

0001003c <handle_exception>:
   1003c:	5391e193          	ori	gp,gp,1337

00010040 <write_tohost>:
   10040:	00002f17          	auipc	t5,0x2
   10044:	fc3f2023          	sw	gp,-64(t5) # 12000 <tohost>
   10048:	ff9ff06f          	j	10040 <write_tohost>

0001004c <reset_vector>:
   1004c:	f1402573          	csrr	a0,mhartid
   10050:	00051063          	bnez	a0,10050 <reset_vector+0x4>
   10054:	00000297          	auipc	t0,0x0
   10058:	01028293          	addi	t0,t0,16 # 10064 <reset_vector+0x18>
   1005c:	30529073          	csrw	mtvec,t0
   10060:	18005073          	csrwi	satp,0
   10064:	00000297          	auipc	t0,0x0
   10068:	01c28293          	addi	t0,t0,28 # 10080 <reset_vector+0x34>
   1006c:	30529073          	csrw	mtvec,t0
   10070:	fff00293          	li	t0,-1
   10074:	3b029073          	csrw	pmpaddr0,t0
   10078:	01f00293          	li	t0,31
   1007c:	3a029073          	csrw	pmpcfg0,t0
   10080:	00000297          	auipc	t0,0x0
   10084:	01828293          	addi	t0,t0,24 # 10098 <reset_vector+0x4c>
   10088:	30529073          	csrw	mtvec,t0
   1008c:	30205073          	csrwi	medeleg,0
   10090:	30305073          	csrwi	mideleg,0
   10094:	30405073          	csrwi	mie,0
   10098:	00000193          	li	gp,0
   1009c:	00000297          	auipc	t0,0x0
   100a0:	f6828293          	addi	t0,t0,-152 # 10004 <trap_vector>
   100a4:	30529073          	csrw	mtvec,t0
   100a8:	00100513          	li	a0,1
   100ac:	01f51513          	slli	a0,a0,0x1f
   100b0:	00054863          	bltz	a0,100c0 <reset_vector+0x74>
   100b4:	0000100f          	fence.i
   100b8:	00100193          	li	gp,1
   100bc:	00000073          	ecall
   100c0:	ffff0297          	auipc	t0,0xffff0
   100c4:	f4028293          	addi	t0,t0,-192 # 0 <_start-0x10000>
   100c8:	00028e63          	beqz	t0,100e4 <reset_vector+0x98>
   100cc:	10529073          	csrw	stvec,t0
   100d0:	0000b2b7          	lui	t0,0xb
   100d4:	10928293          	addi	t0,t0,265 # b109 <_start-0x4ef7>
   100d8:	30229073          	csrw	medeleg,t0
   100dc:	30202373          	csrr	t1,medeleg
   100e0:	f4629ee3          	bne	t0,t1,1003c <handle_exception>
   100e4:	30005073          	csrwi	mstatus,0
   100e8:	00002537          	lui	a0,0x2
   100ec:	80050513          	addi	a0,a0,-2048 # 1800 <_start-0xe800>
   100f0:	30052073          	csrs	mstatus,a0
   100f4:	00000297          	auipc	t0,0x0
   100f8:	01428293          	addi	t0,t0,20 # 10108 <reset_vector+0xbc>
   100fc:	34129073          	csrw	mepc,t0
   10100:	f1402573          	csrr	a0,mhartid
   10104:	30200073          	mret
   10108:	00000293          	li	t0,0
   1010c:	08500e63          	beq	zero,t0,101a8 <reset_vector+0x15c>
   10110:	00004517          	auipc	a0,0x4
   10114:	fc050513          	addi	a0,a0,-64 # 140d0 <end_signature>
   10118:	6e9020ef          	jal	ra,13000 <FN_WriteStr>
   1011c:	00004517          	auipc	a0,0x4
   10120:	fcf50513          	addi	a0,a0,-49 # 140eb <end_signature+0x1b>
   10124:	6dd020ef          	jal	ra,13000 <FN_WriteStr>
   10128:	00004517          	auipc	a0,0x4
   1012c:	fd250513          	addi	a0,a0,-46 # 140fa <end_signature+0x2a>
   10130:	6d1020ef          	jal	ra,13000 <FN_WriteStr>
   10134:	00004517          	auipc	a0,0x4
   10138:	fce50513          	addi	a0,a0,-50 # 14102 <end_signature+0x32>
   1013c:	6c5020ef          	jal	ra,13000 <FN_WriteStr>
   10140:	00004517          	auipc	a0,0x4
   10144:	fc550513          	addi	a0,a0,-59 # 14105 <end_signature+0x35>
   10148:	6b9020ef          	jal	ra,13000 <FN_WriteStr>
   1014c:	00004517          	auipc	a0,0x4
   10150:	fbc50513          	addi	a0,a0,-68 # 14108 <end_signature+0x38>
   10154:	6ad020ef          	jal	ra,13000 <FN_WriteStr>
   10158:	00004517          	auipc	a0,0x4
   1015c:	fb350513          	addi	a0,a0,-77 # 1410b <end_signature+0x3b>
   10160:	6a1020ef          	jal	ra,13000 <FN_WriteStr>
   10164:	00000513          	li	a0,0
   10168:	6b5020ef          	jal	ra,1301c <FN_WriteA0>
   1016c:	00004517          	auipc	a0,0x4
   10170:	fa150513          	addi	a0,a0,-95 # 1410d <end_signature+0x3d>
   10174:	68d020ef          	jal	ra,13000 <FN_WriteStr>
   10178:	00004517          	auipc	a0,0x4
   1017c:	f9b50513          	addi	a0,a0,-101 # 14113 <end_signature+0x43>
   10180:	681020ef          	jal	ra,13000 <FN_WriteStr>
   10184:	00004517          	auipc	a0,0x4
   10188:	f9a50513          	addi	a0,a0,-102 # 1411e <end_signature+0x4e>
   1018c:	675020ef          	jal	ra,13000 <FN_WriteStr>
   10190:	06400193          	li	gp,100
   10194:	0000100f          	fence.i
   10198:	00018063          	beqz	gp,10198 <reset_vector+0x14c>
   1019c:	00119193          	slli	gp,gp,0x1
   101a0:	0011e193          	ori	gp,gp,1
   101a4:	00000073          	ecall
   101a8:	00004517          	auipc	a0,0x4
   101ac:	f7850513          	addi	a0,a0,-136 # 14120 <end_signature+0x50>
   101b0:	651020ef          	jal	ra,13000 <FN_WriteStr>
   101b4:	00004517          	auipc	a0,0x4
   101b8:	f9e50513          	addi	a0,a0,-98 # 14152 <end_signature+0x82>
   101bc:	645020ef          	jal	ra,13000 <FN_WriteStr>
   101c0:	00004f97          	auipc	t6,0x4
   101c4:	e40f8f93          	addi	t6,t6,-448 # 14000 <test_A1_data>
   101c8:	00004117          	auipc	sp,0x4
   101cc:	e7810113          	addi	sp,sp,-392 # 14040 <begin_signature>
   101d0:	000fc183          	lbu	gp,0(t6)
   101d4:	001fc203          	lbu	tp,1(t6)
   101d8:	002fc283          	lbu	t0,2(t6)
   101dc:	003fc303          	lbu	t1,3(t6)
   101e0:	00312023          	sw	gp,0(sp)
   101e4:	00412223          	sw	tp,4(sp)
   101e8:	00512423          	sw	t0,8(sp)
   101ec:	00612623          	sw	t1,12(sp)
   101f0:	fff00013          	li	zero,-1
   101f4:	02200293          	li	t0,34
   101f8:	08518e63          	beq	gp,t0,10294 <reset_vector+0x248>
   101fc:	00004517          	auipc	a0,0x4
   10200:	f7e50513          	addi	a0,a0,-130 # 1417a <end_signature+0xaa>
   10204:	5fd020ef          	jal	ra,13000 <FN_WriteStr>
   10208:	00004517          	auipc	a0,0x4
   1020c:	f8d50513          	addi	a0,a0,-115 # 14195 <end_signature+0xc5>
   10210:	5f1020ef          	jal	ra,13000 <FN_WriteStr>
   10214:	00004517          	auipc	a0,0x4
   10218:	f9050513          	addi	a0,a0,-112 # 141a4 <end_signature+0xd4>
   1021c:	5e5020ef          	jal	ra,13000 <FN_WriteStr>
   10220:	00004517          	auipc	a0,0x4
   10224:	f8c50513          	addi	a0,a0,-116 # 141ac <end_signature+0xdc>
   10228:	5d9020ef          	jal	ra,13000 <FN_WriteStr>
   1022c:	00004517          	auipc	a0,0x4
   10230:	f8350513          	addi	a0,a0,-125 # 141af <end_signature+0xdf>
   10234:	5cd020ef          	jal	ra,13000 <FN_WriteStr>
   10238:	00004517          	auipc	a0,0x4
   1023c:	f7a50513          	addi	a0,a0,-134 # 141b2 <end_signature+0xe2>
   10240:	5c1020ef          	jal	ra,13000 <FN_WriteStr>
   10244:	00004517          	auipc	a0,0x4
   10248:	f7150513          	addi	a0,a0,-143 # 141b5 <end_signature+0xe5>
   1024c:	5b5020ef          	jal	ra,13000 <FN_WriteStr>
   10250:	00018513          	mv	a0,gp
   10254:	5c9020ef          	jal	ra,1301c <FN_WriteA0>
   10258:	00004517          	auipc	a0,0x4
   1025c:	f5f50513          	addi	a0,a0,-161 # 141b7 <end_signature+0xe7>
   10260:	5a1020ef          	jal	ra,13000 <FN_WriteStr>
   10264:	00004517          	auipc	a0,0x4
   10268:	f5950513          	addi	a0,a0,-167 # 141bd <end_signature+0xed>
   1026c:	595020ef          	jal	ra,13000 <FN_WriteStr>
   10270:	00004517          	auipc	a0,0x4
   10274:	f5850513          	addi	a0,a0,-168 # 141c8 <end_signature+0xf8>
   10278:	589020ef          	jal	ra,13000 <FN_WriteStr>
   1027c:	06400193          	li	gp,100
   10280:	0000100f          	fence.i
   10284:	00018063          	beqz	gp,10284 <reset_vector+0x238>
   10288:	00119193          	slli	gp,gp,0x1
   1028c:	0011e193          	ori	gp,gp,1
   10290:	00000073          	ecall
   10294:	0f200293          	li	t0,242
   10298:	08520e63          	beq	tp,t0,10334 <reset_vector+0x2e8>
   1029c:	00004517          	auipc	a0,0x4
   102a0:	f2e50513          	addi	a0,a0,-210 # 141ca <end_signature+0xfa>
   102a4:	55d020ef          	jal	ra,13000 <FN_WriteStr>
   102a8:	00004517          	auipc	a0,0x4
   102ac:	f3d50513          	addi	a0,a0,-195 # 141e5 <end_signature+0x115>
   102b0:	551020ef          	jal	ra,13000 <FN_WriteStr>
   102b4:	00004517          	auipc	a0,0x4
   102b8:	f4050513          	addi	a0,a0,-192 # 141f4 <end_signature+0x124>
   102bc:	545020ef          	jal	ra,13000 <FN_WriteStr>
   102c0:	00004517          	auipc	a0,0x4
   102c4:	f3c50513          	addi	a0,a0,-196 # 141fc <end_signature+0x12c>
   102c8:	539020ef          	jal	ra,13000 <FN_WriteStr>
   102cc:	00004517          	auipc	a0,0x4
   102d0:	f3350513          	addi	a0,a0,-205 # 141ff <end_signature+0x12f>
   102d4:	52d020ef          	jal	ra,13000 <FN_WriteStr>
   102d8:	00004517          	auipc	a0,0x4
   102dc:	f2a50513          	addi	a0,a0,-214 # 14202 <end_signature+0x132>
   102e0:	521020ef          	jal	ra,13000 <FN_WriteStr>
   102e4:	00004517          	auipc	a0,0x4
   102e8:	f2150513          	addi	a0,a0,-223 # 14205 <end_signature+0x135>
   102ec:	515020ef          	jal	ra,13000 <FN_WriteStr>
   102f0:	00020513          	mv	a0,tp
   102f4:	529020ef          	jal	ra,1301c <FN_WriteA0>
   102f8:	00004517          	auipc	a0,0x4
   102fc:	f0f50513          	addi	a0,a0,-241 # 14207 <end_signature+0x137>
   10300:	501020ef          	jal	ra,13000 <FN_WriteStr>
   10304:	00004517          	auipc	a0,0x4
   10308:	f0950513          	addi	a0,a0,-247 # 1420d <end_signature+0x13d>
   1030c:	4f5020ef          	jal	ra,13000 <FN_WriteStr>
   10310:	00004517          	auipc	a0,0x4
   10314:	f0850513          	addi	a0,a0,-248 # 14218 <end_signature+0x148>
   10318:	4e9020ef          	jal	ra,13000 <FN_WriteStr>
   1031c:	06400193          	li	gp,100
   10320:	0000100f          	fence.i
   10324:	00018063          	beqz	gp,10324 <reset_vector+0x2d8>
   10328:	00119193          	slli	gp,gp,0x1
   1032c:	0011e193          	ori	gp,gp,1
   10330:	00000073          	ecall
   10334:	01100293          	li	t0,17
   10338:	08528e63          	beq	t0,t0,103d4 <reset_vector+0x388>
   1033c:	00004517          	auipc	a0,0x4
   10340:	ede50513          	addi	a0,a0,-290 # 1421a <end_signature+0x14a>
   10344:	4bd020ef          	jal	ra,13000 <FN_WriteStr>
   10348:	00004517          	auipc	a0,0x4
   1034c:	eed50513          	addi	a0,a0,-275 # 14235 <end_signature+0x165>
   10350:	4b1020ef          	jal	ra,13000 <FN_WriteStr>
   10354:	00004517          	auipc	a0,0x4
   10358:	ef050513          	addi	a0,a0,-272 # 14244 <end_signature+0x174>
   1035c:	4a5020ef          	jal	ra,13000 <FN_WriteStr>
   10360:	00004517          	auipc	a0,0x4
   10364:	eec50513          	addi	a0,a0,-276 # 1424c <end_signature+0x17c>
   10368:	499020ef          	jal	ra,13000 <FN_WriteStr>
   1036c:	00004517          	auipc	a0,0x4
   10370:	ee350513          	addi	a0,a0,-285 # 1424f <end_signature+0x17f>
   10374:	48d020ef          	jal	ra,13000 <FN_WriteStr>
   10378:	00004517          	auipc	a0,0x4
   1037c:	eda50513          	addi	a0,a0,-294 # 14252 <end_signature+0x182>
   10380:	481020ef          	jal	ra,13000 <FN_WriteStr>
   10384:	00004517          	auipc	a0,0x4
   10388:	ed150513          	addi	a0,a0,-303 # 14255 <end_signature+0x185>
   1038c:	475020ef          	jal	ra,13000 <FN_WriteStr>
   10390:	00028513          	mv	a0,t0
   10394:	489020ef          	jal	ra,1301c <FN_WriteA0>
   10398:	00004517          	auipc	a0,0x4
   1039c:	ebf50513          	addi	a0,a0,-321 # 14257 <end_signature+0x187>
   103a0:	461020ef          	jal	ra,13000 <FN_WriteStr>
   103a4:	00004517          	auipc	a0,0x4
   103a8:	eb950513          	addi	a0,a0,-327 # 1425d <end_signature+0x18d>
   103ac:	455020ef          	jal	ra,13000 <FN_WriteStr>
   103b0:	00004517          	auipc	a0,0x4
   103b4:	eb850513          	addi	a0,a0,-328 # 14268 <end_signature+0x198>
   103b8:	449020ef          	jal	ra,13000 <FN_WriteStr>
   103bc:	06400193          	li	gp,100
   103c0:	0000100f          	fence.i
   103c4:	00018063          	beqz	gp,103c4 <reset_vector+0x378>
   103c8:	00119193          	slli	gp,gp,0x1
   103cc:	0011e193          	ori	gp,gp,1
   103d0:	00000073          	ecall
   103d4:	01100293          	li	t0,17
   103d8:	08530e63          	beq	t1,t0,10474 <reset_vector+0x428>
   103dc:	00004517          	auipc	a0,0x4
   103e0:	e8e50513          	addi	a0,a0,-370 # 1426a <end_signature+0x19a>
   103e4:	41d020ef          	jal	ra,13000 <FN_WriteStr>
   103e8:	00004517          	auipc	a0,0x4
   103ec:	e9d50513          	addi	a0,a0,-355 # 14285 <end_signature+0x1b5>
   103f0:	411020ef          	jal	ra,13000 <FN_WriteStr>
   103f4:	00004517          	auipc	a0,0x4
   103f8:	ea050513          	addi	a0,a0,-352 # 14294 <end_signature+0x1c4>
   103fc:	405020ef          	jal	ra,13000 <FN_WriteStr>
   10400:	00004517          	auipc	a0,0x4
   10404:	e9c50513          	addi	a0,a0,-356 # 1429c <end_signature+0x1cc>
   10408:	3f9020ef          	jal	ra,13000 <FN_WriteStr>
   1040c:	00004517          	auipc	a0,0x4
   10410:	e9350513          	addi	a0,a0,-365 # 1429f <end_signature+0x1cf>
   10414:	3ed020ef          	jal	ra,13000 <FN_WriteStr>
   10418:	00004517          	auipc	a0,0x4
   1041c:	e8a50513          	addi	a0,a0,-374 # 142a2 <end_signature+0x1d2>
   10420:	3e1020ef          	jal	ra,13000 <FN_WriteStr>
   10424:	00004517          	auipc	a0,0x4
   10428:	e8150513          	addi	a0,a0,-383 # 142a5 <end_signature+0x1d5>
   1042c:	3d5020ef          	jal	ra,13000 <FN_WriteStr>
   10430:	00030513          	mv	a0,t1
   10434:	3e9020ef          	jal	ra,1301c <FN_WriteA0>
   10438:	00004517          	auipc	a0,0x4
   1043c:	e6f50513          	addi	a0,a0,-401 # 142a7 <end_signature+0x1d7>
   10440:	3c1020ef          	jal	ra,13000 <FN_WriteStr>
   10444:	00004517          	auipc	a0,0x4
   10448:	e6950513          	addi	a0,a0,-407 # 142ad <end_signature+0x1dd>
   1044c:	3b5020ef          	jal	ra,13000 <FN_WriteStr>
   10450:	00004517          	auipc	a0,0x4
   10454:	e6850513          	addi	a0,a0,-408 # 142b8 <end_signature+0x1e8>
   10458:	3a9020ef          	jal	ra,13000 <FN_WriteStr>
   1045c:	06400193          	li	gp,100
   10460:	0000100f          	fence.i
   10464:	00018063          	beqz	gp,10464 <reset_vector+0x418>
   10468:	00119193          	slli	gp,gp,0x1
   1046c:	0011e193          	ori	gp,gp,1
   10470:	00000073          	ecall
   10474:	00004517          	auipc	a0,0x4
   10478:	e4650513          	addi	a0,a0,-442 # 142ba <end_signature+0x1ea>
   1047c:	385020ef          	jal	ra,13000 <FN_WriteStr>
   10480:	00004517          	auipc	a0,0x4
   10484:	e5650513          	addi	a0,a0,-426 # 142d6 <end_signature+0x206>
   10488:	379020ef          	jal	ra,13000 <FN_WriteStr>
   1048c:	00004c17          	auipc	s8,0x4
   10490:	b79c0c13          	addi	s8,s8,-1159 # 14005 <test_A2_data+0x1>
   10494:	00004297          	auipc	t0,0x4
   10498:	bbc28293          	addi	t0,t0,-1092 # 14050 <test_A2_res>
   1049c:	fffc4c83          	lbu	s9,-1(s8)
   104a0:	000c4d03          	lbu	s10,0(s8)
   104a4:	001c4d83          	lbu	s11,1(s8)
   104a8:	002c4e03          	lbu	t3,2(s8)
   104ac:	0192a023          	sw	s9,0(t0)
   104b0:	01a2a223          	sw	s10,4(t0)
   104b4:	01b2a423          	sw	s11,8(t0)
   104b8:	01c2a623          	sw	t3,12(t0)
   104bc:	0f400293          	li	t0,244
   104c0:	085c8e63          	beq	s9,t0,1055c <reset_vector+0x510>
   104c4:	00004517          	auipc	a0,0x4
   104c8:	e3a50513          	addi	a0,a0,-454 # 142fe <end_signature+0x22e>
   104cc:	335020ef          	jal	ra,13000 <FN_WriteStr>
   104d0:	00004517          	auipc	a0,0x4
   104d4:	e4950513          	addi	a0,a0,-439 # 14319 <end_signature+0x249>
   104d8:	329020ef          	jal	ra,13000 <FN_WriteStr>
   104dc:	00004517          	auipc	a0,0x4
   104e0:	e4c50513          	addi	a0,a0,-436 # 14328 <end_signature+0x258>
   104e4:	31d020ef          	jal	ra,13000 <FN_WriteStr>
   104e8:	00004517          	auipc	a0,0x4
   104ec:	e4850513          	addi	a0,a0,-440 # 14330 <end_signature+0x260>
   104f0:	311020ef          	jal	ra,13000 <FN_WriteStr>
   104f4:	00004517          	auipc	a0,0x4
   104f8:	e3f50513          	addi	a0,a0,-449 # 14333 <end_signature+0x263>
   104fc:	305020ef          	jal	ra,13000 <FN_WriteStr>
   10500:	00004517          	auipc	a0,0x4
   10504:	e3650513          	addi	a0,a0,-458 # 14336 <end_signature+0x266>
   10508:	2f9020ef          	jal	ra,13000 <FN_WriteStr>
   1050c:	00004517          	auipc	a0,0x4
   10510:	e2e50513          	addi	a0,a0,-466 # 1433a <end_signature+0x26a>
   10514:	2ed020ef          	jal	ra,13000 <FN_WriteStr>
   10518:	000c8513          	mv	a0,s9
   1051c:	301020ef          	jal	ra,1301c <FN_WriteA0>
   10520:	00004517          	auipc	a0,0x4
   10524:	e1c50513          	addi	a0,a0,-484 # 1433c <end_signature+0x26c>
   10528:	2d9020ef          	jal	ra,13000 <FN_WriteStr>
   1052c:	00004517          	auipc	a0,0x4
   10530:	e1650513          	addi	a0,a0,-490 # 14342 <end_signature+0x272>
   10534:	2cd020ef          	jal	ra,13000 <FN_WriteStr>
   10538:	00004517          	auipc	a0,0x4
   1053c:	e1550513          	addi	a0,a0,-491 # 1434d <end_signature+0x27d>
   10540:	2c1020ef          	jal	ra,13000 <FN_WriteStr>
   10544:	06400193          	li	gp,100
   10548:	0000100f          	fence.i
   1054c:	00018063          	beqz	gp,1054c <reset_vector+0x500>
   10550:	00119193          	slli	gp,gp,0x1
   10554:	0011e193          	ori	gp,gp,1
   10558:	00000073          	ecall
   1055c:	04400293          	li	t0,68
   10560:	085d0e63          	beq	s10,t0,105fc <reset_vector+0x5b0>
   10564:	00004517          	auipc	a0,0x4
   10568:	deb50513          	addi	a0,a0,-533 # 1434f <end_signature+0x27f>
   1056c:	295020ef          	jal	ra,13000 <FN_WriteStr>
   10570:	00004517          	auipc	a0,0x4
   10574:	dfa50513          	addi	a0,a0,-518 # 1436a <end_signature+0x29a>
   10578:	289020ef          	jal	ra,13000 <FN_WriteStr>
   1057c:	00004517          	auipc	a0,0x4
   10580:	dfd50513          	addi	a0,a0,-515 # 14379 <end_signature+0x2a9>
   10584:	27d020ef          	jal	ra,13000 <FN_WriteStr>
   10588:	00004517          	auipc	a0,0x4
   1058c:	df950513          	addi	a0,a0,-519 # 14381 <end_signature+0x2b1>
   10590:	271020ef          	jal	ra,13000 <FN_WriteStr>
   10594:	00004517          	auipc	a0,0x4
   10598:	df050513          	addi	a0,a0,-528 # 14384 <end_signature+0x2b4>
   1059c:	265020ef          	jal	ra,13000 <FN_WriteStr>
   105a0:	00004517          	auipc	a0,0x4
   105a4:	de750513          	addi	a0,a0,-537 # 14387 <end_signature+0x2b7>
   105a8:	259020ef          	jal	ra,13000 <FN_WriteStr>
   105ac:	00004517          	auipc	a0,0x4
   105b0:	ddf50513          	addi	a0,a0,-545 # 1438b <end_signature+0x2bb>
   105b4:	24d020ef          	jal	ra,13000 <FN_WriteStr>
   105b8:	000d0513          	mv	a0,s10
   105bc:	261020ef          	jal	ra,1301c <FN_WriteA0>
   105c0:	00004517          	auipc	a0,0x4
   105c4:	dcd50513          	addi	a0,a0,-563 # 1438d <end_signature+0x2bd>
   105c8:	239020ef          	jal	ra,13000 <FN_WriteStr>
   105cc:	00004517          	auipc	a0,0x4
   105d0:	dc750513          	addi	a0,a0,-569 # 14393 <end_signature+0x2c3>
   105d4:	22d020ef          	jal	ra,13000 <FN_WriteStr>
   105d8:	00004517          	auipc	a0,0x4
   105dc:	dc650513          	addi	a0,a0,-570 # 1439e <end_signature+0x2ce>
   105e0:	221020ef          	jal	ra,13000 <FN_WriteStr>
   105e4:	06400193          	li	gp,100
   105e8:	0000100f          	fence.i
   105ec:	00018063          	beqz	gp,105ec <reset_vector+0x5a0>
   105f0:	00119193          	slli	gp,gp,0x1
   105f4:	0011e193          	ori	gp,gp,1
   105f8:	00000073          	ecall
   105fc:	03300293          	li	t0,51
   10600:	085d8e63          	beq	s11,t0,1069c <reset_vector+0x650>
   10604:	00004517          	auipc	a0,0x4
   10608:	d9c50513          	addi	a0,a0,-612 # 143a0 <end_signature+0x2d0>
   1060c:	1f5020ef          	jal	ra,13000 <FN_WriteStr>
   10610:	00004517          	auipc	a0,0x4
   10614:	dab50513          	addi	a0,a0,-597 # 143bb <end_signature+0x2eb>
   10618:	1e9020ef          	jal	ra,13000 <FN_WriteStr>
   1061c:	00004517          	auipc	a0,0x4
   10620:	dae50513          	addi	a0,a0,-594 # 143ca <end_signature+0x2fa>
   10624:	1dd020ef          	jal	ra,13000 <FN_WriteStr>
   10628:	00004517          	auipc	a0,0x4
   1062c:	daa50513          	addi	a0,a0,-598 # 143d2 <end_signature+0x302>
   10630:	1d1020ef          	jal	ra,13000 <FN_WriteStr>
   10634:	00004517          	auipc	a0,0x4
   10638:	da150513          	addi	a0,a0,-607 # 143d5 <end_signature+0x305>
   1063c:	1c5020ef          	jal	ra,13000 <FN_WriteStr>
   10640:	00004517          	auipc	a0,0x4
   10644:	d9850513          	addi	a0,a0,-616 # 143d8 <end_signature+0x308>
   10648:	1b9020ef          	jal	ra,13000 <FN_WriteStr>
   1064c:	00004517          	auipc	a0,0x4
   10650:	d9050513          	addi	a0,a0,-624 # 143dc <end_signature+0x30c>
   10654:	1ad020ef          	jal	ra,13000 <FN_WriteStr>
   10658:	000d8513          	mv	a0,s11
   1065c:	1c1020ef          	jal	ra,1301c <FN_WriteA0>
   10660:	00004517          	auipc	a0,0x4
   10664:	d7e50513          	addi	a0,a0,-642 # 143de <end_signature+0x30e>
   10668:	199020ef          	jal	ra,13000 <FN_WriteStr>
   1066c:	00004517          	auipc	a0,0x4
   10670:	d7850513          	addi	a0,a0,-648 # 143e4 <end_signature+0x314>
   10674:	18d020ef          	jal	ra,13000 <FN_WriteStr>
   10678:	00004517          	auipc	a0,0x4
   1067c:	d7750513          	addi	a0,a0,-649 # 143ef <end_signature+0x31f>
   10680:	181020ef          	jal	ra,13000 <FN_WriteStr>
   10684:	06400193          	li	gp,100
   10688:	0000100f          	fence.i
   1068c:	00018063          	beqz	gp,1068c <reset_vector+0x640>
   10690:	00119193          	slli	gp,gp,0x1
   10694:	0011e193          	ori	gp,gp,1
   10698:	00000073          	ecall
   1069c:	0f300293          	li	t0,243
   106a0:	085e0e63          	beq	t3,t0,1073c <reset_vector+0x6f0>
   106a4:	00004517          	auipc	a0,0x4
   106a8:	d4d50513          	addi	a0,a0,-691 # 143f1 <end_signature+0x321>
   106ac:	155020ef          	jal	ra,13000 <FN_WriteStr>
   106b0:	00004517          	auipc	a0,0x4
   106b4:	d5c50513          	addi	a0,a0,-676 # 1440c <end_signature+0x33c>
   106b8:	149020ef          	jal	ra,13000 <FN_WriteStr>
   106bc:	00004517          	auipc	a0,0x4
   106c0:	d5f50513          	addi	a0,a0,-673 # 1441b <end_signature+0x34b>
   106c4:	13d020ef          	jal	ra,13000 <FN_WriteStr>
   106c8:	00004517          	auipc	a0,0x4
   106cc:	d5b50513          	addi	a0,a0,-677 # 14423 <end_signature+0x353>
   106d0:	131020ef          	jal	ra,13000 <FN_WriteStr>
   106d4:	00004517          	auipc	a0,0x4
   106d8:	d5250513          	addi	a0,a0,-686 # 14426 <end_signature+0x356>
   106dc:	125020ef          	jal	ra,13000 <FN_WriteStr>
   106e0:	00004517          	auipc	a0,0x4
   106e4:	d4950513          	addi	a0,a0,-695 # 14429 <end_signature+0x359>
   106e8:	119020ef          	jal	ra,13000 <FN_WriteStr>
   106ec:	00004517          	auipc	a0,0x4
   106f0:	d4150513          	addi	a0,a0,-703 # 1442d <end_signature+0x35d>
   106f4:	10d020ef          	jal	ra,13000 <FN_WriteStr>
   106f8:	000e0513          	mv	a0,t3
   106fc:	121020ef          	jal	ra,1301c <FN_WriteA0>
   10700:	00004517          	auipc	a0,0x4
   10704:	d2f50513          	addi	a0,a0,-721 # 1442f <end_signature+0x35f>
   10708:	0f9020ef          	jal	ra,13000 <FN_WriteStr>
   1070c:	00004517          	auipc	a0,0x4
   10710:	d2950513          	addi	a0,a0,-727 # 14435 <end_signature+0x365>
   10714:	0ed020ef          	jal	ra,13000 <FN_WriteStr>
   10718:	00004517          	auipc	a0,0x4
   1071c:	d2850513          	addi	a0,a0,-728 # 14440 <end_signature+0x370>
   10720:	0e1020ef          	jal	ra,13000 <FN_WriteStr>
   10724:	06400193          	li	gp,100
   10728:	0000100f          	fence.i
   1072c:	00018063          	beqz	gp,1072c <reset_vector+0x6e0>
   10730:	00119193          	slli	gp,gp,0x1
   10734:	0011e193          	ori	gp,gp,1
   10738:	00000073          	ecall
   1073c:	00004517          	auipc	a0,0x4
   10740:	d0650513          	addi	a0,a0,-762 # 14442 <end_signature+0x372>
   10744:	0bd020ef          	jal	ra,13000 <FN_WriteStr>
   10748:	00004517          	auipc	a0,0x4
   1074c:	d1650513          	addi	a0,a0,-746 # 1445e <end_signature+0x38e>
   10750:	0b1020ef          	jal	ra,13000 <FN_WriteStr>
   10754:	00004397          	auipc	t2,0x4
   10758:	8b338393          	addi	t2,t2,-1869 # 14007 <test_A2_data+0x3>
   1075c:	00004417          	auipc	s0,0x4
   10760:	90440413          	addi	s0,s0,-1788 # 14060 <test_A3_res>
   10764:	0013cf03          	lbu	t5,1(t2)
   10768:	0023cf83          	lbu	t6,2(t2)
   1076c:	0033c083          	lbu	ra,3(t2)
   10770:	0043c103          	lbu	sp,4(t2)
   10774:	01e42023          	sw	t5,0(s0)
   10778:	01f42223          	sw	t6,4(s0)
   1077c:	00142423          	sw	ra,8(s0)
   10780:	00242623          	sw	sp,12(s0)
   10784:	06600293          	li	t0,102
   10788:	085f0e63          	beq	t5,t0,10824 <reset_vector+0x7d8>
   1078c:	00004517          	auipc	a0,0x4
   10790:	cfa50513          	addi	a0,a0,-774 # 14486 <end_signature+0x3b6>
   10794:	06d020ef          	jal	ra,13000 <FN_WriteStr>
   10798:	00004517          	auipc	a0,0x4
   1079c:	d0950513          	addi	a0,a0,-759 # 144a1 <end_signature+0x3d1>
   107a0:	061020ef          	jal	ra,13000 <FN_WriteStr>
   107a4:	00004517          	auipc	a0,0x4
   107a8:	d0c50513          	addi	a0,a0,-756 # 144b0 <end_signature+0x3e0>
   107ac:	055020ef          	jal	ra,13000 <FN_WriteStr>
   107b0:	00004517          	auipc	a0,0x4
   107b4:	d0850513          	addi	a0,a0,-760 # 144b8 <end_signature+0x3e8>
   107b8:	049020ef          	jal	ra,13000 <FN_WriteStr>
   107bc:	00004517          	auipc	a0,0x4
   107c0:	d0050513          	addi	a0,a0,-768 # 144bc <end_signature+0x3ec>
   107c4:	03d020ef          	jal	ra,13000 <FN_WriteStr>
   107c8:	00004517          	auipc	a0,0x4
   107cc:	cf750513          	addi	a0,a0,-777 # 144bf <end_signature+0x3ef>
   107d0:	031020ef          	jal	ra,13000 <FN_WriteStr>
   107d4:	00004517          	auipc	a0,0x4
   107d8:	cef50513          	addi	a0,a0,-785 # 144c3 <end_signature+0x3f3>
   107dc:	025020ef          	jal	ra,13000 <FN_WriteStr>
   107e0:	000f0513          	mv	a0,t5
   107e4:	039020ef          	jal	ra,1301c <FN_WriteA0>
   107e8:	00004517          	auipc	a0,0x4
   107ec:	cdd50513          	addi	a0,a0,-803 # 144c5 <end_signature+0x3f5>
   107f0:	011020ef          	jal	ra,13000 <FN_WriteStr>
   107f4:	00004517          	auipc	a0,0x4
   107f8:	cd750513          	addi	a0,a0,-809 # 144cb <end_signature+0x3fb>
   107fc:	005020ef          	jal	ra,13000 <FN_WriteStr>
   10800:	00004517          	auipc	a0,0x4
   10804:	cd650513          	addi	a0,a0,-810 # 144d6 <end_signature+0x406>
   10808:	7f8020ef          	jal	ra,13000 <FN_WriteStr>
   1080c:	06400193          	li	gp,100
   10810:	0000100f          	fence.i
   10814:	00018063          	beqz	gp,10814 <reset_vector+0x7c8>
   10818:	00119193          	slli	gp,gp,0x1
   1081c:	0011e193          	ori	gp,gp,1
   10820:	00000073          	ecall
   10824:	0f600293          	li	t0,246
   10828:	085f8e63          	beq	t6,t0,108c4 <reset_vector+0x878>
   1082c:	00004517          	auipc	a0,0x4
   10830:	cac50513          	addi	a0,a0,-852 # 144d8 <end_signature+0x408>
   10834:	7cc020ef          	jal	ra,13000 <FN_WriteStr>
   10838:	00004517          	auipc	a0,0x4
   1083c:	cbb50513          	addi	a0,a0,-837 # 144f3 <end_signature+0x423>
   10840:	7c0020ef          	jal	ra,13000 <FN_WriteStr>
   10844:	00004517          	auipc	a0,0x4
   10848:	cbe50513          	addi	a0,a0,-834 # 14502 <end_signature+0x432>
   1084c:	7b4020ef          	jal	ra,13000 <FN_WriteStr>
   10850:	00004517          	auipc	a0,0x4
   10854:	cba50513          	addi	a0,a0,-838 # 1450a <end_signature+0x43a>
   10858:	7a8020ef          	jal	ra,13000 <FN_WriteStr>
   1085c:	00004517          	auipc	a0,0x4
   10860:	cb250513          	addi	a0,a0,-846 # 1450e <end_signature+0x43e>
   10864:	79c020ef          	jal	ra,13000 <FN_WriteStr>
   10868:	00004517          	auipc	a0,0x4
   1086c:	ca950513          	addi	a0,a0,-855 # 14511 <end_signature+0x441>
   10870:	790020ef          	jal	ra,13000 <FN_WriteStr>
   10874:	00004517          	auipc	a0,0x4
   10878:	ca150513          	addi	a0,a0,-863 # 14515 <end_signature+0x445>
   1087c:	784020ef          	jal	ra,13000 <FN_WriteStr>
   10880:	000f8513          	mv	a0,t6
   10884:	798020ef          	jal	ra,1301c <FN_WriteA0>
   10888:	00004517          	auipc	a0,0x4
   1088c:	c8f50513          	addi	a0,a0,-881 # 14517 <end_signature+0x447>
   10890:	770020ef          	jal	ra,13000 <FN_WriteStr>
   10894:	00004517          	auipc	a0,0x4
   10898:	c8950513          	addi	a0,a0,-887 # 1451d <end_signature+0x44d>
   1089c:	764020ef          	jal	ra,13000 <FN_WriteStr>
   108a0:	00004517          	auipc	a0,0x4
   108a4:	c8850513          	addi	a0,a0,-888 # 14528 <end_signature+0x458>
   108a8:	758020ef          	jal	ra,13000 <FN_WriteStr>
   108ac:	06400193          	li	gp,100
   108b0:	0000100f          	fence.i
   108b4:	00018063          	beqz	gp,108b4 <reset_vector+0x868>
   108b8:	00119193          	slli	gp,gp,0x1
   108bc:	0011e193          	ori	gp,gp,1
   108c0:	00000073          	ecall
   108c4:	05500293          	li	t0,85
   108c8:	08510e63          	beq	sp,t0,10964 <reset_vector+0x918>
   108cc:	00004517          	auipc	a0,0x4
   108d0:	c5e50513          	addi	a0,a0,-930 # 1452a <end_signature+0x45a>
   108d4:	72c020ef          	jal	ra,13000 <FN_WriteStr>
   108d8:	00004517          	auipc	a0,0x4
   108dc:	c6d50513          	addi	a0,a0,-915 # 14545 <end_signature+0x475>
   108e0:	720020ef          	jal	ra,13000 <FN_WriteStr>
   108e4:	00004517          	auipc	a0,0x4
   108e8:	c7050513          	addi	a0,a0,-912 # 14554 <end_signature+0x484>
   108ec:	714020ef          	jal	ra,13000 <FN_WriteStr>
   108f0:	00004517          	auipc	a0,0x4
   108f4:	c6c50513          	addi	a0,a0,-916 # 1455c <end_signature+0x48c>
   108f8:	708020ef          	jal	ra,13000 <FN_WriteStr>
   108fc:	00004517          	auipc	a0,0x4
   10900:	c6450513          	addi	a0,a0,-924 # 14560 <end_signature+0x490>
   10904:	6fc020ef          	jal	ra,13000 <FN_WriteStr>
   10908:	00004517          	auipc	a0,0x4
   1090c:	c5b50513          	addi	a0,a0,-933 # 14563 <end_signature+0x493>
   10910:	6f0020ef          	jal	ra,13000 <FN_WriteStr>
   10914:	00004517          	auipc	a0,0x4
   10918:	c5250513          	addi	a0,a0,-942 # 14566 <end_signature+0x496>
   1091c:	6e4020ef          	jal	ra,13000 <FN_WriteStr>
   10920:	00010513          	mv	a0,sp
   10924:	6f8020ef          	jal	ra,1301c <FN_WriteA0>
   10928:	00004517          	auipc	a0,0x4
   1092c:	c4050513          	addi	a0,a0,-960 # 14568 <end_signature+0x498>
   10930:	6d0020ef          	jal	ra,13000 <FN_WriteStr>
   10934:	00004517          	auipc	a0,0x4
   10938:	c3a50513          	addi	a0,a0,-966 # 1456e <end_signature+0x49e>
   1093c:	6c4020ef          	jal	ra,13000 <FN_WriteStr>
   10940:	00004517          	auipc	a0,0x4
   10944:	c3950513          	addi	a0,a0,-967 # 14579 <end_signature+0x4a9>
   10948:	6b8020ef          	jal	ra,13000 <FN_WriteStr>
   1094c:	06400193          	li	gp,100
   10950:	0000100f          	fence.i
   10954:	00018063          	beqz	gp,10954 <reset_vector+0x908>
   10958:	00119193          	slli	gp,gp,0x1
   1095c:	0011e193          	ori	gp,gp,1
   10960:	00000073          	ecall
   10964:	00004517          	auipc	a0,0x4
   10968:	c1750513          	addi	a0,a0,-1001 # 1457b <end_signature+0x4ab>
   1096c:	694020ef          	jal	ra,13000 <FN_WriteStr>
   10970:	00004517          	auipc	a0,0x4
   10974:	c2750513          	addi	a0,a0,-985 # 14597 <end_signature+0x4c7>
   10978:	688020ef          	jal	ra,13000 <FN_WriteStr>
   1097c:	00004517          	auipc	a0,0x4
   10980:	e9050513          	addi	a0,a0,-368 # 1480c <end_signature+0x73c>
   10984:	00003597          	auipc	a1,0x3
   10988:	6ec58593          	addi	a1,a1,1772 # 14070 <test_A4_res>
   1098c:	80054603          	lbu	a2,-2048(a0)
   10990:	80154683          	lbu	a3,-2047(a0)
   10994:	80254703          	lbu	a4,-2046(a0)
   10998:	80354783          	lbu	a5,-2045(a0)
   1099c:	00c5a023          	sw	a2,0(a1)
   109a0:	00d5a223          	sw	a3,4(a1)
   109a4:	00e5a423          	sw	a4,8(a1)
   109a8:	00f5a623          	sw	a5,12(a1)
   109ac:	0f800293          	li	t0,248
   109b0:	08560e63          	beq	a2,t0,10a4c <reset_vector+0xa00>
   109b4:	00004517          	auipc	a0,0x4
   109b8:	c0e50513          	addi	a0,a0,-1010 # 145c2 <end_signature+0x4f2>
   109bc:	644020ef          	jal	ra,13000 <FN_WriteStr>
   109c0:	00004517          	auipc	a0,0x4
   109c4:	c1d50513          	addi	a0,a0,-995 # 145dd <end_signature+0x50d>
   109c8:	638020ef          	jal	ra,13000 <FN_WriteStr>
   109cc:	00004517          	auipc	a0,0x4
   109d0:	c2050513          	addi	a0,a0,-992 # 145ec <end_signature+0x51c>
   109d4:	62c020ef          	jal	ra,13000 <FN_WriteStr>
   109d8:	00004517          	auipc	a0,0x4
   109dc:	c1c50513          	addi	a0,a0,-996 # 145f4 <end_signature+0x524>
   109e0:	620020ef          	jal	ra,13000 <FN_WriteStr>
   109e4:	00004517          	auipc	a0,0x4
   109e8:	c1450513          	addi	a0,a0,-1004 # 145f8 <end_signature+0x528>
   109ec:	614020ef          	jal	ra,13000 <FN_WriteStr>
   109f0:	00004517          	auipc	a0,0x4
   109f4:	c0b50513          	addi	a0,a0,-1013 # 145fb <end_signature+0x52b>
   109f8:	608020ef          	jal	ra,13000 <FN_WriteStr>
   109fc:	00004517          	auipc	a0,0x4
   10a00:	c0350513          	addi	a0,a0,-1021 # 145ff <end_signature+0x52f>
   10a04:	5fc020ef          	jal	ra,13000 <FN_WriteStr>
   10a08:	00060513          	mv	a0,a2
   10a0c:	610020ef          	jal	ra,1301c <FN_WriteA0>
   10a10:	00004517          	auipc	a0,0x4
   10a14:	bf150513          	addi	a0,a0,-1039 # 14601 <end_signature+0x531>
   10a18:	5e8020ef          	jal	ra,13000 <FN_WriteStr>
   10a1c:	00004517          	auipc	a0,0x4
   10a20:	beb50513          	addi	a0,a0,-1045 # 14607 <end_signature+0x537>
   10a24:	5dc020ef          	jal	ra,13000 <FN_WriteStr>
   10a28:	00004517          	auipc	a0,0x4
   10a2c:	bea50513          	addi	a0,a0,-1046 # 14612 <end_signature+0x542>
   10a30:	5d0020ef          	jal	ra,13000 <FN_WriteStr>
   10a34:	06400193          	li	gp,100
   10a38:	0000100f          	fence.i
   10a3c:	00018063          	beqz	gp,10a3c <reset_vector+0x9f0>
   10a40:	00119193          	slli	gp,gp,0x1
   10a44:	0011e193          	ori	gp,gp,1
   10a48:	00000073          	ecall
   10a4c:	08800293          	li	t0,136
   10a50:	08568e63          	beq	a3,t0,10aec <reset_vector+0xaa0>
   10a54:	00004517          	auipc	a0,0x4
   10a58:	bc050513          	addi	a0,a0,-1088 # 14614 <end_signature+0x544>
   10a5c:	5a4020ef          	jal	ra,13000 <FN_WriteStr>
   10a60:	00004517          	auipc	a0,0x4
   10a64:	bcf50513          	addi	a0,a0,-1073 # 1462f <end_signature+0x55f>
   10a68:	598020ef          	jal	ra,13000 <FN_WriteStr>
   10a6c:	00004517          	auipc	a0,0x4
   10a70:	bd250513          	addi	a0,a0,-1070 # 1463e <end_signature+0x56e>
   10a74:	58c020ef          	jal	ra,13000 <FN_WriteStr>
   10a78:	00004517          	auipc	a0,0x4
   10a7c:	bce50513          	addi	a0,a0,-1074 # 14646 <end_signature+0x576>
   10a80:	580020ef          	jal	ra,13000 <FN_WriteStr>
   10a84:	00004517          	auipc	a0,0x4
   10a88:	bc650513          	addi	a0,a0,-1082 # 1464a <end_signature+0x57a>
   10a8c:	574020ef          	jal	ra,13000 <FN_WriteStr>
   10a90:	00004517          	auipc	a0,0x4
   10a94:	bbd50513          	addi	a0,a0,-1091 # 1464d <end_signature+0x57d>
   10a98:	568020ef          	jal	ra,13000 <FN_WriteStr>
   10a9c:	00004517          	auipc	a0,0x4
   10aa0:	bb550513          	addi	a0,a0,-1099 # 14651 <end_signature+0x581>
   10aa4:	55c020ef          	jal	ra,13000 <FN_WriteStr>
   10aa8:	00068513          	mv	a0,a3
   10aac:	570020ef          	jal	ra,1301c <FN_WriteA0>
   10ab0:	00004517          	auipc	a0,0x4
   10ab4:	ba350513          	addi	a0,a0,-1117 # 14653 <end_signature+0x583>
   10ab8:	548020ef          	jal	ra,13000 <FN_WriteStr>
   10abc:	00004517          	auipc	a0,0x4
   10ac0:	b9d50513          	addi	a0,a0,-1123 # 14659 <end_signature+0x589>
   10ac4:	53c020ef          	jal	ra,13000 <FN_WriteStr>
   10ac8:	00004517          	auipc	a0,0x4
   10acc:	b9c50513          	addi	a0,a0,-1124 # 14664 <end_signature+0x594>
   10ad0:	530020ef          	jal	ra,13000 <FN_WriteStr>
   10ad4:	06400193          	li	gp,100
   10ad8:	0000100f          	fence.i
   10adc:	00018063          	beqz	gp,10adc <reset_vector+0xa90>
   10ae0:	00119193          	slli	gp,gp,0x1
   10ae4:	0011e193          	ori	gp,gp,1
   10ae8:	00000073          	ecall
   10aec:	07700293          	li	t0,119
   10af0:	08570e63          	beq	a4,t0,10b8c <reset_vector+0xb40>
   10af4:	00004517          	auipc	a0,0x4
   10af8:	b7250513          	addi	a0,a0,-1166 # 14666 <end_signature+0x596>
   10afc:	504020ef          	jal	ra,13000 <FN_WriteStr>
   10b00:	00004517          	auipc	a0,0x4
   10b04:	b8150513          	addi	a0,a0,-1151 # 14681 <end_signature+0x5b1>
   10b08:	4f8020ef          	jal	ra,13000 <FN_WriteStr>
   10b0c:	00004517          	auipc	a0,0x4
   10b10:	b8450513          	addi	a0,a0,-1148 # 14690 <end_signature+0x5c0>
   10b14:	4ec020ef          	jal	ra,13000 <FN_WriteStr>
   10b18:	00004517          	auipc	a0,0x4
   10b1c:	b8050513          	addi	a0,a0,-1152 # 14698 <end_signature+0x5c8>
   10b20:	4e0020ef          	jal	ra,13000 <FN_WriteStr>
   10b24:	00004517          	auipc	a0,0x4
   10b28:	b7850513          	addi	a0,a0,-1160 # 1469c <end_signature+0x5cc>
   10b2c:	4d4020ef          	jal	ra,13000 <FN_WriteStr>
   10b30:	00004517          	auipc	a0,0x4
   10b34:	b6f50513          	addi	a0,a0,-1169 # 1469f <end_signature+0x5cf>
   10b38:	4c8020ef          	jal	ra,13000 <FN_WriteStr>
   10b3c:	00004517          	auipc	a0,0x4
   10b40:	b6750513          	addi	a0,a0,-1177 # 146a3 <end_signature+0x5d3>
   10b44:	4bc020ef          	jal	ra,13000 <FN_WriteStr>
   10b48:	00070513          	mv	a0,a4
   10b4c:	4d0020ef          	jal	ra,1301c <FN_WriteA0>
   10b50:	00004517          	auipc	a0,0x4
   10b54:	b5550513          	addi	a0,a0,-1195 # 146a5 <end_signature+0x5d5>
   10b58:	4a8020ef          	jal	ra,13000 <FN_WriteStr>
   10b5c:	00004517          	auipc	a0,0x4
   10b60:	b4f50513          	addi	a0,a0,-1201 # 146ab <end_signature+0x5db>
   10b64:	49c020ef          	jal	ra,13000 <FN_WriteStr>
   10b68:	00004517          	auipc	a0,0x4
   10b6c:	b4e50513          	addi	a0,a0,-1202 # 146b6 <end_signature+0x5e6>
   10b70:	490020ef          	jal	ra,13000 <FN_WriteStr>
   10b74:	06400193          	li	gp,100
   10b78:	0000100f          	fence.i
   10b7c:	00018063          	beqz	gp,10b7c <reset_vector+0xb30>
   10b80:	00119193          	slli	gp,gp,0x1
   10b84:	0011e193          	ori	gp,gp,1
   10b88:	00000073          	ecall
   10b8c:	0f700293          	li	t0,247
   10b90:	08578e63          	beq	a5,t0,10c2c <reset_vector+0xbe0>
   10b94:	00004517          	auipc	a0,0x4
   10b98:	b2450513          	addi	a0,a0,-1244 # 146b8 <end_signature+0x5e8>
   10b9c:	464020ef          	jal	ra,13000 <FN_WriteStr>
   10ba0:	00004517          	auipc	a0,0x4
   10ba4:	b3350513          	addi	a0,a0,-1229 # 146d3 <end_signature+0x603>
   10ba8:	458020ef          	jal	ra,13000 <FN_WriteStr>
   10bac:	00004517          	auipc	a0,0x4
   10bb0:	b3650513          	addi	a0,a0,-1226 # 146e2 <end_signature+0x612>
   10bb4:	44c020ef          	jal	ra,13000 <FN_WriteStr>
   10bb8:	00004517          	auipc	a0,0x4
   10bbc:	b3250513          	addi	a0,a0,-1230 # 146ea <end_signature+0x61a>
   10bc0:	440020ef          	jal	ra,13000 <FN_WriteStr>
   10bc4:	00004517          	auipc	a0,0x4
   10bc8:	b2a50513          	addi	a0,a0,-1238 # 146ee <end_signature+0x61e>
   10bcc:	434020ef          	jal	ra,13000 <FN_WriteStr>
   10bd0:	00004517          	auipc	a0,0x4
   10bd4:	b2150513          	addi	a0,a0,-1247 # 146f1 <end_signature+0x621>
   10bd8:	428020ef          	jal	ra,13000 <FN_WriteStr>
   10bdc:	00004517          	auipc	a0,0x4
   10be0:	b1950513          	addi	a0,a0,-1255 # 146f5 <end_signature+0x625>
   10be4:	41c020ef          	jal	ra,13000 <FN_WriteStr>
   10be8:	00078513          	mv	a0,a5
   10bec:	430020ef          	jal	ra,1301c <FN_WriteA0>
   10bf0:	00004517          	auipc	a0,0x4
   10bf4:	b0750513          	addi	a0,a0,-1273 # 146f7 <end_signature+0x627>
   10bf8:	408020ef          	jal	ra,13000 <FN_WriteStr>
   10bfc:	00004517          	auipc	a0,0x4
   10c00:	b0150513          	addi	a0,a0,-1279 # 146fd <end_signature+0x62d>
   10c04:	3fc020ef          	jal	ra,13000 <FN_WriteStr>
   10c08:	00004517          	auipc	a0,0x4
   10c0c:	b0050513          	addi	a0,a0,-1280 # 14708 <end_signature+0x638>
   10c10:	3f0020ef          	jal	ra,13000 <FN_WriteStr>
   10c14:	06400193          	li	gp,100
   10c18:	0000100f          	fence.i
   10c1c:	00018063          	beqz	gp,10c1c <reset_vector+0xbd0>
   10c20:	00119193          	slli	gp,gp,0x1
   10c24:	0011e193          	ori	gp,gp,1
   10c28:	00000073          	ecall
   10c2c:	00004517          	auipc	a0,0x4
   10c30:	ade50513          	addi	a0,a0,-1314 # 1470a <end_signature+0x63a>
   10c34:	3cc020ef          	jal	ra,13000 <FN_WriteStr>
   10c38:	00004517          	auipc	a0,0x4
   10c3c:	aee50513          	addi	a0,a0,-1298 # 14726 <end_signature+0x656>
   10c40:	3c0020ef          	jal	ra,13000 <FN_WriteStr>
   10c44:	00003697          	auipc	a3,0x3
   10c48:	bd068693          	addi	a3,a3,-1072 # 13814 <FN_WriteA0_common+0x7a0>
   10c4c:	00003717          	auipc	a4,0x3
   10c50:	43470713          	addi	a4,a4,1076 # 14080 <test_A5_res>
   10c54:	7fc6c783          	lbu	a5,2044(a3)
   10c58:	7fd6c803          	lbu	a6,2045(a3)
   10c5c:	7fe6c883          	lbu	a7,2046(a3)
   10c60:	7ff6c903          	lbu	s2,2047(a3)
   10c64:	00f72023          	sw	a5,0(a4)
   10c68:	01072223          	sw	a6,4(a4)
   10c6c:	01172423          	sw	a7,8(a4)
   10c70:	01272623          	sw	s2,12(a4)
   10c74:	0aa00293          	li	t0,170
   10c78:	08578e63          	beq	a5,t0,10d14 <reset_vector+0xcc8>
   10c7c:	00004517          	auipc	a0,0x4
   10c80:	ad550513          	addi	a0,a0,-1323 # 14751 <end_signature+0x681>
   10c84:	37c020ef          	jal	ra,13000 <FN_WriteStr>
   10c88:	00004517          	auipc	a0,0x4
   10c8c:	ae450513          	addi	a0,a0,-1308 # 1476c <end_signature+0x69c>
   10c90:	370020ef          	jal	ra,13000 <FN_WriteStr>
   10c94:	00004517          	auipc	a0,0x4
   10c98:	ae750513          	addi	a0,a0,-1305 # 1477b <end_signature+0x6ab>
   10c9c:	364020ef          	jal	ra,13000 <FN_WriteStr>
   10ca0:	00004517          	auipc	a0,0x4
   10ca4:	ae350513          	addi	a0,a0,-1309 # 14783 <end_signature+0x6b3>
   10ca8:	358020ef          	jal	ra,13000 <FN_WriteStr>
   10cac:	00004517          	auipc	a0,0x4
   10cb0:	adb50513          	addi	a0,a0,-1317 # 14787 <end_signature+0x6b7>
   10cb4:	34c020ef          	jal	ra,13000 <FN_WriteStr>
   10cb8:	00004517          	auipc	a0,0x4
   10cbc:	ad250513          	addi	a0,a0,-1326 # 1478a <end_signature+0x6ba>
   10cc0:	340020ef          	jal	ra,13000 <FN_WriteStr>
   10cc4:	00004517          	auipc	a0,0x4
   10cc8:	aca50513          	addi	a0,a0,-1334 # 1478e <end_signature+0x6be>
   10ccc:	334020ef          	jal	ra,13000 <FN_WriteStr>
   10cd0:	00078513          	mv	a0,a5
   10cd4:	348020ef          	jal	ra,1301c <FN_WriteA0>
   10cd8:	00004517          	auipc	a0,0x4
   10cdc:	ab850513          	addi	a0,a0,-1352 # 14790 <end_signature+0x6c0>
   10ce0:	320020ef          	jal	ra,13000 <FN_WriteStr>
   10ce4:	00004517          	auipc	a0,0x4
   10ce8:	ab250513          	addi	a0,a0,-1358 # 14796 <end_signature+0x6c6>
   10cec:	314020ef          	jal	ra,13000 <FN_WriteStr>
   10cf0:	00004517          	auipc	a0,0x4
   10cf4:	ab150513          	addi	a0,a0,-1359 # 147a1 <end_signature+0x6d1>
   10cf8:	308020ef          	jal	ra,13000 <FN_WriteStr>
   10cfc:	06400193          	li	gp,100
   10d00:	0000100f          	fence.i
   10d04:	00018063          	beqz	gp,10d04 <reset_vector+0xcb8>
   10d08:	00119193          	slli	gp,gp,0x1
   10d0c:	0011e193          	ori	gp,gp,1
   10d10:	00000073          	ecall
   10d14:	00a00293          	li	t0,10
   10d18:	08580e63          	beq	a6,t0,10db4 <reset_vector+0xd68>
   10d1c:	00004517          	auipc	a0,0x4
   10d20:	a8750513          	addi	a0,a0,-1401 # 147a3 <end_signature+0x6d3>
   10d24:	2dc020ef          	jal	ra,13000 <FN_WriteStr>
   10d28:	00004517          	auipc	a0,0x4
   10d2c:	a9650513          	addi	a0,a0,-1386 # 147be <end_signature+0x6ee>
   10d30:	2d0020ef          	jal	ra,13000 <FN_WriteStr>
   10d34:	00004517          	auipc	a0,0x4
   10d38:	a9950513          	addi	a0,a0,-1383 # 147cd <end_signature+0x6fd>
   10d3c:	2c4020ef          	jal	ra,13000 <FN_WriteStr>
   10d40:	00004517          	auipc	a0,0x4
   10d44:	a9550513          	addi	a0,a0,-1387 # 147d5 <end_signature+0x705>
   10d48:	2b8020ef          	jal	ra,13000 <FN_WriteStr>
   10d4c:	00004517          	auipc	a0,0x4
   10d50:	a8d50513          	addi	a0,a0,-1395 # 147d9 <end_signature+0x709>
   10d54:	2ac020ef          	jal	ra,13000 <FN_WriteStr>
   10d58:	00004517          	auipc	a0,0x4
   10d5c:	a8450513          	addi	a0,a0,-1404 # 147dc <end_signature+0x70c>
   10d60:	2a0020ef          	jal	ra,13000 <FN_WriteStr>
   10d64:	00004517          	auipc	a0,0x4
   10d68:	a7c50513          	addi	a0,a0,-1412 # 147e0 <end_signature+0x710>
   10d6c:	294020ef          	jal	ra,13000 <FN_WriteStr>
   10d70:	00080513          	mv	a0,a6
   10d74:	2a8020ef          	jal	ra,1301c <FN_WriteA0>
   10d78:	00004517          	auipc	a0,0x4
   10d7c:	a6a50513          	addi	a0,a0,-1430 # 147e2 <end_signature+0x712>
   10d80:	280020ef          	jal	ra,13000 <FN_WriteStr>
   10d84:	00004517          	auipc	a0,0x4
   10d88:	a6450513          	addi	a0,a0,-1436 # 147e8 <end_signature+0x718>
   10d8c:	274020ef          	jal	ra,13000 <FN_WriteStr>
   10d90:	00004517          	auipc	a0,0x4
   10d94:	a6350513          	addi	a0,a0,-1437 # 147f3 <end_signature+0x723>
   10d98:	268020ef          	jal	ra,13000 <FN_WriteStr>
   10d9c:	06400193          	li	gp,100
   10da0:	0000100f          	fence.i
   10da4:	00018063          	beqz	gp,10da4 <reset_vector+0xd58>
   10da8:	00119193          	slli	gp,gp,0x1
   10dac:	0011e193          	ori	gp,gp,1
   10db0:	00000073          	ecall
   10db4:	00900293          	li	t0,9
   10db8:	08588e63          	beq	a7,t0,10e54 <reset_vector+0xe08>
   10dbc:	00004517          	auipc	a0,0x4
   10dc0:	a3950513          	addi	a0,a0,-1479 # 147f5 <end_signature+0x725>
   10dc4:	23c020ef          	jal	ra,13000 <FN_WriteStr>
   10dc8:	00004517          	auipc	a0,0x4
   10dcc:	a4850513          	addi	a0,a0,-1464 # 14810 <end_signature+0x740>
   10dd0:	230020ef          	jal	ra,13000 <FN_WriteStr>
   10dd4:	00004517          	auipc	a0,0x4
   10dd8:	a4b50513          	addi	a0,a0,-1461 # 1481f <end_signature+0x74f>
   10ddc:	224020ef          	jal	ra,13000 <FN_WriteStr>
   10de0:	00004517          	auipc	a0,0x4
   10de4:	a4750513          	addi	a0,a0,-1465 # 14827 <end_signature+0x757>
   10de8:	218020ef          	jal	ra,13000 <FN_WriteStr>
   10dec:	00004517          	auipc	a0,0x4
   10df0:	a3f50513          	addi	a0,a0,-1473 # 1482b <end_signature+0x75b>
   10df4:	20c020ef          	jal	ra,13000 <FN_WriteStr>
   10df8:	00004517          	auipc	a0,0x4
   10dfc:	a3650513          	addi	a0,a0,-1482 # 1482e <end_signature+0x75e>
   10e00:	200020ef          	jal	ra,13000 <FN_WriteStr>
   10e04:	00004517          	auipc	a0,0x4
   10e08:	a2e50513          	addi	a0,a0,-1490 # 14832 <end_signature+0x762>
   10e0c:	1f4020ef          	jal	ra,13000 <FN_WriteStr>
   10e10:	00088513          	mv	a0,a7
   10e14:	208020ef          	jal	ra,1301c <FN_WriteA0>
   10e18:	00004517          	auipc	a0,0x4
   10e1c:	a1c50513          	addi	a0,a0,-1508 # 14834 <end_signature+0x764>
   10e20:	1e0020ef          	jal	ra,13000 <FN_WriteStr>
   10e24:	00004517          	auipc	a0,0x4
   10e28:	a1650513          	addi	a0,a0,-1514 # 1483a <end_signature+0x76a>
   10e2c:	1d4020ef          	jal	ra,13000 <FN_WriteStr>
   10e30:	00004517          	auipc	a0,0x4
   10e34:	a1550513          	addi	a0,a0,-1515 # 14845 <end_signature+0x775>
   10e38:	1c8020ef          	jal	ra,13000 <FN_WriteStr>
   10e3c:	06400193          	li	gp,100
   10e40:	0000100f          	fence.i
   10e44:	00018063          	beqz	gp,10e44 <reset_vector+0xdf8>
   10e48:	00119193          	slli	gp,gp,0x1
   10e4c:	0011e193          	ori	gp,gp,1
   10e50:	00000073          	ecall
   10e54:	09900293          	li	t0,153
   10e58:	08590e63          	beq	s2,t0,10ef4 <reset_vector+0xea8>
   10e5c:	00004517          	auipc	a0,0x4
   10e60:	9eb50513          	addi	a0,a0,-1557 # 14847 <end_signature+0x777>
   10e64:	19c020ef          	jal	ra,13000 <FN_WriteStr>
   10e68:	00004517          	auipc	a0,0x4
   10e6c:	9fa50513          	addi	a0,a0,-1542 # 14862 <end_signature+0x792>
   10e70:	190020ef          	jal	ra,13000 <FN_WriteStr>
   10e74:	00004517          	auipc	a0,0x4
   10e78:	9fd50513          	addi	a0,a0,-1539 # 14871 <end_signature+0x7a1>
   10e7c:	184020ef          	jal	ra,13000 <FN_WriteStr>
   10e80:	00004517          	auipc	a0,0x4
   10e84:	9f950513          	addi	a0,a0,-1543 # 14879 <end_signature+0x7a9>
   10e88:	178020ef          	jal	ra,13000 <FN_WriteStr>
   10e8c:	00004517          	auipc	a0,0x4
   10e90:	9f150513          	addi	a0,a0,-1551 # 1487d <end_signature+0x7ad>
   10e94:	16c020ef          	jal	ra,13000 <FN_WriteStr>
   10e98:	00004517          	auipc	a0,0x4
   10e9c:	9e850513          	addi	a0,a0,-1560 # 14880 <end_signature+0x7b0>
   10ea0:	160020ef          	jal	ra,13000 <FN_WriteStr>
   10ea4:	00004517          	auipc	a0,0x4
   10ea8:	9e050513          	addi	a0,a0,-1568 # 14884 <end_signature+0x7b4>
   10eac:	154020ef          	jal	ra,13000 <FN_WriteStr>
   10eb0:	00090513          	mv	a0,s2
   10eb4:	168020ef          	jal	ra,1301c <FN_WriteA0>
   10eb8:	00004517          	auipc	a0,0x4
   10ebc:	9ce50513          	addi	a0,a0,-1586 # 14886 <end_signature+0x7b6>
   10ec0:	140020ef          	jal	ra,13000 <FN_WriteStr>
   10ec4:	00004517          	auipc	a0,0x4
   10ec8:	9c850513          	addi	a0,a0,-1592 # 1488c <end_signature+0x7bc>
   10ecc:	134020ef          	jal	ra,13000 <FN_WriteStr>
   10ed0:	00004517          	auipc	a0,0x4
   10ed4:	9c750513          	addi	a0,a0,-1593 # 14897 <end_signature+0x7c7>
   10ed8:	128020ef          	jal	ra,13000 <FN_WriteStr>
   10edc:	06400193          	li	gp,100
   10ee0:	0000100f          	fence.i
   10ee4:	00018063          	beqz	gp,10ee4 <reset_vector+0xe98>
   10ee8:	00119193          	slli	gp,gp,0x1
   10eec:	0011e193          	ori	gp,gp,1
   10ef0:	00000073          	ecall
   10ef4:	00004517          	auipc	a0,0x4
   10ef8:	9a550513          	addi	a0,a0,-1627 # 14899 <end_signature+0x7c9>
   10efc:	104020ef          	jal	ra,13000 <FN_WriteStr>
   10f00:	00004517          	auipc	a0,0x4
   10f04:	9b550513          	addi	a0,a0,-1611 # 148b5 <end_signature+0x7e5>
   10f08:	0f8020ef          	jal	ra,13000 <FN_WriteStr>
   10f0c:	00003817          	auipc	a6,0x3
   10f10:	10c80813          	addi	a6,a6,268 # 14018 <test_B_data>
   10f14:	00003897          	auipc	a7,0x3
   10f18:	17c88893          	addi	a7,a7,380 # 14090 <test_B_res>
   10f1c:	ffc84903          	lbu	s2,-4(a6)
   10f20:	ffd84983          	lbu	s3,-3(a6)
   10f24:	ffe84a03          	lbu	s4,-2(a6)
   10f28:	fff84a83          	lbu	s5,-1(a6)
   10f2c:	00084b03          	lbu	s6,0(a6)
   10f30:	00184b83          	lbu	s7,1(a6)
   10f34:	00284c03          	lbu	s8,2(a6)
   10f38:	00384c83          	lbu	s9,3(a6)
   10f3c:	00484d03          	lbu	s10,4(a6)
   10f40:	00584d83          	lbu	s11,5(a6)
   10f44:	00684e03          	lbu	t3,6(a6)
   10f48:	00784e83          	lbu	t4,7(a6)
   10f4c:	0128a023          	sw	s2,0(a7)
   10f50:	0138a223          	sw	s3,4(a7)
   10f54:	0148a423          	sw	s4,8(a7)
   10f58:	0158a623          	sw	s5,12(a7)
   10f5c:	0168a823          	sw	s6,16(a7)
   10f60:	0178aa23          	sw	s7,20(a7)
   10f64:	0188ac23          	sw	s8,24(a7)
   10f68:	0198ae23          	sw	s9,28(a7)
   10f6c:	03a8a023          	sw	s10,32(a7)
   10f70:	03b8a223          	sw	s11,36(a7)
   10f74:	03c8a423          	sw	t3,40(a7)
   10f78:	03d8a623          	sw	t4,44(a7)
   10f7c:	00c00293          	li	t0,12
   10f80:	08590e63          	beq	s2,t0,1101c <reset_vector+0xfd0>
   10f84:	00004517          	auipc	a0,0x4
   10f88:	96750513          	addi	a0,a0,-1689 # 148eb <end_signature+0x81b>
   10f8c:	074020ef          	jal	ra,13000 <FN_WriteStr>
   10f90:	00004517          	auipc	a0,0x4
   10f94:	97650513          	addi	a0,a0,-1674 # 14906 <end_signature+0x836>
   10f98:	068020ef          	jal	ra,13000 <FN_WriteStr>
   10f9c:	00004517          	auipc	a0,0x4
   10fa0:	97950513          	addi	a0,a0,-1671 # 14915 <end_signature+0x845>
   10fa4:	05c020ef          	jal	ra,13000 <FN_WriteStr>
   10fa8:	00004517          	auipc	a0,0x4
   10fac:	97550513          	addi	a0,a0,-1675 # 1491d <end_signature+0x84d>
   10fb0:	050020ef          	jal	ra,13000 <FN_WriteStr>
   10fb4:	00004517          	auipc	a0,0x4
   10fb8:	96d50513          	addi	a0,a0,-1683 # 14921 <end_signature+0x851>
   10fbc:	044020ef          	jal	ra,13000 <FN_WriteStr>
   10fc0:	00004517          	auipc	a0,0x4
   10fc4:	96450513          	addi	a0,a0,-1692 # 14924 <end_signature+0x854>
   10fc8:	038020ef          	jal	ra,13000 <FN_WriteStr>
   10fcc:	00004517          	auipc	a0,0x4
   10fd0:	95c50513          	addi	a0,a0,-1700 # 14928 <end_signature+0x858>
   10fd4:	02c020ef          	jal	ra,13000 <FN_WriteStr>
   10fd8:	00090513          	mv	a0,s2
   10fdc:	040020ef          	jal	ra,1301c <FN_WriteA0>
   10fe0:	00004517          	auipc	a0,0x4
   10fe4:	94a50513          	addi	a0,a0,-1718 # 1492a <end_signature+0x85a>
   10fe8:	018020ef          	jal	ra,13000 <FN_WriteStr>
   10fec:	00004517          	auipc	a0,0x4
   10ff0:	94450513          	addi	a0,a0,-1724 # 14930 <end_signature+0x860>
   10ff4:	00c020ef          	jal	ra,13000 <FN_WriteStr>
   10ff8:	00004517          	auipc	a0,0x4
   10ffc:	94350513          	addi	a0,a0,-1725 # 1493b <end_signature+0x86b>
   11000:	000020ef          	jal	ra,13000 <FN_WriteStr>
   11004:	06400193          	li	gp,100
   11008:	0000100f          	fence.i
   1100c:	00018063          	beqz	gp,1100c <reset_vector+0xfc0>
   11010:	00119193          	slli	gp,gp,0x1
   11014:	0011e193          	ori	gp,gp,1
   11018:	00000073          	ecall
   1101c:	0cc00293          	li	t0,204
   11020:	08598e63          	beq	s3,t0,110bc <reset_vector+0x1070>
   11024:	00004517          	auipc	a0,0x4
   11028:	91950513          	addi	a0,a0,-1767 # 1493d <end_signature+0x86d>
   1102c:	7d5010ef          	jal	ra,13000 <FN_WriteStr>
   11030:	00004517          	auipc	a0,0x4
   11034:	92850513          	addi	a0,a0,-1752 # 14958 <end_signature+0x888>
   11038:	7c9010ef          	jal	ra,13000 <FN_WriteStr>
   1103c:	00004517          	auipc	a0,0x4
   11040:	92b50513          	addi	a0,a0,-1749 # 14967 <end_signature+0x897>
   11044:	7bd010ef          	jal	ra,13000 <FN_WriteStr>
   11048:	00004517          	auipc	a0,0x4
   1104c:	92750513          	addi	a0,a0,-1753 # 1496f <end_signature+0x89f>
   11050:	7b1010ef          	jal	ra,13000 <FN_WriteStr>
   11054:	00004517          	auipc	a0,0x4
   11058:	91f50513          	addi	a0,a0,-1761 # 14973 <end_signature+0x8a3>
   1105c:	7a5010ef          	jal	ra,13000 <FN_WriteStr>
   11060:	00004517          	auipc	a0,0x4
   11064:	91650513          	addi	a0,a0,-1770 # 14976 <end_signature+0x8a6>
   11068:	799010ef          	jal	ra,13000 <FN_WriteStr>
   1106c:	00004517          	auipc	a0,0x4
   11070:	90e50513          	addi	a0,a0,-1778 # 1497a <end_signature+0x8aa>
   11074:	78d010ef          	jal	ra,13000 <FN_WriteStr>
   11078:	00098513          	mv	a0,s3
   1107c:	7a1010ef          	jal	ra,1301c <FN_WriteA0>
   11080:	00004517          	auipc	a0,0x4
   11084:	8fc50513          	addi	a0,a0,-1796 # 1497c <end_signature+0x8ac>
   11088:	779010ef          	jal	ra,13000 <FN_WriteStr>
   1108c:	00004517          	auipc	a0,0x4
   11090:	8f650513          	addi	a0,a0,-1802 # 14982 <end_signature+0x8b2>
   11094:	76d010ef          	jal	ra,13000 <FN_WriteStr>
   11098:	00004517          	auipc	a0,0x4
   1109c:	8f550513          	addi	a0,a0,-1803 # 1498d <end_signature+0x8bd>
   110a0:	761010ef          	jal	ra,13000 <FN_WriteStr>
   110a4:	06400193          	li	gp,100
   110a8:	0000100f          	fence.i
   110ac:	00018063          	beqz	gp,110ac <reset_vector+0x1060>
   110b0:	00119193          	slli	gp,gp,0x1
   110b4:	0011e193          	ori	gp,gp,1
   110b8:	00000073          	ecall
   110bc:	0bb00293          	li	t0,187
   110c0:	085a0e63          	beq	s4,t0,1115c <reset_vector+0x1110>
   110c4:	00004517          	auipc	a0,0x4
   110c8:	8cb50513          	addi	a0,a0,-1845 # 1498f <end_signature+0x8bf>
   110cc:	735010ef          	jal	ra,13000 <FN_WriteStr>
   110d0:	00004517          	auipc	a0,0x4
   110d4:	8da50513          	addi	a0,a0,-1830 # 149aa <end_signature+0x8da>
   110d8:	729010ef          	jal	ra,13000 <FN_WriteStr>
   110dc:	00004517          	auipc	a0,0x4
   110e0:	8dd50513          	addi	a0,a0,-1827 # 149b9 <end_signature+0x8e9>
   110e4:	71d010ef          	jal	ra,13000 <FN_WriteStr>
   110e8:	00004517          	auipc	a0,0x4
   110ec:	8d950513          	addi	a0,a0,-1831 # 149c1 <end_signature+0x8f1>
   110f0:	711010ef          	jal	ra,13000 <FN_WriteStr>
   110f4:	00004517          	auipc	a0,0x4
   110f8:	8d150513          	addi	a0,a0,-1839 # 149c5 <end_signature+0x8f5>
   110fc:	705010ef          	jal	ra,13000 <FN_WriteStr>
   11100:	00004517          	auipc	a0,0x4
   11104:	8c850513          	addi	a0,a0,-1848 # 149c8 <end_signature+0x8f8>
   11108:	6f9010ef          	jal	ra,13000 <FN_WriteStr>
   1110c:	00004517          	auipc	a0,0x4
   11110:	8c050513          	addi	a0,a0,-1856 # 149cc <end_signature+0x8fc>
   11114:	6ed010ef          	jal	ra,13000 <FN_WriteStr>
   11118:	000a0513          	mv	a0,s4
   1111c:	701010ef          	jal	ra,1301c <FN_WriteA0>
   11120:	00004517          	auipc	a0,0x4
   11124:	8ae50513          	addi	a0,a0,-1874 # 149ce <end_signature+0x8fe>
   11128:	6d9010ef          	jal	ra,13000 <FN_WriteStr>
   1112c:	00004517          	auipc	a0,0x4
   11130:	8a850513          	addi	a0,a0,-1880 # 149d4 <end_signature+0x904>
   11134:	6cd010ef          	jal	ra,13000 <FN_WriteStr>
   11138:	00004517          	auipc	a0,0x4
   1113c:	8a750513          	addi	a0,a0,-1881 # 149df <end_signature+0x90f>
   11140:	6c1010ef          	jal	ra,13000 <FN_WriteStr>
   11144:	06400193          	li	gp,100
   11148:	0000100f          	fence.i
   1114c:	00018063          	beqz	gp,1114c <reset_vector+0x1100>
   11150:	00119193          	slli	gp,gp,0x1
   11154:	0011e193          	ori	gp,gp,1
   11158:	00000073          	ecall
   1115c:	00b00293          	li	t0,11
   11160:	085a8e63          	beq	s5,t0,111fc <reset_vector+0x11b0>
   11164:	00004517          	auipc	a0,0x4
   11168:	87d50513          	addi	a0,a0,-1923 # 149e1 <end_signature+0x911>
   1116c:	695010ef          	jal	ra,13000 <FN_WriteStr>
   11170:	00004517          	auipc	a0,0x4
   11174:	88c50513          	addi	a0,a0,-1908 # 149fc <end_signature+0x92c>
   11178:	689010ef          	jal	ra,13000 <FN_WriteStr>
   1117c:	00004517          	auipc	a0,0x4
   11180:	88f50513          	addi	a0,a0,-1905 # 14a0b <end_signature+0x93b>
   11184:	67d010ef          	jal	ra,13000 <FN_WriteStr>
   11188:	00004517          	auipc	a0,0x4
   1118c:	88b50513          	addi	a0,a0,-1909 # 14a13 <end_signature+0x943>
   11190:	671010ef          	jal	ra,13000 <FN_WriteStr>
   11194:	00004517          	auipc	a0,0x4
   11198:	88350513          	addi	a0,a0,-1917 # 14a17 <end_signature+0x947>
   1119c:	665010ef          	jal	ra,13000 <FN_WriteStr>
   111a0:	00004517          	auipc	a0,0x4
   111a4:	87a50513          	addi	a0,a0,-1926 # 14a1a <end_signature+0x94a>
   111a8:	659010ef          	jal	ra,13000 <FN_WriteStr>
   111ac:	00004517          	auipc	a0,0x4
   111b0:	87250513          	addi	a0,a0,-1934 # 14a1e <end_signature+0x94e>
   111b4:	64d010ef          	jal	ra,13000 <FN_WriteStr>
   111b8:	000a8513          	mv	a0,s5
   111bc:	661010ef          	jal	ra,1301c <FN_WriteA0>
   111c0:	00004517          	auipc	a0,0x4
   111c4:	86050513          	addi	a0,a0,-1952 # 14a20 <end_signature+0x950>
   111c8:	639010ef          	jal	ra,13000 <FN_WriteStr>
   111cc:	00004517          	auipc	a0,0x4
   111d0:	85a50513          	addi	a0,a0,-1958 # 14a26 <end_signature+0x956>
   111d4:	62d010ef          	jal	ra,13000 <FN_WriteStr>
   111d8:	00004517          	auipc	a0,0x4
   111dc:	85950513          	addi	a0,a0,-1959 # 14a31 <end_signature+0x961>
   111e0:	621010ef          	jal	ra,13000 <FN_WriteStr>
   111e4:	06400193          	li	gp,100
   111e8:	0000100f          	fence.i
   111ec:	00018063          	beqz	gp,111ec <reset_vector+0x11a0>
   111f0:	00119193          	slli	gp,gp,0x1
   111f4:	0011e193          	ori	gp,gp,1
   111f8:	00000073          	ecall
   111fc:	0ee00293          	li	t0,238
   11200:	085b0e63          	beq	s6,t0,1129c <reset_vector+0x1250>
   11204:	00004517          	auipc	a0,0x4
   11208:	82f50513          	addi	a0,a0,-2001 # 14a33 <end_signature+0x963>
   1120c:	5f5010ef          	jal	ra,13000 <FN_WriteStr>
   11210:	00004517          	auipc	a0,0x4
   11214:	83e50513          	addi	a0,a0,-1986 # 14a4e <end_signature+0x97e>
   11218:	5e9010ef          	jal	ra,13000 <FN_WriteStr>
   1121c:	00004517          	auipc	a0,0x4
   11220:	84150513          	addi	a0,a0,-1983 # 14a5d <end_signature+0x98d>
   11224:	5dd010ef          	jal	ra,13000 <FN_WriteStr>
   11228:	00004517          	auipc	a0,0x4
   1122c:	83d50513          	addi	a0,a0,-1987 # 14a65 <end_signature+0x995>
   11230:	5d1010ef          	jal	ra,13000 <FN_WriteStr>
   11234:	00004517          	auipc	a0,0x4
   11238:	83550513          	addi	a0,a0,-1995 # 14a69 <end_signature+0x999>
   1123c:	5c5010ef          	jal	ra,13000 <FN_WriteStr>
   11240:	00004517          	auipc	a0,0x4
   11244:	82c50513          	addi	a0,a0,-2004 # 14a6c <end_signature+0x99c>
   11248:	5b9010ef          	jal	ra,13000 <FN_WriteStr>
   1124c:	00004517          	auipc	a0,0x4
   11250:	82450513          	addi	a0,a0,-2012 # 14a70 <end_signature+0x9a0>
   11254:	5ad010ef          	jal	ra,13000 <FN_WriteStr>
   11258:	000b0513          	mv	a0,s6
   1125c:	5c1010ef          	jal	ra,1301c <FN_WriteA0>
   11260:	00004517          	auipc	a0,0x4
   11264:	81250513          	addi	a0,a0,-2030 # 14a72 <end_signature+0x9a2>
   11268:	599010ef          	jal	ra,13000 <FN_WriteStr>
   1126c:	00004517          	auipc	a0,0x4
   11270:	80c50513          	addi	a0,a0,-2036 # 14a78 <end_signature+0x9a8>
   11274:	58d010ef          	jal	ra,13000 <FN_WriteStr>
   11278:	00004517          	auipc	a0,0x4
   1127c:	80b50513          	addi	a0,a0,-2037 # 14a83 <end_signature+0x9b3>
   11280:	581010ef          	jal	ra,13000 <FN_WriteStr>
   11284:	06400193          	li	gp,100
   11288:	0000100f          	fence.i
   1128c:	00018063          	beqz	gp,1128c <reset_vector+0x1240>
   11290:	00119193          	slli	gp,gp,0x1
   11294:	0011e193          	ori	gp,gp,1
   11298:	00000073          	ecall
   1129c:	00e00293          	li	t0,14
   112a0:	085b8e63          	beq	s7,t0,1133c <reset_vector+0x12f0>
   112a4:	00003517          	auipc	a0,0x3
   112a8:	7e150513          	addi	a0,a0,2017 # 14a85 <end_signature+0x9b5>
   112ac:	555010ef          	jal	ra,13000 <FN_WriteStr>
   112b0:	00003517          	auipc	a0,0x3
   112b4:	7f050513          	addi	a0,a0,2032 # 14aa0 <end_signature+0x9d0>
   112b8:	549010ef          	jal	ra,13000 <FN_WriteStr>
   112bc:	00003517          	auipc	a0,0x3
   112c0:	7f350513          	addi	a0,a0,2035 # 14aaf <end_signature+0x9df>
   112c4:	53d010ef          	jal	ra,13000 <FN_WriteStr>
   112c8:	00003517          	auipc	a0,0x3
   112cc:	7ef50513          	addi	a0,a0,2031 # 14ab7 <end_signature+0x9e7>
   112d0:	531010ef          	jal	ra,13000 <FN_WriteStr>
   112d4:	00003517          	auipc	a0,0x3
   112d8:	7e750513          	addi	a0,a0,2023 # 14abb <end_signature+0x9eb>
   112dc:	525010ef          	jal	ra,13000 <FN_WriteStr>
   112e0:	00003517          	auipc	a0,0x3
   112e4:	7de50513          	addi	a0,a0,2014 # 14abe <end_signature+0x9ee>
   112e8:	519010ef          	jal	ra,13000 <FN_WriteStr>
   112ec:	00003517          	auipc	a0,0x3
   112f0:	7d650513          	addi	a0,a0,2006 # 14ac2 <end_signature+0x9f2>
   112f4:	50d010ef          	jal	ra,13000 <FN_WriteStr>
   112f8:	000b8513          	mv	a0,s7
   112fc:	521010ef          	jal	ra,1301c <FN_WriteA0>
   11300:	00003517          	auipc	a0,0x3
   11304:	7c450513          	addi	a0,a0,1988 # 14ac4 <end_signature+0x9f4>
   11308:	4f9010ef          	jal	ra,13000 <FN_WriteStr>
   1130c:	00003517          	auipc	a0,0x3
   11310:	7be50513          	addi	a0,a0,1982 # 14aca <end_signature+0x9fa>
   11314:	4ed010ef          	jal	ra,13000 <FN_WriteStr>
   11318:	00003517          	auipc	a0,0x3
   1131c:	7bd50513          	addi	a0,a0,1981 # 14ad5 <end_signature+0xa05>
   11320:	4e1010ef          	jal	ra,13000 <FN_WriteStr>
   11324:	06400193          	li	gp,100
   11328:	0000100f          	fence.i
   1132c:	00018063          	beqz	gp,1132c <reset_vector+0x12e0>
   11330:	00119193          	slli	gp,gp,0x1
   11334:	0011e193          	ori	gp,gp,1
   11338:	00000073          	ecall
   1133c:	00d00293          	li	t0,13
   11340:	085c0e63          	beq	s8,t0,113dc <reset_vector+0x1390>
   11344:	00003517          	auipc	a0,0x3
   11348:	79350513          	addi	a0,a0,1939 # 14ad7 <end_signature+0xa07>
   1134c:	4b5010ef          	jal	ra,13000 <FN_WriteStr>
   11350:	00003517          	auipc	a0,0x3
   11354:	7a250513          	addi	a0,a0,1954 # 14af2 <end_signature+0xa22>
   11358:	4a9010ef          	jal	ra,13000 <FN_WriteStr>
   1135c:	00003517          	auipc	a0,0x3
   11360:	7a550513          	addi	a0,a0,1957 # 14b01 <end_signature+0xa31>
   11364:	49d010ef          	jal	ra,13000 <FN_WriteStr>
   11368:	00003517          	auipc	a0,0x3
   1136c:	7a150513          	addi	a0,a0,1953 # 14b09 <end_signature+0xa39>
   11370:	491010ef          	jal	ra,13000 <FN_WriteStr>
   11374:	00003517          	auipc	a0,0x3
   11378:	79950513          	addi	a0,a0,1945 # 14b0d <end_signature+0xa3d>
   1137c:	485010ef          	jal	ra,13000 <FN_WriteStr>
   11380:	00003517          	auipc	a0,0x3
   11384:	79050513          	addi	a0,a0,1936 # 14b10 <end_signature+0xa40>
   11388:	479010ef          	jal	ra,13000 <FN_WriteStr>
   1138c:	00003517          	auipc	a0,0x3
   11390:	78850513          	addi	a0,a0,1928 # 14b14 <end_signature+0xa44>
   11394:	46d010ef          	jal	ra,13000 <FN_WriteStr>
   11398:	000c0513          	mv	a0,s8
   1139c:	481010ef          	jal	ra,1301c <FN_WriteA0>
   113a0:	00003517          	auipc	a0,0x3
   113a4:	77650513          	addi	a0,a0,1910 # 14b16 <end_signature+0xa46>
   113a8:	459010ef          	jal	ra,13000 <FN_WriteStr>
   113ac:	00003517          	auipc	a0,0x3
   113b0:	77050513          	addi	a0,a0,1904 # 14b1c <end_signature+0xa4c>
   113b4:	44d010ef          	jal	ra,13000 <FN_WriteStr>
   113b8:	00003517          	auipc	a0,0x3
   113bc:	76f50513          	addi	a0,a0,1903 # 14b27 <end_signature+0xa57>
   113c0:	441010ef          	jal	ra,13000 <FN_WriteStr>
   113c4:	06400193          	li	gp,100
   113c8:	0000100f          	fence.i
   113cc:	00018063          	beqz	gp,113cc <reset_vector+0x1380>
   113d0:	00119193          	slli	gp,gp,0x1
   113d4:	0011e193          	ori	gp,gp,1
   113d8:	00000073          	ecall
   113dc:	0dd00293          	li	t0,221
   113e0:	085c8e63          	beq	s9,t0,1147c <reset_vector+0x1430>
   113e4:	00003517          	auipc	a0,0x3
   113e8:	74550513          	addi	a0,a0,1861 # 14b29 <end_signature+0xa59>
   113ec:	415010ef          	jal	ra,13000 <FN_WriteStr>
   113f0:	00003517          	auipc	a0,0x3
   113f4:	75450513          	addi	a0,a0,1876 # 14b44 <end_signature+0xa74>
   113f8:	409010ef          	jal	ra,13000 <FN_WriteStr>
   113fc:	00003517          	auipc	a0,0x3
   11400:	75750513          	addi	a0,a0,1879 # 14b53 <end_signature+0xa83>
   11404:	3fd010ef          	jal	ra,13000 <FN_WriteStr>
   11408:	00003517          	auipc	a0,0x3
   1140c:	75350513          	addi	a0,a0,1875 # 14b5b <end_signature+0xa8b>
   11410:	3f1010ef          	jal	ra,13000 <FN_WriteStr>
   11414:	00003517          	auipc	a0,0x3
   11418:	74b50513          	addi	a0,a0,1867 # 14b5f <end_signature+0xa8f>
   1141c:	3e5010ef          	jal	ra,13000 <FN_WriteStr>
   11420:	00003517          	auipc	a0,0x3
   11424:	74250513          	addi	a0,a0,1858 # 14b62 <end_signature+0xa92>
   11428:	3d9010ef          	jal	ra,13000 <FN_WriteStr>
   1142c:	00003517          	auipc	a0,0x3
   11430:	73a50513          	addi	a0,a0,1850 # 14b66 <end_signature+0xa96>
   11434:	3cd010ef          	jal	ra,13000 <FN_WriteStr>
   11438:	000c8513          	mv	a0,s9
   1143c:	3e1010ef          	jal	ra,1301c <FN_WriteA0>
   11440:	00003517          	auipc	a0,0x3
   11444:	72850513          	addi	a0,a0,1832 # 14b68 <end_signature+0xa98>
   11448:	3b9010ef          	jal	ra,13000 <FN_WriteStr>
   1144c:	00003517          	auipc	a0,0x3
   11450:	72250513          	addi	a0,a0,1826 # 14b6e <end_signature+0xa9e>
   11454:	3ad010ef          	jal	ra,13000 <FN_WriteStr>
   11458:	00003517          	auipc	a0,0x3
   1145c:	72150513          	addi	a0,a0,1825 # 14b79 <end_signature+0xaa9>
   11460:	3a1010ef          	jal	ra,13000 <FN_WriteStr>
   11464:	06400193          	li	gp,100
   11468:	0000100f          	fence.i
   1146c:	00018063          	beqz	gp,1146c <reset_vector+0x1420>
   11470:	00119193          	slli	gp,gp,0x1
   11474:	0011e193          	ori	gp,gp,1
   11478:	00000073          	ecall
   1147c:	0f000293          	li	t0,240
   11480:	085d0e63          	beq	s10,t0,1151c <reset_vector+0x14d0>
   11484:	00003517          	auipc	a0,0x3
   11488:	6f750513          	addi	a0,a0,1783 # 14b7b <end_signature+0xaab>
   1148c:	375010ef          	jal	ra,13000 <FN_WriteStr>
   11490:	00003517          	auipc	a0,0x3
   11494:	70650513          	addi	a0,a0,1798 # 14b96 <end_signature+0xac6>
   11498:	369010ef          	jal	ra,13000 <FN_WriteStr>
   1149c:	00003517          	auipc	a0,0x3
   114a0:	70950513          	addi	a0,a0,1801 # 14ba5 <end_signature+0xad5>
   114a4:	35d010ef          	jal	ra,13000 <FN_WriteStr>
   114a8:	00003517          	auipc	a0,0x3
   114ac:	70550513          	addi	a0,a0,1797 # 14bad <end_signature+0xadd>
   114b0:	351010ef          	jal	ra,13000 <FN_WriteStr>
   114b4:	00003517          	auipc	a0,0x3
   114b8:	6fd50513          	addi	a0,a0,1789 # 14bb1 <end_signature+0xae1>
   114bc:	345010ef          	jal	ra,13000 <FN_WriteStr>
   114c0:	00003517          	auipc	a0,0x3
   114c4:	6f450513          	addi	a0,a0,1780 # 14bb4 <end_signature+0xae4>
   114c8:	339010ef          	jal	ra,13000 <FN_WriteStr>
   114cc:	00003517          	auipc	a0,0x3
   114d0:	6ec50513          	addi	a0,a0,1772 # 14bb8 <end_signature+0xae8>
   114d4:	32d010ef          	jal	ra,13000 <FN_WriteStr>
   114d8:	000d0513          	mv	a0,s10
   114dc:	341010ef          	jal	ra,1301c <FN_WriteA0>
   114e0:	00003517          	auipc	a0,0x3
   114e4:	6da50513          	addi	a0,a0,1754 # 14bba <end_signature+0xaea>
   114e8:	319010ef          	jal	ra,13000 <FN_WriteStr>
   114ec:	00003517          	auipc	a0,0x3
   114f0:	6d450513          	addi	a0,a0,1748 # 14bc0 <end_signature+0xaf0>
   114f4:	30d010ef          	jal	ra,13000 <FN_WriteStr>
   114f8:	00003517          	auipc	a0,0x3
   114fc:	6d350513          	addi	a0,a0,1747 # 14bcb <end_signature+0xafb>
   11500:	301010ef          	jal	ra,13000 <FN_WriteStr>
   11504:	06400193          	li	gp,100
   11508:	0000100f          	fence.i
   1150c:	00018063          	beqz	gp,1150c <reset_vector+0x14c0>
   11510:	00119193          	slli	gp,gp,0x1
   11514:	0011e193          	ori	gp,gp,1
   11518:	00000073          	ecall
   1151c:	00000293          	li	t0,0
   11520:	085d8e63          	beq	s11,t0,115bc <reset_vector+0x1570>
   11524:	00003517          	auipc	a0,0x3
   11528:	6a950513          	addi	a0,a0,1705 # 14bcd <end_signature+0xafd>
   1152c:	2d5010ef          	jal	ra,13000 <FN_WriteStr>
   11530:	00003517          	auipc	a0,0x3
   11534:	6b850513          	addi	a0,a0,1720 # 14be8 <end_signature+0xb18>
   11538:	2c9010ef          	jal	ra,13000 <FN_WriteStr>
   1153c:	00003517          	auipc	a0,0x3
   11540:	6bb50513          	addi	a0,a0,1723 # 14bf7 <end_signature+0xb27>
   11544:	2bd010ef          	jal	ra,13000 <FN_WriteStr>
   11548:	00003517          	auipc	a0,0x3
   1154c:	6b750513          	addi	a0,a0,1719 # 14bff <end_signature+0xb2f>
   11550:	2b1010ef          	jal	ra,13000 <FN_WriteStr>
   11554:	00003517          	auipc	a0,0x3
   11558:	6af50513          	addi	a0,a0,1711 # 14c03 <end_signature+0xb33>
   1155c:	2a5010ef          	jal	ra,13000 <FN_WriteStr>
   11560:	00003517          	auipc	a0,0x3
   11564:	6a650513          	addi	a0,a0,1702 # 14c06 <end_signature+0xb36>
   11568:	299010ef          	jal	ra,13000 <FN_WriteStr>
   1156c:	00003517          	auipc	a0,0x3
   11570:	69e50513          	addi	a0,a0,1694 # 14c0a <end_signature+0xb3a>
   11574:	28d010ef          	jal	ra,13000 <FN_WriteStr>
   11578:	000d8513          	mv	a0,s11
   1157c:	2a1010ef          	jal	ra,1301c <FN_WriteA0>
   11580:	00003517          	auipc	a0,0x3
   11584:	68c50513          	addi	a0,a0,1676 # 14c0c <end_signature+0xb3c>
   11588:	279010ef          	jal	ra,13000 <FN_WriteStr>
   1158c:	00003517          	auipc	a0,0x3
   11590:	68650513          	addi	a0,a0,1670 # 14c12 <end_signature+0xb42>
   11594:	26d010ef          	jal	ra,13000 <FN_WriteStr>
   11598:	00003517          	auipc	a0,0x3
   1159c:	68550513          	addi	a0,a0,1669 # 14c1d <end_signature+0xb4d>
   115a0:	261010ef          	jal	ra,13000 <FN_WriteStr>
   115a4:	06400193          	li	gp,100
   115a8:	0000100f          	fence.i
   115ac:	00018063          	beqz	gp,115ac <reset_vector+0x1560>
   115b0:	00119193          	slli	gp,gp,0x1
   115b4:	0011e193          	ori	gp,gp,1
   115b8:	00000073          	ecall
   115bc:	0ff00293          	li	t0,255
   115c0:	085e0e63          	beq	t3,t0,1165c <reset_vector+0x1610>
   115c4:	00003517          	auipc	a0,0x3
   115c8:	65b50513          	addi	a0,a0,1627 # 14c1f <end_signature+0xb4f>
   115cc:	235010ef          	jal	ra,13000 <FN_WriteStr>
   115d0:	00003517          	auipc	a0,0x3
   115d4:	66a50513          	addi	a0,a0,1642 # 14c3a <end_signature+0xb6a>
   115d8:	229010ef          	jal	ra,13000 <FN_WriteStr>
   115dc:	00003517          	auipc	a0,0x3
   115e0:	66d50513          	addi	a0,a0,1645 # 14c49 <end_signature+0xb79>
   115e4:	21d010ef          	jal	ra,13000 <FN_WriteStr>
   115e8:	00003517          	auipc	a0,0x3
   115ec:	66950513          	addi	a0,a0,1641 # 14c51 <end_signature+0xb81>
   115f0:	211010ef          	jal	ra,13000 <FN_WriteStr>
   115f4:	00003517          	auipc	a0,0x3
   115f8:	66150513          	addi	a0,a0,1633 # 14c55 <end_signature+0xb85>
   115fc:	205010ef          	jal	ra,13000 <FN_WriteStr>
   11600:	00003517          	auipc	a0,0x3
   11604:	65850513          	addi	a0,a0,1624 # 14c58 <end_signature+0xb88>
   11608:	1f9010ef          	jal	ra,13000 <FN_WriteStr>
   1160c:	00003517          	auipc	a0,0x3
   11610:	65050513          	addi	a0,a0,1616 # 14c5c <end_signature+0xb8c>
   11614:	1ed010ef          	jal	ra,13000 <FN_WriteStr>
   11618:	000e0513          	mv	a0,t3
   1161c:	201010ef          	jal	ra,1301c <FN_WriteA0>
   11620:	00003517          	auipc	a0,0x3
   11624:	63e50513          	addi	a0,a0,1598 # 14c5e <end_signature+0xb8e>
   11628:	1d9010ef          	jal	ra,13000 <FN_WriteStr>
   1162c:	00003517          	auipc	a0,0x3
   11630:	63850513          	addi	a0,a0,1592 # 14c64 <end_signature+0xb94>
   11634:	1cd010ef          	jal	ra,13000 <FN_WriteStr>
   11638:	00003517          	auipc	a0,0x3
   1163c:	63750513          	addi	a0,a0,1591 # 14c6f <end_signature+0xb9f>
   11640:	1c1010ef          	jal	ra,13000 <FN_WriteStr>
   11644:	06400193          	li	gp,100
   11648:	0000100f          	fence.i
   1164c:	00018063          	beqz	gp,1164c <reset_vector+0x1600>
   11650:	00119193          	slli	gp,gp,0x1
   11654:	0011e193          	ori	gp,gp,1
   11658:	00000073          	ecall
   1165c:	00f00293          	li	t0,15
   11660:	085e8e63          	beq	t4,t0,116fc <reset_vector+0x16b0>
   11664:	00003517          	auipc	a0,0x3
   11668:	60d50513          	addi	a0,a0,1549 # 14c71 <end_signature+0xba1>
   1166c:	195010ef          	jal	ra,13000 <FN_WriteStr>
   11670:	00003517          	auipc	a0,0x3
   11674:	61c50513          	addi	a0,a0,1564 # 14c8c <end_signature+0xbbc>
   11678:	189010ef          	jal	ra,13000 <FN_WriteStr>
   1167c:	00003517          	auipc	a0,0x3
   11680:	61f50513          	addi	a0,a0,1567 # 14c9b <end_signature+0xbcb>
   11684:	17d010ef          	jal	ra,13000 <FN_WriteStr>
   11688:	00003517          	auipc	a0,0x3
   1168c:	61b50513          	addi	a0,a0,1563 # 14ca3 <end_signature+0xbd3>
   11690:	171010ef          	jal	ra,13000 <FN_WriteStr>
   11694:	00003517          	auipc	a0,0x3
   11698:	61350513          	addi	a0,a0,1555 # 14ca7 <end_signature+0xbd7>
   1169c:	165010ef          	jal	ra,13000 <FN_WriteStr>
   116a0:	00003517          	auipc	a0,0x3
   116a4:	60a50513          	addi	a0,a0,1546 # 14caa <end_signature+0xbda>
   116a8:	159010ef          	jal	ra,13000 <FN_WriteStr>
   116ac:	00003517          	auipc	a0,0x3
   116b0:	60250513          	addi	a0,a0,1538 # 14cae <end_signature+0xbde>
   116b4:	14d010ef          	jal	ra,13000 <FN_WriteStr>
   116b8:	000e8513          	mv	a0,t4
   116bc:	161010ef          	jal	ra,1301c <FN_WriteA0>
   116c0:	00003517          	auipc	a0,0x3
   116c4:	5f050513          	addi	a0,a0,1520 # 14cb0 <end_signature+0xbe0>
   116c8:	139010ef          	jal	ra,13000 <FN_WriteStr>
   116cc:	00003517          	auipc	a0,0x3
   116d0:	5ea50513          	addi	a0,a0,1514 # 14cb6 <end_signature+0xbe6>
   116d4:	12d010ef          	jal	ra,13000 <FN_WriteStr>
   116d8:	00003517          	auipc	a0,0x3
   116dc:	5e950513          	addi	a0,a0,1513 # 14cc1 <end_signature+0xbf1>
   116e0:	121010ef          	jal	ra,13000 <FN_WriteStr>
   116e4:	06400193          	li	gp,100
   116e8:	0000100f          	fence.i
   116ec:	00018063          	beqz	gp,116ec <reset_vector+0x16a0>
   116f0:	00119193          	slli	gp,gp,0x1
   116f4:	0011e193          	ori	gp,gp,1
   116f8:	00000073          	ecall
   116fc:	00003517          	auipc	a0,0x3
   11700:	5c750513          	addi	a0,a0,1479 # 14cc3 <end_signature+0xbf3>
   11704:	0fd010ef          	jal	ra,13000 <FN_WriteStr>
   11708:	00003517          	auipc	a0,0x3
   1170c:	5d650513          	addi	a0,a0,1494 # 14cde <end_signature+0xc0e>
   11710:	0f1010ef          	jal	ra,13000 <FN_WriteStr>
   11714:	00003a97          	auipc	s5,0x3
   11718:	90ca8a93          	addi	s5,s5,-1780 # 14020 <test_C_data>
   1171c:	00003b17          	auipc	s6,0x3
   11720:	9a4b0b13          	addi	s6,s6,-1628 # 140c0 <test_C_res>
   11724:	000ac003          	lbu	zero,0(s5)
   11728:	000b2023          	sw	zero,0(s6)
   1172c:	00000293          	li	t0,0
   11730:	08500e63          	beq	zero,t0,117cc <reset_vector+0x1780>
   11734:	00003517          	auipc	a0,0x3
   11738:	5cb50513          	addi	a0,a0,1483 # 14cff <end_signature+0xc2f>
   1173c:	0c5010ef          	jal	ra,13000 <FN_WriteStr>
   11740:	00003517          	auipc	a0,0x3
   11744:	5da50513          	addi	a0,a0,1498 # 14d1a <end_signature+0xc4a>
   11748:	0b9010ef          	jal	ra,13000 <FN_WriteStr>
   1174c:	00003517          	auipc	a0,0x3
   11750:	5dd50513          	addi	a0,a0,1501 # 14d29 <end_signature+0xc59>
   11754:	0ad010ef          	jal	ra,13000 <FN_WriteStr>
   11758:	00003517          	auipc	a0,0x3
   1175c:	5d950513          	addi	a0,a0,1497 # 14d31 <end_signature+0xc61>
   11760:	0a1010ef          	jal	ra,13000 <FN_WriteStr>
   11764:	00003517          	auipc	a0,0x3
   11768:	5d150513          	addi	a0,a0,1489 # 14d35 <end_signature+0xc65>
   1176c:	095010ef          	jal	ra,13000 <FN_WriteStr>
   11770:	00003517          	auipc	a0,0x3
   11774:	5c850513          	addi	a0,a0,1480 # 14d38 <end_signature+0xc68>
   11778:	089010ef          	jal	ra,13000 <FN_WriteStr>
   1177c:	00003517          	auipc	a0,0x3
   11780:	5bf50513          	addi	a0,a0,1471 # 14d3b <end_signature+0xc6b>
   11784:	07d010ef          	jal	ra,13000 <FN_WriteStr>
   11788:	00000513          	li	a0,0
   1178c:	091010ef          	jal	ra,1301c <FN_WriteA0>
   11790:	00003517          	auipc	a0,0x3
   11794:	5ad50513          	addi	a0,a0,1453 # 14d3d <end_signature+0xc6d>
   11798:	069010ef          	jal	ra,13000 <FN_WriteStr>
   1179c:	00003517          	auipc	a0,0x3
   117a0:	5a750513          	addi	a0,a0,1447 # 14d43 <end_signature+0xc73>
   117a4:	05d010ef          	jal	ra,13000 <FN_WriteStr>
   117a8:	00003517          	auipc	a0,0x3
   117ac:	5a650513          	addi	a0,a0,1446 # 14d4e <end_signature+0xc7e>
   117b0:	051010ef          	jal	ra,13000 <FN_WriteStr>
   117b4:	06400193          	li	gp,100
   117b8:	0000100f          	fence.i
   117bc:	00018063          	beqz	gp,117bc <reset_vector+0x1770>
   117c0:	00119193          	slli	gp,gp,0x1
   117c4:	0011e193          	ori	gp,gp,1
   117c8:	00000073          	ecall
   117cc:	00003517          	auipc	a0,0x3
   117d0:	58450513          	addi	a0,a0,1412 # 14d50 <end_signature+0xc80>
   117d4:	02d010ef          	jal	ra,13000 <FN_WriteStr>
   117d8:	00003517          	auipc	a0,0x3
   117dc:	59350513          	addi	a0,a0,1427 # 14d6b <end_signature+0xc9b>
   117e0:	021010ef          	jal	ra,13000 <FN_WriteStr>
   117e4:	00003a97          	auipc	s5,0x3
   117e8:	840a8a93          	addi	s5,s5,-1984 # 14024 <test_D_data>
   117ec:	00003b17          	auipc	s6,0x3
   117f0:	8d8b0b13          	addi	s6,s6,-1832 # 140c4 <test_D_res>
   117f4:	000aab83          	lw	s7,0(s5)
   117f8:	000bcc03          	lbu	s8,0(s7)
   117fc:	000c0c93          	mv	s9,s8
   11800:	019b2023          	sw	s9,0(s6)
   11804:	0f000293          	li	t0,240
   11808:	085c8e63          	beq	s9,t0,118a4 <reset_vector+0x1858>
   1180c:	00003517          	auipc	a0,0x3
   11810:	58450513          	addi	a0,a0,1412 # 14d90 <end_signature+0xcc0>
   11814:	7ec010ef          	jal	ra,13000 <FN_WriteStr>
   11818:	00003517          	auipc	a0,0x3
   1181c:	59350513          	addi	a0,a0,1427 # 14dab <end_signature+0xcdb>
   11820:	7e0010ef          	jal	ra,13000 <FN_WriteStr>
   11824:	00003517          	auipc	a0,0x3
   11828:	59650513          	addi	a0,a0,1430 # 14dba <end_signature+0xcea>
   1182c:	7d4010ef          	jal	ra,13000 <FN_WriteStr>
   11830:	00003517          	auipc	a0,0x3
   11834:	59250513          	addi	a0,a0,1426 # 14dc2 <end_signature+0xcf2>
   11838:	7c8010ef          	jal	ra,13000 <FN_WriteStr>
   1183c:	00003517          	auipc	a0,0x3
   11840:	58a50513          	addi	a0,a0,1418 # 14dc6 <end_signature+0xcf6>
   11844:	7bc010ef          	jal	ra,13000 <FN_WriteStr>
   11848:	00003517          	auipc	a0,0x3
   1184c:	58150513          	addi	a0,a0,1409 # 14dc9 <end_signature+0xcf9>
   11850:	7b0010ef          	jal	ra,13000 <FN_WriteStr>
   11854:	00003517          	auipc	a0,0x3
   11858:	57950513          	addi	a0,a0,1401 # 14dcd <end_signature+0xcfd>
   1185c:	7a4010ef          	jal	ra,13000 <FN_WriteStr>
   11860:	000c8513          	mv	a0,s9
   11864:	7b8010ef          	jal	ra,1301c <FN_WriteA0>
   11868:	00003517          	auipc	a0,0x3
   1186c:	56750513          	addi	a0,a0,1383 # 14dcf <end_signature+0xcff>
   11870:	790010ef          	jal	ra,13000 <FN_WriteStr>
   11874:	00003517          	auipc	a0,0x3
   11878:	56150513          	addi	a0,a0,1377 # 14dd5 <end_signature+0xd05>
   1187c:	784010ef          	jal	ra,13000 <FN_WriteStr>
   11880:	00003517          	auipc	a0,0x3
   11884:	56050513          	addi	a0,a0,1376 # 14de0 <end_signature+0xd10>
   11888:	778010ef          	jal	ra,13000 <FN_WriteStr>
   1188c:	06400193          	li	gp,100
   11890:	0000100f          	fence.i
   11894:	00018063          	beqz	gp,11894 <reset_vector+0x1848>
   11898:	00119193          	slli	gp,gp,0x1
   1189c:	0011e193          	ori	gp,gp,1
   118a0:	00000073          	ecall
   118a4:	00003517          	auipc	a0,0x3
   118a8:	53e50513          	addi	a0,a0,1342 # 14de2 <end_signature+0xd12>
   118ac:	754010ef          	jal	ra,13000 <FN_WriteStr>
   118b0:	00003517          	auipc	a0,0x3
   118b4:	54d50513          	addi	a0,a0,1357 # 14dfd <end_signature+0xd2d>
   118b8:	748010ef          	jal	ra,13000 <FN_WriteStr>
   118bc:	00002c97          	auipc	s9,0x2
   118c0:	770c8c93          	addi	s9,s9,1904 # 1402c <test_E1_data>
   118c4:	00003d17          	auipc	s10,0x3
   118c8:	804d0d13          	addi	s10,s10,-2044 # 140c8 <test_E1_res>
   118cc:	000ccc83          	lbu	s9,0(s9)
   118d0:	019d2023          	sw	s9,0(s10)
   118d4:	01000293          	li	t0,16
   118d8:	085c8e63          	beq	s9,t0,11974 <reset_vector+0x1928>
   118dc:	00003517          	auipc	a0,0x3
   118e0:	56550513          	addi	a0,a0,1381 # 14e41 <end_signature+0xd71>
   118e4:	71c010ef          	jal	ra,13000 <FN_WriteStr>
   118e8:	00003517          	auipc	a0,0x3
   118ec:	57450513          	addi	a0,a0,1396 # 14e5c <end_signature+0xd8c>
   118f0:	710010ef          	jal	ra,13000 <FN_WriteStr>
   118f4:	00003517          	auipc	a0,0x3
   118f8:	57750513          	addi	a0,a0,1399 # 14e6b <end_signature+0xd9b>
   118fc:	704010ef          	jal	ra,13000 <FN_WriteStr>
   11900:	00003517          	auipc	a0,0x3
   11904:	57350513          	addi	a0,a0,1395 # 14e73 <end_signature+0xda3>
   11908:	6f8010ef          	jal	ra,13000 <FN_WriteStr>
   1190c:	00003517          	auipc	a0,0x3
   11910:	56b50513          	addi	a0,a0,1387 # 14e77 <end_signature+0xda7>
   11914:	6ec010ef          	jal	ra,13000 <FN_WriteStr>
   11918:	00003517          	auipc	a0,0x3
   1191c:	56250513          	addi	a0,a0,1378 # 14e7a <end_signature+0xdaa>
   11920:	6e0010ef          	jal	ra,13000 <FN_WriteStr>
   11924:	00003517          	auipc	a0,0x3
   11928:	55a50513          	addi	a0,a0,1370 # 14e7e <end_signature+0xdae>
   1192c:	6d4010ef          	jal	ra,13000 <FN_WriteStr>
   11930:	000c8513          	mv	a0,s9
   11934:	6e8010ef          	jal	ra,1301c <FN_WriteA0>
   11938:	00003517          	auipc	a0,0x3
   1193c:	54850513          	addi	a0,a0,1352 # 14e80 <end_signature+0xdb0>
   11940:	6c0010ef          	jal	ra,13000 <FN_WriteStr>
   11944:	00003517          	auipc	a0,0x3
   11948:	54250513          	addi	a0,a0,1346 # 14e86 <end_signature+0xdb6>
   1194c:	6b4010ef          	jal	ra,13000 <FN_WriteStr>
   11950:	00003517          	auipc	a0,0x3
   11954:	54150513          	addi	a0,a0,1345 # 14e91 <end_signature+0xdc1>
   11958:	6a8010ef          	jal	ra,13000 <FN_WriteStr>
   1195c:	06400193          	li	gp,100
   11960:	0000100f          	fence.i
   11964:	00018063          	beqz	gp,11964 <reset_vector+0x1918>
   11968:	00119193          	slli	gp,gp,0x1
   1196c:	0011e193          	ori	gp,gp,1
   11970:	00000073          	ecall
   11974:	00003517          	auipc	a0,0x3
   11978:	51f50513          	addi	a0,a0,1311 # 14e93 <end_signature+0xdc3>
   1197c:	684010ef          	jal	ra,13000 <FN_WriteStr>
   11980:	00003517          	auipc	a0,0x3
   11984:	52e50513          	addi	a0,a0,1326 # 14eae <end_signature+0xdde>
   11988:	678010ef          	jal	ra,13000 <FN_WriteStr>
   1198c:	00002d97          	auipc	s11,0x2
   11990:	6a5d8d93          	addi	s11,s11,1701 # 14031 <test_E2_data+0x1>
   11994:	00002e17          	auipc	t3,0x2
   11998:	738e0e13          	addi	t3,t3,1848 # 140cc <test_E2_res>
   1199c:	fffdcd83          	lbu	s11,-1(s11)
   119a0:	01be2023          	sw	s11,0(t3)
   119a4:	09800293          	li	t0,152
   119a8:	085d8e63          	beq	s11,t0,11a44 <reset_vector+0x19f8>
   119ac:	00003517          	auipc	a0,0x3
   119b0:	55850513          	addi	a0,a0,1368 # 14f04 <end_signature+0xe34>
   119b4:	64c010ef          	jal	ra,13000 <FN_WriteStr>
   119b8:	00003517          	auipc	a0,0x3
   119bc:	56750513          	addi	a0,a0,1383 # 14f1f <end_signature+0xe4f>
   119c0:	640010ef          	jal	ra,13000 <FN_WriteStr>
   119c4:	00003517          	auipc	a0,0x3
   119c8:	56a50513          	addi	a0,a0,1386 # 14f2e <end_signature+0xe5e>
   119cc:	634010ef          	jal	ra,13000 <FN_WriteStr>
   119d0:	00003517          	auipc	a0,0x3
   119d4:	56650513          	addi	a0,a0,1382 # 14f36 <end_signature+0xe66>
   119d8:	628010ef          	jal	ra,13000 <FN_WriteStr>
   119dc:	00003517          	auipc	a0,0x3
   119e0:	55e50513          	addi	a0,a0,1374 # 14f3a <end_signature+0xe6a>
   119e4:	61c010ef          	jal	ra,13000 <FN_WriteStr>
   119e8:	00003517          	auipc	a0,0x3
   119ec:	55550513          	addi	a0,a0,1365 # 14f3d <end_signature+0xe6d>
   119f0:	610010ef          	jal	ra,13000 <FN_WriteStr>
   119f4:	00003517          	auipc	a0,0x3
   119f8:	54d50513          	addi	a0,a0,1357 # 14f41 <end_signature+0xe71>
   119fc:	604010ef          	jal	ra,13000 <FN_WriteStr>
   11a00:	000d8513          	mv	a0,s11
   11a04:	618010ef          	jal	ra,1301c <FN_WriteA0>
   11a08:	00003517          	auipc	a0,0x3
   11a0c:	53b50513          	addi	a0,a0,1339 # 14f43 <end_signature+0xe73>
   11a10:	5f0010ef          	jal	ra,13000 <FN_WriteStr>
   11a14:	00003517          	auipc	a0,0x3
   11a18:	53550513          	addi	a0,a0,1333 # 14f49 <end_signature+0xe79>
   11a1c:	5e4010ef          	jal	ra,13000 <FN_WriteStr>
   11a20:	00003517          	auipc	a0,0x3
   11a24:	53450513          	addi	a0,a0,1332 # 14f54 <end_signature+0xe84>
   11a28:	5d8010ef          	jal	ra,13000 <FN_WriteStr>
   11a2c:	06400193          	li	gp,100
   11a30:	0000100f          	fence.i
   11a34:	00018063          	beqz	gp,11a34 <reset_vector+0x19e8>
   11a38:	00119193          	slli	gp,gp,0x1
   11a3c:	0011e193          	ori	gp,gp,1
   11a40:	00000073          	ecall
   11a44:	00003517          	auipc	a0,0x3
   11a48:	51250513          	addi	a0,a0,1298 # 14f56 <end_signature+0xe86>
   11a4c:	5b4010ef          	jal	ra,13000 <FN_WriteStr>
   11a50:	00003517          	auipc	a0,0x3
   11a54:	52250513          	addi	a0,a0,1314 # 14f72 <end_signature+0xea2>
   11a58:	5a8010ef          	jal	ra,13000 <FN_WriteStr>
   11a5c:	0000100f          	fence.i
   11a60:	00100193          	li	gp,1
   11a64:	00000073          	ecall
   11a68:	c0001073          	unimp
	...

Disassembly of section .tohost:

00012000 <tohost>:
	...

00012100 <fromhost>:
	...

Disassembly of section .text:

00013000 <FN_WriteStr>:
   13000:	00050293          	mv	t0,a0
   13004:	0002c503          	lbu	a0,0(t0)
   13008:	00128293          	addi	t0,t0,1
   1300c:	00050663          	beqz	a0,13018 <FN_WriteStr+0x18>
   13010:	0005200b          	0x5200b
   13014:	ff1ff06f          	j	13004 <FN_WriteStr+0x4>
   13018:	00008067          	ret

0001301c <FN_WriteA0>:
   1301c:	00050293          	mv	t0,a0
   13020:	fff00513          	li	a0,-1
   13024:	01f55513          	srli	a0,a0,0x1f
   13028:	00155513          	srli	a0,a0,0x1
   1302c:	02051463          	bnez	a0,13054 <FN_WriteA0_64>

00013030 <FN_WriteA0_32>:
   13030:	00800313          	li	t1,8
   13034:	00439393          	slli	t2,t2,0x4
   13038:	00f2f513          	andi	a0,t0,15
   1303c:	0042d293          	srli	t0,t0,0x4
   13040:	00a3e3b3          	or	t2,t2,a0
   13044:	fff30313          	addi	t1,t1,-1
   13048:	fe0316e3          	bnez	t1,13034 <FN_WriteA0_32+0x4>
   1304c:	00800313          	li	t1,8
   13050:	0240006f          	j	13074 <FN_WriteA0_common>

00013054 <FN_WriteA0_64>:
   13054:	01000313          	li	t1,16
   13058:	00439393          	slli	t2,t2,0x4
   1305c:	00f2f513          	andi	a0,t0,15
   13060:	0042d293          	srli	t0,t0,0x4
   13064:	00a3e3b3          	or	t2,t2,a0
   13068:	fff30313          	addi	t1,t1,-1
   1306c:	fe0316e3          	bnez	t1,13058 <FN_WriteA0_64+0x4>
   13070:	01000313          	li	t1,16

00013074 <FN_WriteA0_common>:
   13074:	00a00293          	li	t0,10
   13078:	00f3f513          	andi	a0,t2,15
   1307c:	00554663          	blt	a0,t0,13088 <FN_WriteA0_common+0x14>
   13080:	05750513          	addi	a0,a0,87
   13084:	0080006f          	j	1308c <FN_WriteA0_common+0x18>
   13088:	03050513          	addi	a0,a0,48
   1308c:	0005200b          	0x5200b
   13090:	0043d393          	srli	t2,t2,0x4
   13094:	fff30313          	addi	t1,t1,-1
   13098:	fe0310e3          	bnez	t1,13078 <FN_WriteA0_common+0x4>
   1309c:	00008067          	ret
