
/Users/benselfridge/RISCV/riscv-compliance/work//I-LHU-01.elf:     file format elf32-littleriscv


Disassembly of section .text.init:

00010000 <_start>:
   10000:	04c0006f          	j	1004c <reset_vector>

00010004 <trap_vector>:
   10004:	34202f73          	csrr	t5,mcause
   10008:	00800f93          	li	t6,8
   1000c:	03ff0a63          	beq	t5,t6,10040 <write_tohost>
   10010:	00900f93          	li	t6,9
   10014:	03ff0663          	beq	t5,t6,10040 <write_tohost>
   10018:	00b00f93          	li	t6,11
   1001c:	03ff0263          	beq	t5,t6,10040 <write_tohost>
   10020:	ffff0f17          	auipc	t5,0xffff0
   10024:	fe0f0f13          	addi	t5,t5,-32 # 0 <_start-0x10000>
   10028:	000f0463          	beqz	t5,10030 <trap_vector+0x2c>
   1002c:	000f0067          	jr	t5
   10030:	34202f73          	csrr	t5,mcause
   10034:	000f5463          	bgez	t5,1003c <handle_exception>
   10038:	0040006f          	j	1003c <handle_exception>

0001003c <handle_exception>:
   1003c:	5391e193          	ori	gp,gp,1337

00010040 <write_tohost>:
   10040:	00001f17          	auipc	t5,0x1
   10044:	fc3f2023          	sw	gp,-64(t5) # 11000 <tohost>
   10048:	ff9ff06f          	j	10040 <write_tohost>

0001004c <reset_vector>:
   1004c:	f1402573          	csrr	a0,mhartid
   10050:	00051063          	bnez	a0,10050 <reset_vector+0x4>
   10054:	00000297          	auipc	t0,0x0
   10058:	01028293          	addi	t0,t0,16 # 10064 <reset_vector+0x18>
   1005c:	30529073          	csrw	mtvec,t0
   10060:	18005073          	csrwi	satp,0
   10064:	00000297          	auipc	t0,0x0
   10068:	01c28293          	addi	t0,t0,28 # 10080 <reset_vector+0x34>
   1006c:	30529073          	csrw	mtvec,t0
   10070:	fff00293          	li	t0,-1
   10074:	3b029073          	csrw	pmpaddr0,t0
   10078:	01f00293          	li	t0,31
   1007c:	3a029073          	csrw	pmpcfg0,t0
   10080:	00000297          	auipc	t0,0x0
   10084:	01828293          	addi	t0,t0,24 # 10098 <reset_vector+0x4c>
   10088:	30529073          	csrw	mtvec,t0
   1008c:	30205073          	csrwi	medeleg,0
   10090:	30305073          	csrwi	mideleg,0
   10094:	30405073          	csrwi	mie,0
   10098:	00000193          	li	gp,0
   1009c:	00000297          	auipc	t0,0x0
   100a0:	f6828293          	addi	t0,t0,-152 # 10004 <trap_vector>
   100a4:	30529073          	csrw	mtvec,t0
   100a8:	00100513          	li	a0,1
   100ac:	01f51513          	slli	a0,a0,0x1f
   100b0:	00054863          	bltz	a0,100c0 <reset_vector+0x74>
   100b4:	00000013          	nop
   100b8:	00100193          	li	gp,1
   100bc:	00000073          	ecall
   100c0:	ffff0297          	auipc	t0,0xffff0
   100c4:	f4028293          	addi	t0,t0,-192 # 0 <_start-0x10000>
   100c8:	00028e63          	beqz	t0,100e4 <reset_vector+0x98>
   100cc:	10529073          	csrw	stvec,t0
   100d0:	0000b2b7          	lui	t0,0xb
   100d4:	10928293          	addi	t0,t0,265 # b109 <_start-0x4ef7>
   100d8:	30229073          	csrw	medeleg,t0
   100dc:	30202373          	csrr	t1,medeleg
   100e0:	f4629ee3          	bne	t0,t1,1003c <handle_exception>
   100e4:	30005073          	csrwi	mstatus,0
   100e8:	00002537          	lui	a0,0x2
   100ec:	80050513          	addi	a0,a0,-2048 # 1800 <_start-0xe800>
   100f0:	30052073          	csrs	mstatus,a0
   100f4:	00000297          	auipc	t0,0x0
   100f8:	01428293          	addi	t0,t0,20 # 10108 <reset_vector+0xbc>
   100fc:	34129073          	csrw	mepc,t0
   10100:	f1402573          	csrr	a0,mhartid
   10104:	30200073          	mret
   10108:	00002f97          	auipc	t6,0x2
   1010c:	ef8f8f93          	addi	t6,t6,-264 # 12000 <test_A1_data>
   10110:	00002117          	auipc	sp,0x2
   10114:	f3010113          	addi	sp,sp,-208 # 12040 <begin_signature>
   10118:	000fd183          	lhu	gp,0(t6)
   1011c:	002fd203          	lhu	tp,2(t6)
   10120:	00312023          	sw	gp,0(sp)
   10124:	00412223          	sw	tp,4(sp)
   10128:	00002c17          	auipc	s8,0x2
   1012c:	eddc0c13          	addi	s8,s8,-291 # 12005 <test_A2_data+0x1>
   10130:	00002297          	auipc	t0,0x2
   10134:	f1828293          	addi	t0,t0,-232 # 12048 <test_A2_res>
   10138:	fffc5c83          	lhu	s9,-1(s8)
   1013c:	001c5d03          	lhu	s10,1(s8)
   10140:	0192a023          	sw	s9,0(t0)
   10144:	01a2a223          	sw	s10,4(t0)
   10148:	00002397          	auipc	t2,0x2
   1014c:	ebf38393          	addi	t2,t2,-321 # 12007 <test_A2_data+0x3>
   10150:	00002417          	auipc	s0,0x2
   10154:	f0040413          	addi	s0,s0,-256 # 12050 <test_A3_res>
   10158:	0013df03          	lhu	t5,1(t2)
   1015c:	0033df83          	lhu	t6,3(t2)
   10160:	01e42023          	sw	t5,0(s0)
   10164:	01f42223          	sw	t6,4(s0)
   10168:	00002517          	auipc	a0,0x2
   1016c:	6a450513          	addi	a0,a0,1700 # 1280c <_end+0x77c>
   10170:	00002597          	auipc	a1,0x2
   10174:	ee858593          	addi	a1,a1,-280 # 12058 <test_A4_res>
   10178:	80055603          	lhu	a2,-2048(a0)
   1017c:	80255683          	lhu	a3,-2046(a0)
   10180:	00c5a023          	sw	a2,0(a1)
   10184:	00d5a223          	sw	a3,4(a1)
   10188:	00001697          	auipc	a3,0x1
   1018c:	68b68693          	addi	a3,a3,1675 # 11813 <fromhost+0x713>
   10190:	00002717          	auipc	a4,0x2
   10194:	ed070713          	addi	a4,a4,-304 # 12060 <test_A5_res>
   10198:	7fd6d783          	lhu	a5,2045(a3)
   1019c:	7ff6d803          	lhu	a6,2047(a3)
   101a0:	00f72023          	sw	a5,0(a4)
   101a4:	01072223          	sw	a6,4(a4)
   101a8:	00002817          	auipc	a6,0x2
   101ac:	e7080813          	addi	a6,a6,-400 # 12018 <test_B_data>
   101b0:	00002897          	auipc	a7,0x2
   101b4:	eb888893          	addi	a7,a7,-328 # 12068 <test_B_res>
   101b8:	ffc85903          	lhu	s2,-4(a6)
   101bc:	ffe85983          	lhu	s3,-2(a6)
   101c0:	00085a03          	lhu	s4,0(a6)
   101c4:	00285a83          	lhu	s5,2(a6)
   101c8:	00485b03          	lhu	s6,4(a6)
   101cc:	00685b83          	lhu	s7,6(a6)
   101d0:	0128a023          	sw	s2,0(a7)
   101d4:	0138a223          	sw	s3,4(a7)
   101d8:	0148a423          	sw	s4,8(a7)
   101dc:	0158a623          	sw	s5,12(a7)
   101e0:	0168a823          	sw	s6,16(a7)
   101e4:	0178aa23          	sw	s7,20(a7)
   101e8:	00002a97          	auipc	s5,0x2
   101ec:	e38a8a93          	addi	s5,s5,-456 # 12020 <test_C_data>
   101f0:	00002b17          	auipc	s6,0x2
   101f4:	e90b0b13          	addi	s6,s6,-368 # 12080 <test_C_res>
   101f8:	000ad003          	lhu	zero,0(s5)
   101fc:	000b2023          	sw	zero,0(s6)
   10200:	00002a97          	auipc	s5,0x2
   10204:	e24a8a93          	addi	s5,s5,-476 # 12024 <test_D_data>
   10208:	00002b17          	auipc	s6,0x2
   1020c:	e7cb0b13          	addi	s6,s6,-388 # 12084 <test_D_res>
   10210:	000aab83          	lw	s7,0(s5)
   10214:	000bdc03          	lhu	s8,0(s7)
   10218:	000c0c93          	mv	s9,s8
   1021c:	019b2023          	sw	s9,0(s6)
   10220:	00002c97          	auipc	s9,0x2
   10224:	e0cc8c93          	addi	s9,s9,-500 # 1202c <test_E1_data>
   10228:	00002d17          	auipc	s10,0x2
   1022c:	e60d0d13          	addi	s10,s10,-416 # 12088 <test_E1_res>
   10230:	000cdc83          	lhu	s9,0(s9)
   10234:	019d2023          	sw	s9,0(s10)
   10238:	00002d97          	auipc	s11,0x2
   1023c:	df9d8d93          	addi	s11,s11,-519 # 12031 <test_E2_data+0x1>
   10240:	00002e17          	auipc	t3,0x2
   10244:	e4ce0e13          	addi	t3,t3,-436 # 1208c <test_E2_res>
   10248:	fffddd83          	lhu	s11,-1(s11)
   1024c:	01be2023          	sw	s11,0(t3)
   10250:	00000013          	nop
   10254:	00100193          	li	gp,1
   10258:	00000073          	ecall
   1025c:	c0001073          	unimp
	...

Disassembly of section .tohost:

00011000 <tohost>:
	...

00011100 <fromhost>:
	...

Disassembly of section .data:

00012000 <test_A1_data>:
   12000:	f222                	fsw	fs0,36(sp)
   12002:	11f1                	addi	gp,gp,-4

00012004 <test_A2_data>:
   12004:	44f4                	lw	a3,76(s1)
   12006:	          	0xf666f333

00012008 <test_A3_data>:
   12008:	f666                	fsw	fs9,44(sp)
   1200a:	55f5                	li	a1,-3

0001200c <test_A4_data>:
   1200c:	88f8                	0x88f8
   1200e:	          	0xaaaf777

00012010 <test_A5_data>:
   12010:	0aaa                	slli	s5,s5,0xa
   12012:	9909                	andi	a0,a0,-30
   12014:	cc0c                	sw	a1,24(s0)
   12016:	          	0xeee0bbb

00012018 <test_B_data>:
   12018:	0eee                	slli	t4,t4,0x1b
   1201a:	dd0d                	beqz	a0,11f54 <fromhost+0xe54>
   1201c:	00f0                	addi	a2,sp,76
   1201e:	0fff                	0xfff

00012020 <test_C_data>:
   12020:	5678                	lw	a4,108(a2)
   12022:	1234                	addi	a3,sp,296

00012024 <test_D_data>:
   12024:	2028                	fld	fa0,64(s0)
   12026:	0001                	nop

00012028 <test_D_data2_label>:
   12028:	def0                	sw	a2,124(a3)
   1202a:	9abc                	0x9abc

0001202c <test_E1_data>:
   1202c:	3210                	fld	fa2,32(a2)
   1202e:	7654                	flw	fa3,44(a2)

00012030 <test_E2_data>:
   12030:	ba98                	fsd	fa4,48(a3)
   12032:	fedc                	fsw	fa5,60(a3)
	...

00012040 <begin_signature>:
   12040:	ffff                	0xffff
   12042:	ffff                	0xffff
   12044:	ffff                	0xffff
   12046:	ffff                	0xffff

00012048 <test_A2_res>:
   12048:	ffff                	0xffff
   1204a:	ffff                	0xffff
   1204c:	ffff                	0xffff
   1204e:	ffff                	0xffff

00012050 <test_A3_res>:
   12050:	ffff                	0xffff
   12052:	ffff                	0xffff
   12054:	ffff                	0xffff
   12056:	ffff                	0xffff

00012058 <test_A4_res>:
   12058:	ffff                	0xffff
   1205a:	ffff                	0xffff
   1205c:	ffff                	0xffff
   1205e:	ffff                	0xffff

00012060 <test_A5_res>:
   12060:	ffff                	0xffff
   12062:	ffff                	0xffff
   12064:	ffff                	0xffff
   12066:	ffff                	0xffff

00012068 <test_B_res>:
   12068:	ffff                	0xffff
   1206a:	ffff                	0xffff
   1206c:	ffff                	0xffff
   1206e:	ffff                	0xffff
   12070:	ffff                	0xffff
   12072:	ffff                	0xffff
   12074:	ffff                	0xffff
   12076:	ffff                	0xffff
   12078:	ffff                	0xffff
   1207a:	ffff                	0xffff
   1207c:	ffff                	0xffff
   1207e:	ffff                	0xffff

00012080 <test_C_res>:
   12080:	ffff                	0xffff
   12082:	ffff                	0xffff

00012084 <test_D_res>:
   12084:	ffff                	0xffff
   12086:	ffff                	0xffff

00012088 <test_E1_res>:
   12088:	ffff                	0xffff
   1208a:	ffff                	0xffff

0001208c <test_E2_res>:
   1208c:	ffff                	0xffff
   1208e:	ffff                	0xffff
