
/home/benselfridge/riscv-compliance/work//I-LHU-01.elf:     file format elf32-littleriscv


Disassembly of section .text.init:

00010000 <_start>:
   10000:	04c0006f          	j	1004c <reset_vector>

00010004 <trap_vector>:
   10004:	34202f73          	csrr	t5,mcause
   10008:	00800f93          	li	t6,8
   1000c:	03ff0a63          	beq	t5,t6,10040 <write_tohost>
   10010:	00900f93          	li	t6,9
   10014:	03ff0663          	beq	t5,t6,10040 <write_tohost>
   10018:	00b00f93          	li	t6,11
   1001c:	03ff0263          	beq	t5,t6,10040 <write_tohost>
   10020:	ffff0f17          	auipc	t5,0xffff0
   10024:	fe0f0f13          	addi	t5,t5,-32 # 0 <_start-0x10000>
   10028:	000f0463          	beqz	t5,10030 <trap_vector+0x2c>
   1002c:	000f0067          	jr	t5
   10030:	34202f73          	csrr	t5,mcause
   10034:	000f5463          	bgez	t5,1003c <handle_exception>
   10038:	0040006f          	j	1003c <handle_exception>

0001003c <handle_exception>:
   1003c:	5391e193          	ori	gp,gp,1337

00010040 <write_tohost>:
   10040:	00002f17          	auipc	t5,0x2
   10044:	fc3f2023          	sw	gp,-64(t5) # 12000 <tohost>
   10048:	ff9ff06f          	j	10040 <write_tohost>

0001004c <reset_vector>:
   1004c:	f1402573          	csrr	a0,mhartid
   10050:	00051063          	bnez	a0,10050 <reset_vector+0x4>
   10054:	00000297          	auipc	t0,0x0
   10058:	01028293          	addi	t0,t0,16 # 10064 <reset_vector+0x18>
   1005c:	30529073          	csrw	mtvec,t0
   10060:	18005073          	csrwi	satp,0
   10064:	00000297          	auipc	t0,0x0
   10068:	01c28293          	addi	t0,t0,28 # 10080 <reset_vector+0x34>
   1006c:	30529073          	csrw	mtvec,t0
   10070:	fff00293          	li	t0,-1
   10074:	3b029073          	csrw	pmpaddr0,t0
   10078:	01f00293          	li	t0,31
   1007c:	3a029073          	csrw	pmpcfg0,t0
   10080:	00000297          	auipc	t0,0x0
   10084:	01828293          	addi	t0,t0,24 # 10098 <reset_vector+0x4c>
   10088:	30529073          	csrw	mtvec,t0
   1008c:	30205073          	csrwi	medeleg,0
   10090:	30305073          	csrwi	mideleg,0
   10094:	30405073          	csrwi	mie,0
   10098:	00000193          	li	gp,0
   1009c:	00000297          	auipc	t0,0x0
   100a0:	f6828293          	addi	t0,t0,-152 # 10004 <trap_vector>
   100a4:	30529073          	csrw	mtvec,t0
   100a8:	00100513          	li	a0,1
   100ac:	01f51513          	slli	a0,a0,0x1f
   100b0:	00054863          	bltz	a0,100c0 <reset_vector+0x74>
   100b4:	0000100f          	fence.i
   100b8:	00100193          	li	gp,1
   100bc:	00000073          	ecall
   100c0:	ffff0297          	auipc	t0,0xffff0
   100c4:	f4028293          	addi	t0,t0,-192 # 0 <_start-0x10000>
   100c8:	00028e63          	beqz	t0,100e4 <reset_vector+0x98>
   100cc:	10529073          	csrw	stvec,t0
   100d0:	0000b2b7          	lui	t0,0xb
   100d4:	10928293          	addi	t0,t0,265 # b109 <_start-0x4ef7>
   100d8:	30229073          	csrw	medeleg,t0
   100dc:	30202373          	csrr	t1,medeleg
   100e0:	f4629ee3          	bne	t0,t1,1003c <handle_exception>
   100e4:	30005073          	csrwi	mstatus,0
   100e8:	00002537          	lui	a0,0x2
   100ec:	80050513          	addi	a0,a0,-2048 # 1800 <_start-0xe800>
   100f0:	30052073          	csrs	mstatus,a0
   100f4:	00000297          	auipc	t0,0x0
   100f8:	01428293          	addi	t0,t0,20 # 10108 <reset_vector+0xbc>
   100fc:	34129073          	csrw	mepc,t0
   10100:	f1402573          	csrr	a0,mhartid
   10104:	30200073          	mret
   10108:	00000293          	li	t0,0
   1010c:	08500e63          	beq	zero,t0,101a8 <reset_vector+0x15c>
   10110:	00004517          	auipc	a0,0x4
   10114:	f8050513          	addi	a0,a0,-128 # 14090 <end_signature>
   10118:	6e9020ef          	jal	ra,13000 <FN_WriteStr>
   1011c:	00004517          	auipc	a0,0x4
   10120:	f8f50513          	addi	a0,a0,-113 # 140ab <end_signature+0x1b>
   10124:	6dd020ef          	jal	ra,13000 <FN_WriteStr>
   10128:	00004517          	auipc	a0,0x4
   1012c:	f9250513          	addi	a0,a0,-110 # 140ba <end_signature+0x2a>
   10130:	6d1020ef          	jal	ra,13000 <FN_WriteStr>
   10134:	00004517          	auipc	a0,0x4
   10138:	f8e50513          	addi	a0,a0,-114 # 140c2 <end_signature+0x32>
   1013c:	6c5020ef          	jal	ra,13000 <FN_WriteStr>
   10140:	00004517          	auipc	a0,0x4
   10144:	f8550513          	addi	a0,a0,-123 # 140c5 <end_signature+0x35>
   10148:	6b9020ef          	jal	ra,13000 <FN_WriteStr>
   1014c:	00004517          	auipc	a0,0x4
   10150:	f7c50513          	addi	a0,a0,-132 # 140c8 <end_signature+0x38>
   10154:	6ad020ef          	jal	ra,13000 <FN_WriteStr>
   10158:	00004517          	auipc	a0,0x4
   1015c:	f7350513          	addi	a0,a0,-141 # 140cb <end_signature+0x3b>
   10160:	6a1020ef          	jal	ra,13000 <FN_WriteStr>
   10164:	00000513          	li	a0,0
   10168:	6b5020ef          	jal	ra,1301c <FN_WriteA0>
   1016c:	00004517          	auipc	a0,0x4
   10170:	f6150513          	addi	a0,a0,-159 # 140cd <end_signature+0x3d>
   10174:	68d020ef          	jal	ra,13000 <FN_WriteStr>
   10178:	00004517          	auipc	a0,0x4
   1017c:	f5b50513          	addi	a0,a0,-165 # 140d3 <end_signature+0x43>
   10180:	681020ef          	jal	ra,13000 <FN_WriteStr>
   10184:	00004517          	auipc	a0,0x4
   10188:	f5a50513          	addi	a0,a0,-166 # 140de <end_signature+0x4e>
   1018c:	675020ef          	jal	ra,13000 <FN_WriteStr>
   10190:	06400193          	li	gp,100
   10194:	0000100f          	fence.i
   10198:	00018063          	beqz	gp,10198 <reset_vector+0x14c>
   1019c:	00119193          	slli	gp,gp,0x1
   101a0:	0011e193          	ori	gp,gp,1
   101a4:	00000073          	ecall
   101a8:	00004517          	auipc	a0,0x4
   101ac:	f3850513          	addi	a0,a0,-200 # 140e0 <end_signature+0x50>
   101b0:	651020ef          	jal	ra,13000 <FN_WriteStr>
   101b4:	00004517          	auipc	a0,0x4
   101b8:	f5e50513          	addi	a0,a0,-162 # 14112 <end_signature+0x82>
   101bc:	645020ef          	jal	ra,13000 <FN_WriteStr>
   101c0:	00004f97          	auipc	t6,0x4
   101c4:	e40f8f93          	addi	t6,t6,-448 # 14000 <test_A1_data>
   101c8:	00004117          	auipc	sp,0x4
   101cc:	e7810113          	addi	sp,sp,-392 # 14040 <begin_signature>
   101d0:	000fd183          	lhu	gp,0(t6)
   101d4:	002fd203          	lhu	tp,2(t6)
   101d8:	00312023          	sw	gp,0(sp)
   101dc:	00412223          	sw	tp,4(sp)
   101e0:	fff00013          	li	zero,-1
   101e4:	0000f2b7          	lui	t0,0xf
   101e8:	22228293          	addi	t0,t0,546 # f222 <_start-0xdde>
   101ec:	08518e63          	beq	gp,t0,10288 <reset_vector+0x23c>
   101f0:	00004517          	auipc	a0,0x4
   101f4:	f4a50513          	addi	a0,a0,-182 # 1413a <end_signature+0xaa>
   101f8:	609020ef          	jal	ra,13000 <FN_WriteStr>
   101fc:	00004517          	auipc	a0,0x4
   10200:	f5950513          	addi	a0,a0,-167 # 14155 <end_signature+0xc5>
   10204:	5fd020ef          	jal	ra,13000 <FN_WriteStr>
   10208:	00004517          	auipc	a0,0x4
   1020c:	f5c50513          	addi	a0,a0,-164 # 14164 <end_signature+0xd4>
   10210:	5f1020ef          	jal	ra,13000 <FN_WriteStr>
   10214:	00004517          	auipc	a0,0x4
   10218:	f5850513          	addi	a0,a0,-168 # 1416c <end_signature+0xdc>
   1021c:	5e5020ef          	jal	ra,13000 <FN_WriteStr>
   10220:	00004517          	auipc	a0,0x4
   10224:	f4f50513          	addi	a0,a0,-177 # 1416f <end_signature+0xdf>
   10228:	5d9020ef          	jal	ra,13000 <FN_WriteStr>
   1022c:	00004517          	auipc	a0,0x4
   10230:	f4650513          	addi	a0,a0,-186 # 14172 <end_signature+0xe2>
   10234:	5cd020ef          	jal	ra,13000 <FN_WriteStr>
   10238:	00004517          	auipc	a0,0x4
   1023c:	f3d50513          	addi	a0,a0,-195 # 14175 <end_signature+0xe5>
   10240:	5c1020ef          	jal	ra,13000 <FN_WriteStr>
   10244:	00018513          	mv	a0,gp
   10248:	5d5020ef          	jal	ra,1301c <FN_WriteA0>
   1024c:	00004517          	auipc	a0,0x4
   10250:	f2b50513          	addi	a0,a0,-213 # 14177 <end_signature+0xe7>
   10254:	5ad020ef          	jal	ra,13000 <FN_WriteStr>
   10258:	00004517          	auipc	a0,0x4
   1025c:	f2550513          	addi	a0,a0,-219 # 1417d <end_signature+0xed>
   10260:	5a1020ef          	jal	ra,13000 <FN_WriteStr>
   10264:	00004517          	auipc	a0,0x4
   10268:	f2450513          	addi	a0,a0,-220 # 14188 <end_signature+0xf8>
   1026c:	595020ef          	jal	ra,13000 <FN_WriteStr>
   10270:	06400193          	li	gp,100
   10274:	0000100f          	fence.i
   10278:	00018063          	beqz	gp,10278 <reset_vector+0x22c>
   1027c:	00119193          	slli	gp,gp,0x1
   10280:	0011e193          	ori	gp,gp,1
   10284:	00000073          	ecall
   10288:	000012b7          	lui	t0,0x1
   1028c:	1f128293          	addi	t0,t0,497 # 11f1 <_start-0xee0f>
   10290:	08520e63          	beq	tp,t0,1032c <reset_vector+0x2e0>
   10294:	00004517          	auipc	a0,0x4
   10298:	ef650513          	addi	a0,a0,-266 # 1418a <end_signature+0xfa>
   1029c:	565020ef          	jal	ra,13000 <FN_WriteStr>
   102a0:	00004517          	auipc	a0,0x4
   102a4:	f0550513          	addi	a0,a0,-251 # 141a5 <end_signature+0x115>
   102a8:	559020ef          	jal	ra,13000 <FN_WriteStr>
   102ac:	00004517          	auipc	a0,0x4
   102b0:	f0850513          	addi	a0,a0,-248 # 141b4 <end_signature+0x124>
   102b4:	54d020ef          	jal	ra,13000 <FN_WriteStr>
   102b8:	00004517          	auipc	a0,0x4
   102bc:	f0450513          	addi	a0,a0,-252 # 141bc <end_signature+0x12c>
   102c0:	541020ef          	jal	ra,13000 <FN_WriteStr>
   102c4:	00004517          	auipc	a0,0x4
   102c8:	efb50513          	addi	a0,a0,-261 # 141bf <end_signature+0x12f>
   102cc:	535020ef          	jal	ra,13000 <FN_WriteStr>
   102d0:	00004517          	auipc	a0,0x4
   102d4:	ef250513          	addi	a0,a0,-270 # 141c2 <end_signature+0x132>
   102d8:	529020ef          	jal	ra,13000 <FN_WriteStr>
   102dc:	00004517          	auipc	a0,0x4
   102e0:	ee950513          	addi	a0,a0,-279 # 141c5 <end_signature+0x135>
   102e4:	51d020ef          	jal	ra,13000 <FN_WriteStr>
   102e8:	00020513          	mv	a0,tp
   102ec:	531020ef          	jal	ra,1301c <FN_WriteA0>
   102f0:	00004517          	auipc	a0,0x4
   102f4:	ed750513          	addi	a0,a0,-297 # 141c7 <end_signature+0x137>
   102f8:	509020ef          	jal	ra,13000 <FN_WriteStr>
   102fc:	00004517          	auipc	a0,0x4
   10300:	ed150513          	addi	a0,a0,-303 # 141cd <end_signature+0x13d>
   10304:	4fd020ef          	jal	ra,13000 <FN_WriteStr>
   10308:	00004517          	auipc	a0,0x4
   1030c:	ed050513          	addi	a0,a0,-304 # 141d8 <end_signature+0x148>
   10310:	4f1020ef          	jal	ra,13000 <FN_WriteStr>
   10314:	06400193          	li	gp,100
   10318:	0000100f          	fence.i
   1031c:	00018063          	beqz	gp,1031c <reset_vector+0x2d0>
   10320:	00119193          	slli	gp,gp,0x1
   10324:	0011e193          	ori	gp,gp,1
   10328:	00000073          	ecall
   1032c:	00004517          	auipc	a0,0x4
   10330:	eae50513          	addi	a0,a0,-338 # 141da <end_signature+0x14a>
   10334:	4cd020ef          	jal	ra,13000 <FN_WriteStr>
   10338:	00004517          	auipc	a0,0x4
   1033c:	ebe50513          	addi	a0,a0,-322 # 141f6 <end_signature+0x166>
   10340:	4c1020ef          	jal	ra,13000 <FN_WriteStr>
   10344:	00004c17          	auipc	s8,0x4
   10348:	cc1c0c13          	addi	s8,s8,-831 # 14005 <test_A2_data+0x1>
   1034c:	00004297          	auipc	t0,0x4
   10350:	cfc28293          	addi	t0,t0,-772 # 14048 <test_A2_res>
   10354:	fffc5c83          	lhu	s9,-1(s8)
   10358:	001c5d03          	lhu	s10,1(s8)
   1035c:	0192a023          	sw	s9,0(t0)
   10360:	01a2a223          	sw	s10,4(t0)
   10364:	000042b7          	lui	t0,0x4
   10368:	4f428293          	addi	t0,t0,1268 # 44f4 <_start-0xbb0c>
   1036c:	085c8e63          	beq	s9,t0,10408 <reset_vector+0x3bc>
   10370:	00004517          	auipc	a0,0x4
   10374:	eae50513          	addi	a0,a0,-338 # 1421e <end_signature+0x18e>
   10378:	489020ef          	jal	ra,13000 <FN_WriteStr>
   1037c:	00004517          	auipc	a0,0x4
   10380:	ebd50513          	addi	a0,a0,-323 # 14239 <end_signature+0x1a9>
   10384:	47d020ef          	jal	ra,13000 <FN_WriteStr>
   10388:	00004517          	auipc	a0,0x4
   1038c:	ec050513          	addi	a0,a0,-320 # 14248 <end_signature+0x1b8>
   10390:	471020ef          	jal	ra,13000 <FN_WriteStr>
   10394:	00004517          	auipc	a0,0x4
   10398:	ebc50513          	addi	a0,a0,-324 # 14250 <end_signature+0x1c0>
   1039c:	465020ef          	jal	ra,13000 <FN_WriteStr>
   103a0:	00004517          	auipc	a0,0x4
   103a4:	eb350513          	addi	a0,a0,-333 # 14253 <end_signature+0x1c3>
   103a8:	459020ef          	jal	ra,13000 <FN_WriteStr>
   103ac:	00004517          	auipc	a0,0x4
   103b0:	eaa50513          	addi	a0,a0,-342 # 14256 <end_signature+0x1c6>
   103b4:	44d020ef          	jal	ra,13000 <FN_WriteStr>
   103b8:	00004517          	auipc	a0,0x4
   103bc:	ea250513          	addi	a0,a0,-350 # 1425a <end_signature+0x1ca>
   103c0:	441020ef          	jal	ra,13000 <FN_WriteStr>
   103c4:	000c8513          	mv	a0,s9
   103c8:	455020ef          	jal	ra,1301c <FN_WriteA0>
   103cc:	00004517          	auipc	a0,0x4
   103d0:	e9050513          	addi	a0,a0,-368 # 1425c <end_signature+0x1cc>
   103d4:	42d020ef          	jal	ra,13000 <FN_WriteStr>
   103d8:	00004517          	auipc	a0,0x4
   103dc:	e8a50513          	addi	a0,a0,-374 # 14262 <end_signature+0x1d2>
   103e0:	421020ef          	jal	ra,13000 <FN_WriteStr>
   103e4:	00004517          	auipc	a0,0x4
   103e8:	e8950513          	addi	a0,a0,-375 # 1426d <end_signature+0x1dd>
   103ec:	415020ef          	jal	ra,13000 <FN_WriteStr>
   103f0:	06400193          	li	gp,100
   103f4:	0000100f          	fence.i
   103f8:	00018063          	beqz	gp,103f8 <reset_vector+0x3ac>
   103fc:	00119193          	slli	gp,gp,0x1
   10400:	0011e193          	ori	gp,gp,1
   10404:	00000073          	ecall
   10408:	0000f2b7          	lui	t0,0xf
   1040c:	33328293          	addi	t0,t0,819 # f333 <_start-0xccd>
   10410:	085d0e63          	beq	s10,t0,104ac <reset_vector+0x460>
   10414:	00004517          	auipc	a0,0x4
   10418:	e5b50513          	addi	a0,a0,-421 # 1426f <end_signature+0x1df>
   1041c:	3e5020ef          	jal	ra,13000 <FN_WriteStr>
   10420:	00004517          	auipc	a0,0x4
   10424:	e6a50513          	addi	a0,a0,-406 # 1428a <end_signature+0x1fa>
   10428:	3d9020ef          	jal	ra,13000 <FN_WriteStr>
   1042c:	00004517          	auipc	a0,0x4
   10430:	e6d50513          	addi	a0,a0,-403 # 14299 <end_signature+0x209>
   10434:	3cd020ef          	jal	ra,13000 <FN_WriteStr>
   10438:	00004517          	auipc	a0,0x4
   1043c:	e6950513          	addi	a0,a0,-407 # 142a1 <end_signature+0x211>
   10440:	3c1020ef          	jal	ra,13000 <FN_WriteStr>
   10444:	00004517          	auipc	a0,0x4
   10448:	e6050513          	addi	a0,a0,-416 # 142a4 <end_signature+0x214>
   1044c:	3b5020ef          	jal	ra,13000 <FN_WriteStr>
   10450:	00004517          	auipc	a0,0x4
   10454:	e5750513          	addi	a0,a0,-425 # 142a7 <end_signature+0x217>
   10458:	3a9020ef          	jal	ra,13000 <FN_WriteStr>
   1045c:	00004517          	auipc	a0,0x4
   10460:	e4f50513          	addi	a0,a0,-433 # 142ab <end_signature+0x21b>
   10464:	39d020ef          	jal	ra,13000 <FN_WriteStr>
   10468:	000d0513          	mv	a0,s10
   1046c:	3b1020ef          	jal	ra,1301c <FN_WriteA0>
   10470:	00004517          	auipc	a0,0x4
   10474:	e3d50513          	addi	a0,a0,-451 # 142ad <end_signature+0x21d>
   10478:	389020ef          	jal	ra,13000 <FN_WriteStr>
   1047c:	00004517          	auipc	a0,0x4
   10480:	e3750513          	addi	a0,a0,-457 # 142b3 <end_signature+0x223>
   10484:	37d020ef          	jal	ra,13000 <FN_WriteStr>
   10488:	00004517          	auipc	a0,0x4
   1048c:	e3650513          	addi	a0,a0,-458 # 142be <end_signature+0x22e>
   10490:	371020ef          	jal	ra,13000 <FN_WriteStr>
   10494:	06400193          	li	gp,100
   10498:	0000100f          	fence.i
   1049c:	00018063          	beqz	gp,1049c <reset_vector+0x450>
   104a0:	00119193          	slli	gp,gp,0x1
   104a4:	0011e193          	ori	gp,gp,1
   104a8:	00000073          	ecall
   104ac:	00004517          	auipc	a0,0x4
   104b0:	e1450513          	addi	a0,a0,-492 # 142c0 <end_signature+0x230>
   104b4:	34d020ef          	jal	ra,13000 <FN_WriteStr>
   104b8:	00004517          	auipc	a0,0x4
   104bc:	e2450513          	addi	a0,a0,-476 # 142dc <end_signature+0x24c>
   104c0:	341020ef          	jal	ra,13000 <FN_WriteStr>
   104c4:	00004397          	auipc	t2,0x4
   104c8:	b4338393          	addi	t2,t2,-1213 # 14007 <test_A2_data+0x3>
   104cc:	00004417          	auipc	s0,0x4
   104d0:	b8440413          	addi	s0,s0,-1148 # 14050 <test_A3_res>
   104d4:	0013df03          	lhu	t5,1(t2)
   104d8:	0033df83          	lhu	t6,3(t2)
   104dc:	01e42023          	sw	t5,0(s0)
   104e0:	01f42223          	sw	t6,4(s0)
   104e4:	0000f2b7          	lui	t0,0xf
   104e8:	66628293          	addi	t0,t0,1638 # f666 <_start-0x99a>
   104ec:	085f0e63          	beq	t5,t0,10588 <reset_vector+0x53c>
   104f0:	00004517          	auipc	a0,0x4
   104f4:	e1450513          	addi	a0,a0,-492 # 14304 <end_signature+0x274>
   104f8:	309020ef          	jal	ra,13000 <FN_WriteStr>
   104fc:	00004517          	auipc	a0,0x4
   10500:	e2350513          	addi	a0,a0,-477 # 1431f <end_signature+0x28f>
   10504:	2fd020ef          	jal	ra,13000 <FN_WriteStr>
   10508:	00004517          	auipc	a0,0x4
   1050c:	e2650513          	addi	a0,a0,-474 # 1432e <end_signature+0x29e>
   10510:	2f1020ef          	jal	ra,13000 <FN_WriteStr>
   10514:	00004517          	auipc	a0,0x4
   10518:	e2250513          	addi	a0,a0,-478 # 14336 <end_signature+0x2a6>
   1051c:	2e5020ef          	jal	ra,13000 <FN_WriteStr>
   10520:	00004517          	auipc	a0,0x4
   10524:	e1a50513          	addi	a0,a0,-486 # 1433a <end_signature+0x2aa>
   10528:	2d9020ef          	jal	ra,13000 <FN_WriteStr>
   1052c:	00004517          	auipc	a0,0x4
   10530:	e1150513          	addi	a0,a0,-495 # 1433d <end_signature+0x2ad>
   10534:	2cd020ef          	jal	ra,13000 <FN_WriteStr>
   10538:	00004517          	auipc	a0,0x4
   1053c:	e0950513          	addi	a0,a0,-503 # 14341 <end_signature+0x2b1>
   10540:	2c1020ef          	jal	ra,13000 <FN_WriteStr>
   10544:	000f0513          	mv	a0,t5
   10548:	2d5020ef          	jal	ra,1301c <FN_WriteA0>
   1054c:	00004517          	auipc	a0,0x4
   10550:	df750513          	addi	a0,a0,-521 # 14343 <end_signature+0x2b3>
   10554:	2ad020ef          	jal	ra,13000 <FN_WriteStr>
   10558:	00004517          	auipc	a0,0x4
   1055c:	df150513          	addi	a0,a0,-527 # 14349 <end_signature+0x2b9>
   10560:	2a1020ef          	jal	ra,13000 <FN_WriteStr>
   10564:	00004517          	auipc	a0,0x4
   10568:	df050513          	addi	a0,a0,-528 # 14354 <end_signature+0x2c4>
   1056c:	295020ef          	jal	ra,13000 <FN_WriteStr>
   10570:	06400193          	li	gp,100
   10574:	0000100f          	fence.i
   10578:	00018063          	beqz	gp,10578 <reset_vector+0x52c>
   1057c:	00119193          	slli	gp,gp,0x1
   10580:	0011e193          	ori	gp,gp,1
   10584:	00000073          	ecall
   10588:	000052b7          	lui	t0,0x5
   1058c:	5f528293          	addi	t0,t0,1525 # 55f5 <_start-0xaa0b>
   10590:	085f8e63          	beq	t6,t0,1062c <reset_vector+0x5e0>
   10594:	00004517          	auipc	a0,0x4
   10598:	dc250513          	addi	a0,a0,-574 # 14356 <end_signature+0x2c6>
   1059c:	265020ef          	jal	ra,13000 <FN_WriteStr>
   105a0:	00004517          	auipc	a0,0x4
   105a4:	dd150513          	addi	a0,a0,-559 # 14371 <end_signature+0x2e1>
   105a8:	259020ef          	jal	ra,13000 <FN_WriteStr>
   105ac:	00004517          	auipc	a0,0x4
   105b0:	dd450513          	addi	a0,a0,-556 # 14380 <end_signature+0x2f0>
   105b4:	24d020ef          	jal	ra,13000 <FN_WriteStr>
   105b8:	00004517          	auipc	a0,0x4
   105bc:	dd050513          	addi	a0,a0,-560 # 14388 <end_signature+0x2f8>
   105c0:	241020ef          	jal	ra,13000 <FN_WriteStr>
   105c4:	00004517          	auipc	a0,0x4
   105c8:	dc850513          	addi	a0,a0,-568 # 1438c <end_signature+0x2fc>
   105cc:	235020ef          	jal	ra,13000 <FN_WriteStr>
   105d0:	00004517          	auipc	a0,0x4
   105d4:	dbf50513          	addi	a0,a0,-577 # 1438f <end_signature+0x2ff>
   105d8:	229020ef          	jal	ra,13000 <FN_WriteStr>
   105dc:	00004517          	auipc	a0,0x4
   105e0:	db750513          	addi	a0,a0,-585 # 14393 <end_signature+0x303>
   105e4:	21d020ef          	jal	ra,13000 <FN_WriteStr>
   105e8:	000f8513          	mv	a0,t6
   105ec:	231020ef          	jal	ra,1301c <FN_WriteA0>
   105f0:	00004517          	auipc	a0,0x4
   105f4:	da550513          	addi	a0,a0,-603 # 14395 <end_signature+0x305>
   105f8:	209020ef          	jal	ra,13000 <FN_WriteStr>
   105fc:	00004517          	auipc	a0,0x4
   10600:	d9f50513          	addi	a0,a0,-609 # 1439b <end_signature+0x30b>
   10604:	1fd020ef          	jal	ra,13000 <FN_WriteStr>
   10608:	00004517          	auipc	a0,0x4
   1060c:	d9e50513          	addi	a0,a0,-610 # 143a6 <end_signature+0x316>
   10610:	1f1020ef          	jal	ra,13000 <FN_WriteStr>
   10614:	06400193          	li	gp,100
   10618:	0000100f          	fence.i
   1061c:	00018063          	beqz	gp,1061c <reset_vector+0x5d0>
   10620:	00119193          	slli	gp,gp,0x1
   10624:	0011e193          	ori	gp,gp,1
   10628:	00000073          	ecall
   1062c:	00004517          	auipc	a0,0x4
   10630:	d7c50513          	addi	a0,a0,-644 # 143a8 <end_signature+0x318>
   10634:	1cd020ef          	jal	ra,13000 <FN_WriteStr>
   10638:	00004517          	auipc	a0,0x4
   1063c:	d8c50513          	addi	a0,a0,-628 # 143c4 <end_signature+0x334>
   10640:	1c1020ef          	jal	ra,13000 <FN_WriteStr>
   10644:	00004517          	auipc	a0,0x4
   10648:	1c850513          	addi	a0,a0,456 # 1480c <end_signature+0x77c>
   1064c:	00004597          	auipc	a1,0x4
   10650:	a0c58593          	addi	a1,a1,-1524 # 14058 <test_A4_res>
   10654:	80055603          	lhu	a2,-2048(a0)
   10658:	80255683          	lhu	a3,-2046(a0)
   1065c:	00c5a023          	sw	a2,0(a1)
   10660:	00d5a223          	sw	a3,4(a1)
   10664:	000092b7          	lui	t0,0x9
   10668:	8f828293          	addi	t0,t0,-1800 # 88f8 <_start-0x7708>
   1066c:	08560e63          	beq	a2,t0,10708 <reset_vector+0x6bc>
   10670:	00004517          	auipc	a0,0x4
   10674:	d7f50513          	addi	a0,a0,-641 # 143ef <end_signature+0x35f>
   10678:	189020ef          	jal	ra,13000 <FN_WriteStr>
   1067c:	00004517          	auipc	a0,0x4
   10680:	d8e50513          	addi	a0,a0,-626 # 1440a <end_signature+0x37a>
   10684:	17d020ef          	jal	ra,13000 <FN_WriteStr>
   10688:	00004517          	auipc	a0,0x4
   1068c:	d9150513          	addi	a0,a0,-623 # 14419 <end_signature+0x389>
   10690:	171020ef          	jal	ra,13000 <FN_WriteStr>
   10694:	00004517          	auipc	a0,0x4
   10698:	d8d50513          	addi	a0,a0,-627 # 14421 <end_signature+0x391>
   1069c:	165020ef          	jal	ra,13000 <FN_WriteStr>
   106a0:	00004517          	auipc	a0,0x4
   106a4:	d8550513          	addi	a0,a0,-635 # 14425 <end_signature+0x395>
   106a8:	159020ef          	jal	ra,13000 <FN_WriteStr>
   106ac:	00004517          	auipc	a0,0x4
   106b0:	d7c50513          	addi	a0,a0,-644 # 14428 <end_signature+0x398>
   106b4:	14d020ef          	jal	ra,13000 <FN_WriteStr>
   106b8:	00004517          	auipc	a0,0x4
   106bc:	d7450513          	addi	a0,a0,-652 # 1442c <end_signature+0x39c>
   106c0:	141020ef          	jal	ra,13000 <FN_WriteStr>
   106c4:	00060513          	mv	a0,a2
   106c8:	155020ef          	jal	ra,1301c <FN_WriteA0>
   106cc:	00004517          	auipc	a0,0x4
   106d0:	d6250513          	addi	a0,a0,-670 # 1442e <end_signature+0x39e>
   106d4:	12d020ef          	jal	ra,13000 <FN_WriteStr>
   106d8:	00004517          	auipc	a0,0x4
   106dc:	d5c50513          	addi	a0,a0,-676 # 14434 <end_signature+0x3a4>
   106e0:	121020ef          	jal	ra,13000 <FN_WriteStr>
   106e4:	00004517          	auipc	a0,0x4
   106e8:	d5b50513          	addi	a0,a0,-677 # 1443f <end_signature+0x3af>
   106ec:	115020ef          	jal	ra,13000 <FN_WriteStr>
   106f0:	06400193          	li	gp,100
   106f4:	0000100f          	fence.i
   106f8:	00018063          	beqz	gp,106f8 <reset_vector+0x6ac>
   106fc:	00119193          	slli	gp,gp,0x1
   10700:	0011e193          	ori	gp,gp,1
   10704:	00000073          	ecall
   10708:	0000f2b7          	lui	t0,0xf
   1070c:	77728293          	addi	t0,t0,1911 # f777 <_start-0x889>
   10710:	08568e63          	beq	a3,t0,107ac <reset_vector+0x760>
   10714:	00004517          	auipc	a0,0x4
   10718:	d2d50513          	addi	a0,a0,-723 # 14441 <end_signature+0x3b1>
   1071c:	0e5020ef          	jal	ra,13000 <FN_WriteStr>
   10720:	00004517          	auipc	a0,0x4
   10724:	d3c50513          	addi	a0,a0,-708 # 1445c <end_signature+0x3cc>
   10728:	0d9020ef          	jal	ra,13000 <FN_WriteStr>
   1072c:	00004517          	auipc	a0,0x4
   10730:	d3f50513          	addi	a0,a0,-705 # 1446b <end_signature+0x3db>
   10734:	0cd020ef          	jal	ra,13000 <FN_WriteStr>
   10738:	00004517          	auipc	a0,0x4
   1073c:	d3b50513          	addi	a0,a0,-709 # 14473 <end_signature+0x3e3>
   10740:	0c1020ef          	jal	ra,13000 <FN_WriteStr>
   10744:	00004517          	auipc	a0,0x4
   10748:	d3350513          	addi	a0,a0,-717 # 14477 <end_signature+0x3e7>
   1074c:	0b5020ef          	jal	ra,13000 <FN_WriteStr>
   10750:	00004517          	auipc	a0,0x4
   10754:	d2a50513          	addi	a0,a0,-726 # 1447a <end_signature+0x3ea>
   10758:	0a9020ef          	jal	ra,13000 <FN_WriteStr>
   1075c:	00004517          	auipc	a0,0x4
   10760:	d2250513          	addi	a0,a0,-734 # 1447e <end_signature+0x3ee>
   10764:	09d020ef          	jal	ra,13000 <FN_WriteStr>
   10768:	00068513          	mv	a0,a3
   1076c:	0b1020ef          	jal	ra,1301c <FN_WriteA0>
   10770:	00004517          	auipc	a0,0x4
   10774:	d1050513          	addi	a0,a0,-752 # 14480 <end_signature+0x3f0>
   10778:	089020ef          	jal	ra,13000 <FN_WriteStr>
   1077c:	00004517          	auipc	a0,0x4
   10780:	d0a50513          	addi	a0,a0,-758 # 14486 <end_signature+0x3f6>
   10784:	07d020ef          	jal	ra,13000 <FN_WriteStr>
   10788:	00004517          	auipc	a0,0x4
   1078c:	d0950513          	addi	a0,a0,-759 # 14491 <end_signature+0x401>
   10790:	071020ef          	jal	ra,13000 <FN_WriteStr>
   10794:	06400193          	li	gp,100
   10798:	0000100f          	fence.i
   1079c:	00018063          	beqz	gp,1079c <reset_vector+0x750>
   107a0:	00119193          	slli	gp,gp,0x1
   107a4:	0011e193          	ori	gp,gp,1
   107a8:	00000073          	ecall
   107ac:	00004517          	auipc	a0,0x4
   107b0:	ce750513          	addi	a0,a0,-793 # 14493 <end_signature+0x403>
   107b4:	04d020ef          	jal	ra,13000 <FN_WriteStr>
   107b8:	00004517          	auipc	a0,0x4
   107bc:	cf750513          	addi	a0,a0,-777 # 144af <end_signature+0x41f>
   107c0:	041020ef          	jal	ra,13000 <FN_WriteStr>
   107c4:	00003697          	auipc	a3,0x3
   107c8:	04f68693          	addi	a3,a3,79 # 13813 <FN_WriteA0_common+0x79f>
   107cc:	00004717          	auipc	a4,0x4
   107d0:	89470713          	addi	a4,a4,-1900 # 14060 <test_A5_res>
   107d4:	7fd6d783          	lhu	a5,2045(a3)
   107d8:	7ff6d803          	lhu	a6,2047(a3)
   107dc:	00f72023          	sw	a5,0(a4)
   107e0:	01072223          	sw	a6,4(a4)
   107e4:	000012b7          	lui	t0,0x1
   107e8:	aaa28293          	addi	t0,t0,-1366 # aaa <_start-0xf556>
   107ec:	08578e63          	beq	a5,t0,10888 <reset_vector+0x83c>
   107f0:	00004517          	auipc	a0,0x4
   107f4:	cea50513          	addi	a0,a0,-790 # 144da <end_signature+0x44a>
   107f8:	009020ef          	jal	ra,13000 <FN_WriteStr>
   107fc:	00004517          	auipc	a0,0x4
   10800:	cf950513          	addi	a0,a0,-775 # 144f5 <end_signature+0x465>
   10804:	7fc020ef          	jal	ra,13000 <FN_WriteStr>
   10808:	00004517          	auipc	a0,0x4
   1080c:	cfc50513          	addi	a0,a0,-772 # 14504 <end_signature+0x474>
   10810:	7f0020ef          	jal	ra,13000 <FN_WriteStr>
   10814:	00004517          	auipc	a0,0x4
   10818:	cf850513          	addi	a0,a0,-776 # 1450c <end_signature+0x47c>
   1081c:	7e4020ef          	jal	ra,13000 <FN_WriteStr>
   10820:	00004517          	auipc	a0,0x4
   10824:	cf050513          	addi	a0,a0,-784 # 14510 <end_signature+0x480>
   10828:	7d8020ef          	jal	ra,13000 <FN_WriteStr>
   1082c:	00004517          	auipc	a0,0x4
   10830:	ce750513          	addi	a0,a0,-793 # 14513 <end_signature+0x483>
   10834:	7cc020ef          	jal	ra,13000 <FN_WriteStr>
   10838:	00004517          	auipc	a0,0x4
   1083c:	cdf50513          	addi	a0,a0,-801 # 14517 <end_signature+0x487>
   10840:	7c0020ef          	jal	ra,13000 <FN_WriteStr>
   10844:	00078513          	mv	a0,a5
   10848:	7d4020ef          	jal	ra,1301c <FN_WriteA0>
   1084c:	00004517          	auipc	a0,0x4
   10850:	ccd50513          	addi	a0,a0,-819 # 14519 <end_signature+0x489>
   10854:	7ac020ef          	jal	ra,13000 <FN_WriteStr>
   10858:	00004517          	auipc	a0,0x4
   1085c:	cc750513          	addi	a0,a0,-825 # 1451f <end_signature+0x48f>
   10860:	7a0020ef          	jal	ra,13000 <FN_WriteStr>
   10864:	00004517          	auipc	a0,0x4
   10868:	cc650513          	addi	a0,a0,-826 # 1452a <end_signature+0x49a>
   1086c:	794020ef          	jal	ra,13000 <FN_WriteStr>
   10870:	06400193          	li	gp,100
   10874:	0000100f          	fence.i
   10878:	00018063          	beqz	gp,10878 <reset_vector+0x82c>
   1087c:	00119193          	slli	gp,gp,0x1
   10880:	0011e193          	ori	gp,gp,1
   10884:	00000073          	ecall
   10888:	0000a2b7          	lui	t0,0xa
   1088c:	90928293          	addi	t0,t0,-1783 # 9909 <_start-0x66f7>
   10890:	08580e63          	beq	a6,t0,1092c <reset_vector+0x8e0>
   10894:	00004517          	auipc	a0,0x4
   10898:	c9850513          	addi	a0,a0,-872 # 1452c <end_signature+0x49c>
   1089c:	764020ef          	jal	ra,13000 <FN_WriteStr>
   108a0:	00004517          	auipc	a0,0x4
   108a4:	ca750513          	addi	a0,a0,-857 # 14547 <end_signature+0x4b7>
   108a8:	758020ef          	jal	ra,13000 <FN_WriteStr>
   108ac:	00004517          	auipc	a0,0x4
   108b0:	caa50513          	addi	a0,a0,-854 # 14556 <end_signature+0x4c6>
   108b4:	74c020ef          	jal	ra,13000 <FN_WriteStr>
   108b8:	00004517          	auipc	a0,0x4
   108bc:	ca650513          	addi	a0,a0,-858 # 1455e <end_signature+0x4ce>
   108c0:	740020ef          	jal	ra,13000 <FN_WriteStr>
   108c4:	00004517          	auipc	a0,0x4
   108c8:	c9e50513          	addi	a0,a0,-866 # 14562 <end_signature+0x4d2>
   108cc:	734020ef          	jal	ra,13000 <FN_WriteStr>
   108d0:	00004517          	auipc	a0,0x4
   108d4:	c9550513          	addi	a0,a0,-875 # 14565 <end_signature+0x4d5>
   108d8:	728020ef          	jal	ra,13000 <FN_WriteStr>
   108dc:	00004517          	auipc	a0,0x4
   108e0:	c8d50513          	addi	a0,a0,-883 # 14569 <end_signature+0x4d9>
   108e4:	71c020ef          	jal	ra,13000 <FN_WriteStr>
   108e8:	00080513          	mv	a0,a6
   108ec:	730020ef          	jal	ra,1301c <FN_WriteA0>
   108f0:	00004517          	auipc	a0,0x4
   108f4:	c7b50513          	addi	a0,a0,-901 # 1456b <end_signature+0x4db>
   108f8:	708020ef          	jal	ra,13000 <FN_WriteStr>
   108fc:	00004517          	auipc	a0,0x4
   10900:	c7550513          	addi	a0,a0,-907 # 14571 <end_signature+0x4e1>
   10904:	6fc020ef          	jal	ra,13000 <FN_WriteStr>
   10908:	00004517          	auipc	a0,0x4
   1090c:	c7450513          	addi	a0,a0,-908 # 1457c <end_signature+0x4ec>
   10910:	6f0020ef          	jal	ra,13000 <FN_WriteStr>
   10914:	06400193          	li	gp,100
   10918:	0000100f          	fence.i
   1091c:	00018063          	beqz	gp,1091c <reset_vector+0x8d0>
   10920:	00119193          	slli	gp,gp,0x1
   10924:	0011e193          	ori	gp,gp,1
   10928:	00000073          	ecall
   1092c:	00004517          	auipc	a0,0x4
   10930:	c5250513          	addi	a0,a0,-942 # 1457e <end_signature+0x4ee>
   10934:	6cc020ef          	jal	ra,13000 <FN_WriteStr>
   10938:	00004517          	auipc	a0,0x4
   1093c:	c6250513          	addi	a0,a0,-926 # 1459a <end_signature+0x50a>
   10940:	6c0020ef          	jal	ra,13000 <FN_WriteStr>
   10944:	00003817          	auipc	a6,0x3
   10948:	6d480813          	addi	a6,a6,1748 # 14018 <test_B_data>
   1094c:	00003897          	auipc	a7,0x3
   10950:	71c88893          	addi	a7,a7,1820 # 14068 <test_B_res>
   10954:	ffc85903          	lhu	s2,-4(a6)
   10958:	ffe85983          	lhu	s3,-2(a6)
   1095c:	00085a03          	lhu	s4,0(a6)
   10960:	00285a83          	lhu	s5,2(a6)
   10964:	00485b03          	lhu	s6,4(a6)
   10968:	00685b83          	lhu	s7,6(a6)
   1096c:	0128a023          	sw	s2,0(a7)
   10970:	0138a223          	sw	s3,4(a7)
   10974:	0148a423          	sw	s4,8(a7)
   10978:	0158a623          	sw	s5,12(a7)
   1097c:	0168a823          	sw	s6,16(a7)
   10980:	0178aa23          	sw	s7,20(a7)
   10984:	0000d2b7          	lui	t0,0xd
   10988:	c0c28293          	addi	t0,t0,-1012 # cc0c <_start-0x33f4>
   1098c:	08590e63          	beq	s2,t0,10a28 <reset_vector+0x9dc>
   10990:	00004517          	auipc	a0,0x4
   10994:	c4150513          	addi	a0,a0,-959 # 145d1 <end_signature+0x541>
   10998:	668020ef          	jal	ra,13000 <FN_WriteStr>
   1099c:	00004517          	auipc	a0,0x4
   109a0:	c5050513          	addi	a0,a0,-944 # 145ec <end_signature+0x55c>
   109a4:	65c020ef          	jal	ra,13000 <FN_WriteStr>
   109a8:	00004517          	auipc	a0,0x4
   109ac:	c5350513          	addi	a0,a0,-941 # 145fb <end_signature+0x56b>
   109b0:	650020ef          	jal	ra,13000 <FN_WriteStr>
   109b4:	00004517          	auipc	a0,0x4
   109b8:	c4f50513          	addi	a0,a0,-945 # 14603 <end_signature+0x573>
   109bc:	644020ef          	jal	ra,13000 <FN_WriteStr>
   109c0:	00004517          	auipc	a0,0x4
   109c4:	c4750513          	addi	a0,a0,-953 # 14607 <end_signature+0x577>
   109c8:	638020ef          	jal	ra,13000 <FN_WriteStr>
   109cc:	00004517          	auipc	a0,0x4
   109d0:	c3e50513          	addi	a0,a0,-962 # 1460a <end_signature+0x57a>
   109d4:	62c020ef          	jal	ra,13000 <FN_WriteStr>
   109d8:	00004517          	auipc	a0,0x4
   109dc:	c3650513          	addi	a0,a0,-970 # 1460e <end_signature+0x57e>
   109e0:	620020ef          	jal	ra,13000 <FN_WriteStr>
   109e4:	00090513          	mv	a0,s2
   109e8:	634020ef          	jal	ra,1301c <FN_WriteA0>
   109ec:	00004517          	auipc	a0,0x4
   109f0:	c2450513          	addi	a0,a0,-988 # 14610 <end_signature+0x580>
   109f4:	60c020ef          	jal	ra,13000 <FN_WriteStr>
   109f8:	00004517          	auipc	a0,0x4
   109fc:	c1e50513          	addi	a0,a0,-994 # 14616 <end_signature+0x586>
   10a00:	600020ef          	jal	ra,13000 <FN_WriteStr>
   10a04:	00004517          	auipc	a0,0x4
   10a08:	c1d50513          	addi	a0,a0,-995 # 14621 <end_signature+0x591>
   10a0c:	5f4020ef          	jal	ra,13000 <FN_WriteStr>
   10a10:	06400193          	li	gp,100
   10a14:	0000100f          	fence.i
   10a18:	00018063          	beqz	gp,10a18 <reset_vector+0x9cc>
   10a1c:	00119193          	slli	gp,gp,0x1
   10a20:	0011e193          	ori	gp,gp,1
   10a24:	00000073          	ecall
   10a28:	000012b7          	lui	t0,0x1
   10a2c:	bbb28293          	addi	t0,t0,-1093 # bbb <_start-0xf445>
   10a30:	08598e63          	beq	s3,t0,10acc <reset_vector+0xa80>
   10a34:	00004517          	auipc	a0,0x4
   10a38:	bef50513          	addi	a0,a0,-1041 # 14623 <end_signature+0x593>
   10a3c:	5c4020ef          	jal	ra,13000 <FN_WriteStr>
   10a40:	00004517          	auipc	a0,0x4
   10a44:	bfe50513          	addi	a0,a0,-1026 # 1463e <end_signature+0x5ae>
   10a48:	5b8020ef          	jal	ra,13000 <FN_WriteStr>
   10a4c:	00004517          	auipc	a0,0x4
   10a50:	c0150513          	addi	a0,a0,-1023 # 1464d <end_signature+0x5bd>
   10a54:	5ac020ef          	jal	ra,13000 <FN_WriteStr>
   10a58:	00004517          	auipc	a0,0x4
   10a5c:	bfd50513          	addi	a0,a0,-1027 # 14655 <end_signature+0x5c5>
   10a60:	5a0020ef          	jal	ra,13000 <FN_WriteStr>
   10a64:	00004517          	auipc	a0,0x4
   10a68:	bf550513          	addi	a0,a0,-1035 # 14659 <end_signature+0x5c9>
   10a6c:	594020ef          	jal	ra,13000 <FN_WriteStr>
   10a70:	00004517          	auipc	a0,0x4
   10a74:	bec50513          	addi	a0,a0,-1044 # 1465c <end_signature+0x5cc>
   10a78:	588020ef          	jal	ra,13000 <FN_WriteStr>
   10a7c:	00004517          	auipc	a0,0x4
   10a80:	be450513          	addi	a0,a0,-1052 # 14660 <end_signature+0x5d0>
   10a84:	57c020ef          	jal	ra,13000 <FN_WriteStr>
   10a88:	00098513          	mv	a0,s3
   10a8c:	590020ef          	jal	ra,1301c <FN_WriteA0>
   10a90:	00004517          	auipc	a0,0x4
   10a94:	bd250513          	addi	a0,a0,-1070 # 14662 <end_signature+0x5d2>
   10a98:	568020ef          	jal	ra,13000 <FN_WriteStr>
   10a9c:	00004517          	auipc	a0,0x4
   10aa0:	bcc50513          	addi	a0,a0,-1076 # 14668 <end_signature+0x5d8>
   10aa4:	55c020ef          	jal	ra,13000 <FN_WriteStr>
   10aa8:	00004517          	auipc	a0,0x4
   10aac:	bcb50513          	addi	a0,a0,-1077 # 14673 <end_signature+0x5e3>
   10ab0:	550020ef          	jal	ra,13000 <FN_WriteStr>
   10ab4:	06400193          	li	gp,100
   10ab8:	0000100f          	fence.i
   10abc:	00018063          	beqz	gp,10abc <reset_vector+0xa70>
   10ac0:	00119193          	slli	gp,gp,0x1
   10ac4:	0011e193          	ori	gp,gp,1
   10ac8:	00000073          	ecall
   10acc:	000012b7          	lui	t0,0x1
   10ad0:	eee28293          	addi	t0,t0,-274 # eee <_start-0xf112>
   10ad4:	085a0e63          	beq	s4,t0,10b70 <reset_vector+0xb24>
   10ad8:	00004517          	auipc	a0,0x4
   10adc:	b9d50513          	addi	a0,a0,-1123 # 14675 <end_signature+0x5e5>
   10ae0:	520020ef          	jal	ra,13000 <FN_WriteStr>
   10ae4:	00004517          	auipc	a0,0x4
   10ae8:	bac50513          	addi	a0,a0,-1108 # 14690 <end_signature+0x600>
   10aec:	514020ef          	jal	ra,13000 <FN_WriteStr>
   10af0:	00004517          	auipc	a0,0x4
   10af4:	baf50513          	addi	a0,a0,-1105 # 1469f <end_signature+0x60f>
   10af8:	508020ef          	jal	ra,13000 <FN_WriteStr>
   10afc:	00004517          	auipc	a0,0x4
   10b00:	bab50513          	addi	a0,a0,-1109 # 146a7 <end_signature+0x617>
   10b04:	4fc020ef          	jal	ra,13000 <FN_WriteStr>
   10b08:	00004517          	auipc	a0,0x4
   10b0c:	ba350513          	addi	a0,a0,-1117 # 146ab <end_signature+0x61b>
   10b10:	4f0020ef          	jal	ra,13000 <FN_WriteStr>
   10b14:	00004517          	auipc	a0,0x4
   10b18:	b9a50513          	addi	a0,a0,-1126 # 146ae <end_signature+0x61e>
   10b1c:	4e4020ef          	jal	ra,13000 <FN_WriteStr>
   10b20:	00004517          	auipc	a0,0x4
   10b24:	b9250513          	addi	a0,a0,-1134 # 146b2 <end_signature+0x622>
   10b28:	4d8020ef          	jal	ra,13000 <FN_WriteStr>
   10b2c:	000a0513          	mv	a0,s4
   10b30:	4ec020ef          	jal	ra,1301c <FN_WriteA0>
   10b34:	00004517          	auipc	a0,0x4
   10b38:	b8050513          	addi	a0,a0,-1152 # 146b4 <end_signature+0x624>
   10b3c:	4c4020ef          	jal	ra,13000 <FN_WriteStr>
   10b40:	00004517          	auipc	a0,0x4
   10b44:	b7a50513          	addi	a0,a0,-1158 # 146ba <end_signature+0x62a>
   10b48:	4b8020ef          	jal	ra,13000 <FN_WriteStr>
   10b4c:	00004517          	auipc	a0,0x4
   10b50:	b7950513          	addi	a0,a0,-1159 # 146c5 <end_signature+0x635>
   10b54:	4ac020ef          	jal	ra,13000 <FN_WriteStr>
   10b58:	06400193          	li	gp,100
   10b5c:	0000100f          	fence.i
   10b60:	00018063          	beqz	gp,10b60 <reset_vector+0xb14>
   10b64:	00119193          	slli	gp,gp,0x1
   10b68:	0011e193          	ori	gp,gp,1
   10b6c:	00000073          	ecall
   10b70:	0000e2b7          	lui	t0,0xe
   10b74:	d0d28293          	addi	t0,t0,-755 # dd0d <_start-0x22f3>
   10b78:	085a8e63          	beq	s5,t0,10c14 <reset_vector+0xbc8>
   10b7c:	00004517          	auipc	a0,0x4
   10b80:	b4b50513          	addi	a0,a0,-1205 # 146c7 <end_signature+0x637>
   10b84:	47c020ef          	jal	ra,13000 <FN_WriteStr>
   10b88:	00004517          	auipc	a0,0x4
   10b8c:	b5a50513          	addi	a0,a0,-1190 # 146e2 <end_signature+0x652>
   10b90:	470020ef          	jal	ra,13000 <FN_WriteStr>
   10b94:	00004517          	auipc	a0,0x4
   10b98:	b5d50513          	addi	a0,a0,-1187 # 146f1 <end_signature+0x661>
   10b9c:	464020ef          	jal	ra,13000 <FN_WriteStr>
   10ba0:	00004517          	auipc	a0,0x4
   10ba4:	b5950513          	addi	a0,a0,-1191 # 146f9 <end_signature+0x669>
   10ba8:	458020ef          	jal	ra,13000 <FN_WriteStr>
   10bac:	00004517          	auipc	a0,0x4
   10bb0:	b5150513          	addi	a0,a0,-1199 # 146fd <end_signature+0x66d>
   10bb4:	44c020ef          	jal	ra,13000 <FN_WriteStr>
   10bb8:	00004517          	auipc	a0,0x4
   10bbc:	b4850513          	addi	a0,a0,-1208 # 14700 <end_signature+0x670>
   10bc0:	440020ef          	jal	ra,13000 <FN_WriteStr>
   10bc4:	00004517          	auipc	a0,0x4
   10bc8:	b4050513          	addi	a0,a0,-1216 # 14704 <end_signature+0x674>
   10bcc:	434020ef          	jal	ra,13000 <FN_WriteStr>
   10bd0:	000a8513          	mv	a0,s5
   10bd4:	448020ef          	jal	ra,1301c <FN_WriteA0>
   10bd8:	00004517          	auipc	a0,0x4
   10bdc:	b2e50513          	addi	a0,a0,-1234 # 14706 <end_signature+0x676>
   10be0:	420020ef          	jal	ra,13000 <FN_WriteStr>
   10be4:	00004517          	auipc	a0,0x4
   10be8:	b2850513          	addi	a0,a0,-1240 # 1470c <end_signature+0x67c>
   10bec:	414020ef          	jal	ra,13000 <FN_WriteStr>
   10bf0:	00004517          	auipc	a0,0x4
   10bf4:	b2750513          	addi	a0,a0,-1241 # 14717 <end_signature+0x687>
   10bf8:	408020ef          	jal	ra,13000 <FN_WriteStr>
   10bfc:	06400193          	li	gp,100
   10c00:	0000100f          	fence.i
   10c04:	00018063          	beqz	gp,10c04 <reset_vector+0xbb8>
   10c08:	00119193          	slli	gp,gp,0x1
   10c0c:	0011e193          	ori	gp,gp,1
   10c10:	00000073          	ecall
   10c14:	0f000293          	li	t0,240
   10c18:	085b0e63          	beq	s6,t0,10cb4 <reset_vector+0xc68>
   10c1c:	00004517          	auipc	a0,0x4
   10c20:	afd50513          	addi	a0,a0,-1283 # 14719 <end_signature+0x689>
   10c24:	3dc020ef          	jal	ra,13000 <FN_WriteStr>
   10c28:	00004517          	auipc	a0,0x4
   10c2c:	b0c50513          	addi	a0,a0,-1268 # 14734 <end_signature+0x6a4>
   10c30:	3d0020ef          	jal	ra,13000 <FN_WriteStr>
   10c34:	00004517          	auipc	a0,0x4
   10c38:	b0f50513          	addi	a0,a0,-1265 # 14743 <end_signature+0x6b3>
   10c3c:	3c4020ef          	jal	ra,13000 <FN_WriteStr>
   10c40:	00004517          	auipc	a0,0x4
   10c44:	b0b50513          	addi	a0,a0,-1269 # 1474b <end_signature+0x6bb>
   10c48:	3b8020ef          	jal	ra,13000 <FN_WriteStr>
   10c4c:	00004517          	auipc	a0,0x4
   10c50:	b0350513          	addi	a0,a0,-1277 # 1474f <end_signature+0x6bf>
   10c54:	3ac020ef          	jal	ra,13000 <FN_WriteStr>
   10c58:	00004517          	auipc	a0,0x4
   10c5c:	afa50513          	addi	a0,a0,-1286 # 14752 <end_signature+0x6c2>
   10c60:	3a0020ef          	jal	ra,13000 <FN_WriteStr>
   10c64:	00004517          	auipc	a0,0x4
   10c68:	af250513          	addi	a0,a0,-1294 # 14756 <end_signature+0x6c6>
   10c6c:	394020ef          	jal	ra,13000 <FN_WriteStr>
   10c70:	000b0513          	mv	a0,s6
   10c74:	3a8020ef          	jal	ra,1301c <FN_WriteA0>
   10c78:	00004517          	auipc	a0,0x4
   10c7c:	ae050513          	addi	a0,a0,-1312 # 14758 <end_signature+0x6c8>
   10c80:	380020ef          	jal	ra,13000 <FN_WriteStr>
   10c84:	00004517          	auipc	a0,0x4
   10c88:	ada50513          	addi	a0,a0,-1318 # 1475e <end_signature+0x6ce>
   10c8c:	374020ef          	jal	ra,13000 <FN_WriteStr>
   10c90:	00004517          	auipc	a0,0x4
   10c94:	ad950513          	addi	a0,a0,-1319 # 14769 <end_signature+0x6d9>
   10c98:	368020ef          	jal	ra,13000 <FN_WriteStr>
   10c9c:	06400193          	li	gp,100
   10ca0:	0000100f          	fence.i
   10ca4:	00018063          	beqz	gp,10ca4 <reset_vector+0xc58>
   10ca8:	00119193          	slli	gp,gp,0x1
   10cac:	0011e193          	ori	gp,gp,1
   10cb0:	00000073          	ecall
   10cb4:	000012b7          	lui	t0,0x1
   10cb8:	fff28293          	addi	t0,t0,-1 # fff <_start-0xf001>
   10cbc:	085b8e63          	beq	s7,t0,10d58 <reset_vector+0xd0c>
   10cc0:	00004517          	auipc	a0,0x4
   10cc4:	aab50513          	addi	a0,a0,-1365 # 1476b <end_signature+0x6db>
   10cc8:	338020ef          	jal	ra,13000 <FN_WriteStr>
   10ccc:	00004517          	auipc	a0,0x4
   10cd0:	aba50513          	addi	a0,a0,-1350 # 14786 <end_signature+0x6f6>
   10cd4:	32c020ef          	jal	ra,13000 <FN_WriteStr>
   10cd8:	00004517          	auipc	a0,0x4
   10cdc:	abd50513          	addi	a0,a0,-1347 # 14795 <end_signature+0x705>
   10ce0:	320020ef          	jal	ra,13000 <FN_WriteStr>
   10ce4:	00004517          	auipc	a0,0x4
   10ce8:	ab950513          	addi	a0,a0,-1351 # 1479d <end_signature+0x70d>
   10cec:	314020ef          	jal	ra,13000 <FN_WriteStr>
   10cf0:	00004517          	auipc	a0,0x4
   10cf4:	ab150513          	addi	a0,a0,-1359 # 147a1 <end_signature+0x711>
   10cf8:	308020ef          	jal	ra,13000 <FN_WriteStr>
   10cfc:	00004517          	auipc	a0,0x4
   10d00:	aa850513          	addi	a0,a0,-1368 # 147a4 <end_signature+0x714>
   10d04:	2fc020ef          	jal	ra,13000 <FN_WriteStr>
   10d08:	00004517          	auipc	a0,0x4
   10d0c:	aa050513          	addi	a0,a0,-1376 # 147a8 <end_signature+0x718>
   10d10:	2f0020ef          	jal	ra,13000 <FN_WriteStr>
   10d14:	000b8513          	mv	a0,s7
   10d18:	304020ef          	jal	ra,1301c <FN_WriteA0>
   10d1c:	00004517          	auipc	a0,0x4
   10d20:	a8e50513          	addi	a0,a0,-1394 # 147aa <end_signature+0x71a>
   10d24:	2dc020ef          	jal	ra,13000 <FN_WriteStr>
   10d28:	00004517          	auipc	a0,0x4
   10d2c:	a8850513          	addi	a0,a0,-1400 # 147b0 <end_signature+0x720>
   10d30:	2d0020ef          	jal	ra,13000 <FN_WriteStr>
   10d34:	00004517          	auipc	a0,0x4
   10d38:	a8750513          	addi	a0,a0,-1401 # 147bb <end_signature+0x72b>
   10d3c:	2c4020ef          	jal	ra,13000 <FN_WriteStr>
   10d40:	06400193          	li	gp,100
   10d44:	0000100f          	fence.i
   10d48:	00018063          	beqz	gp,10d48 <reset_vector+0xcfc>
   10d4c:	00119193          	slli	gp,gp,0x1
   10d50:	0011e193          	ori	gp,gp,1
   10d54:	00000073          	ecall
   10d58:	00004517          	auipc	a0,0x4
   10d5c:	a6550513          	addi	a0,a0,-1435 # 147bd <end_signature+0x72d>
   10d60:	2a0020ef          	jal	ra,13000 <FN_WriteStr>
   10d64:	00004517          	auipc	a0,0x4
   10d68:	a7450513          	addi	a0,a0,-1420 # 147d8 <end_signature+0x748>
   10d6c:	294020ef          	jal	ra,13000 <FN_WriteStr>
   10d70:	00003a97          	auipc	s5,0x3
   10d74:	2b0a8a93          	addi	s5,s5,688 # 14020 <test_C_data>
   10d78:	00003b17          	auipc	s6,0x3
   10d7c:	308b0b13          	addi	s6,s6,776 # 14080 <test_C_res>
   10d80:	000ad003          	lhu	zero,0(s5)
   10d84:	000b2023          	sw	zero,0(s6)
   10d88:	00000293          	li	t0,0
   10d8c:	08500e63          	beq	zero,t0,10e28 <reset_vector+0xddc>
   10d90:	00004517          	auipc	a0,0x4
   10d94:	a6950513          	addi	a0,a0,-1431 # 147f9 <end_signature+0x769>
   10d98:	268020ef          	jal	ra,13000 <FN_WriteStr>
   10d9c:	00004517          	auipc	a0,0x4
   10da0:	a7850513          	addi	a0,a0,-1416 # 14814 <end_signature+0x784>
   10da4:	25c020ef          	jal	ra,13000 <FN_WriteStr>
   10da8:	00004517          	auipc	a0,0x4
   10dac:	a7b50513          	addi	a0,a0,-1413 # 14823 <end_signature+0x793>
   10db0:	250020ef          	jal	ra,13000 <FN_WriteStr>
   10db4:	00004517          	auipc	a0,0x4
   10db8:	a7750513          	addi	a0,a0,-1417 # 1482b <end_signature+0x79b>
   10dbc:	244020ef          	jal	ra,13000 <FN_WriteStr>
   10dc0:	00004517          	auipc	a0,0x4
   10dc4:	a6f50513          	addi	a0,a0,-1425 # 1482f <end_signature+0x79f>
   10dc8:	238020ef          	jal	ra,13000 <FN_WriteStr>
   10dcc:	00004517          	auipc	a0,0x4
   10dd0:	a6650513          	addi	a0,a0,-1434 # 14832 <end_signature+0x7a2>
   10dd4:	22c020ef          	jal	ra,13000 <FN_WriteStr>
   10dd8:	00004517          	auipc	a0,0x4
   10ddc:	a5d50513          	addi	a0,a0,-1443 # 14835 <end_signature+0x7a5>
   10de0:	220020ef          	jal	ra,13000 <FN_WriteStr>
   10de4:	00000513          	li	a0,0
   10de8:	234020ef          	jal	ra,1301c <FN_WriteA0>
   10dec:	00004517          	auipc	a0,0x4
   10df0:	a4b50513          	addi	a0,a0,-1461 # 14837 <end_signature+0x7a7>
   10df4:	20c020ef          	jal	ra,13000 <FN_WriteStr>
   10df8:	00004517          	auipc	a0,0x4
   10dfc:	a4550513          	addi	a0,a0,-1467 # 1483d <end_signature+0x7ad>
   10e00:	200020ef          	jal	ra,13000 <FN_WriteStr>
   10e04:	00004517          	auipc	a0,0x4
   10e08:	a4450513          	addi	a0,a0,-1468 # 14848 <end_signature+0x7b8>
   10e0c:	1f4020ef          	jal	ra,13000 <FN_WriteStr>
   10e10:	06400193          	li	gp,100
   10e14:	0000100f          	fence.i
   10e18:	00018063          	beqz	gp,10e18 <reset_vector+0xdcc>
   10e1c:	00119193          	slli	gp,gp,0x1
   10e20:	0011e193          	ori	gp,gp,1
   10e24:	00000073          	ecall
   10e28:	00004517          	auipc	a0,0x4
   10e2c:	a2250513          	addi	a0,a0,-1502 # 1484a <end_signature+0x7ba>
   10e30:	1d0020ef          	jal	ra,13000 <FN_WriteStr>
   10e34:	00004517          	auipc	a0,0x4
   10e38:	a3150513          	addi	a0,a0,-1487 # 14865 <end_signature+0x7d5>
   10e3c:	1c4020ef          	jal	ra,13000 <FN_WriteStr>
   10e40:	00003a97          	auipc	s5,0x3
   10e44:	1e4a8a93          	addi	s5,s5,484 # 14024 <test_D_data>
   10e48:	00003b17          	auipc	s6,0x3
   10e4c:	23cb0b13          	addi	s6,s6,572 # 14084 <test_D_res>
   10e50:	000aab83          	lw	s7,0(s5)
   10e54:	000bdc03          	lhu	s8,0(s7)
   10e58:	000c0c93          	mv	s9,s8
   10e5c:	019b2023          	sw	s9,0(s6)
   10e60:	0000e2b7          	lui	t0,0xe
   10e64:	ef028293          	addi	t0,t0,-272 # def0 <_start-0x2110>
   10e68:	085c8e63          	beq	s9,t0,10f04 <reset_vector+0xeb8>
   10e6c:	00004517          	auipc	a0,0x4
   10e70:	a1e50513          	addi	a0,a0,-1506 # 1488a <end_signature+0x7fa>
   10e74:	18c020ef          	jal	ra,13000 <FN_WriteStr>
   10e78:	00004517          	auipc	a0,0x4
   10e7c:	a2d50513          	addi	a0,a0,-1491 # 148a5 <end_signature+0x815>
   10e80:	180020ef          	jal	ra,13000 <FN_WriteStr>
   10e84:	00004517          	auipc	a0,0x4
   10e88:	a3050513          	addi	a0,a0,-1488 # 148b4 <end_signature+0x824>
   10e8c:	174020ef          	jal	ra,13000 <FN_WriteStr>
   10e90:	00004517          	auipc	a0,0x4
   10e94:	a2c50513          	addi	a0,a0,-1492 # 148bc <end_signature+0x82c>
   10e98:	168020ef          	jal	ra,13000 <FN_WriteStr>
   10e9c:	00004517          	auipc	a0,0x4
   10ea0:	a2450513          	addi	a0,a0,-1500 # 148c0 <end_signature+0x830>
   10ea4:	15c020ef          	jal	ra,13000 <FN_WriteStr>
   10ea8:	00004517          	auipc	a0,0x4
   10eac:	a1b50513          	addi	a0,a0,-1509 # 148c3 <end_signature+0x833>
   10eb0:	150020ef          	jal	ra,13000 <FN_WriteStr>
   10eb4:	00004517          	auipc	a0,0x4
   10eb8:	a1350513          	addi	a0,a0,-1517 # 148c7 <end_signature+0x837>
   10ebc:	144020ef          	jal	ra,13000 <FN_WriteStr>
   10ec0:	000c8513          	mv	a0,s9
   10ec4:	158020ef          	jal	ra,1301c <FN_WriteA0>
   10ec8:	00004517          	auipc	a0,0x4
   10ecc:	a0150513          	addi	a0,a0,-1535 # 148c9 <end_signature+0x839>
   10ed0:	130020ef          	jal	ra,13000 <FN_WriteStr>
   10ed4:	00004517          	auipc	a0,0x4
   10ed8:	9fb50513          	addi	a0,a0,-1541 # 148cf <end_signature+0x83f>
   10edc:	124020ef          	jal	ra,13000 <FN_WriteStr>
   10ee0:	00004517          	auipc	a0,0x4
   10ee4:	9fa50513          	addi	a0,a0,-1542 # 148da <end_signature+0x84a>
   10ee8:	118020ef          	jal	ra,13000 <FN_WriteStr>
   10eec:	06400193          	li	gp,100
   10ef0:	0000100f          	fence.i
   10ef4:	00018063          	beqz	gp,10ef4 <reset_vector+0xea8>
   10ef8:	00119193          	slli	gp,gp,0x1
   10efc:	0011e193          	ori	gp,gp,1
   10f00:	00000073          	ecall
   10f04:	00004517          	auipc	a0,0x4
   10f08:	9d850513          	addi	a0,a0,-1576 # 148dc <end_signature+0x84c>
   10f0c:	0f4020ef          	jal	ra,13000 <FN_WriteStr>
   10f10:	00004517          	auipc	a0,0x4
   10f14:	9e750513          	addi	a0,a0,-1561 # 148f7 <end_signature+0x867>
   10f18:	0e8020ef          	jal	ra,13000 <FN_WriteStr>
   10f1c:	00003c97          	auipc	s9,0x3
   10f20:	110c8c93          	addi	s9,s9,272 # 1402c <test_E1_data>
   10f24:	00003d17          	auipc	s10,0x3
   10f28:	164d0d13          	addi	s10,s10,356 # 14088 <test_E1_res>
   10f2c:	000cdc83          	lhu	s9,0(s9)
   10f30:	019d2023          	sw	s9,0(s10)
   10f34:	000032b7          	lui	t0,0x3
   10f38:	21028293          	addi	t0,t0,528 # 3210 <_start-0xcdf0>
   10f3c:	085c8e63          	beq	s9,t0,10fd8 <reset_vector+0xf8c>
   10f40:	00004517          	auipc	a0,0x4
   10f44:	9fb50513          	addi	a0,a0,-1541 # 1493b <end_signature+0x8ab>
   10f48:	0b8020ef          	jal	ra,13000 <FN_WriteStr>
   10f4c:	00004517          	auipc	a0,0x4
   10f50:	a0a50513          	addi	a0,a0,-1526 # 14956 <end_signature+0x8c6>
   10f54:	0ac020ef          	jal	ra,13000 <FN_WriteStr>
   10f58:	00004517          	auipc	a0,0x4
   10f5c:	a0d50513          	addi	a0,a0,-1523 # 14965 <end_signature+0x8d5>
   10f60:	0a0020ef          	jal	ra,13000 <FN_WriteStr>
   10f64:	00004517          	auipc	a0,0x4
   10f68:	a0950513          	addi	a0,a0,-1527 # 1496d <end_signature+0x8dd>
   10f6c:	094020ef          	jal	ra,13000 <FN_WriteStr>
   10f70:	00004517          	auipc	a0,0x4
   10f74:	a0150513          	addi	a0,a0,-1535 # 14971 <end_signature+0x8e1>
   10f78:	088020ef          	jal	ra,13000 <FN_WriteStr>
   10f7c:	00004517          	auipc	a0,0x4
   10f80:	9f850513          	addi	a0,a0,-1544 # 14974 <end_signature+0x8e4>
   10f84:	07c020ef          	jal	ra,13000 <FN_WriteStr>
   10f88:	00004517          	auipc	a0,0x4
   10f8c:	9f050513          	addi	a0,a0,-1552 # 14978 <end_signature+0x8e8>
   10f90:	070020ef          	jal	ra,13000 <FN_WriteStr>
   10f94:	000c8513          	mv	a0,s9
   10f98:	084020ef          	jal	ra,1301c <FN_WriteA0>
   10f9c:	00004517          	auipc	a0,0x4
   10fa0:	9de50513          	addi	a0,a0,-1570 # 1497a <end_signature+0x8ea>
   10fa4:	05c020ef          	jal	ra,13000 <FN_WriteStr>
   10fa8:	00004517          	auipc	a0,0x4
   10fac:	9d850513          	addi	a0,a0,-1576 # 14980 <end_signature+0x8f0>
   10fb0:	050020ef          	jal	ra,13000 <FN_WriteStr>
   10fb4:	00004517          	auipc	a0,0x4
   10fb8:	9d750513          	addi	a0,a0,-1577 # 1498b <end_signature+0x8fb>
   10fbc:	044020ef          	jal	ra,13000 <FN_WriteStr>
   10fc0:	06400193          	li	gp,100
   10fc4:	0000100f          	fence.i
   10fc8:	00018063          	beqz	gp,10fc8 <reset_vector+0xf7c>
   10fcc:	00119193          	slli	gp,gp,0x1
   10fd0:	0011e193          	ori	gp,gp,1
   10fd4:	00000073          	ecall
   10fd8:	00004517          	auipc	a0,0x4
   10fdc:	9b550513          	addi	a0,a0,-1611 # 1498d <end_signature+0x8fd>
   10fe0:	020020ef          	jal	ra,13000 <FN_WriteStr>
   10fe4:	00004517          	auipc	a0,0x4
   10fe8:	9c450513          	addi	a0,a0,-1596 # 149a8 <end_signature+0x918>
   10fec:	014020ef          	jal	ra,13000 <FN_WriteStr>
   10ff0:	00003d97          	auipc	s11,0x3
   10ff4:	041d8d93          	addi	s11,s11,65 # 14031 <test_E2_data+0x1>
   10ff8:	00003e17          	auipc	t3,0x3
   10ffc:	094e0e13          	addi	t3,t3,148 # 1408c <test_E2_res>
   11000:	fffddd83          	lhu	s11,-1(s11)
   11004:	01be2023          	sw	s11,0(t3)
   11008:	0000c2b7          	lui	t0,0xc
   1100c:	a9828293          	addi	t0,t0,-1384 # ba98 <_start-0x4568>
   11010:	085d8e63          	beq	s11,t0,110ac <reset_vector+0x1060>
   11014:	00004517          	auipc	a0,0x4
   11018:	9ea50513          	addi	a0,a0,-1558 # 149fe <end_signature+0x96e>
   1101c:	7e5010ef          	jal	ra,13000 <FN_WriteStr>
   11020:	00004517          	auipc	a0,0x4
   11024:	9f950513          	addi	a0,a0,-1543 # 14a19 <end_signature+0x989>
   11028:	7d9010ef          	jal	ra,13000 <FN_WriteStr>
   1102c:	00004517          	auipc	a0,0x4
   11030:	9fc50513          	addi	a0,a0,-1540 # 14a28 <end_signature+0x998>
   11034:	7cd010ef          	jal	ra,13000 <FN_WriteStr>
   11038:	00004517          	auipc	a0,0x4
   1103c:	9f850513          	addi	a0,a0,-1544 # 14a30 <end_signature+0x9a0>
   11040:	7c1010ef          	jal	ra,13000 <FN_WriteStr>
   11044:	00004517          	auipc	a0,0x4
   11048:	9f050513          	addi	a0,a0,-1552 # 14a34 <end_signature+0x9a4>
   1104c:	7b5010ef          	jal	ra,13000 <FN_WriteStr>
   11050:	00004517          	auipc	a0,0x4
   11054:	9e750513          	addi	a0,a0,-1561 # 14a37 <end_signature+0x9a7>
   11058:	7a9010ef          	jal	ra,13000 <FN_WriteStr>
   1105c:	00004517          	auipc	a0,0x4
   11060:	9df50513          	addi	a0,a0,-1569 # 14a3b <end_signature+0x9ab>
   11064:	79d010ef          	jal	ra,13000 <FN_WriteStr>
   11068:	000d8513          	mv	a0,s11
   1106c:	7b1010ef          	jal	ra,1301c <FN_WriteA0>
   11070:	00004517          	auipc	a0,0x4
   11074:	9cd50513          	addi	a0,a0,-1587 # 14a3d <end_signature+0x9ad>
   11078:	789010ef          	jal	ra,13000 <FN_WriteStr>
   1107c:	00004517          	auipc	a0,0x4
   11080:	9c750513          	addi	a0,a0,-1593 # 14a43 <end_signature+0x9b3>
   11084:	77d010ef          	jal	ra,13000 <FN_WriteStr>
   11088:	00004517          	auipc	a0,0x4
   1108c:	9c650513          	addi	a0,a0,-1594 # 14a4e <end_signature+0x9be>
   11090:	771010ef          	jal	ra,13000 <FN_WriteStr>
   11094:	06400193          	li	gp,100
   11098:	0000100f          	fence.i
   1109c:	00018063          	beqz	gp,1109c <reset_vector+0x1050>
   110a0:	00119193          	slli	gp,gp,0x1
   110a4:	0011e193          	ori	gp,gp,1
   110a8:	00000073          	ecall
   110ac:	00004517          	auipc	a0,0x4
   110b0:	9a450513          	addi	a0,a0,-1628 # 14a50 <end_signature+0x9c0>
   110b4:	74d010ef          	jal	ra,13000 <FN_WriteStr>
   110b8:	00004517          	auipc	a0,0x4
   110bc:	9b450513          	addi	a0,a0,-1612 # 14a6c <end_signature+0x9dc>
   110c0:	741010ef          	jal	ra,13000 <FN_WriteStr>
   110c4:	0000100f          	fence.i
   110c8:	00100193          	li	gp,1
   110cc:	00000073          	ecall
   110d0:	c0001073          	unimp
	...

Disassembly of section .tohost:

00012000 <tohost>:
	...

00012100 <fromhost>:
	...

Disassembly of section .text:

00013000 <FN_WriteStr>:
   13000:	00050293          	mv	t0,a0
   13004:	0002c503          	lbu	a0,0(t0)
   13008:	00128293          	addi	t0,t0,1
   1300c:	00050663          	beqz	a0,13018 <FN_WriteStr+0x18>
   13010:	0005200b          	0x5200b
   13014:	ff1ff06f          	j	13004 <FN_WriteStr+0x4>
   13018:	00008067          	ret

0001301c <FN_WriteA0>:
   1301c:	00050293          	mv	t0,a0
   13020:	fff00513          	li	a0,-1
   13024:	01f55513          	srli	a0,a0,0x1f
   13028:	00155513          	srli	a0,a0,0x1
   1302c:	02051463          	bnez	a0,13054 <FN_WriteA0_64>

00013030 <FN_WriteA0_32>:
   13030:	00800313          	li	t1,8
   13034:	00439393          	slli	t2,t2,0x4
   13038:	00f2f513          	andi	a0,t0,15
   1303c:	0042d293          	srli	t0,t0,0x4
   13040:	00a3e3b3          	or	t2,t2,a0
   13044:	fff30313          	addi	t1,t1,-1
   13048:	fe0316e3          	bnez	t1,13034 <FN_WriteA0_32+0x4>
   1304c:	00800313          	li	t1,8
   13050:	0240006f          	j	13074 <FN_WriteA0_common>

00013054 <FN_WriteA0_64>:
   13054:	01000313          	li	t1,16
   13058:	00439393          	slli	t2,t2,0x4
   1305c:	00f2f513          	andi	a0,t0,15
   13060:	0042d293          	srli	t0,t0,0x4
   13064:	00a3e3b3          	or	t2,t2,a0
   13068:	fff30313          	addi	t1,t1,-1
   1306c:	fe0316e3          	bnez	t1,13058 <FN_WriteA0_64+0x4>
   13070:	01000313          	li	t1,16

00013074 <FN_WriteA0_common>:
   13074:	00a00293          	li	t0,10
   13078:	00f3f513          	andi	a0,t2,15
   1307c:	00554663          	blt	a0,t0,13088 <FN_WriteA0_common+0x14>
   13080:	05750513          	addi	a0,a0,87
   13084:	0080006f          	j	1308c <FN_WriteA0_common+0x18>
   13088:	03050513          	addi	a0,a0,48
   1308c:	0005200b          	0x5200b
   13090:	0043d393          	srli	t2,t2,0x4
   13094:	fff30313          	addi	t1,t1,-1
   13098:	fe0310e3          	bnez	t1,13078 <FN_WriteA0_common+0x4>
   1309c:	00008067          	ret

Disassembly of section .data:

00014000 <test_A1_data>:
   14000:	f222                	fsw	fs0,36(sp)
   14002:	11f1                	addi	gp,gp,-4

00014004 <test_A2_data>:
   14004:	44f4                	lw	a3,76(s1)
   14006:	          	0xf666f333

00014008 <test_A3_data>:
   14008:	f666                	fsw	fs9,44(sp)
   1400a:	55f5                	li	a1,-3

0001400c <test_A4_data>:
   1400c:	88f8                	0x88f8
   1400e:	          	0xaaaf777

00014010 <test_A5_data>:
   14010:	0aaa                	slli	s5,s5,0xa
   14012:	9909                	andi	a0,a0,-30
   14014:	cc0c                	sw	a1,24(s0)
   14016:	          	0xeee0bbb

00014018 <test_B_data>:
   14018:	0eee                	slli	t4,t4,0x1b
   1401a:	dd0d                	beqz	a0,13f54 <FN_WriteA0_common+0xee0>
   1401c:	00f0                	addi	a2,sp,76
   1401e:	0fff                	0xfff

00014020 <test_C_data>:
   14020:	5678                	lw	a4,108(a2)
   14022:	1234                	addi	a3,sp,296

00014024 <test_D_data>:
   14024:	4028                	lw	a0,64(s0)
   14026:	0001                	nop

00014028 <test_D_data2_label>:
   14028:	def0                	sw	a2,124(a3)
   1402a:	9abc                	0x9abc

0001402c <test_E1_data>:
   1402c:	3210                	fld	fa2,32(a2)
   1402e:	7654                	flw	fa3,44(a2)

00014030 <test_E2_data>:
   14030:	ba98                	fsd	fa4,48(a3)
   14032:	fedc                	fsw	fa5,60(a3)
	...

00014040 <begin_signature>:
   14040:	ffff                	0xffff
   14042:	ffff                	0xffff
   14044:	ffff                	0xffff
   14046:	ffff                	0xffff

00014048 <test_A2_res>:
   14048:	ffff                	0xffff
   1404a:	ffff                	0xffff
   1404c:	ffff                	0xffff
   1404e:	ffff                	0xffff

00014050 <test_A3_res>:
   14050:	ffff                	0xffff
   14052:	ffff                	0xffff
   14054:	ffff                	0xffff
   14056:	ffff                	0xffff

00014058 <test_A4_res>:
   14058:	ffff                	0xffff
   1405a:	ffff                	0xffff
   1405c:	ffff                	0xffff
   1405e:	ffff                	0xffff

00014060 <test_A5_res>:
   14060:	ffff                	0xffff
   14062:	ffff                	0xffff
   14064:	ffff                	0xffff
   14066:	ffff                	0xffff

00014068 <test_B_res>:
   14068:	ffff                	0xffff
   1406a:	ffff                	0xffff
   1406c:	ffff                	0xffff
   1406e:	ffff                	0xffff
   14070:	ffff                	0xffff
   14072:	ffff                	0xffff
   14074:	ffff                	0xffff
   14076:	ffff                	0xffff
   14078:	ffff                	0xffff
   1407a:	ffff                	0xffff
   1407c:	ffff                	0xffff
   1407e:	ffff                	0xffff

00014080 <test_C_res>:
   14080:	ffff                	0xffff
   14082:	ffff                	0xffff

00014084 <test_D_res>:
   14084:	ffff                	0xffff
   14086:	ffff                	0xffff

00014088 <test_E1_res>:
   14088:	ffff                	0xffff
   1408a:	ffff                	0xffff

0001408c <test_E2_res>:
   1408c:	ffff                	0xffff
   1408e:	ffff                	0xffff

Disassembly of section .data.string:

00014090 <_end-0x9e8>:
   14090:	7341                	lui	t1,0xffff0
   14092:	74726573          	csrrsi	a0,0x747,4
   14096:	6f69                	lui	t5,0x1a
   14098:	206e                	fld	ft0,216(sp)
   1409a:	6976                	flw	fs2,92(sp)
   1409c:	74616c6f          	jal	s8,2a7e2 <_end+0x15d6a>
   140a0:	6f69                	lui	t5,0x1a
   140a2:	3a6e                	fld	fs4,248(sp)
   140a4:	6620                	flw	fs0,72(a2)
   140a6:	6c69                	lui	s8,0x1a
   140a8:	2065                	jal	14150 <end_signature+0xc0>
   140aa:	7300                	flw	fs0,32(a4)
   140ac:	6372                	flw	ft6,28(sp)
   140ae:	4c2d492f          	0x4c2d492f
   140b2:	5548                	lw	a0,44(a0)
   140b4:	302d                	jal	138de <FN_WriteA0_common+0x86a>
   140b6:	2e31                	jal	143d2 <end_signature+0x342>
   140b8:	202c0053          	fsgnj.s	ft0,fs8,ft2
   140bc:	696c                	flw	fa1,84(a0)
   140be:	656e                	flw	fa0,216(sp)
   140c0:	0020                	addi	s0,sp,8
   140c2:	3134                	fld	fa3,96(a0)
   140c4:	3a00                	fld	fs0,48(a2)
   140c6:	0020                	addi	s0,sp,8
   140c8:	3078                	fld	fa4,224(s0)
   140ca:	2800                	fld	fs0,16(s0)
   140cc:	2900                	fld	fs0,16(a0)
   140ce:	2120                	fld	fs0,64(a0)
   140d0:	203d                	jal	140fe <end_signature+0x6e>
   140d2:	3000                	fld	fs0,32(s0)
   140d4:	3078                	fld	fa4,224(s0)
   140d6:	3030                	fld	fa2,96(s0)
   140d8:	3030                	fld	fa2,96(s0)
   140da:	3030                	fld	fa2,96(s0)
   140dc:	0030                	addi	a2,sp,8
   140de:	000a                	c.slli	zero,0x2
   140e0:	65542023          	sw	s5,1600(s0)
   140e4:	42207473          	csrrci	s0,0x422,0
   140e8:	6765                	lui	a4,0x19
   140ea:	6e69                	lui	t3,0x1a
   140ec:	5220                	lw	s0,96(a2)
   140ee:	7365                	lui	t1,0xffff9
   140f0:	7265                	lui	tp,0xffff9
   140f2:	6576                	flw	fa0,92(sp)
   140f4:	2064                	fld	fs1,192(s0)
   140f6:	6572                	flw	fa0,28(sp)
   140f8:	72207367          	0x72207367
   140fc:	2861                	jal	14194 <end_signature+0x104>
   140fe:	3178                	fld	fa4,224(a0)
   14100:	2029                	jal	1410a <end_signature+0x7a>
   14102:	3061                	jal	1398a <FN_WriteA0_common+0x916>
   14104:	7828                	flw	fa0,112(s0)
   14106:	3031                	jal	13912 <FN_WriteA0_common+0x89e>
   14108:	2029                	jal	14112 <end_signature+0x82>
   1410a:	3074                	fld	fa3,224(s0)
   1410c:	7828                	flw	fa0,112(s0)
   1410e:	2935                	jal	1454a <end_signature+0x4ba>
   14110:	000a                	c.slli	zero,0x2
   14112:	65542023          	sw	s5,1600(s0)
   14116:	70207473          	csrrci	s0,0x702,0
   1411a:	7261                	lui	tp,0xffff8
   1411c:	2074                	fld	fa3,192(s0)
   1411e:	3141                	jal	13d9e <FN_WriteA0_common+0xd2a>
   14120:	2d20                	fld	fs0,88(a0)
   14122:	7420                	flw	fs0,104(s0)
   14124:	7365                	lui	t1,0xffff9
   14126:	2074                	fld	fa3,192(s0)
   14128:	6162                	flw	ft2,24(sp)
   1412a:	61206573          	csrrsi	a0,0x612,0
   1412e:	6464                	flw	fs1,76(s0)
   14130:	6572                	flw	fa0,28(sp)
   14132:	2b207373          	csrrci	t1,0x2b2,0
   14136:	3020                	fld	fs0,96(s0)
   14138:	000a                	c.slli	zero,0x2
   1413a:	7341                	lui	t1,0xffff0
   1413c:	74726573          	csrrsi	a0,0x747,4
   14140:	6f69                	lui	t5,0x1a
   14142:	206e                	fld	ft0,216(sp)
   14144:	6976                	flw	fs2,92(sp)
   14146:	74616c6f          	jal	s8,2a88c <_end+0x15e14>
   1414a:	6f69                	lui	t5,0x1a
   1414c:	3a6e                	fld	fs4,248(sp)
   1414e:	6620                	flw	fs0,72(a2)
   14150:	6c69                	lui	s8,0x1a
   14152:	2065                	jal	141fa <end_signature+0x16a>
   14154:	7300                	flw	fs0,32(a4)
   14156:	6372                	flw	ft6,28(sp)
   14158:	4c2d492f          	0x4c2d492f
   1415c:	5548                	lw	a0,44(a0)
   1415e:	302d                	jal	13988 <FN_WriteA0_common+0x914>
   14160:	2e31                	jal	1447c <end_signature+0x3ec>
   14162:	202c0053          	fsgnj.s	ft0,fs8,ft2
   14166:	696c                	flw	fa1,84(a0)
   14168:	656e                	flw	fa0,216(sp)
   1416a:	0020                	addi	s0,sp,8
   1416c:	3336                	fld	ft6,360(sp)
   1416e:	3a00                	fld	fs0,48(a2)
   14170:	0020                	addi	s0,sp,8
   14172:	3378                	fld	fa4,224(a4)
   14174:	2800                	fld	fs0,16(s0)
   14176:	2900                	fld	fs0,16(a0)
   14178:	2120                	fld	fs0,64(a0)
   1417a:	203d                	jal	141a8 <end_signature+0x118>
   1417c:	3000                	fld	fs0,32(s0)
   1417e:	3078                	fld	fa4,224(s0)
   14180:	3030                	fld	fa2,96(s0)
   14182:	4630                	lw	a2,72(a2)
   14184:	3232                	fld	ft4,296(sp)
   14186:	0032                	c.slli	zero,0xc
   14188:	000a                	c.slli	zero,0x2
   1418a:	7341                	lui	t1,0xffff0
   1418c:	74726573          	csrrsi	a0,0x747,4
   14190:	6f69                	lui	t5,0x1a
   14192:	206e                	fld	ft0,216(sp)
   14194:	6976                	flw	fs2,92(sp)
   14196:	74616c6f          	jal	s8,2a8dc <_end+0x15e64>
   1419a:	6f69                	lui	t5,0x1a
   1419c:	3a6e                	fld	fs4,248(sp)
   1419e:	6620                	flw	fs0,72(a2)
   141a0:	6c69                	lui	s8,0x1a
   141a2:	2065                	jal	1424a <end_signature+0x1ba>
   141a4:	7300                	flw	fs0,32(a4)
   141a6:	6372                	flw	ft6,28(sp)
   141a8:	4c2d492f          	0x4c2d492f
   141ac:	5548                	lw	a0,44(a0)
   141ae:	302d                	jal	139d8 <FN_WriteA0_common+0x964>
   141b0:	2e31                	jal	144cc <end_signature+0x43c>
   141b2:	202c0053          	fsgnj.s	ft0,fs8,ft2
   141b6:	696c                	flw	fa1,84(a0)
   141b8:	656e                	flw	fa0,216(sp)
   141ba:	0020                	addi	s0,sp,8
   141bc:	3436                	fld	fs0,360(sp)
   141be:	3a00                	fld	fs0,48(a2)
   141c0:	0020                	addi	s0,sp,8
   141c2:	3478                	fld	fa4,232(s0)
   141c4:	2800                	fld	fs0,16(s0)
   141c6:	2900                	fld	fs0,16(a0)
   141c8:	2120                	fld	fs0,64(a0)
   141ca:	203d                	jal	141f8 <end_signature+0x168>
   141cc:	3000                	fld	fs0,32(s0)
   141ce:	3078                	fld	fa4,224(s0)
   141d0:	3030                	fld	fa2,96(s0)
   141d2:	3130                	fld	fa2,96(a0)
   141d4:	4631                	li	a2,12
   141d6:	0031                	c.nop	12
   141d8:	000a                	c.slli	zero,0x2
   141da:	65542023          	sw	s5,1600(s0)
   141de:	70207473          	csrrci	s0,0x702,0
   141e2:	7261                	lui	tp,0xffff8
   141e4:	2074                	fld	fa3,192(s0)
   141e6:	3141                	jal	13e66 <FN_WriteA0_common+0xdf2>
   141e8:	2020                	fld	fs0,64(s0)
   141ea:	202d                	jal	14214 <end_signature+0x184>
   141ec:	706d6f43          	fmadd.s	ft10,fs10,ft6,fa4,unknown
   141f0:	656c                	flw	fa1,76(a0)
   141f2:	6574                	flw	fa3,76(a0)
   141f4:	000a                	c.slli	zero,0x2
   141f6:	65542023          	sw	s5,1600(s0)
   141fa:	70207473          	csrrci	s0,0x702,0
   141fe:	7261                	lui	tp,0xffff8
   14200:	2074                	fld	fa3,192(s0)
   14202:	3241                	jal	13b82 <FN_WriteA0_common+0xb0e>
   14204:	2d20                	fld	fs0,88(a0)
   14206:	7420                	flw	fs0,104(s0)
   14208:	7365                	lui	t1,0xffff9
   1420a:	2074                	fld	fa3,192(s0)
   1420c:	6162                	flw	ft2,24(sp)
   1420e:	61206573          	csrrsi	a0,0x612,0
   14212:	6464                	flw	fs1,76(s0)
   14214:	6572                	flw	fa0,28(sp)
   14216:	2d207373          	csrrci	t1,0x2d2,0
   1421a:	3120                	fld	fs0,96(a0)
   1421c:	000a                	c.slli	zero,0x2
   1421e:	7341                	lui	t1,0xffff0
   14220:	74726573          	csrrsi	a0,0x747,4
   14224:	6f69                	lui	t5,0x1a
   14226:	206e                	fld	ft0,216(sp)
   14228:	6976                	flw	fs2,92(sp)
   1422a:	74616c6f          	jal	s8,2a970 <_end+0x15ef8>
   1422e:	6f69                	lui	t5,0x1a
   14230:	3a6e                	fld	fs4,248(sp)
   14232:	6620                	flw	fs0,72(a2)
   14234:	6c69                	lui	s8,0x1a
   14236:	2065                	jal	142de <end_signature+0x24e>
   14238:	7300                	flw	fs0,32(a4)
   1423a:	6372                	flw	ft6,28(sp)
   1423c:	4c2d492f          	0x4c2d492f
   14240:	5548                	lw	a0,44(a0)
   14242:	302d                	jal	13a6c <FN_WriteA0_common+0x9f8>
   14244:	2e31                	jal	14560 <end_signature+0x4d0>
   14246:	202c0053          	fsgnj.s	ft0,fs8,ft2
   1424a:	696c                	flw	fa1,84(a0)
   1424c:	656e                	flw	fa0,216(sp)
   1424e:	0020                	addi	s0,sp,8
   14250:	3338                	fld	fa4,96(a4)
   14252:	3a00                	fld	fs0,48(a2)
   14254:	0020                	addi	s0,sp,8
   14256:	3278                	fld	fa4,224(a2)
   14258:	0035                	c.nop	13
   1425a:	0028                	addi	a0,sp,8
   1425c:	2029                	jal	14266 <end_signature+0x1d6>
   1425e:	3d21                	jal	14076 <test_B_res+0xe>
   14260:	0020                	addi	s0,sp,8
   14262:	7830                	flw	fa2,112(s0)
   14264:	3030                	fld	fa2,96(s0)
   14266:	3030                	fld	fa2,96(s0)
   14268:	3434                	fld	fa3,104(s0)
   1426a:	3446                	fld	fs0,112(sp)
   1426c:	0a00                	addi	s0,sp,272
   1426e:	4100                	lw	s0,0(a0)
   14270:	72657373          	csrrci	t1,0x726,10
   14274:	6974                	flw	fa3,84(a0)
   14276:	76206e6f          	jal	t3,1a9d8 <_end+0x5f60>
   1427a:	6f69                	lui	t5,0x1a
   1427c:	616c                	flw	fa1,68(a0)
   1427e:	6974                	flw	fa3,84(a0)
   14280:	203a6e6f          	jal	t3,bac82 <_end+0xa620a>
   14284:	6966                	flw	fs2,88(sp)
   14286:	656c                	flw	fa1,76(a0)
   14288:	0020                	addi	s0,sp,8
   1428a:	2f637273          	csrrci	tp,0x2f6,6
   1428e:	2d49                	jal	14920 <end_signature+0x890>
   14290:	484c                	lw	a1,20(s0)
   14292:	2d55                	jal	14946 <end_signature+0x8b6>
   14294:	3130                	fld	fa2,96(a0)
   14296:	532e                	lw	t1,232(sp)
   14298:	2c00                	fld	fs0,24(s0)
   1429a:	6c20                	flw	fs0,88(s0)
   1429c:	6e69                	lui	t3,0x1a
   1429e:	2065                	jal	14346 <end_signature+0x2b6>
   142a0:	3800                	fld	fs0,48(s0)
   142a2:	0034                	addi	a3,sp,8
   142a4:	203a                	fld	ft0,392(sp)
   142a6:	7800                	flw	fs0,48(s0)
   142a8:	3632                	fld	fa2,296(sp)
   142aa:	2800                	fld	fs0,16(s0)
   142ac:	2900                	fld	fs0,16(a0)
   142ae:	2120                	fld	fs0,64(a0)
   142b0:	203d                	jal	142de <end_signature+0x24e>
   142b2:	3000                	fld	fs0,32(s0)
   142b4:	3078                	fld	fa4,224(s0)
   142b6:	3030                	fld	fa2,96(s0)
   142b8:	4630                	lw	a2,72(a2)
   142ba:	00333333          	sltu	t1,t1,gp
   142be:	000a                	c.slli	zero,0x2
   142c0:	65542023          	sw	s5,1600(s0)
   142c4:	70207473          	csrrci	s0,0x702,0
   142c8:	7261                	lui	tp,0xffff8
   142ca:	2074                	fld	fa3,192(s0)
   142cc:	3241                	jal	13c4c <FN_WriteA0_common+0xbd8>
   142ce:	2020                	fld	fs0,64(s0)
   142d0:	202d                	jal	142fa <end_signature+0x26a>
   142d2:	706d6f43          	fmadd.s	ft10,fs10,ft6,fa4,unknown
   142d6:	656c                	flw	fa1,76(a0)
   142d8:	6574                	flw	fa3,76(a0)
   142da:	000a                	c.slli	zero,0x2
   142dc:	65542023          	sw	s5,1600(s0)
   142e0:	70207473          	csrrci	s0,0x702,0
   142e4:	7261                	lui	tp,0xffff8
   142e6:	2074                	fld	fa3,192(s0)
   142e8:	3341                	jal	14068 <test_B_res>
   142ea:	2d20                	fld	fs0,88(a0)
   142ec:	7420                	flw	fs0,104(s0)
   142ee:	7365                	lui	t1,0xffff9
   142f0:	2074                	fld	fa3,192(s0)
   142f2:	6162                	flw	ft2,24(sp)
   142f4:	61206573          	csrrsi	a0,0x612,0
   142f8:	6464                	flw	fs1,76(s0)
   142fa:	6572                	flw	fa0,28(sp)
   142fc:	2b207373          	csrrci	t1,0x2b2,0
   14300:	3120                	fld	fs0,96(a0)
   14302:	000a                	c.slli	zero,0x2
   14304:	7341                	lui	t1,0xffff0
   14306:	74726573          	csrrsi	a0,0x747,4
   1430a:	6f69                	lui	t5,0x1a
   1430c:	206e                	fld	ft0,216(sp)
   1430e:	6976                	flw	fs2,92(sp)
   14310:	74616c6f          	jal	s8,2aa56 <_end+0x15fde>
   14314:	6f69                	lui	t5,0x1a
   14316:	3a6e                	fld	fs4,248(sp)
   14318:	6620                	flw	fs0,72(a2)
   1431a:	6c69                	lui	s8,0x1a
   1431c:	2065                	jal	143c4 <end_signature+0x334>
   1431e:	7300                	flw	fs0,32(a4)
   14320:	6372                	flw	ft6,28(sp)
   14322:	4c2d492f          	0x4c2d492f
   14326:	5548                	lw	a0,44(a0)
   14328:	302d                	jal	13b52 <FN_WriteA0_common+0xade>
   1432a:	2e31                	jal	14646 <end_signature+0x5b6>
   1432c:	202c0053          	fsgnj.s	ft0,fs8,ft2
   14330:	696c                	flw	fa1,84(a0)
   14332:	656e                	flw	fa0,216(sp)
   14334:	0020                	addi	s0,sp,8
   14336:	3031                	jal	13b42 <FN_WriteA0_common+0xace>
   14338:	203a0033          	0x203a0033
   1433c:	7800                	flw	fs0,48(s0)
   1433e:	28003033          	0x28003033
   14342:	2900                	fld	fs0,16(a0)
   14344:	2120                	fld	fs0,64(a0)
   14346:	203d                	jal	14374 <end_signature+0x2e4>
   14348:	3000                	fld	fs0,32(s0)
   1434a:	3078                	fld	fa4,224(s0)
   1434c:	3030                	fld	fa2,96(s0)
   1434e:	4630                	lw	a2,72(a2)
   14350:	3636                	fld	fa2,360(sp)
   14352:	0036                	c.slli	zero,0xd
   14354:	000a                	c.slli	zero,0x2
   14356:	7341                	lui	t1,0xffff0
   14358:	74726573          	csrrsi	a0,0x747,4
   1435c:	6f69                	lui	t5,0x1a
   1435e:	206e                	fld	ft0,216(sp)
   14360:	6976                	flw	fs2,92(sp)
   14362:	74616c6f          	jal	s8,2aaa8 <_end+0x16030>
   14366:	6f69                	lui	t5,0x1a
   14368:	3a6e                	fld	fs4,248(sp)
   1436a:	6620                	flw	fs0,72(a2)
   1436c:	6c69                	lui	s8,0x1a
   1436e:	2065                	jal	14416 <end_signature+0x386>
   14370:	7300                	flw	fs0,32(a4)
   14372:	6372                	flw	ft6,28(sp)
   14374:	4c2d492f          	0x4c2d492f
   14378:	5548                	lw	a0,44(a0)
   1437a:	302d                	jal	13ba4 <FN_WriteA0_common+0xb30>
   1437c:	2e31                	jal	14698 <end_signature+0x608>
   1437e:	202c0053          	fsgnj.s	ft0,fs8,ft2
   14382:	696c                	flw	fa1,84(a0)
   14384:	656e                	flw	fa0,216(sp)
   14386:	0020                	addi	s0,sp,8
   14388:	3031                	jal	13b94 <FN_WriteA0_common+0xb20>
   1438a:	0034                	addi	a3,sp,8
   1438c:	203a                	fld	ft0,392(sp)
   1438e:	7800                	flw	fs0,48(s0)
   14390:	28003133          	0x28003133
   14394:	2900                	fld	fs0,16(a0)
   14396:	2120                	fld	fs0,64(a0)
   14398:	203d                	jal	143c6 <end_signature+0x336>
   1439a:	3000                	fld	fs0,32(s0)
   1439c:	3078                	fld	fa4,224(s0)
   1439e:	3030                	fld	fa2,96(s0)
   143a0:	3530                	fld	fa2,104(a0)
   143a2:	4635                	li	a2,13
   143a4:	0035                	c.nop	13
   143a6:	000a                	c.slli	zero,0x2
   143a8:	65542023          	sw	s5,1600(s0)
   143ac:	70207473          	csrrci	s0,0x702,0
   143b0:	7261                	lui	tp,0xffff8
   143b2:	2074                	fld	fa3,192(s0)
   143b4:	3341                	jal	14134 <end_signature+0xa4>
   143b6:	2020                	fld	fs0,64(s0)
   143b8:	202d                	jal	143e2 <end_signature+0x352>
   143ba:	706d6f43          	fmadd.s	ft10,fs10,ft6,fa4,unknown
   143be:	656c                	flw	fa1,76(a0)
   143c0:	6574                	flw	fa3,76(a0)
   143c2:	000a                	c.slli	zero,0x2
   143c4:	65542023          	sw	s5,1600(s0)
   143c8:	70207473          	csrrci	s0,0x702,0
   143cc:	7261                	lui	tp,0xffff8
   143ce:	2074                	fld	fa3,192(s0)
   143d0:	3441                	jal	13e50 <FN_WriteA0_common+0xddc>
   143d2:	2d20                	fld	fs0,88(a0)
   143d4:	7420                	flw	fs0,104(s0)
   143d6:	7365                	lui	t1,0xffff9
   143d8:	2074                	fld	fa3,192(s0)
   143da:	6162                	flw	ft2,24(sp)
   143dc:	61206573          	csrrsi	a0,0x612,0
   143e0:	6464                	flw	fs1,76(s0)
   143e2:	6572                	flw	fa0,28(sp)
   143e4:	2d207373          	csrrci	t1,0x2d2,0
   143e8:	3220                	fld	fs0,96(a2)
   143ea:	3430                	fld	fa2,104(s0)
   143ec:	0a38                	addi	a4,sp,280
   143ee:	4100                	lw	s0,0(a0)
   143f0:	72657373          	csrrci	t1,0x726,10
   143f4:	6974                	flw	fa3,84(a0)
   143f6:	76206e6f          	jal	t3,1ab58 <_end+0x60e0>
   143fa:	6f69                	lui	t5,0x1a
   143fc:	616c                	flw	fa1,68(a0)
   143fe:	6974                	flw	fa3,84(a0)
   14400:	203a6e6f          	jal	t3,bae02 <_end+0xa638a>
   14404:	6966                	flw	fs2,88(sp)
   14406:	656c                	flw	fa1,76(a0)
   14408:	0020                	addi	s0,sp,8
   1440a:	2f637273          	csrrci	tp,0x2f6,6
   1440e:	2d49                	jal	14aa0 <_end+0x28>
   14410:	484c                	lw	a1,20(s0)
   14412:	2d55                	jal	14ac6 <_end+0x4e>
   14414:	3130                	fld	fa2,96(a0)
   14416:	532e                	lw	t1,232(sp)
   14418:	2c00                	fld	fs0,24(s0)
   1441a:	6c20                	flw	fs0,88(s0)
   1441c:	6e69                	lui	t3,0x1a
   1441e:	2065                	jal	144c6 <end_signature+0x436>
   14420:	3100                	fld	fs0,32(a0)
   14422:	3332                	fld	ft6,296(sp)
   14424:	3a00                	fld	fs0,48(a2)
   14426:	0020                	addi	s0,sp,8
   14428:	3178                	fld	fa4,224(a0)
   1442a:	0032                	c.slli	zero,0xc
   1442c:	0028                	addi	a0,sp,8
   1442e:	2029                	jal	14438 <end_signature+0x3a8>
   14430:	3d21                	jal	14248 <end_signature+0x1b8>
   14432:	0020                	addi	s0,sp,8
   14434:	7830                	flw	fa2,112(s0)
   14436:	3030                	fld	fa2,96(s0)
   14438:	3030                	fld	fa2,96(s0)
   1443a:	3838                	fld	fa4,112(s0)
   1443c:	3846                	fld	fa6,112(sp)
   1443e:	0a00                	addi	s0,sp,272
   14440:	4100                	lw	s0,0(a0)
   14442:	72657373          	csrrci	t1,0x726,10
   14446:	6974                	flw	fa3,84(a0)
   14448:	76206e6f          	jal	t3,1abaa <_end+0x6132>
   1444c:	6f69                	lui	t5,0x1a
   1444e:	616c                	flw	fa1,68(a0)
   14450:	6974                	flw	fa3,84(a0)
   14452:	203a6e6f          	jal	t3,bae54 <_end+0xa63dc>
   14456:	6966                	flw	fs2,88(sp)
   14458:	656c                	flw	fa1,76(a0)
   1445a:	0020                	addi	s0,sp,8
   1445c:	2f637273          	csrrci	tp,0x2f6,6
   14460:	2d49                	jal	14af2 <_end+0x7a>
   14462:	484c                	lw	a1,20(s0)
   14464:	2d55                	jal	14b18 <_end+0xa0>
   14466:	3130                	fld	fa2,96(a0)
   14468:	532e                	lw	t1,232(sp)
   1446a:	2c00                	fld	fs0,24(s0)
   1446c:	6c20                	flw	fs0,88(s0)
   1446e:	6e69                	lui	t3,0x1a
   14470:	2065                	jal	14518 <end_signature+0x488>
   14472:	3100                	fld	fs0,32(a0)
   14474:	3432                	fld	fs0,296(sp)
   14476:	3a00                	fld	fs0,48(a2)
   14478:	0020                	addi	s0,sp,8
   1447a:	3178                	fld	fa4,224(a0)
   1447c:	00280033          	add	zero,a6,sp
   14480:	2029                	jal	1448a <end_signature+0x3fa>
   14482:	3d21                	jal	1429a <end_signature+0x20a>
   14484:	0020                	addi	s0,sp,8
   14486:	7830                	flw	fa2,112(s0)
   14488:	3030                	fld	fa2,96(s0)
   1448a:	3030                	fld	fa2,96(s0)
   1448c:	3746                	fld	fa4,112(sp)
   1448e:	0a003737          	lui	a4,0xa003
   14492:	2300                	fld	fs0,0(a4)
   14494:	5420                	lw	s0,104(s0)
   14496:	7365                	lui	t1,0xffff9
   14498:	2074                	fld	fa3,192(s0)
   1449a:	6170                	flw	fa2,68(a0)
   1449c:	7472                	flw	fs0,60(sp)
   1449e:	4120                	lw	s0,64(a0)
   144a0:	2034                	fld	fa3,64(s0)
   144a2:	2d20                	fld	fs0,88(a0)
   144a4:	4320                	lw	s0,64(a4)
   144a6:	6c706d6f          	jal	s10,1b36c <_end+0x68f4>
   144aa:	7465                	lui	s0,0xffff9
   144ac:	0a65                	addi	s4,s4,25
   144ae:	2300                	fld	fs0,0(a4)
   144b0:	5420                	lw	s0,104(s0)
   144b2:	7365                	lui	t1,0xffff9
   144b4:	2074                	fld	fa3,192(s0)
   144b6:	6170                	flw	fa2,68(a0)
   144b8:	7472                	flw	fs0,60(sp)
   144ba:	4120                	lw	s0,64(a0)
   144bc:	2035                	jal	144e8 <end_signature+0x458>
   144be:	202d                	jal	144e8 <end_signature+0x458>
   144c0:	6574                	flw	fa3,76(a0)
   144c2:	62207473          	csrrci	s0,0x622,0
   144c6:	7361                	lui	t1,0xffff8
   144c8:	2065                	jal	14570 <end_signature+0x4e0>
   144ca:	6461                	lui	s0,0x18
   144cc:	7264                	flw	fs1,100(a2)
   144ce:	7365                	lui	t1,0xffff9
   144d0:	202b2073          	csrs	hedeleg,s6
   144d4:	3032                	fld	ft0,296(sp)
   144d6:	3734                	fld	fa3,104(a4)
   144d8:	000a                	c.slli	zero,0x2
   144da:	7341                	lui	t1,0xffff0
   144dc:	74726573          	csrrsi	a0,0x747,4
   144e0:	6f69                	lui	t5,0x1a
   144e2:	206e                	fld	ft0,216(sp)
   144e4:	6976                	flw	fs2,92(sp)
   144e6:	74616c6f          	jal	s8,2ac2c <_end+0x161b4>
   144ea:	6f69                	lui	t5,0x1a
   144ec:	3a6e                	fld	fs4,248(sp)
   144ee:	6620                	flw	fs0,72(a2)
   144f0:	6c69                	lui	s8,0x1a
   144f2:	2065                	jal	1459a <end_signature+0x50a>
   144f4:	7300                	flw	fs0,32(a4)
   144f6:	6372                	flw	ft6,28(sp)
   144f8:	4c2d492f          	0x4c2d492f
   144fc:	5548                	lw	a0,44(a0)
   144fe:	302d                	jal	13d28 <FN_WriteA0_common+0xcb4>
   14500:	2e31                	jal	1481c <end_signature+0x78c>
   14502:	202c0053          	fsgnj.s	ft0,fs8,ft2
   14506:	696c                	flw	fa1,84(a0)
   14508:	656e                	flw	fa0,216(sp)
   1450a:	0020                	addi	s0,sp,8
   1450c:	3431                	jal	13f18 <FN_WriteA0_common+0xea4>
   1450e:	203a0033          	0x203a0033
   14512:	7800                	flw	fs0,48(s0)
   14514:	3531                	jal	14320 <end_signature+0x290>
   14516:	2800                	fld	fs0,16(s0)
   14518:	2900                	fld	fs0,16(a0)
   1451a:	2120                	fld	fs0,64(a0)
   1451c:	203d                	jal	1454a <end_signature+0x4ba>
   1451e:	3000                	fld	fs0,32(s0)
   14520:	3078                	fld	fa4,224(s0)
   14522:	3030                	fld	fa2,96(s0)
   14524:	3030                	fld	fa2,96(s0)
   14526:	4141                	li	sp,16
   14528:	0041                	c.nop	16
   1452a:	000a                	c.slli	zero,0x2
   1452c:	7341                	lui	t1,0xffff0
   1452e:	74726573          	csrrsi	a0,0x747,4
   14532:	6f69                	lui	t5,0x1a
   14534:	206e                	fld	ft0,216(sp)
   14536:	6976                	flw	fs2,92(sp)
   14538:	74616c6f          	jal	s8,2ac7e <_end+0x16206>
   1453c:	6f69                	lui	t5,0x1a
   1453e:	3a6e                	fld	fs4,248(sp)
   14540:	6620                	flw	fs0,72(a2)
   14542:	6c69                	lui	s8,0x1a
   14544:	2065                	jal	145ec <end_signature+0x55c>
   14546:	7300                	flw	fs0,32(a4)
   14548:	6372                	flw	ft6,28(sp)
   1454a:	4c2d492f          	0x4c2d492f
   1454e:	5548                	lw	a0,44(a0)
   14550:	302d                	jal	13d7a <FN_WriteA0_common+0xd06>
   14552:	2e31                	jal	1486e <end_signature+0x7de>
   14554:	202c0053          	fsgnj.s	ft0,fs8,ft2
   14558:	696c                	flw	fa1,84(a0)
   1455a:	656e                	flw	fa0,216(sp)
   1455c:	0020                	addi	s0,sp,8
   1455e:	3431                	jal	13f6a <FN_WriteA0_common+0xef6>
   14560:	0034                	addi	a3,sp,8
   14562:	203a                	fld	ft0,392(sp)
   14564:	7800                	flw	fs0,48(s0)
   14566:	3631                	jal	14072 <test_B_res+0xa>
   14568:	2800                	fld	fs0,16(s0)
   1456a:	2900                	fld	fs0,16(a0)
   1456c:	2120                	fld	fs0,64(a0)
   1456e:	203d                	jal	1459c <end_signature+0x50c>
   14570:	3000                	fld	fs0,32(s0)
   14572:	3078                	fld	fa4,224(s0)
   14574:	3030                	fld	fa2,96(s0)
   14576:	3930                	fld	fa2,112(a0)
   14578:	3039                	jal	13d86 <FN_WriteA0_common+0xd12>
   1457a:	0039                	c.nop	14
   1457c:	000a                	c.slli	zero,0x2
   1457e:	65542023          	sw	s5,1600(s0) # 18640 <_end+0x3bc8>
   14582:	70207473          	csrrci	s0,0x702,0
   14586:	7261                	lui	tp,0xffff8
   14588:	2074                	fld	fa3,192(s0)
   1458a:	3541                	jal	1440a <end_signature+0x37a>
   1458c:	2020                	fld	fs0,64(s0)
   1458e:	202d                	jal	145b8 <end_signature+0x528>
   14590:	706d6f43          	fmadd.s	ft10,fs10,ft6,fa4,unknown
   14594:	656c                	flw	fa1,76(a0)
   14596:	6574                	flw	fa3,76(a0)
   14598:	000a                	c.slli	zero,0x2
   1459a:	65542023          	sw	s5,1600(s0)
   1459e:	70207473          	csrrci	s0,0x702,0
   145a2:	7261                	lui	tp,0xffff8
   145a4:	2074                	fld	fa3,192(s0)
   145a6:	2042                	fld	ft0,16(sp)
   145a8:	202d                	jal	145d2 <end_signature+0x542>
   145aa:	6574                	flw	fa3,76(a0)
   145ac:	62207473          	csrrci	s0,0x622,0
   145b0:	7361                	lui	t1,0xffff8
   145b2:	2065                	jal	1465a <end_signature+0x5ca>
   145b4:	6461                	lui	s0,0x18
   145b6:	7264                	flw	fs1,100(a2)
   145b8:	7365                	lui	t1,0xffff9
   145ba:	202b2073          	csrs	hedeleg,s6
   145be:	342d                	jal	13fe8 <FN_WriteA0_common+0xf74>
   145c0:	2d2c                	fld	fa1,88(a0)
   145c2:	2c32                	fld	fs8,264(sp)
   145c4:	3020                	fld	fs0,96(s0)
   145c6:	202c                	fld	fa1,64(s0)
   145c8:	2c32                	fld	fs8,264(sp)
   145ca:	3420                	fld	fs0,104(s0)
   145cc:	202c                	fld	fa1,64(s0)
   145ce:	0a36                	slli	s4,s4,0xd
   145d0:	4100                	lw	s0,0(a0)
   145d2:	72657373          	csrrci	t1,0x726,10
   145d6:	6974                	flw	fa3,84(a0)
   145d8:	76206e6f          	jal	t3,1ad3a <_end+0x62c2>
   145dc:	6f69                	lui	t5,0x1a
   145de:	616c                	flw	fa1,68(a0)
   145e0:	6974                	flw	fa3,84(a0)
   145e2:	203a6e6f          	jal	t3,bafe4 <_end+0xa656c>
   145e6:	6966                	flw	fs2,88(sp)
   145e8:	656c                	flw	fa1,76(a0)
   145ea:	0020                	addi	s0,sp,8
   145ec:	2f637273          	csrrci	tp,0x2f6,6
   145f0:	2d49                	jal	14c82 <_end+0x20a>
   145f2:	484c                	lw	a1,20(s0)
   145f4:	2d55                	jal	14ca8 <_end+0x230>
   145f6:	3130                	fld	fa2,96(a0)
   145f8:	532e                	lw	t1,232(sp)
   145fa:	2c00                	fld	fs0,24(s0)
   145fc:	6c20                	flw	fs0,88(s0)
   145fe:	6e69                	lui	t3,0x1a
   14600:	2065                	jal	146a8 <end_signature+0x618>
   14602:	3100                	fld	fs0,32(a0)
   14604:	3a003137          	lui	sp,0x3a003
   14608:	0020                	addi	s0,sp,8
   1460a:	3178                	fld	fa4,224(a0)
   1460c:	0038                	addi	a4,sp,8
   1460e:	0028                	addi	a0,sp,8
   14610:	2029                	jal	1461a <end_signature+0x58a>
   14612:	3d21                	jal	1442a <end_signature+0x39a>
   14614:	0020                	addi	s0,sp,8
   14616:	7830                	flw	fa2,112(s0)
   14618:	3030                	fld	fa2,96(s0)
   1461a:	3030                	fld	fa2,96(s0)
   1461c:	43304343          	fmadd.d	ft6,ft0,fs3,fs0,rmm
   14620:	0a00                	addi	s0,sp,272
   14622:	4100                	lw	s0,0(a0)
   14624:	72657373          	csrrci	t1,0x726,10
   14628:	6974                	flw	fa3,84(a0)
   1462a:	76206e6f          	jal	t3,1ad8c <_end+0x6314>
   1462e:	6f69                	lui	t5,0x1a
   14630:	616c                	flw	fa1,68(a0)
   14632:	6974                	flw	fa3,84(a0)
   14634:	203a6e6f          	jal	t3,bb036 <_end+0xa65be>
   14638:	6966                	flw	fs2,88(sp)
   1463a:	656c                	flw	fa1,76(a0)
   1463c:	0020                	addi	s0,sp,8
   1463e:	2f637273          	csrrci	tp,0x2f6,6
   14642:	2d49                	jal	14cd4 <_end+0x25c>
   14644:	484c                	lw	a1,20(s0)
   14646:	2d55                	jal	14cfa <_end+0x282>
   14648:	3130                	fld	fa2,96(a0)
   1464a:	532e                	lw	t1,232(sp)
   1464c:	2c00                	fld	fs0,24(s0)
   1464e:	6c20                	flw	fs0,88(s0)
   14650:	6e69                	lui	t3,0x1a
   14652:	2065                	jal	146fa <end_signature+0x66a>
   14654:	3100                	fld	fs0,32(a0)
   14656:	3a003237          	lui	tp,0x3a003
   1465a:	0020                	addi	s0,sp,8
   1465c:	3178                	fld	fa4,224(a0)
   1465e:	0039                	c.nop	14
   14660:	0028                	addi	a0,sp,8
   14662:	2029                	jal	1466c <end_signature+0x5dc>
   14664:	3d21                	jal	1447c <end_signature+0x3ec>
   14666:	0020                	addi	s0,sp,8
   14668:	7830                	flw	fa2,112(s0)
   1466a:	3030                	fld	fa2,96(s0)
   1466c:	3030                	fld	fa2,96(s0)
   1466e:	4230                	lw	a2,64(a2)
   14670:	4242                	lw	tp,16(sp)
   14672:	0a00                	addi	s0,sp,272
   14674:	4100                	lw	s0,0(a0)
   14676:	72657373          	csrrci	t1,0x726,10
   1467a:	6974                	flw	fa3,84(a0)
   1467c:	76206e6f          	jal	t3,1adde <_end+0x6366>
   14680:	6f69                	lui	t5,0x1a
   14682:	616c                	flw	fa1,68(a0)
   14684:	6974                	flw	fa3,84(a0)
   14686:	203a6e6f          	jal	t3,bb088 <_end+0xa6610>
   1468a:	6966                	flw	fs2,88(sp)
   1468c:	656c                	flw	fa1,76(a0)
   1468e:	0020                	addi	s0,sp,8
   14690:	2f637273          	csrrci	tp,0x2f6,6
   14694:	2d49                	jal	14d26 <_end+0x2ae>
   14696:	484c                	lw	a1,20(s0)
   14698:	2d55                	jal	14d4c <_end+0x2d4>
   1469a:	3130                	fld	fa2,96(a0)
   1469c:	532e                	lw	t1,232(sp)
   1469e:	2c00                	fld	fs0,24(s0)
   146a0:	6c20                	flw	fs0,88(s0)
   146a2:	6e69                	lui	t3,0x1a
   146a4:	2065                	jal	1474c <end_signature+0x6bc>
   146a6:	3100                	fld	fs0,32(a0)
   146a8:	3a003337          	lui	t1,0x3a003
   146ac:	0020                	addi	s0,sp,8
   146ae:	3278                	fld	fa4,224(a2)
   146b0:	0030                	addi	a2,sp,8
   146b2:	0028                	addi	a0,sp,8
   146b4:	2029                	jal	146be <end_signature+0x62e>
   146b6:	3d21                	jal	144ce <end_signature+0x43e>
   146b8:	0020                	addi	s0,sp,8
   146ba:	7830                	flw	fa2,112(s0)
   146bc:	3030                	fld	fa2,96(s0)
   146be:	3030                	fld	fa2,96(s0)
   146c0:	4530                	lw	a2,72(a0)
   146c2:	4545                	li	a0,17
   146c4:	0a00                	addi	s0,sp,272
   146c6:	4100                	lw	s0,0(a0)
   146c8:	72657373          	csrrci	t1,0x726,10
   146cc:	6974                	flw	fa3,84(a0)
   146ce:	76206e6f          	jal	t3,1ae30 <_end+0x63b8>
   146d2:	6f69                	lui	t5,0x1a
   146d4:	616c                	flw	fa1,68(a0)
   146d6:	6974                	flw	fa3,84(a0)
   146d8:	203a6e6f          	jal	t3,bb0da <_end+0xa6662>
   146dc:	6966                	flw	fs2,88(sp)
   146de:	656c                	flw	fa1,76(a0)
   146e0:	0020                	addi	s0,sp,8
   146e2:	2f637273          	csrrci	tp,0x2f6,6
   146e6:	2d49                	jal	14d78 <_end+0x300>
   146e8:	484c                	lw	a1,20(s0)
   146ea:	2d55                	jal	14d9e <_end+0x326>
   146ec:	3130                	fld	fa2,96(a0)
   146ee:	532e                	lw	t1,232(sp)
   146f0:	2c00                	fld	fs0,24(s0)
   146f2:	6c20                	flw	fs0,88(s0)
   146f4:	6e69                	lui	t3,0x1a
   146f6:	2065                	jal	1479e <end_signature+0x70e>
   146f8:	3100                	fld	fs0,32(a0)
   146fa:	3a003437          	lui	s0,0x3a003
   146fe:	0020                	addi	s0,sp,8
   14700:	3278                	fld	fa4,224(a2)
   14702:	0031                	c.nop	12
   14704:	0028                	addi	a0,sp,8
   14706:	2029                	jal	14710 <end_signature+0x680>
   14708:	3d21                	jal	14520 <end_signature+0x490>
   1470a:	0020                	addi	s0,sp,8
   1470c:	7830                	flw	fa2,112(s0)
   1470e:	3030                	fld	fa2,96(s0)
   14710:	3030                	fld	fa2,96(s0)
   14712:	4444                	lw	s1,12(s0)
   14714:	4430                	lw	a2,72(s0)
   14716:	0a00                	addi	s0,sp,272
   14718:	4100                	lw	s0,0(a0)
   1471a:	72657373          	csrrci	t1,0x726,10
   1471e:	6974                	flw	fa3,84(a0)
   14720:	76206e6f          	jal	t3,1ae82 <_end+0x640a>
   14724:	6f69                	lui	t5,0x1a
   14726:	616c                	flw	fa1,68(a0)
   14728:	6974                	flw	fa3,84(a0)
   1472a:	203a6e6f          	jal	t3,bb12c <_end+0xa66b4>
   1472e:	6966                	flw	fs2,88(sp)
   14730:	656c                	flw	fa1,76(a0)
   14732:	0020                	addi	s0,sp,8
   14734:	2f637273          	csrrci	tp,0x2f6,6
   14738:	2d49                	jal	14dca <_end+0x352>
   1473a:	484c                	lw	a1,20(s0)
   1473c:	2d55                	jal	14df0 <_end+0x378>
   1473e:	3130                	fld	fa2,96(a0)
   14740:	532e                	lw	t1,232(sp)
   14742:	2c00                	fld	fs0,24(s0)
   14744:	6c20                	flw	fs0,88(s0)
   14746:	6e69                	lui	t3,0x1a
   14748:	2065                	jal	147f0 <end_signature+0x760>
   1474a:	3100                	fld	fs0,32(a0)
   1474c:	3a003537          	lui	a0,0x3a003
   14750:	0020                	addi	s0,sp,8
   14752:	3278                	fld	fa4,224(a2)
   14754:	0032                	c.slli	zero,0xc
   14756:	0028                	addi	a0,sp,8
   14758:	2029                	jal	14762 <end_signature+0x6d2>
   1475a:	3d21                	jal	14572 <end_signature+0x4e2>
   1475c:	0020                	addi	s0,sp,8
   1475e:	7830                	flw	fa2,112(s0)
   14760:	3030                	fld	fa2,96(s0)
   14762:	3030                	fld	fa2,96(s0)
   14764:	3030                	fld	fa2,96(s0)
   14766:	3046                	fld	ft0,112(sp)
   14768:	0a00                	addi	s0,sp,272
   1476a:	4100                	lw	s0,0(a0)
   1476c:	72657373          	csrrci	t1,0x726,10
   14770:	6974                	flw	fa3,84(a0)
   14772:	76206e6f          	jal	t3,1aed4 <_end+0x645c>
   14776:	6f69                	lui	t5,0x1a
   14778:	616c                	flw	fa1,68(a0)
   1477a:	6974                	flw	fa3,84(a0)
   1477c:	203a6e6f          	jal	t3,bb17e <_end+0xa6706>
   14780:	6966                	flw	fs2,88(sp)
   14782:	656c                	flw	fa1,76(a0)
   14784:	0020                	addi	s0,sp,8
   14786:	2f637273          	csrrci	tp,0x2f6,6
   1478a:	2d49                	jal	14e1c <_end+0x3a4>
   1478c:	484c                	lw	a1,20(s0)
   1478e:	2d55                	jal	14e42 <_end+0x3ca>
   14790:	3130                	fld	fa2,96(a0)
   14792:	532e                	lw	t1,232(sp)
   14794:	2c00                	fld	fs0,24(s0)
   14796:	6c20                	flw	fs0,88(s0)
   14798:	6e69                	lui	t3,0x1a
   1479a:	2065                	jal	14842 <end_signature+0x7b2>
   1479c:	3100                	fld	fs0,32(a0)
   1479e:	3a003637          	lui	a2,0x3a003
   147a2:	0020                	addi	s0,sp,8
   147a4:	3278                	fld	fa4,224(a2)
   147a6:	00280033          	add	zero,a6,sp
   147aa:	2029                	jal	147b4 <end_signature+0x724>
   147ac:	3d21                	jal	145c4 <end_signature+0x534>
   147ae:	0020                	addi	s0,sp,8
   147b0:	7830                	flw	fa2,112(s0)
   147b2:	3030                	fld	fa2,96(s0)
   147b4:	3030                	fld	fa2,96(s0)
   147b6:	4630                	lw	a2,72(a2)
   147b8:	4646                	lw	a2,80(sp)
   147ba:	0a00                	addi	s0,sp,272
   147bc:	2300                	fld	fs0,0(a4)
   147be:	5420                	lw	s0,104(s0)
   147c0:	7365                	lui	t1,0xffff9
   147c2:	2074                	fld	fa3,192(s0)
   147c4:	6170                	flw	fa2,68(a0)
   147c6:	7472                	flw	fs0,60(sp)
   147c8:	4220                	lw	s0,64(a2)
   147ca:	2020                	fld	fs0,64(s0)
   147cc:	202d                	jal	147f6 <end_signature+0x766>
   147ce:	706d6f43          	fmadd.s	ft10,fs10,ft6,fa4,unknown
   147d2:	656c                	flw	fa1,76(a0)
   147d4:	6574                	flw	fa3,76(a0)
   147d6:	000a                	c.slli	zero,0x2
   147d8:	65542023          	sw	s5,1600(s0) # 3a003640 <_end+0x39feebc8>
   147dc:	70207473          	csrrci	s0,0x702,0
   147e0:	7261                	lui	tp,0xffff8
   147e2:	2074                	fld	fa3,192(s0)
   147e4:	202d2043          	fmadd.s	ft0,fs10,ft2,ft4,rdn
   147e8:	6574                	flw	fa3,76(a0)
   147ea:	6c207473          	csrrci	s0,0x6c2,0
   147ee:	2064616f          	jal	sp,5a9f4 <_end+0x45f7c>
   147f2:	6f74                	flw	fa3,92(a4)
   147f4:	7820                	flw	fs0,112(s0)
   147f6:	0a30                	addi	a2,sp,280
   147f8:	4100                	lw	s0,0(a0)
   147fa:	72657373          	csrrci	t1,0x726,10
   147fe:	6974                	flw	fa3,84(a0)
   14800:	76206e6f          	jal	t3,1af62 <_end+0x64ea>
   14804:	6f69                	lui	t5,0x1a
   14806:	616c                	flw	fa1,68(a0)
   14808:	6974                	flw	fa3,84(a0)
   1480a:	203a6e6f          	jal	t3,bb20c <_end+0xa6794>
   1480e:	6966                	flw	fs2,88(sp)
   14810:	656c                	flw	fa1,76(a0)
   14812:	0020                	addi	s0,sp,8
   14814:	2f637273          	csrrci	tp,0x2f6,6
   14818:	2d49                	jal	14eaa <_end+0x432>
   1481a:	484c                	lw	a1,20(s0)
   1481c:	2d55                	jal	14ed0 <_end+0x458>
   1481e:	3130                	fld	fa2,96(a0)
   14820:	532e                	lw	t1,232(sp)
   14822:	2c00                	fld	fs0,24(s0)
   14824:	6c20                	flw	fs0,88(s0)
   14826:	6e69                	lui	t3,0x1a
   14828:	2065                	jal	148d0 <end_signature+0x840>
   1482a:	3100                	fld	fs0,32(a0)
   1482c:	3339                	jal	1453a <end_signature+0x4aa>
   1482e:	3a00                	fld	fs0,48(a2)
   14830:	0020                	addi	s0,sp,8
   14832:	3078                	fld	fa4,224(s0)
   14834:	2800                	fld	fs0,16(s0)
   14836:	2900                	fld	fs0,16(a0)
   14838:	2120                	fld	fs0,64(a0)
   1483a:	203d                	jal	14868 <end_signature+0x7d8>
   1483c:	3000                	fld	fs0,32(s0)
   1483e:	3078                	fld	fa4,224(s0)
   14840:	3030                	fld	fa2,96(s0)
   14842:	3030                	fld	fa2,96(s0)
   14844:	3030                	fld	fa2,96(s0)
   14846:	0030                	addi	a2,sp,8
   14848:	000a                	c.slli	zero,0x2
   1484a:	65542023          	sw	s5,1600(s0)
   1484e:	70207473          	csrrci	s0,0x702,0
   14852:	7261                	lui	tp,0xffff8
   14854:	2074                	fld	fa3,192(s0)
   14856:	2d202043          	0x2d202043
   1485a:	4320                	lw	s0,64(a4)
   1485c:	6c706d6f          	jal	s10,1b722 <_end+0x6caa>
   14860:	7465                	lui	s0,0xffff9
   14862:	0a65                	addi	s4,s4,25
   14864:	2300                	fld	fs0,0(a4)
   14866:	5420                	lw	s0,104(s0)
   14868:	7365                	lui	t1,0xffff9
   1486a:	2074                	fld	fa3,192(s0)
   1486c:	6170                	flw	fa2,68(a0)
   1486e:	7472                	flw	fs0,60(sp)
   14870:	4420                	lw	s0,72(s0)
   14872:	2d20                	fld	fs0,88(a0)
   14874:	7420                	flw	fs0,104(s0)
   14876:	7365                	lui	t1,0xffff9
   14878:	2074                	fld	fa3,192(s0)
   1487a:	6f66                	flw	ft10,88(sp)
   1487c:	2072                	fld	ft0,280(sp)
   1487e:	6f66                	flw	ft10,88(sp)
   14880:	7772                	flw	fa4,60(sp)
   14882:	7261                	lui	tp,0xffff8
   14884:	6964                	flw	fs1,84(a0)
   14886:	676e                	flw	fa4,216(sp)
   14888:	000a                	c.slli	zero,0x2
   1488a:	7341                	lui	t1,0xffff0
   1488c:	74726573          	csrrsi	a0,0x747,4
   14890:	6f69                	lui	t5,0x1a
   14892:	206e                	fld	ft0,216(sp)
   14894:	6976                	flw	fs2,92(sp)
   14896:	74616c6f          	jal	s8,2afdc <_end+0x16564>
   1489a:	6f69                	lui	t5,0x1a
   1489c:	3a6e                	fld	fs4,248(sp)
   1489e:	6620                	flw	fs0,72(a2)
   148a0:	6c69                	lui	s8,0x1a
   148a2:	2065                	jal	1494a <end_signature+0x8ba>
   148a4:	7300                	flw	fs0,32(a4)
   148a6:	6372                	flw	ft6,28(sp)
   148a8:	4c2d492f          	0x4c2d492f
   148ac:	5548                	lw	a0,44(a0)
   148ae:	302d                	jal	140d8 <end_signature+0x48>
   148b0:	2e31                	jal	14bcc <_end+0x154>
   148b2:	202c0053          	fsgnj.s	ft0,fs8,ft2
   148b6:	696c                	flw	fa1,84(a0)
   148b8:	656e                	flw	fa0,216(sp)
   148ba:	0020                	addi	s0,sp,8
   148bc:	3132                	fld	ft2,296(sp)
   148be:	0032                	c.slli	zero,0xc
   148c0:	203a                	fld	ft0,392(sp)
   148c2:	7800                	flw	fs0,48(s0)
   148c4:	3532                	fld	fa0,296(sp)
   148c6:	2800                	fld	fs0,16(s0)
   148c8:	2900                	fld	fs0,16(a0)
   148ca:	2120                	fld	fs0,64(a0)
   148cc:	203d                	jal	148fa <end_signature+0x86a>
   148ce:	3000                	fld	fs0,32(s0)
   148d0:	3078                	fld	fa4,224(s0)
   148d2:	3030                	fld	fa2,96(s0)
   148d4:	4430                	lw	a2,72(s0)
   148d6:	4645                	li	a2,17
   148d8:	0030                	addi	a2,sp,8
   148da:	000a                	c.slli	zero,0x2
   148dc:	65542023          	sw	s5,1600(s0) # ffff9640 <_end+0xfffe4bc8>
   148e0:	70207473          	csrrci	s0,0x702,0
   148e4:	7261                	lui	tp,0xffff8
   148e6:	2074                	fld	fa3,192(s0)
   148e8:	2044                	fld	fs1,128(s0)
   148ea:	2d20                	fld	fs0,88(a0)
   148ec:	4320                	lw	s0,64(a4)
   148ee:	6c706d6f          	jal	s10,1b7b4 <_end+0x6d3c>
   148f2:	7465                	lui	s0,0xffff9
   148f4:	0a65                	addi	s4,s4,25
   148f6:	2300                	fld	fs0,0(a4)
   148f8:	5420                	lw	s0,104(s0)
   148fa:	7365                	lui	t1,0xffff9
   148fc:	2074                	fld	fa3,192(s0)
   148fe:	6170                	flw	fa2,68(a0)
   14900:	7472                	flw	fs0,60(sp)
   14902:	4520                	lw	s0,72(a0)
   14904:	2031                	jal	14910 <end_signature+0x880>
   14906:	202d                	jal	14930 <end_signature+0x8a0>
   14908:	6574                	flw	fa3,76(a0)
   1490a:	73207473          	csrrci	s0,0x732,0
   1490e:	6f74                	flw	fa3,92(a4)
   14910:	6572                	flw	fa0,28(sp)
   14912:	7720                	flw	fs0,104(a4)
   14914:	7469                	lui	s0,0xffffa
   14916:	2068                	fld	fa0,192(s0)
   14918:	656d6173          	csrrsi	sp,0x656,26
   1491c:	6220                	flw	fs0,64(a2)
   1491e:	7361                	lui	t1,0xffff8
   14920:	2065                	jal	149c8 <end_signature+0x938>
   14922:	6e61                	lui	t3,0x18
   14924:	2064                	fld	fs1,192(s0)
   14926:	6564                	flw	fs1,76(a0)
   14928:	6e697473          	csrrci	s0,0x6e6,18
   1492c:	7461                	lui	s0,0xffff8
   1492e:	6f69                	lui	t5,0x1a
   14930:	206e                	fld	ft0,216(sp)
   14932:	6461                	lui	s0,0x18
   14934:	7264                	flw	fs1,100(a2)
   14936:	7365                	lui	t1,0xffff9
   14938:	41000a73          	0x41000a73
   1493c:	72657373          	csrrci	t1,0x726,10
   14940:	6974                	flw	fa3,84(a0)
   14942:	76206e6f          	jal	t3,1b0a4 <_end+0x662c>
   14946:	6f69                	lui	t5,0x1a
   14948:	616c                	flw	fa1,68(a0)
   1494a:	6974                	flw	fa3,84(a0)
   1494c:	203a6e6f          	jal	t3,bb34e <_end+0xa68d6>
   14950:	6966                	flw	fs2,88(sp)
   14952:	656c                	flw	fa1,76(a0)
   14954:	0020                	addi	s0,sp,8
   14956:	2f637273          	csrrci	tp,0x2f6,6
   1495a:	2d49                	jal	14fec <_end+0x574>
   1495c:	484c                	lw	a1,20(s0)
   1495e:	2d55                	jal	15012 <_end+0x59a>
   14960:	3130                	fld	fa2,96(a0)
   14962:	532e                	lw	t1,232(sp)
   14964:	2c00                	fld	fs0,24(s0)
   14966:	6c20                	flw	fs0,88(s0)
   14968:	6e69                	lui	t3,0x1a
   1496a:	2065                	jal	14a12 <end_signature+0x982>
   1496c:	3200                	fld	fs0,32(a2)
   1496e:	3932                	fld	fs2,296(sp)
   14970:	3a00                	fld	fs0,48(a2)
   14972:	0020                	addi	s0,sp,8
   14974:	3278                	fld	fa4,224(a2)
   14976:	0035                	c.nop	13
   14978:	0028                	addi	a0,sp,8
   1497a:	2029                	jal	14984 <end_signature+0x8f4>
   1497c:	3d21                	jal	14794 <end_signature+0x704>
   1497e:	0020                	addi	s0,sp,8
   14980:	7830                	flw	fa2,112(s0)
   14982:	3030                	fld	fa2,96(s0)
   14984:	3030                	fld	fa2,96(s0)
   14986:	30313233          	0x30313233
   1498a:	0a00                	addi	s0,sp,272
   1498c:	2300                	fld	fs0,0(a4)
   1498e:	5420                	lw	s0,104(s0)
   14990:	7365                	lui	t1,0xffff9
   14992:	2074                	fld	fa3,192(s0)
   14994:	6170                	flw	fa2,68(a0)
   14996:	7472                	flw	fs0,60(sp)
   14998:	4520                	lw	s0,72(a0)
   1499a:	2020                	fld	fs0,64(s0)
   1499c:	202d                	jal	149c6 <end_signature+0x936>
   1499e:	706d6f43          	fmadd.s	ft10,fs10,ft6,fa4,unknown
   149a2:	656c                	flw	fa1,76(a0)
   149a4:	6574                	flw	fa3,76(a0)
   149a6:	000a                	c.slli	zero,0x2
   149a8:	65542023          	sw	s5,1600(s0) # 18640 <_end+0x3bc8>
   149ac:	70207473          	csrrci	s0,0x702,0
   149b0:	7261                	lui	tp,0xffff8
   149b2:	2074                	fld	fa3,192(s0)
   149b4:	3245                	jal	14354 <end_signature+0x2c4>
   149b6:	2d20                	fld	fs0,88(a0)
   149b8:	7420                	flw	fs0,104(s0)
   149ba:	7365                	lui	t1,0xffff9
   149bc:	2074                	fld	fa3,192(s0)
   149be:	726f7473          	csrrci	s0,0x726,30
   149c2:	2065                	jal	14a6a <end_signature+0x9da>
   149c4:	68746977          	0x68746977
   149c8:	7320                	flw	fs0,96(a4)
   149ca:	6d61                	lui	s10,0x18
   149cc:	2065                	jal	14a74 <end_signature+0x9e4>
   149ce:	6162                	flw	ft2,24(sp)
   149d0:	61206573          	csrrsi	a0,0x612,0
   149d4:	646e                	flw	fs0,216(sp)
   149d6:	6420                	flw	fs0,72(s0)
   149d8:	7365                	lui	t1,0xffff9
   149da:	6974                	flw	fa3,84(a0)
   149dc:	616e                	flw	ft2,216(sp)
   149de:	6974                	flw	fa3,84(a0)
   149e0:	61206e6f          	jal	t3,1aff2 <_end+0x657a>
   149e4:	6464                	flw	fs1,76(s0)
   149e6:	6572                	flw	fa0,28(sp)
   149e8:	202c7373          	csrrci	t1,hedeleg,24
   149ec:	6162                	flw	ft2,24(sp)
   149ee:	77206573          	csrrsi	a0,0x772,0
   149f2:	7469                	lui	s0,0xffffa
   149f4:	2068                	fld	fa0,192(s0)
   149f6:	7366666f          	jal	a2,7b12c <_end+0x666b4>
   149fa:	7465                	lui	s0,0xffff9
   149fc:	000a                	c.slli	zero,0x2
   149fe:	7341                	lui	t1,0xffff0
   14a00:	74726573          	csrrsi	a0,0x747,4
   14a04:	6f69                	lui	t5,0x1a
   14a06:	206e                	fld	ft0,216(sp)
   14a08:	6976                	flw	fs2,92(sp)
   14a0a:	74616c6f          	jal	s8,2b150 <_end+0x166d8>
   14a0e:	6f69                	lui	t5,0x1a
   14a10:	3a6e                	fld	fs4,248(sp)
   14a12:	6620                	flw	fs0,72(a2)
   14a14:	6c69                	lui	s8,0x1a
   14a16:	2065                	jal	14abe <_end+0x46>
   14a18:	7300                	flw	fs0,32(a4)
   14a1a:	6372                	flw	ft6,28(sp)
   14a1c:	4c2d492f          	0x4c2d492f
   14a20:	5548                	lw	a0,44(a0)
   14a22:	302d                	jal	1424c <end_signature+0x1bc>
   14a24:	2e31                	jal	14d40 <_end+0x2c8>
   14a26:	202c0053          	fsgnj.s	ft0,fs8,ft2
   14a2a:	696c                	flw	fa1,84(a0)
   14a2c:	656e                	flw	fa0,216(sp)
   14a2e:	0020                	addi	s0,sp,8
   14a30:	3432                	fld	fs0,296(sp)
   14a32:	0036                	c.slli	zero,0xd
   14a34:	203a                	fld	ft0,392(sp)
   14a36:	7800                	flw	fs0,48(s0)
   14a38:	3732                	fld	fa4,296(sp)
   14a3a:	2800                	fld	fs0,16(s0)
   14a3c:	2900                	fld	fs0,16(a0)
   14a3e:	2120                	fld	fs0,64(a0)
   14a40:	203d                	jal	14a6e <end_signature+0x9de>
   14a42:	3000                	fld	fs0,32(s0)
   14a44:	3078                	fld	fa4,224(s0)
   14a46:	3030                	fld	fa2,96(s0)
   14a48:	4230                	lw	a2,64(a2)
   14a4a:	3941                	jal	146da <end_signature+0x64a>
   14a4c:	0038                	addi	a4,sp,8
   14a4e:	000a                	c.slli	zero,0x2
   14a50:	65542023          	sw	s5,1600(s0) # ffff9640 <_end+0xfffe4bc8>
   14a54:	70207473          	csrrci	s0,0x702,0
   14a58:	7261                	lui	tp,0xffff8
   14a5a:	2074                	fld	fa3,192(s0)
   14a5c:	3141                	jal	146dc <end_signature+0x64c>
   14a5e:	2020                	fld	fs0,64(s0)
   14a60:	202d                	jal	14a8a <_end+0x12>
   14a62:	706d6f43          	fmadd.s	ft10,fs10,ft6,fa4,unknown
   14a66:	656c                	flw	fa1,76(a0)
   14a68:	6574                	flw	fa3,76(a0)
   14a6a:	000a                	c.slli	zero,0x2
   14a6c:	65542023          	sw	s5,1600(s0)
   14a70:	45207473          	csrrci	s0,0x452,0
   14a74:	646e                	flw	fs0,216(sp)
   14a76:	000a                	c.slli	zero,0x2
