
/home/benselfridge/riscv-compliance/work//I-LHU-01.elf:     file format elf32-littleriscv


Disassembly of section .text.init:

00010000 <_start>:
   10000:	04c0006f          	j	1004c <reset_vector>

00010004 <trap_vector>:
   10004:	34202f73          	csrr	t5,mcause
   10008:	00800f93          	li	t6,8
   1000c:	03ff0a63          	beq	t5,t6,10040 <write_tohost>
   10010:	00900f93          	li	t6,9
   10014:	03ff0663          	beq	t5,t6,10040 <write_tohost>
   10018:	00b00f93          	li	t6,11
   1001c:	03ff0263          	beq	t5,t6,10040 <write_tohost>
   10020:	ffff0f17          	auipc	t5,0xffff0
   10024:	fe0f0f13          	addi	t5,t5,-32 # 0 <_start-0x10000>
   10028:	000f0463          	beqz	t5,10030 <trap_vector+0x2c>
   1002c:	000f0067          	jr	t5
   10030:	34202f73          	csrr	t5,mcause
   10034:	000f5463          	bgez	t5,1003c <handle_exception>
   10038:	0040006f          	j	1003c <handle_exception>

0001003c <handle_exception>:
   1003c:	5391e193          	ori	gp,gp,1337

00010040 <write_tohost>:
   10040:	00002f17          	auipc	t5,0x2
   10044:	fc3f2023          	sw	gp,-64(t5) # 12000 <tohost>
   10048:	ff9ff06f          	j	10040 <write_tohost>

0001004c <reset_vector>:
   1004c:	f1402573          	csrr	a0,mhartid
   10050:	00051063          	bnez	a0,10050 <reset_vector+0x4>
   10054:	00000297          	auipc	t0,0x0
   10058:	01028293          	addi	t0,t0,16 # 10064 <reset_vector+0x18>
   1005c:	30529073          	csrw	mtvec,t0
   10060:	18005073          	csrwi	satp,0
   10064:	00000297          	auipc	t0,0x0
   10068:	01c28293          	addi	t0,t0,28 # 10080 <reset_vector+0x34>
   1006c:	30529073          	csrw	mtvec,t0
   10070:	fff00293          	li	t0,-1
   10074:	3b029073          	csrw	pmpaddr0,t0
   10078:	01f00293          	li	t0,31
   1007c:	3a029073          	csrw	pmpcfg0,t0
   10080:	00000297          	auipc	t0,0x0
   10084:	01828293          	addi	t0,t0,24 # 10098 <reset_vector+0x4c>
   10088:	30529073          	csrw	mtvec,t0
   1008c:	30205073          	csrwi	medeleg,0
   10090:	30305073          	csrwi	mideleg,0
   10094:	30405073          	csrwi	mie,0
   10098:	00000193          	li	gp,0
   1009c:	00000297          	auipc	t0,0x0
   100a0:	f6828293          	addi	t0,t0,-152 # 10004 <trap_vector>
   100a4:	30529073          	csrw	mtvec,t0
   100a8:	00100513          	li	a0,1
   100ac:	01f51513          	slli	a0,a0,0x1f
   100b0:	00054863          	bltz	a0,100c0 <reset_vector+0x74>
   100b4:	0000100f          	fence.i
   100b8:	00100193          	li	gp,1
   100bc:	00000073          	ecall
   100c0:	ffff0297          	auipc	t0,0xffff0
   100c4:	f4028293          	addi	t0,t0,-192 # 0 <_start-0x10000>
   100c8:	00028e63          	beqz	t0,100e4 <reset_vector+0x98>
   100cc:	10529073          	csrw	stvec,t0
   100d0:	0000b2b7          	lui	t0,0xb
   100d4:	10928293          	addi	t0,t0,265 # b109 <_start-0x4ef7>
   100d8:	30229073          	csrw	medeleg,t0
   100dc:	30202373          	csrr	t1,medeleg
   100e0:	f4629ee3          	bne	t0,t1,1003c <handle_exception>
   100e4:	30005073          	csrwi	mstatus,0
   100e8:	00002537          	lui	a0,0x2
   100ec:	80050513          	addi	a0,a0,-2048 # 1800 <_start-0xe800>
   100f0:	30052073          	csrs	mstatus,a0
   100f4:	00000297          	auipc	t0,0x0
   100f8:	01428293          	addi	t0,t0,20 # 10108 <reset_vector+0xbc>
   100fc:	34129073          	csrw	mepc,t0
   10100:	f1402573          	csrr	a0,mhartid
   10104:	30200073          	mret
   10108:	00000293          	li	t0,0
   1010c:	08500e63          	beq	zero,t0,101a8 <reset_vector+0x15c>
   10110:	00004517          	auipc	a0,0x4
   10114:	f8050513          	addi	a0,a0,-128 # 14090 <end_signature>
   10118:	6e9020ef          	jal	ra,13000 <FN_WriteStr>
   1011c:	00004517          	auipc	a0,0x4
   10120:	f8f50513          	addi	a0,a0,-113 # 140ab <end_signature+0x1b>
   10124:	6dd020ef          	jal	ra,13000 <FN_WriteStr>
   10128:	00004517          	auipc	a0,0x4
   1012c:	f9250513          	addi	a0,a0,-110 # 140ba <end_signature+0x2a>
   10130:	6d1020ef          	jal	ra,13000 <FN_WriteStr>
   10134:	00004517          	auipc	a0,0x4
   10138:	f8e50513          	addi	a0,a0,-114 # 140c2 <end_signature+0x32>
   1013c:	6c5020ef          	jal	ra,13000 <FN_WriteStr>
   10140:	00004517          	auipc	a0,0x4
   10144:	f8550513          	addi	a0,a0,-123 # 140c5 <end_signature+0x35>
   10148:	6b9020ef          	jal	ra,13000 <FN_WriteStr>
   1014c:	00004517          	auipc	a0,0x4
   10150:	f7c50513          	addi	a0,a0,-132 # 140c8 <end_signature+0x38>
   10154:	6ad020ef          	jal	ra,13000 <FN_WriteStr>
   10158:	00004517          	auipc	a0,0x4
   1015c:	f7350513          	addi	a0,a0,-141 # 140cb <end_signature+0x3b>
   10160:	6a1020ef          	jal	ra,13000 <FN_WriteStr>
   10164:	00000513          	li	a0,0
   10168:	6b5020ef          	jal	ra,1301c <FN_WriteA0>
   1016c:	00004517          	auipc	a0,0x4
   10170:	f6150513          	addi	a0,a0,-159 # 140cd <end_signature+0x3d>
   10174:	68d020ef          	jal	ra,13000 <FN_WriteStr>
   10178:	00004517          	auipc	a0,0x4
   1017c:	f5b50513          	addi	a0,a0,-165 # 140d3 <end_signature+0x43>
   10180:	681020ef          	jal	ra,13000 <FN_WriteStr>
   10184:	00004517          	auipc	a0,0x4
   10188:	f5a50513          	addi	a0,a0,-166 # 140de <end_signature+0x4e>
   1018c:	675020ef          	jal	ra,13000 <FN_WriteStr>
   10190:	06400193          	li	gp,100
   10194:	0000100f          	fence.i
   10198:	00018063          	beqz	gp,10198 <reset_vector+0x14c>
   1019c:	00119193          	slli	gp,gp,0x1
   101a0:	0011e193          	ori	gp,gp,1
   101a4:	00000073          	ecall
   101a8:	00004517          	auipc	a0,0x4
   101ac:	f3850513          	addi	a0,a0,-200 # 140e0 <end_signature+0x50>
   101b0:	651020ef          	jal	ra,13000 <FN_WriteStr>
   101b4:	00004517          	auipc	a0,0x4
   101b8:	f5e50513          	addi	a0,a0,-162 # 14112 <end_signature+0x82>
   101bc:	645020ef          	jal	ra,13000 <FN_WriteStr>
   101c0:	00004f97          	auipc	t6,0x4
   101c4:	e40f8f93          	addi	t6,t6,-448 # 14000 <test_A1_data>
   101c8:	00004117          	auipc	sp,0x4
   101cc:	e7810113          	addi	sp,sp,-392 # 14040 <begin_signature>
   101d0:	000fd183          	lhu	gp,0(t6)
   101d4:	002fd203          	lhu	tp,2(t6)
   101d8:	00312023          	sw	gp,0(sp)
   101dc:	00412223          	sw	tp,4(sp)
   101e0:	fff00013          	li	zero,-1
   101e4:	0000f2b7          	lui	t0,0xf
   101e8:	22228293          	addi	t0,t0,546 # f222 <_start-0xdde>
   101ec:	08518e63          	beq	gp,t0,10288 <reset_vector+0x23c>
   101f0:	00004517          	auipc	a0,0x4
   101f4:	f4a50513          	addi	a0,a0,-182 # 1413a <end_signature+0xaa>
   101f8:	609020ef          	jal	ra,13000 <FN_WriteStr>
   101fc:	00004517          	auipc	a0,0x4
   10200:	f5950513          	addi	a0,a0,-167 # 14155 <end_signature+0xc5>
   10204:	5fd020ef          	jal	ra,13000 <FN_WriteStr>
   10208:	00004517          	auipc	a0,0x4
   1020c:	f5c50513          	addi	a0,a0,-164 # 14164 <end_signature+0xd4>
   10210:	5f1020ef          	jal	ra,13000 <FN_WriteStr>
   10214:	00004517          	auipc	a0,0x4
   10218:	f5850513          	addi	a0,a0,-168 # 1416c <end_signature+0xdc>
   1021c:	5e5020ef          	jal	ra,13000 <FN_WriteStr>
   10220:	00004517          	auipc	a0,0x4
   10224:	f4f50513          	addi	a0,a0,-177 # 1416f <end_signature+0xdf>
   10228:	5d9020ef          	jal	ra,13000 <FN_WriteStr>
   1022c:	00004517          	auipc	a0,0x4
   10230:	f4650513          	addi	a0,a0,-186 # 14172 <end_signature+0xe2>
   10234:	5cd020ef          	jal	ra,13000 <FN_WriteStr>
   10238:	00004517          	auipc	a0,0x4
   1023c:	f3d50513          	addi	a0,a0,-195 # 14175 <end_signature+0xe5>
   10240:	5c1020ef          	jal	ra,13000 <FN_WriteStr>
   10244:	00018513          	mv	a0,gp
   10248:	5d5020ef          	jal	ra,1301c <FN_WriteA0>
   1024c:	00004517          	auipc	a0,0x4
   10250:	f2b50513          	addi	a0,a0,-213 # 14177 <end_signature+0xe7>
   10254:	5ad020ef          	jal	ra,13000 <FN_WriteStr>
   10258:	00004517          	auipc	a0,0x4
   1025c:	f2550513          	addi	a0,a0,-219 # 1417d <end_signature+0xed>
   10260:	5a1020ef          	jal	ra,13000 <FN_WriteStr>
   10264:	00004517          	auipc	a0,0x4
   10268:	f2450513          	addi	a0,a0,-220 # 14188 <end_signature+0xf8>
   1026c:	595020ef          	jal	ra,13000 <FN_WriteStr>
   10270:	06400193          	li	gp,100
   10274:	0000100f          	fence.i
   10278:	00018063          	beqz	gp,10278 <reset_vector+0x22c>
   1027c:	00119193          	slli	gp,gp,0x1
   10280:	0011e193          	ori	gp,gp,1
   10284:	00000073          	ecall
   10288:	000012b7          	lui	t0,0x1
   1028c:	1f128293          	addi	t0,t0,497 # 11f1 <_start-0xee0f>
   10290:	08520e63          	beq	tp,t0,1032c <reset_vector+0x2e0>
   10294:	00004517          	auipc	a0,0x4
   10298:	ef650513          	addi	a0,a0,-266 # 1418a <end_signature+0xfa>
   1029c:	565020ef          	jal	ra,13000 <FN_WriteStr>
   102a0:	00004517          	auipc	a0,0x4
   102a4:	f0550513          	addi	a0,a0,-251 # 141a5 <end_signature+0x115>
   102a8:	559020ef          	jal	ra,13000 <FN_WriteStr>
   102ac:	00004517          	auipc	a0,0x4
   102b0:	f0850513          	addi	a0,a0,-248 # 141b4 <end_signature+0x124>
   102b4:	54d020ef          	jal	ra,13000 <FN_WriteStr>
   102b8:	00004517          	auipc	a0,0x4
   102bc:	f0450513          	addi	a0,a0,-252 # 141bc <end_signature+0x12c>
   102c0:	541020ef          	jal	ra,13000 <FN_WriteStr>
   102c4:	00004517          	auipc	a0,0x4
   102c8:	efb50513          	addi	a0,a0,-261 # 141bf <end_signature+0x12f>
   102cc:	535020ef          	jal	ra,13000 <FN_WriteStr>
   102d0:	00004517          	auipc	a0,0x4
   102d4:	ef250513          	addi	a0,a0,-270 # 141c2 <end_signature+0x132>
   102d8:	529020ef          	jal	ra,13000 <FN_WriteStr>
   102dc:	00004517          	auipc	a0,0x4
   102e0:	ee950513          	addi	a0,a0,-279 # 141c5 <end_signature+0x135>
   102e4:	51d020ef          	jal	ra,13000 <FN_WriteStr>
   102e8:	00020513          	mv	a0,tp
   102ec:	531020ef          	jal	ra,1301c <FN_WriteA0>
   102f0:	00004517          	auipc	a0,0x4
   102f4:	ed750513          	addi	a0,a0,-297 # 141c7 <end_signature+0x137>
   102f8:	509020ef          	jal	ra,13000 <FN_WriteStr>
   102fc:	00004517          	auipc	a0,0x4
   10300:	ed150513          	addi	a0,a0,-303 # 141cd <end_signature+0x13d>
   10304:	4fd020ef          	jal	ra,13000 <FN_WriteStr>
   10308:	00004517          	auipc	a0,0x4
   1030c:	ed050513          	addi	a0,a0,-304 # 141d8 <end_signature+0x148>
   10310:	4f1020ef          	jal	ra,13000 <FN_WriteStr>
   10314:	06400193          	li	gp,100
   10318:	0000100f          	fence.i
   1031c:	00018063          	beqz	gp,1031c <reset_vector+0x2d0>
   10320:	00119193          	slli	gp,gp,0x1
   10324:	0011e193          	ori	gp,gp,1
   10328:	00000073          	ecall
   1032c:	00004517          	auipc	a0,0x4
   10330:	eae50513          	addi	a0,a0,-338 # 141da <end_signature+0x14a>
   10334:	4cd020ef          	jal	ra,13000 <FN_WriteStr>
   10338:	00004517          	auipc	a0,0x4
   1033c:	ebe50513          	addi	a0,a0,-322 # 141f6 <end_signature+0x166>
   10340:	4c1020ef          	jal	ra,13000 <FN_WriteStr>
   10344:	00004c17          	auipc	s8,0x4
   10348:	cc1c0c13          	addi	s8,s8,-831 # 14005 <test_A2_data+0x1>
   1034c:	00004297          	auipc	t0,0x4
   10350:	cfc28293          	addi	t0,t0,-772 # 14048 <test_A2_res>
   10354:	fffc5c83          	lhu	s9,-1(s8)
   10358:	001c5d03          	lhu	s10,1(s8)
   1035c:	0192a023          	sw	s9,0(t0)
   10360:	01a2a223          	sw	s10,4(t0)
   10364:	000042b7          	lui	t0,0x4
   10368:	4f428293          	addi	t0,t0,1268 # 44f4 <_start-0xbb0c>
   1036c:	085c8e63          	beq	s9,t0,10408 <reset_vector+0x3bc>
   10370:	00004517          	auipc	a0,0x4
   10374:	eae50513          	addi	a0,a0,-338 # 1421e <end_signature+0x18e>
   10378:	489020ef          	jal	ra,13000 <FN_WriteStr>
   1037c:	00004517          	auipc	a0,0x4
   10380:	ebd50513          	addi	a0,a0,-323 # 14239 <end_signature+0x1a9>
   10384:	47d020ef          	jal	ra,13000 <FN_WriteStr>
   10388:	00004517          	auipc	a0,0x4
   1038c:	ec050513          	addi	a0,a0,-320 # 14248 <end_signature+0x1b8>
   10390:	471020ef          	jal	ra,13000 <FN_WriteStr>
   10394:	00004517          	auipc	a0,0x4
   10398:	ebc50513          	addi	a0,a0,-324 # 14250 <end_signature+0x1c0>
   1039c:	465020ef          	jal	ra,13000 <FN_WriteStr>
   103a0:	00004517          	auipc	a0,0x4
   103a4:	eb350513          	addi	a0,a0,-333 # 14253 <end_signature+0x1c3>
   103a8:	459020ef          	jal	ra,13000 <FN_WriteStr>
   103ac:	00004517          	auipc	a0,0x4
   103b0:	eaa50513          	addi	a0,a0,-342 # 14256 <end_signature+0x1c6>
   103b4:	44d020ef          	jal	ra,13000 <FN_WriteStr>
   103b8:	00004517          	auipc	a0,0x4
   103bc:	ea250513          	addi	a0,a0,-350 # 1425a <end_signature+0x1ca>
   103c0:	441020ef          	jal	ra,13000 <FN_WriteStr>
   103c4:	000c8513          	mv	a0,s9
   103c8:	455020ef          	jal	ra,1301c <FN_WriteA0>
   103cc:	00004517          	auipc	a0,0x4
   103d0:	e9050513          	addi	a0,a0,-368 # 1425c <end_signature+0x1cc>
   103d4:	42d020ef          	jal	ra,13000 <FN_WriteStr>
   103d8:	00004517          	auipc	a0,0x4
   103dc:	e8a50513          	addi	a0,a0,-374 # 14262 <end_signature+0x1d2>
   103e0:	421020ef          	jal	ra,13000 <FN_WriteStr>
   103e4:	00004517          	auipc	a0,0x4
   103e8:	e8950513          	addi	a0,a0,-375 # 1426d <end_signature+0x1dd>
   103ec:	415020ef          	jal	ra,13000 <FN_WriteStr>
   103f0:	06400193          	li	gp,100
   103f4:	0000100f          	fence.i
   103f8:	00018063          	beqz	gp,103f8 <reset_vector+0x3ac>
   103fc:	00119193          	slli	gp,gp,0x1
   10400:	0011e193          	ori	gp,gp,1
   10404:	00000073          	ecall
   10408:	0000f2b7          	lui	t0,0xf
   1040c:	33328293          	addi	t0,t0,819 # f333 <_start-0xccd>
   10410:	085d0e63          	beq	s10,t0,104ac <reset_vector+0x460>
   10414:	00004517          	auipc	a0,0x4
   10418:	e5b50513          	addi	a0,a0,-421 # 1426f <end_signature+0x1df>
   1041c:	3e5020ef          	jal	ra,13000 <FN_WriteStr>
   10420:	00004517          	auipc	a0,0x4
   10424:	e6a50513          	addi	a0,a0,-406 # 1428a <end_signature+0x1fa>
   10428:	3d9020ef          	jal	ra,13000 <FN_WriteStr>
   1042c:	00004517          	auipc	a0,0x4
   10430:	e6d50513          	addi	a0,a0,-403 # 14299 <end_signature+0x209>
   10434:	3cd020ef          	jal	ra,13000 <FN_WriteStr>
   10438:	00004517          	auipc	a0,0x4
   1043c:	e6950513          	addi	a0,a0,-407 # 142a1 <end_signature+0x211>
   10440:	3c1020ef          	jal	ra,13000 <FN_WriteStr>
   10444:	00004517          	auipc	a0,0x4
   10448:	e6050513          	addi	a0,a0,-416 # 142a4 <end_signature+0x214>
   1044c:	3b5020ef          	jal	ra,13000 <FN_WriteStr>
   10450:	00004517          	auipc	a0,0x4
   10454:	e5750513          	addi	a0,a0,-425 # 142a7 <end_signature+0x217>
   10458:	3a9020ef          	jal	ra,13000 <FN_WriteStr>
   1045c:	00004517          	auipc	a0,0x4
   10460:	e4f50513          	addi	a0,a0,-433 # 142ab <end_signature+0x21b>
   10464:	39d020ef          	jal	ra,13000 <FN_WriteStr>
   10468:	000d0513          	mv	a0,s10
   1046c:	3b1020ef          	jal	ra,1301c <FN_WriteA0>
   10470:	00004517          	auipc	a0,0x4
   10474:	e3d50513          	addi	a0,a0,-451 # 142ad <end_signature+0x21d>
   10478:	389020ef          	jal	ra,13000 <FN_WriteStr>
   1047c:	00004517          	auipc	a0,0x4
   10480:	e3750513          	addi	a0,a0,-457 # 142b3 <end_signature+0x223>
   10484:	37d020ef          	jal	ra,13000 <FN_WriteStr>
   10488:	00004517          	auipc	a0,0x4
   1048c:	e3650513          	addi	a0,a0,-458 # 142be <end_signature+0x22e>
   10490:	371020ef          	jal	ra,13000 <FN_WriteStr>
   10494:	06400193          	li	gp,100
   10498:	0000100f          	fence.i
   1049c:	00018063          	beqz	gp,1049c <reset_vector+0x450>
   104a0:	00119193          	slli	gp,gp,0x1
   104a4:	0011e193          	ori	gp,gp,1
   104a8:	00000073          	ecall
   104ac:	00004517          	auipc	a0,0x4
   104b0:	e1450513          	addi	a0,a0,-492 # 142c0 <end_signature+0x230>
   104b4:	34d020ef          	jal	ra,13000 <FN_WriteStr>
   104b8:	00004517          	auipc	a0,0x4
   104bc:	e2450513          	addi	a0,a0,-476 # 142dc <end_signature+0x24c>
   104c0:	341020ef          	jal	ra,13000 <FN_WriteStr>
   104c4:	00004397          	auipc	t2,0x4
   104c8:	b4338393          	addi	t2,t2,-1213 # 14007 <test_A2_data+0x3>
   104cc:	00004417          	auipc	s0,0x4
   104d0:	b8440413          	addi	s0,s0,-1148 # 14050 <test_A3_res>
   104d4:	0013df03          	lhu	t5,1(t2)
   104d8:	0033df83          	lhu	t6,3(t2)
   104dc:	01e42023          	sw	t5,0(s0)
   104e0:	01f42223          	sw	t6,4(s0)
   104e4:	0000f2b7          	lui	t0,0xf
   104e8:	66628293          	addi	t0,t0,1638 # f666 <_start-0x99a>
   104ec:	085f0e63          	beq	t5,t0,10588 <reset_vector+0x53c>
   104f0:	00004517          	auipc	a0,0x4
   104f4:	e1450513          	addi	a0,a0,-492 # 14304 <end_signature+0x274>
   104f8:	309020ef          	jal	ra,13000 <FN_WriteStr>
   104fc:	00004517          	auipc	a0,0x4
   10500:	e2350513          	addi	a0,a0,-477 # 1431f <end_signature+0x28f>
   10504:	2fd020ef          	jal	ra,13000 <FN_WriteStr>
   10508:	00004517          	auipc	a0,0x4
   1050c:	e2650513          	addi	a0,a0,-474 # 1432e <end_signature+0x29e>
   10510:	2f1020ef          	jal	ra,13000 <FN_WriteStr>
   10514:	00004517          	auipc	a0,0x4
   10518:	e2250513          	addi	a0,a0,-478 # 14336 <end_signature+0x2a6>
   1051c:	2e5020ef          	jal	ra,13000 <FN_WriteStr>
   10520:	00004517          	auipc	a0,0x4
   10524:	e1a50513          	addi	a0,a0,-486 # 1433a <end_signature+0x2aa>
   10528:	2d9020ef          	jal	ra,13000 <FN_WriteStr>
   1052c:	00004517          	auipc	a0,0x4
   10530:	e1150513          	addi	a0,a0,-495 # 1433d <end_signature+0x2ad>
   10534:	2cd020ef          	jal	ra,13000 <FN_WriteStr>
   10538:	00004517          	auipc	a0,0x4
   1053c:	e0950513          	addi	a0,a0,-503 # 14341 <end_signature+0x2b1>
   10540:	2c1020ef          	jal	ra,13000 <FN_WriteStr>
   10544:	000f0513          	mv	a0,t5
   10548:	2d5020ef          	jal	ra,1301c <FN_WriteA0>
   1054c:	00004517          	auipc	a0,0x4
   10550:	df750513          	addi	a0,a0,-521 # 14343 <end_signature+0x2b3>
   10554:	2ad020ef          	jal	ra,13000 <FN_WriteStr>
   10558:	00004517          	auipc	a0,0x4
   1055c:	df150513          	addi	a0,a0,-527 # 14349 <end_signature+0x2b9>
   10560:	2a1020ef          	jal	ra,13000 <FN_WriteStr>
   10564:	00004517          	auipc	a0,0x4
   10568:	df050513          	addi	a0,a0,-528 # 14354 <end_signature+0x2c4>
   1056c:	295020ef          	jal	ra,13000 <FN_WriteStr>
   10570:	06400193          	li	gp,100
   10574:	0000100f          	fence.i
   10578:	00018063          	beqz	gp,10578 <reset_vector+0x52c>
   1057c:	00119193          	slli	gp,gp,0x1
   10580:	0011e193          	ori	gp,gp,1
   10584:	00000073          	ecall
   10588:	000052b7          	lui	t0,0x5
   1058c:	5f528293          	addi	t0,t0,1525 # 55f5 <_start-0xaa0b>
   10590:	085f8e63          	beq	t6,t0,1062c <reset_vector+0x5e0>
   10594:	00004517          	auipc	a0,0x4
   10598:	dc250513          	addi	a0,a0,-574 # 14356 <end_signature+0x2c6>
   1059c:	265020ef          	jal	ra,13000 <FN_WriteStr>
   105a0:	00004517          	auipc	a0,0x4
   105a4:	dd150513          	addi	a0,a0,-559 # 14371 <end_signature+0x2e1>
   105a8:	259020ef          	jal	ra,13000 <FN_WriteStr>
   105ac:	00004517          	auipc	a0,0x4
   105b0:	dd450513          	addi	a0,a0,-556 # 14380 <end_signature+0x2f0>
   105b4:	24d020ef          	jal	ra,13000 <FN_WriteStr>
   105b8:	00004517          	auipc	a0,0x4
   105bc:	dd050513          	addi	a0,a0,-560 # 14388 <end_signature+0x2f8>
   105c0:	241020ef          	jal	ra,13000 <FN_WriteStr>
   105c4:	00004517          	auipc	a0,0x4
   105c8:	dc850513          	addi	a0,a0,-568 # 1438c <end_signature+0x2fc>
   105cc:	235020ef          	jal	ra,13000 <FN_WriteStr>
   105d0:	00004517          	auipc	a0,0x4
   105d4:	dbf50513          	addi	a0,a0,-577 # 1438f <end_signature+0x2ff>
   105d8:	229020ef          	jal	ra,13000 <FN_WriteStr>
   105dc:	00004517          	auipc	a0,0x4
   105e0:	db750513          	addi	a0,a0,-585 # 14393 <end_signature+0x303>
   105e4:	21d020ef          	jal	ra,13000 <FN_WriteStr>
   105e8:	000f8513          	mv	a0,t6
   105ec:	231020ef          	jal	ra,1301c <FN_WriteA0>
   105f0:	00004517          	auipc	a0,0x4
   105f4:	da550513          	addi	a0,a0,-603 # 14395 <end_signature+0x305>
   105f8:	209020ef          	jal	ra,13000 <FN_WriteStr>
   105fc:	00004517          	auipc	a0,0x4
   10600:	d9f50513          	addi	a0,a0,-609 # 1439b <end_signature+0x30b>
   10604:	1fd020ef          	jal	ra,13000 <FN_WriteStr>
   10608:	00004517          	auipc	a0,0x4
   1060c:	d9e50513          	addi	a0,a0,-610 # 143a6 <end_signature+0x316>
   10610:	1f1020ef          	jal	ra,13000 <FN_WriteStr>
   10614:	06400193          	li	gp,100
   10618:	0000100f          	fence.i
   1061c:	00018063          	beqz	gp,1061c <reset_vector+0x5d0>
   10620:	00119193          	slli	gp,gp,0x1
   10624:	0011e193          	ori	gp,gp,1
   10628:	00000073          	ecall
   1062c:	00004517          	auipc	a0,0x4
   10630:	d7c50513          	addi	a0,a0,-644 # 143a8 <end_signature+0x318>
   10634:	1cd020ef          	jal	ra,13000 <FN_WriteStr>
   10638:	00004517          	auipc	a0,0x4
   1063c:	d8c50513          	addi	a0,a0,-628 # 143c4 <end_signature+0x334>
   10640:	1c1020ef          	jal	ra,13000 <FN_WriteStr>
   10644:	00004517          	auipc	a0,0x4
   10648:	1c850513          	addi	a0,a0,456 # 1480c <end_signature+0x77c>
   1064c:	00004597          	auipc	a1,0x4
   10650:	a0c58593          	addi	a1,a1,-1524 # 14058 <test_A4_res>
   10654:	80055603          	lhu	a2,-2048(a0)
   10658:	80255683          	lhu	a3,-2046(a0)
   1065c:	00c5a023          	sw	a2,0(a1)
   10660:	00d5a223          	sw	a3,4(a1)
   10664:	000092b7          	lui	t0,0x9
   10668:	8f828293          	addi	t0,t0,-1800 # 88f8 <_start-0x7708>
   1066c:	08560e63          	beq	a2,t0,10708 <reset_vector+0x6bc>
   10670:	00004517          	auipc	a0,0x4
   10674:	d7f50513          	addi	a0,a0,-641 # 143ef <end_signature+0x35f>
   10678:	189020ef          	jal	ra,13000 <FN_WriteStr>
   1067c:	00004517          	auipc	a0,0x4
   10680:	d8e50513          	addi	a0,a0,-626 # 1440a <end_signature+0x37a>
   10684:	17d020ef          	jal	ra,13000 <FN_WriteStr>
   10688:	00004517          	auipc	a0,0x4
   1068c:	d9150513          	addi	a0,a0,-623 # 14419 <end_signature+0x389>
   10690:	171020ef          	jal	ra,13000 <FN_WriteStr>
   10694:	00004517          	auipc	a0,0x4
   10698:	d8d50513          	addi	a0,a0,-627 # 14421 <end_signature+0x391>
   1069c:	165020ef          	jal	ra,13000 <FN_WriteStr>
   106a0:	00004517          	auipc	a0,0x4
   106a4:	d8550513          	addi	a0,a0,-635 # 14425 <end_signature+0x395>
   106a8:	159020ef          	jal	ra,13000 <FN_WriteStr>
   106ac:	00004517          	auipc	a0,0x4
   106b0:	d7c50513          	addi	a0,a0,-644 # 14428 <end_signature+0x398>
   106b4:	14d020ef          	jal	ra,13000 <FN_WriteStr>
   106b8:	00004517          	auipc	a0,0x4
   106bc:	d7450513          	addi	a0,a0,-652 # 1442c <end_signature+0x39c>
   106c0:	141020ef          	jal	ra,13000 <FN_WriteStr>
   106c4:	00060513          	mv	a0,a2
   106c8:	155020ef          	jal	ra,1301c <FN_WriteA0>
   106cc:	00004517          	auipc	a0,0x4
   106d0:	d6250513          	addi	a0,a0,-670 # 1442e <end_signature+0x39e>
   106d4:	12d020ef          	jal	ra,13000 <FN_WriteStr>
   106d8:	00004517          	auipc	a0,0x4
   106dc:	d5c50513          	addi	a0,a0,-676 # 14434 <end_signature+0x3a4>
   106e0:	121020ef          	jal	ra,13000 <FN_WriteStr>
   106e4:	00004517          	auipc	a0,0x4
   106e8:	d5b50513          	addi	a0,a0,-677 # 1443f <end_signature+0x3af>
   106ec:	115020ef          	jal	ra,13000 <FN_WriteStr>
   106f0:	06400193          	li	gp,100
   106f4:	0000100f          	fence.i
   106f8:	00018063          	beqz	gp,106f8 <reset_vector+0x6ac>
   106fc:	00119193          	slli	gp,gp,0x1
   10700:	0011e193          	ori	gp,gp,1
   10704:	00000073          	ecall
   10708:	0000f2b7          	lui	t0,0xf
   1070c:	77728293          	addi	t0,t0,1911 # f777 <_start-0x889>
   10710:	08568e63          	beq	a3,t0,107ac <reset_vector+0x760>
   10714:	00004517          	auipc	a0,0x4
   10718:	d2d50513          	addi	a0,a0,-723 # 14441 <end_signature+0x3b1>
   1071c:	0e5020ef          	jal	ra,13000 <FN_WriteStr>
   10720:	00004517          	auipc	a0,0x4
   10724:	d3c50513          	addi	a0,a0,-708 # 1445c <end_signature+0x3cc>
   10728:	0d9020ef          	jal	ra,13000 <FN_WriteStr>
   1072c:	00004517          	auipc	a0,0x4
   10730:	d3f50513          	addi	a0,a0,-705 # 1446b <end_signature+0x3db>
   10734:	0cd020ef          	jal	ra,13000 <FN_WriteStr>
   10738:	00004517          	auipc	a0,0x4
   1073c:	d3b50513          	addi	a0,a0,-709 # 14473 <end_signature+0x3e3>
   10740:	0c1020ef          	jal	ra,13000 <FN_WriteStr>
   10744:	00004517          	auipc	a0,0x4
   10748:	d3350513          	addi	a0,a0,-717 # 14477 <end_signature+0x3e7>
   1074c:	0b5020ef          	jal	ra,13000 <FN_WriteStr>
   10750:	00004517          	auipc	a0,0x4
   10754:	d2a50513          	addi	a0,a0,-726 # 1447a <end_signature+0x3ea>
   10758:	0a9020ef          	jal	ra,13000 <FN_WriteStr>
   1075c:	00004517          	auipc	a0,0x4
   10760:	d2250513          	addi	a0,a0,-734 # 1447e <end_signature+0x3ee>
   10764:	09d020ef          	jal	ra,13000 <FN_WriteStr>
   10768:	00068513          	mv	a0,a3
   1076c:	0b1020ef          	jal	ra,1301c <FN_WriteA0>
   10770:	00004517          	auipc	a0,0x4
   10774:	d1050513          	addi	a0,a0,-752 # 14480 <end_signature+0x3f0>
   10778:	089020ef          	jal	ra,13000 <FN_WriteStr>
   1077c:	00004517          	auipc	a0,0x4
   10780:	d0a50513          	addi	a0,a0,-758 # 14486 <end_signature+0x3f6>
   10784:	07d020ef          	jal	ra,13000 <FN_WriteStr>
   10788:	00004517          	auipc	a0,0x4
   1078c:	d0950513          	addi	a0,a0,-759 # 14491 <end_signature+0x401>
   10790:	071020ef          	jal	ra,13000 <FN_WriteStr>
   10794:	06400193          	li	gp,100
   10798:	0000100f          	fence.i
   1079c:	00018063          	beqz	gp,1079c <reset_vector+0x750>
   107a0:	00119193          	slli	gp,gp,0x1
   107a4:	0011e193          	ori	gp,gp,1
   107a8:	00000073          	ecall
   107ac:	00004517          	auipc	a0,0x4
   107b0:	ce750513          	addi	a0,a0,-793 # 14493 <end_signature+0x403>
   107b4:	04d020ef          	jal	ra,13000 <FN_WriteStr>
   107b8:	00004517          	auipc	a0,0x4
   107bc:	cf750513          	addi	a0,a0,-777 # 144af <end_signature+0x41f>
   107c0:	041020ef          	jal	ra,13000 <FN_WriteStr>
   107c4:	00003697          	auipc	a3,0x3
   107c8:	04f68693          	addi	a3,a3,79 # 13813 <FN_WriteA0_common+0x79f>
   107cc:	00004717          	auipc	a4,0x4
   107d0:	89470713          	addi	a4,a4,-1900 # 14060 <test_A5_res>
   107d4:	7fd6d783          	lhu	a5,2045(a3)
   107d8:	7ff6d803          	lhu	a6,2047(a3)
   107dc:	00f72023          	sw	a5,0(a4)
   107e0:	01072223          	sw	a6,4(a4)
   107e4:	000012b7          	lui	t0,0x1
   107e8:	aaa28293          	addi	t0,t0,-1366 # aaa <_start-0xf556>
   107ec:	08578e63          	beq	a5,t0,10888 <reset_vector+0x83c>
   107f0:	00004517          	auipc	a0,0x4
   107f4:	cea50513          	addi	a0,a0,-790 # 144da <end_signature+0x44a>
   107f8:	009020ef          	jal	ra,13000 <FN_WriteStr>
   107fc:	00004517          	auipc	a0,0x4
   10800:	cf950513          	addi	a0,a0,-775 # 144f5 <end_signature+0x465>
   10804:	7fc020ef          	jal	ra,13000 <FN_WriteStr>
   10808:	00004517          	auipc	a0,0x4
   1080c:	cfc50513          	addi	a0,a0,-772 # 14504 <end_signature+0x474>
   10810:	7f0020ef          	jal	ra,13000 <FN_WriteStr>
   10814:	00004517          	auipc	a0,0x4
   10818:	cf850513          	addi	a0,a0,-776 # 1450c <end_signature+0x47c>
   1081c:	7e4020ef          	jal	ra,13000 <FN_WriteStr>
   10820:	00004517          	auipc	a0,0x4
   10824:	cf050513          	addi	a0,a0,-784 # 14510 <end_signature+0x480>
   10828:	7d8020ef          	jal	ra,13000 <FN_WriteStr>
   1082c:	00004517          	auipc	a0,0x4
   10830:	ce750513          	addi	a0,a0,-793 # 14513 <end_signature+0x483>
   10834:	7cc020ef          	jal	ra,13000 <FN_WriteStr>
   10838:	00004517          	auipc	a0,0x4
   1083c:	cdf50513          	addi	a0,a0,-801 # 14517 <end_signature+0x487>
   10840:	7c0020ef          	jal	ra,13000 <FN_WriteStr>
   10844:	00078513          	mv	a0,a5
   10848:	7d4020ef          	jal	ra,1301c <FN_WriteA0>
   1084c:	00004517          	auipc	a0,0x4
   10850:	ccd50513          	addi	a0,a0,-819 # 14519 <end_signature+0x489>
   10854:	7ac020ef          	jal	ra,13000 <FN_WriteStr>
   10858:	00004517          	auipc	a0,0x4
   1085c:	cc750513          	addi	a0,a0,-825 # 1451f <end_signature+0x48f>
   10860:	7a0020ef          	jal	ra,13000 <FN_WriteStr>
   10864:	00004517          	auipc	a0,0x4
   10868:	cc650513          	addi	a0,a0,-826 # 1452a <end_signature+0x49a>
   1086c:	794020ef          	jal	ra,13000 <FN_WriteStr>
   10870:	06400193          	li	gp,100
   10874:	0000100f          	fence.i
   10878:	00018063          	beqz	gp,10878 <reset_vector+0x82c>
   1087c:	00119193          	slli	gp,gp,0x1
   10880:	0011e193          	ori	gp,gp,1
   10884:	00000073          	ecall
   10888:	0000a2b7          	lui	t0,0xa
   1088c:	90928293          	addi	t0,t0,-1783 # 9909 <_start-0x66f7>
   10890:	08580e63          	beq	a6,t0,1092c <reset_vector+0x8e0>
   10894:	00004517          	auipc	a0,0x4
   10898:	c9850513          	addi	a0,a0,-872 # 1452c <end_signature+0x49c>
   1089c:	764020ef          	jal	ra,13000 <FN_WriteStr>
   108a0:	00004517          	auipc	a0,0x4
   108a4:	ca750513          	addi	a0,a0,-857 # 14547 <end_signature+0x4b7>
   108a8:	758020ef          	jal	ra,13000 <FN_WriteStr>
   108ac:	00004517          	auipc	a0,0x4
   108b0:	caa50513          	addi	a0,a0,-854 # 14556 <end_signature+0x4c6>
   108b4:	74c020ef          	jal	ra,13000 <FN_WriteStr>
   108b8:	00004517          	auipc	a0,0x4
   108bc:	ca650513          	addi	a0,a0,-858 # 1455e <end_signature+0x4ce>
   108c0:	740020ef          	jal	ra,13000 <FN_WriteStr>
   108c4:	00004517          	auipc	a0,0x4
   108c8:	c9e50513          	addi	a0,a0,-866 # 14562 <end_signature+0x4d2>
   108cc:	734020ef          	jal	ra,13000 <FN_WriteStr>
   108d0:	00004517          	auipc	a0,0x4
   108d4:	c9550513          	addi	a0,a0,-875 # 14565 <end_signature+0x4d5>
   108d8:	728020ef          	jal	ra,13000 <FN_WriteStr>
   108dc:	00004517          	auipc	a0,0x4
   108e0:	c8d50513          	addi	a0,a0,-883 # 14569 <end_signature+0x4d9>
   108e4:	71c020ef          	jal	ra,13000 <FN_WriteStr>
   108e8:	00080513          	mv	a0,a6
   108ec:	730020ef          	jal	ra,1301c <FN_WriteA0>
   108f0:	00004517          	auipc	a0,0x4
   108f4:	c7b50513          	addi	a0,a0,-901 # 1456b <end_signature+0x4db>
   108f8:	708020ef          	jal	ra,13000 <FN_WriteStr>
   108fc:	00004517          	auipc	a0,0x4
   10900:	c7550513          	addi	a0,a0,-907 # 14571 <end_signature+0x4e1>
   10904:	6fc020ef          	jal	ra,13000 <FN_WriteStr>
   10908:	00004517          	auipc	a0,0x4
   1090c:	c7450513          	addi	a0,a0,-908 # 1457c <end_signature+0x4ec>
   10910:	6f0020ef          	jal	ra,13000 <FN_WriteStr>
   10914:	06400193          	li	gp,100
   10918:	0000100f          	fence.i
   1091c:	00018063          	beqz	gp,1091c <reset_vector+0x8d0>
   10920:	00119193          	slli	gp,gp,0x1
   10924:	0011e193          	ori	gp,gp,1
   10928:	00000073          	ecall
   1092c:	00004517          	auipc	a0,0x4
   10930:	c5250513          	addi	a0,a0,-942 # 1457e <end_signature+0x4ee>
   10934:	6cc020ef          	jal	ra,13000 <FN_WriteStr>
   10938:	00004517          	auipc	a0,0x4
   1093c:	c6250513          	addi	a0,a0,-926 # 1459a <end_signature+0x50a>
   10940:	6c0020ef          	jal	ra,13000 <FN_WriteStr>
   10944:	00003817          	auipc	a6,0x3
   10948:	6d480813          	addi	a6,a6,1748 # 14018 <test_B_data>
   1094c:	00003897          	auipc	a7,0x3
   10950:	71c88893          	addi	a7,a7,1820 # 14068 <test_B_res>
   10954:	ffc85903          	lhu	s2,-4(a6)
   10958:	ffe85983          	lhu	s3,-2(a6)
   1095c:	00085a03          	lhu	s4,0(a6)
   10960:	00285a83          	lhu	s5,2(a6)
   10964:	00485b03          	lhu	s6,4(a6)
   10968:	00685b83          	lhu	s7,6(a6)
   1096c:	0128a023          	sw	s2,0(a7)
   10970:	0138a223          	sw	s3,4(a7)
   10974:	0148a423          	sw	s4,8(a7)
   10978:	0158a623          	sw	s5,12(a7)
   1097c:	0168a823          	sw	s6,16(a7)
   10980:	0178aa23          	sw	s7,20(a7)
   10984:	0000d2b7          	lui	t0,0xd
   10988:	c0c28293          	addi	t0,t0,-1012 # cc0c <_start-0x33f4>
   1098c:	08590e63          	beq	s2,t0,10a28 <reset_vector+0x9dc>
   10990:	00004517          	auipc	a0,0x4
   10994:	c4150513          	addi	a0,a0,-959 # 145d1 <end_signature+0x541>
   10998:	668020ef          	jal	ra,13000 <FN_WriteStr>
   1099c:	00004517          	auipc	a0,0x4
   109a0:	c5050513          	addi	a0,a0,-944 # 145ec <end_signature+0x55c>
   109a4:	65c020ef          	jal	ra,13000 <FN_WriteStr>
   109a8:	00004517          	auipc	a0,0x4
   109ac:	c5350513          	addi	a0,a0,-941 # 145fb <end_signature+0x56b>
   109b0:	650020ef          	jal	ra,13000 <FN_WriteStr>
   109b4:	00004517          	auipc	a0,0x4
   109b8:	c4f50513          	addi	a0,a0,-945 # 14603 <end_signature+0x573>
   109bc:	644020ef          	jal	ra,13000 <FN_WriteStr>
   109c0:	00004517          	auipc	a0,0x4
   109c4:	c4750513          	addi	a0,a0,-953 # 14607 <end_signature+0x577>
   109c8:	638020ef          	jal	ra,13000 <FN_WriteStr>
   109cc:	00004517          	auipc	a0,0x4
   109d0:	c3e50513          	addi	a0,a0,-962 # 1460a <end_signature+0x57a>
   109d4:	62c020ef          	jal	ra,13000 <FN_WriteStr>
   109d8:	00004517          	auipc	a0,0x4
   109dc:	c3650513          	addi	a0,a0,-970 # 1460e <end_signature+0x57e>
   109e0:	620020ef          	jal	ra,13000 <FN_WriteStr>
   109e4:	00090513          	mv	a0,s2
   109e8:	634020ef          	jal	ra,1301c <FN_WriteA0>
   109ec:	00004517          	auipc	a0,0x4
   109f0:	c2450513          	addi	a0,a0,-988 # 14610 <end_signature+0x580>
   109f4:	60c020ef          	jal	ra,13000 <FN_WriteStr>
   109f8:	00004517          	auipc	a0,0x4
   109fc:	c1e50513          	addi	a0,a0,-994 # 14616 <end_signature+0x586>
   10a00:	600020ef          	jal	ra,13000 <FN_WriteStr>
   10a04:	00004517          	auipc	a0,0x4
   10a08:	c1d50513          	addi	a0,a0,-995 # 14621 <end_signature+0x591>
   10a0c:	5f4020ef          	jal	ra,13000 <FN_WriteStr>
   10a10:	06400193          	li	gp,100
   10a14:	0000100f          	fence.i
   10a18:	00018063          	beqz	gp,10a18 <reset_vector+0x9cc>
   10a1c:	00119193          	slli	gp,gp,0x1
   10a20:	0011e193          	ori	gp,gp,1
   10a24:	00000073          	ecall
   10a28:	000012b7          	lui	t0,0x1
   10a2c:	bbb28293          	addi	t0,t0,-1093 # bbb <_start-0xf445>
   10a30:	08598e63          	beq	s3,t0,10acc <reset_vector+0xa80>
   10a34:	00004517          	auipc	a0,0x4
   10a38:	bef50513          	addi	a0,a0,-1041 # 14623 <end_signature+0x593>
   10a3c:	5c4020ef          	jal	ra,13000 <FN_WriteStr>
   10a40:	00004517          	auipc	a0,0x4
   10a44:	bfe50513          	addi	a0,a0,-1026 # 1463e <end_signature+0x5ae>
   10a48:	5b8020ef          	jal	ra,13000 <FN_WriteStr>
   10a4c:	00004517          	auipc	a0,0x4
   10a50:	c0150513          	addi	a0,a0,-1023 # 1464d <end_signature+0x5bd>
   10a54:	5ac020ef          	jal	ra,13000 <FN_WriteStr>
   10a58:	00004517          	auipc	a0,0x4
   10a5c:	bfd50513          	addi	a0,a0,-1027 # 14655 <end_signature+0x5c5>
   10a60:	5a0020ef          	jal	ra,13000 <FN_WriteStr>
   10a64:	00004517          	auipc	a0,0x4
   10a68:	bf550513          	addi	a0,a0,-1035 # 14659 <end_signature+0x5c9>
   10a6c:	594020ef          	jal	ra,13000 <FN_WriteStr>
   10a70:	00004517          	auipc	a0,0x4
   10a74:	bec50513          	addi	a0,a0,-1044 # 1465c <end_signature+0x5cc>
   10a78:	588020ef          	jal	ra,13000 <FN_WriteStr>
   10a7c:	00004517          	auipc	a0,0x4
   10a80:	be450513          	addi	a0,a0,-1052 # 14660 <end_signature+0x5d0>
   10a84:	57c020ef          	jal	ra,13000 <FN_WriteStr>
   10a88:	00098513          	mv	a0,s3
   10a8c:	590020ef          	jal	ra,1301c <FN_WriteA0>
   10a90:	00004517          	auipc	a0,0x4
   10a94:	bd250513          	addi	a0,a0,-1070 # 14662 <end_signature+0x5d2>
   10a98:	568020ef          	jal	ra,13000 <FN_WriteStr>
   10a9c:	00004517          	auipc	a0,0x4
   10aa0:	bcc50513          	addi	a0,a0,-1076 # 14668 <end_signature+0x5d8>
   10aa4:	55c020ef          	jal	ra,13000 <FN_WriteStr>
   10aa8:	00004517          	auipc	a0,0x4
   10aac:	bcb50513          	addi	a0,a0,-1077 # 14673 <end_signature+0x5e3>
   10ab0:	550020ef          	jal	ra,13000 <FN_WriteStr>
   10ab4:	06400193          	li	gp,100
   10ab8:	0000100f          	fence.i
   10abc:	00018063          	beqz	gp,10abc <reset_vector+0xa70>
   10ac0:	00119193          	slli	gp,gp,0x1
   10ac4:	0011e193          	ori	gp,gp,1
   10ac8:	00000073          	ecall
   10acc:	000012b7          	lui	t0,0x1
   10ad0:	eee28293          	addi	t0,t0,-274 # eee <_start-0xf112>
   10ad4:	085a0e63          	beq	s4,t0,10b70 <reset_vector+0xb24>
   10ad8:	00004517          	auipc	a0,0x4
   10adc:	b9d50513          	addi	a0,a0,-1123 # 14675 <end_signature+0x5e5>
   10ae0:	520020ef          	jal	ra,13000 <FN_WriteStr>
   10ae4:	00004517          	auipc	a0,0x4
   10ae8:	bac50513          	addi	a0,a0,-1108 # 14690 <end_signature+0x600>
   10aec:	514020ef          	jal	ra,13000 <FN_WriteStr>
   10af0:	00004517          	auipc	a0,0x4
   10af4:	baf50513          	addi	a0,a0,-1105 # 1469f <end_signature+0x60f>
   10af8:	508020ef          	jal	ra,13000 <FN_WriteStr>
   10afc:	00004517          	auipc	a0,0x4
   10b00:	bab50513          	addi	a0,a0,-1109 # 146a7 <end_signature+0x617>
   10b04:	4fc020ef          	jal	ra,13000 <FN_WriteStr>
   10b08:	00004517          	auipc	a0,0x4
   10b0c:	ba350513          	addi	a0,a0,-1117 # 146ab <end_signature+0x61b>
   10b10:	4f0020ef          	jal	ra,13000 <FN_WriteStr>
   10b14:	00004517          	auipc	a0,0x4
   10b18:	b9a50513          	addi	a0,a0,-1126 # 146ae <end_signature+0x61e>
   10b1c:	4e4020ef          	jal	ra,13000 <FN_WriteStr>
   10b20:	00004517          	auipc	a0,0x4
   10b24:	b9250513          	addi	a0,a0,-1134 # 146b2 <end_signature+0x622>
   10b28:	4d8020ef          	jal	ra,13000 <FN_WriteStr>
   10b2c:	000a0513          	mv	a0,s4
   10b30:	4ec020ef          	jal	ra,1301c <FN_WriteA0>
   10b34:	00004517          	auipc	a0,0x4
   10b38:	b8050513          	addi	a0,a0,-1152 # 146b4 <end_signature+0x624>
   10b3c:	4c4020ef          	jal	ra,13000 <FN_WriteStr>
   10b40:	00004517          	auipc	a0,0x4
   10b44:	b7a50513          	addi	a0,a0,-1158 # 146ba <end_signature+0x62a>
   10b48:	4b8020ef          	jal	ra,13000 <FN_WriteStr>
   10b4c:	00004517          	auipc	a0,0x4
   10b50:	b7950513          	addi	a0,a0,-1159 # 146c5 <end_signature+0x635>
   10b54:	4ac020ef          	jal	ra,13000 <FN_WriteStr>
   10b58:	06400193          	li	gp,100
   10b5c:	0000100f          	fence.i
   10b60:	00018063          	beqz	gp,10b60 <reset_vector+0xb14>
   10b64:	00119193          	slli	gp,gp,0x1
   10b68:	0011e193          	ori	gp,gp,1
   10b6c:	00000073          	ecall
   10b70:	0000e2b7          	lui	t0,0xe
   10b74:	d0d28293          	addi	t0,t0,-755 # dd0d <_start-0x22f3>
   10b78:	085a8e63          	beq	s5,t0,10c14 <reset_vector+0xbc8>
   10b7c:	00004517          	auipc	a0,0x4
   10b80:	b4b50513          	addi	a0,a0,-1205 # 146c7 <end_signature+0x637>
   10b84:	47c020ef          	jal	ra,13000 <FN_WriteStr>
   10b88:	00004517          	auipc	a0,0x4
   10b8c:	b5a50513          	addi	a0,a0,-1190 # 146e2 <end_signature+0x652>
   10b90:	470020ef          	jal	ra,13000 <FN_WriteStr>
   10b94:	00004517          	auipc	a0,0x4
   10b98:	b5d50513          	addi	a0,a0,-1187 # 146f1 <end_signature+0x661>
   10b9c:	464020ef          	jal	ra,13000 <FN_WriteStr>
   10ba0:	00004517          	auipc	a0,0x4
   10ba4:	b5950513          	addi	a0,a0,-1191 # 146f9 <end_signature+0x669>
   10ba8:	458020ef          	jal	ra,13000 <FN_WriteStr>
   10bac:	00004517          	auipc	a0,0x4
   10bb0:	b5150513          	addi	a0,a0,-1199 # 146fd <end_signature+0x66d>
   10bb4:	44c020ef          	jal	ra,13000 <FN_WriteStr>
   10bb8:	00004517          	auipc	a0,0x4
   10bbc:	b4850513          	addi	a0,a0,-1208 # 14700 <end_signature+0x670>
   10bc0:	440020ef          	jal	ra,13000 <FN_WriteStr>
   10bc4:	00004517          	auipc	a0,0x4
   10bc8:	b4050513          	addi	a0,a0,-1216 # 14704 <end_signature+0x674>
   10bcc:	434020ef          	jal	ra,13000 <FN_WriteStr>
   10bd0:	000a8513          	mv	a0,s5
   10bd4:	448020ef          	jal	ra,1301c <FN_WriteA0>
   10bd8:	00004517          	auipc	a0,0x4
   10bdc:	b2e50513          	addi	a0,a0,-1234 # 14706 <end_signature+0x676>
   10be0:	420020ef          	jal	ra,13000 <FN_WriteStr>
   10be4:	00004517          	auipc	a0,0x4
   10be8:	b2850513          	addi	a0,a0,-1240 # 1470c <end_signature+0x67c>
   10bec:	414020ef          	jal	ra,13000 <FN_WriteStr>
   10bf0:	00004517          	auipc	a0,0x4
   10bf4:	b2750513          	addi	a0,a0,-1241 # 14717 <end_signature+0x687>
   10bf8:	408020ef          	jal	ra,13000 <FN_WriteStr>
   10bfc:	06400193          	li	gp,100
   10c00:	0000100f          	fence.i
   10c04:	00018063          	beqz	gp,10c04 <reset_vector+0xbb8>
   10c08:	00119193          	slli	gp,gp,0x1
   10c0c:	0011e193          	ori	gp,gp,1
   10c10:	00000073          	ecall
   10c14:	0f000293          	li	t0,240
   10c18:	085b0e63          	beq	s6,t0,10cb4 <reset_vector+0xc68>
   10c1c:	00004517          	auipc	a0,0x4
   10c20:	afd50513          	addi	a0,a0,-1283 # 14719 <end_signature+0x689>
   10c24:	3dc020ef          	jal	ra,13000 <FN_WriteStr>
   10c28:	00004517          	auipc	a0,0x4
   10c2c:	b0c50513          	addi	a0,a0,-1268 # 14734 <end_signature+0x6a4>
   10c30:	3d0020ef          	jal	ra,13000 <FN_WriteStr>
   10c34:	00004517          	auipc	a0,0x4
   10c38:	b0f50513          	addi	a0,a0,-1265 # 14743 <end_signature+0x6b3>
   10c3c:	3c4020ef          	jal	ra,13000 <FN_WriteStr>
   10c40:	00004517          	auipc	a0,0x4
   10c44:	b0b50513          	addi	a0,a0,-1269 # 1474b <end_signature+0x6bb>
   10c48:	3b8020ef          	jal	ra,13000 <FN_WriteStr>
   10c4c:	00004517          	auipc	a0,0x4
   10c50:	b0350513          	addi	a0,a0,-1277 # 1474f <end_signature+0x6bf>
   10c54:	3ac020ef          	jal	ra,13000 <FN_WriteStr>
   10c58:	00004517          	auipc	a0,0x4
   10c5c:	afa50513          	addi	a0,a0,-1286 # 14752 <end_signature+0x6c2>
   10c60:	3a0020ef          	jal	ra,13000 <FN_WriteStr>
   10c64:	00004517          	auipc	a0,0x4
   10c68:	af250513          	addi	a0,a0,-1294 # 14756 <end_signature+0x6c6>
   10c6c:	394020ef          	jal	ra,13000 <FN_WriteStr>
   10c70:	000b0513          	mv	a0,s6
   10c74:	3a8020ef          	jal	ra,1301c <FN_WriteA0>
   10c78:	00004517          	auipc	a0,0x4
   10c7c:	ae050513          	addi	a0,a0,-1312 # 14758 <end_signature+0x6c8>
   10c80:	380020ef          	jal	ra,13000 <FN_WriteStr>
   10c84:	00004517          	auipc	a0,0x4
   10c88:	ada50513          	addi	a0,a0,-1318 # 1475e <end_signature+0x6ce>
   10c8c:	374020ef          	jal	ra,13000 <FN_WriteStr>
   10c90:	00004517          	auipc	a0,0x4
   10c94:	ad950513          	addi	a0,a0,-1319 # 14769 <end_signature+0x6d9>
   10c98:	368020ef          	jal	ra,13000 <FN_WriteStr>
   10c9c:	06400193          	li	gp,100
   10ca0:	0000100f          	fence.i
   10ca4:	00018063          	beqz	gp,10ca4 <reset_vector+0xc58>
   10ca8:	00119193          	slli	gp,gp,0x1
   10cac:	0011e193          	ori	gp,gp,1
   10cb0:	00000073          	ecall
   10cb4:	000012b7          	lui	t0,0x1
   10cb8:	fff28293          	addi	t0,t0,-1 # fff <_start-0xf001>
   10cbc:	085b8e63          	beq	s7,t0,10d58 <reset_vector+0xd0c>
   10cc0:	00004517          	auipc	a0,0x4
   10cc4:	aab50513          	addi	a0,a0,-1365 # 1476b <end_signature+0x6db>
   10cc8:	338020ef          	jal	ra,13000 <FN_WriteStr>
   10ccc:	00004517          	auipc	a0,0x4
   10cd0:	aba50513          	addi	a0,a0,-1350 # 14786 <end_signature+0x6f6>
   10cd4:	32c020ef          	jal	ra,13000 <FN_WriteStr>
   10cd8:	00004517          	auipc	a0,0x4
   10cdc:	abd50513          	addi	a0,a0,-1347 # 14795 <end_signature+0x705>
   10ce0:	320020ef          	jal	ra,13000 <FN_WriteStr>
   10ce4:	00004517          	auipc	a0,0x4
   10ce8:	ab950513          	addi	a0,a0,-1351 # 1479d <end_signature+0x70d>
   10cec:	314020ef          	jal	ra,13000 <FN_WriteStr>
   10cf0:	00004517          	auipc	a0,0x4
   10cf4:	ab150513          	addi	a0,a0,-1359 # 147a1 <end_signature+0x711>
   10cf8:	308020ef          	jal	ra,13000 <FN_WriteStr>
   10cfc:	00004517          	auipc	a0,0x4
   10d00:	aa850513          	addi	a0,a0,-1368 # 147a4 <end_signature+0x714>
   10d04:	2fc020ef          	jal	ra,13000 <FN_WriteStr>
   10d08:	00004517          	auipc	a0,0x4
   10d0c:	aa050513          	addi	a0,a0,-1376 # 147a8 <end_signature+0x718>
   10d10:	2f0020ef          	jal	ra,13000 <FN_WriteStr>
   10d14:	000b8513          	mv	a0,s7
   10d18:	304020ef          	jal	ra,1301c <FN_WriteA0>
   10d1c:	00004517          	auipc	a0,0x4
   10d20:	a8e50513          	addi	a0,a0,-1394 # 147aa <end_signature+0x71a>
   10d24:	2dc020ef          	jal	ra,13000 <FN_WriteStr>
   10d28:	00004517          	auipc	a0,0x4
   10d2c:	a8850513          	addi	a0,a0,-1400 # 147b0 <end_signature+0x720>
   10d30:	2d0020ef          	jal	ra,13000 <FN_WriteStr>
   10d34:	00004517          	auipc	a0,0x4
   10d38:	a8750513          	addi	a0,a0,-1401 # 147bb <end_signature+0x72b>
   10d3c:	2c4020ef          	jal	ra,13000 <FN_WriteStr>
   10d40:	06400193          	li	gp,100
   10d44:	0000100f          	fence.i
   10d48:	00018063          	beqz	gp,10d48 <reset_vector+0xcfc>
   10d4c:	00119193          	slli	gp,gp,0x1
   10d50:	0011e193          	ori	gp,gp,1
   10d54:	00000073          	ecall
   10d58:	00004517          	auipc	a0,0x4
   10d5c:	a6550513          	addi	a0,a0,-1435 # 147bd <end_signature+0x72d>
   10d60:	2a0020ef          	jal	ra,13000 <FN_WriteStr>
   10d64:	00004517          	auipc	a0,0x4
   10d68:	a7450513          	addi	a0,a0,-1420 # 147d8 <end_signature+0x748>
   10d6c:	294020ef          	jal	ra,13000 <FN_WriteStr>
   10d70:	00003a97          	auipc	s5,0x3
   10d74:	2b0a8a93          	addi	s5,s5,688 # 14020 <test_C_data>
   10d78:	00003b17          	auipc	s6,0x3
   10d7c:	308b0b13          	addi	s6,s6,776 # 14080 <test_C_res>
   10d80:	000ad003          	lhu	zero,0(s5)
   10d84:	000b2023          	sw	zero,0(s6)
   10d88:	00000293          	li	t0,0
   10d8c:	08500e63          	beq	zero,t0,10e28 <reset_vector+0xddc>
   10d90:	00004517          	auipc	a0,0x4
   10d94:	a6950513          	addi	a0,a0,-1431 # 147f9 <end_signature+0x769>
   10d98:	268020ef          	jal	ra,13000 <FN_WriteStr>
   10d9c:	00004517          	auipc	a0,0x4
   10da0:	a7850513          	addi	a0,a0,-1416 # 14814 <end_signature+0x784>
   10da4:	25c020ef          	jal	ra,13000 <FN_WriteStr>
   10da8:	00004517          	auipc	a0,0x4
   10dac:	a7b50513          	addi	a0,a0,-1413 # 14823 <end_signature+0x793>
   10db0:	250020ef          	jal	ra,13000 <FN_WriteStr>
   10db4:	00004517          	auipc	a0,0x4
   10db8:	a7750513          	addi	a0,a0,-1417 # 1482b <end_signature+0x79b>
   10dbc:	244020ef          	jal	ra,13000 <FN_WriteStr>
   10dc0:	00004517          	auipc	a0,0x4
   10dc4:	a6f50513          	addi	a0,a0,-1425 # 1482f <end_signature+0x79f>
   10dc8:	238020ef          	jal	ra,13000 <FN_WriteStr>
   10dcc:	00004517          	auipc	a0,0x4
   10dd0:	a6650513          	addi	a0,a0,-1434 # 14832 <end_signature+0x7a2>
   10dd4:	22c020ef          	jal	ra,13000 <FN_WriteStr>
   10dd8:	00004517          	auipc	a0,0x4
   10ddc:	a5d50513          	addi	a0,a0,-1443 # 14835 <end_signature+0x7a5>
   10de0:	220020ef          	jal	ra,13000 <FN_WriteStr>
   10de4:	00000513          	li	a0,0
   10de8:	234020ef          	jal	ra,1301c <FN_WriteA0>
   10dec:	00004517          	auipc	a0,0x4
   10df0:	a4b50513          	addi	a0,a0,-1461 # 14837 <end_signature+0x7a7>
   10df4:	20c020ef          	jal	ra,13000 <FN_WriteStr>
   10df8:	00004517          	auipc	a0,0x4
   10dfc:	a4550513          	addi	a0,a0,-1467 # 1483d <end_signature+0x7ad>
   10e00:	200020ef          	jal	ra,13000 <FN_WriteStr>
   10e04:	00004517          	auipc	a0,0x4
   10e08:	a4450513          	addi	a0,a0,-1468 # 14848 <end_signature+0x7b8>
   10e0c:	1f4020ef          	jal	ra,13000 <FN_WriteStr>
   10e10:	06400193          	li	gp,100
   10e14:	0000100f          	fence.i
   10e18:	00018063          	beqz	gp,10e18 <reset_vector+0xdcc>
   10e1c:	00119193          	slli	gp,gp,0x1
   10e20:	0011e193          	ori	gp,gp,1
   10e24:	00000073          	ecall
   10e28:	00004517          	auipc	a0,0x4
   10e2c:	a2250513          	addi	a0,a0,-1502 # 1484a <end_signature+0x7ba>
   10e30:	1d0020ef          	jal	ra,13000 <FN_WriteStr>
   10e34:	00004517          	auipc	a0,0x4
   10e38:	a3150513          	addi	a0,a0,-1487 # 14865 <end_signature+0x7d5>
   10e3c:	1c4020ef          	jal	ra,13000 <FN_WriteStr>
   10e40:	00003a97          	auipc	s5,0x3
   10e44:	1e4a8a93          	addi	s5,s5,484 # 14024 <test_D_data>
   10e48:	00003b17          	auipc	s6,0x3
   10e4c:	23cb0b13          	addi	s6,s6,572 # 14084 <test_D_res>
   10e50:	000aab83          	lw	s7,0(s5)
   10e54:	000bdc03          	lhu	s8,0(s7)
   10e58:	000c0c93          	mv	s9,s8
   10e5c:	019b2023          	sw	s9,0(s6)
   10e60:	0000e2b7          	lui	t0,0xe
   10e64:	ef028293          	addi	t0,t0,-272 # def0 <_start-0x2110>
   10e68:	085c8e63          	beq	s9,t0,10f04 <reset_vector+0xeb8>
   10e6c:	00004517          	auipc	a0,0x4
   10e70:	a1e50513          	addi	a0,a0,-1506 # 1488a <end_signature+0x7fa>
   10e74:	18c020ef          	jal	ra,13000 <FN_WriteStr>
   10e78:	00004517          	auipc	a0,0x4
   10e7c:	a2d50513          	addi	a0,a0,-1491 # 148a5 <end_signature+0x815>
   10e80:	180020ef          	jal	ra,13000 <FN_WriteStr>
   10e84:	00004517          	auipc	a0,0x4
   10e88:	a3050513          	addi	a0,a0,-1488 # 148b4 <end_signature+0x824>
   10e8c:	174020ef          	jal	ra,13000 <FN_WriteStr>
   10e90:	00004517          	auipc	a0,0x4
   10e94:	a2c50513          	addi	a0,a0,-1492 # 148bc <end_signature+0x82c>
   10e98:	168020ef          	jal	ra,13000 <FN_WriteStr>
   10e9c:	00004517          	auipc	a0,0x4
   10ea0:	a2450513          	addi	a0,a0,-1500 # 148c0 <end_signature+0x830>
   10ea4:	15c020ef          	jal	ra,13000 <FN_WriteStr>
   10ea8:	00004517          	auipc	a0,0x4
   10eac:	a1b50513          	addi	a0,a0,-1509 # 148c3 <end_signature+0x833>
   10eb0:	150020ef          	jal	ra,13000 <FN_WriteStr>
   10eb4:	00004517          	auipc	a0,0x4
   10eb8:	a1350513          	addi	a0,a0,-1517 # 148c7 <end_signature+0x837>
   10ebc:	144020ef          	jal	ra,13000 <FN_WriteStr>
   10ec0:	000c8513          	mv	a0,s9
   10ec4:	158020ef          	jal	ra,1301c <FN_WriteA0>
   10ec8:	00004517          	auipc	a0,0x4
   10ecc:	a0150513          	addi	a0,a0,-1535 # 148c9 <end_signature+0x839>
   10ed0:	130020ef          	jal	ra,13000 <FN_WriteStr>
   10ed4:	00004517          	auipc	a0,0x4
   10ed8:	9fb50513          	addi	a0,a0,-1541 # 148cf <end_signature+0x83f>
   10edc:	124020ef          	jal	ra,13000 <FN_WriteStr>
   10ee0:	00004517          	auipc	a0,0x4
   10ee4:	9fa50513          	addi	a0,a0,-1542 # 148da <end_signature+0x84a>
   10ee8:	118020ef          	jal	ra,13000 <FN_WriteStr>
   10eec:	06400193          	li	gp,100
   10ef0:	0000100f          	fence.i
   10ef4:	00018063          	beqz	gp,10ef4 <reset_vector+0xea8>
   10ef8:	00119193          	slli	gp,gp,0x1
   10efc:	0011e193          	ori	gp,gp,1
   10f00:	00000073          	ecall
   10f04:	00004517          	auipc	a0,0x4
   10f08:	9d850513          	addi	a0,a0,-1576 # 148dc <end_signature+0x84c>
   10f0c:	0f4020ef          	jal	ra,13000 <FN_WriteStr>
   10f10:	00004517          	auipc	a0,0x4
   10f14:	9e750513          	addi	a0,a0,-1561 # 148f7 <end_signature+0x867>
   10f18:	0e8020ef          	jal	ra,13000 <FN_WriteStr>
   10f1c:	00003c97          	auipc	s9,0x3
   10f20:	110c8c93          	addi	s9,s9,272 # 1402c <test_E1_data>
   10f24:	00003d17          	auipc	s10,0x3
   10f28:	164d0d13          	addi	s10,s10,356 # 14088 <test_E1_res>
   10f2c:	000cdc83          	lhu	s9,0(s9)
   10f30:	019d2023          	sw	s9,0(s10)
   10f34:	000032b7          	lui	t0,0x3
   10f38:	21028293          	addi	t0,t0,528 # 3210 <_start-0xcdf0>
   10f3c:	085c8e63          	beq	s9,t0,10fd8 <reset_vector+0xf8c>
   10f40:	00004517          	auipc	a0,0x4
   10f44:	9fb50513          	addi	a0,a0,-1541 # 1493b <end_signature+0x8ab>
   10f48:	0b8020ef          	jal	ra,13000 <FN_WriteStr>
   10f4c:	00004517          	auipc	a0,0x4
   10f50:	a0a50513          	addi	a0,a0,-1526 # 14956 <end_signature+0x8c6>
   10f54:	0ac020ef          	jal	ra,13000 <FN_WriteStr>
   10f58:	00004517          	auipc	a0,0x4
   10f5c:	a0d50513          	addi	a0,a0,-1523 # 14965 <end_signature+0x8d5>
   10f60:	0a0020ef          	jal	ra,13000 <FN_WriteStr>
   10f64:	00004517          	auipc	a0,0x4
   10f68:	a0950513          	addi	a0,a0,-1527 # 1496d <end_signature+0x8dd>
   10f6c:	094020ef          	jal	ra,13000 <FN_WriteStr>
   10f70:	00004517          	auipc	a0,0x4
   10f74:	a0150513          	addi	a0,a0,-1535 # 14971 <end_signature+0x8e1>
   10f78:	088020ef          	jal	ra,13000 <FN_WriteStr>
   10f7c:	00004517          	auipc	a0,0x4
   10f80:	9f850513          	addi	a0,a0,-1544 # 14974 <end_signature+0x8e4>
   10f84:	07c020ef          	jal	ra,13000 <FN_WriteStr>
   10f88:	00004517          	auipc	a0,0x4
   10f8c:	9f050513          	addi	a0,a0,-1552 # 14978 <end_signature+0x8e8>
   10f90:	070020ef          	jal	ra,13000 <FN_WriteStr>
   10f94:	000c8513          	mv	a0,s9
   10f98:	084020ef          	jal	ra,1301c <FN_WriteA0>
   10f9c:	00004517          	auipc	a0,0x4
   10fa0:	9de50513          	addi	a0,a0,-1570 # 1497a <end_signature+0x8ea>
   10fa4:	05c020ef          	jal	ra,13000 <FN_WriteStr>
   10fa8:	00004517          	auipc	a0,0x4
   10fac:	9d850513          	addi	a0,a0,-1576 # 14980 <end_signature+0x8f0>
   10fb0:	050020ef          	jal	ra,13000 <FN_WriteStr>
   10fb4:	00004517          	auipc	a0,0x4
   10fb8:	9d750513          	addi	a0,a0,-1577 # 1498b <end_signature+0x8fb>
   10fbc:	044020ef          	jal	ra,13000 <FN_WriteStr>
   10fc0:	06400193          	li	gp,100
   10fc4:	0000100f          	fence.i
   10fc8:	00018063          	beqz	gp,10fc8 <reset_vector+0xf7c>
   10fcc:	00119193          	slli	gp,gp,0x1
   10fd0:	0011e193          	ori	gp,gp,1
   10fd4:	00000073          	ecall
   10fd8:	00004517          	auipc	a0,0x4
   10fdc:	9b550513          	addi	a0,a0,-1611 # 1498d <end_signature+0x8fd>
   10fe0:	020020ef          	jal	ra,13000 <FN_WriteStr>
   10fe4:	00004517          	auipc	a0,0x4
   10fe8:	9c450513          	addi	a0,a0,-1596 # 149a8 <end_signature+0x918>
   10fec:	014020ef          	jal	ra,13000 <FN_WriteStr>
   10ff0:	00003d97          	auipc	s11,0x3
   10ff4:	041d8d93          	addi	s11,s11,65 # 14031 <test_E2_data+0x1>
   10ff8:	00003e17          	auipc	t3,0x3
   10ffc:	094e0e13          	addi	t3,t3,148 # 1408c <test_E2_res>
   11000:	fffddd83          	lhu	s11,-1(s11)
   11004:	01be2023          	sw	s11,0(t3)
   11008:	0000c2b7          	lui	t0,0xc
   1100c:	a9828293          	addi	t0,t0,-1384 # ba98 <_start-0x4568>
   11010:	085d8e63          	beq	s11,t0,110ac <reset_vector+0x1060>
   11014:	00004517          	auipc	a0,0x4
   11018:	9ea50513          	addi	a0,a0,-1558 # 149fe <end_signature+0x96e>
   1101c:	7e5010ef          	jal	ra,13000 <FN_WriteStr>
   11020:	00004517          	auipc	a0,0x4
   11024:	9f950513          	addi	a0,a0,-1543 # 14a19 <end_signature+0x989>
   11028:	7d9010ef          	jal	ra,13000 <FN_WriteStr>
   1102c:	00004517          	auipc	a0,0x4
   11030:	9fc50513          	addi	a0,a0,-1540 # 14a28 <end_signature+0x998>
   11034:	7cd010ef          	jal	ra,13000 <FN_WriteStr>
   11038:	00004517          	auipc	a0,0x4
   1103c:	9f850513          	addi	a0,a0,-1544 # 14a30 <end_signature+0x9a0>
   11040:	7c1010ef          	jal	ra,13000 <FN_WriteStr>
   11044:	00004517          	auipc	a0,0x4
   11048:	9f050513          	addi	a0,a0,-1552 # 14a34 <end_signature+0x9a4>
   1104c:	7b5010ef          	jal	ra,13000 <FN_WriteStr>
   11050:	00004517          	auipc	a0,0x4
   11054:	9e750513          	addi	a0,a0,-1561 # 14a37 <end_signature+0x9a7>
   11058:	7a9010ef          	jal	ra,13000 <FN_WriteStr>
   1105c:	00004517          	auipc	a0,0x4
   11060:	9df50513          	addi	a0,a0,-1569 # 14a3b <end_signature+0x9ab>
   11064:	79d010ef          	jal	ra,13000 <FN_WriteStr>
   11068:	000d8513          	mv	a0,s11
   1106c:	7b1010ef          	jal	ra,1301c <FN_WriteA0>
   11070:	00004517          	auipc	a0,0x4
   11074:	9cd50513          	addi	a0,a0,-1587 # 14a3d <end_signature+0x9ad>
   11078:	789010ef          	jal	ra,13000 <FN_WriteStr>
   1107c:	00004517          	auipc	a0,0x4
   11080:	9c750513          	addi	a0,a0,-1593 # 14a43 <end_signature+0x9b3>
   11084:	77d010ef          	jal	ra,13000 <FN_WriteStr>
   11088:	00004517          	auipc	a0,0x4
   1108c:	9c650513          	addi	a0,a0,-1594 # 14a4e <end_signature+0x9be>
   11090:	771010ef          	jal	ra,13000 <FN_WriteStr>
   11094:	06400193          	li	gp,100
   11098:	0000100f          	fence.i
   1109c:	00018063          	beqz	gp,1109c <reset_vector+0x1050>
   110a0:	00119193          	slli	gp,gp,0x1
   110a4:	0011e193          	ori	gp,gp,1
   110a8:	00000073          	ecall
   110ac:	00004517          	auipc	a0,0x4
   110b0:	9a450513          	addi	a0,a0,-1628 # 14a50 <end_signature+0x9c0>
   110b4:	74d010ef          	jal	ra,13000 <FN_WriteStr>
   110b8:	00004517          	auipc	a0,0x4
   110bc:	9b450513          	addi	a0,a0,-1612 # 14a6c <end_signature+0x9dc>
   110c0:	741010ef          	jal	ra,13000 <FN_WriteStr>
   110c4:	0000100f          	fence.i
   110c8:	00100193          	li	gp,1
   110cc:	00000073          	ecall
   110d0:	c0001073          	unimp
	...

Disassembly of section .tohost:

00012000 <tohost>:
	...

00012100 <fromhost>:
	...

Disassembly of section .text:

00013000 <FN_WriteStr>:
   13000:	00050293          	mv	t0,a0
   13004:	0002c503          	lbu	a0,0(t0)
   13008:	00128293          	addi	t0,t0,1
   1300c:	00050663          	beqz	a0,13018 <FN_WriteStr+0x18>
   13010:	0005200b          	0x5200b
   13014:	ff1ff06f          	j	13004 <FN_WriteStr+0x4>
   13018:	00008067          	ret

0001301c <FN_WriteA0>:
   1301c:	00050293          	mv	t0,a0
   13020:	fff00513          	li	a0,-1
   13024:	01f55513          	srli	a0,a0,0x1f
   13028:	00155513          	srli	a0,a0,0x1
   1302c:	02051463          	bnez	a0,13054 <FN_WriteA0_64>

00013030 <FN_WriteA0_32>:
   13030:	00800313          	li	t1,8
   13034:	00439393          	slli	t2,t2,0x4
   13038:	00f2f513          	andi	a0,t0,15
   1303c:	0042d293          	srli	t0,t0,0x4
   13040:	00a3e3b3          	or	t2,t2,a0
   13044:	fff30313          	addi	t1,t1,-1
   13048:	fe0316e3          	bnez	t1,13034 <FN_WriteA0_32+0x4>
   1304c:	00800313          	li	t1,8
   13050:	0240006f          	j	13074 <FN_WriteA0_common>

00013054 <FN_WriteA0_64>:
   13054:	01000313          	li	t1,16
   13058:	00439393          	slli	t2,t2,0x4
   1305c:	00f2f513          	andi	a0,t0,15
   13060:	0042d293          	srli	t0,t0,0x4
   13064:	00a3e3b3          	or	t2,t2,a0
   13068:	fff30313          	addi	t1,t1,-1
   1306c:	fe0316e3          	bnez	t1,13058 <FN_WriteA0_64+0x4>
   13070:	01000313          	li	t1,16

00013074 <FN_WriteA0_common>:
   13074:	00a00293          	li	t0,10
   13078:	00f3f513          	andi	a0,t2,15
   1307c:	00554663          	blt	a0,t0,13088 <FN_WriteA0_common+0x14>
   13080:	05750513          	addi	a0,a0,87
   13084:	0080006f          	j	1308c <FN_WriteA0_common+0x18>
   13088:	03050513          	addi	a0,a0,48
   1308c:	0005200b          	0x5200b
   13090:	0043d393          	srli	t2,t2,0x4
   13094:	fff30313          	addi	t1,t1,-1
   13098:	fe0310e3          	bnez	t1,13078 <FN_WriteA0_common+0x4>
   1309c:	00008067          	ret
