
/home/benselfridge/riscv-compliance/work//I-LUI-01.elf:     file format elf32-littleriscv


Disassembly of section .text.init:

00010000 <_start>:
   10000:	04c0006f          	j	1004c <reset_vector>

00010004 <trap_vector>:
   10004:	34202f73          	csrr	t5,mcause
   10008:	00800f93          	li	t6,8
   1000c:	03ff0a63          	beq	t5,t6,10040 <write_tohost>
   10010:	00900f93          	li	t6,9
   10014:	03ff0663          	beq	t5,t6,10040 <write_tohost>
   10018:	00b00f93          	li	t6,11
   1001c:	03ff0263          	beq	t5,t6,10040 <write_tohost>
   10020:	ffff0f17          	auipc	t5,0xffff0
   10024:	fe0f0f13          	addi	t5,t5,-32 # 0 <_start-0x10000>
   10028:	000f0463          	beqz	t5,10030 <trap_vector+0x2c>
   1002c:	000f0067          	jr	t5
   10030:	34202f73          	csrr	t5,mcause
   10034:	000f5463          	bgez	t5,1003c <handle_exception>
   10038:	0040006f          	j	1003c <handle_exception>

0001003c <handle_exception>:
   1003c:	5391e193          	ori	gp,gp,1337

00010040 <write_tohost>:
   10040:	00001f17          	auipc	t5,0x1
   10044:	fc3f2023          	sw	gp,-64(t5) # 11000 <tohost>
   10048:	ff9ff06f          	j	10040 <write_tohost>

0001004c <reset_vector>:
   1004c:	f1402573          	csrr	a0,mhartid
   10050:	00051063          	bnez	a0,10050 <reset_vector+0x4>
   10054:	00000297          	auipc	t0,0x0
   10058:	01028293          	addi	t0,t0,16 # 10064 <reset_vector+0x18>
   1005c:	30529073          	csrw	mtvec,t0
   10060:	18005073          	csrwi	satp,0
   10064:	00000297          	auipc	t0,0x0
   10068:	01c28293          	addi	t0,t0,28 # 10080 <reset_vector+0x34>
   1006c:	30529073          	csrw	mtvec,t0
   10070:	fff00293          	li	t0,-1
   10074:	3b029073          	csrw	pmpaddr0,t0
   10078:	01f00293          	li	t0,31
   1007c:	3a029073          	csrw	pmpcfg0,t0
   10080:	00000297          	auipc	t0,0x0
   10084:	01828293          	addi	t0,t0,24 # 10098 <reset_vector+0x4c>
   10088:	30529073          	csrw	mtvec,t0
   1008c:	30205073          	csrwi	medeleg,0
   10090:	30305073          	csrwi	mideleg,0
   10094:	30405073          	csrwi	mie,0
   10098:	00000193          	li	gp,0
   1009c:	00000297          	auipc	t0,0x0
   100a0:	f6828293          	addi	t0,t0,-152 # 10004 <trap_vector>
   100a4:	30529073          	csrw	mtvec,t0
   100a8:	00100513          	li	a0,1
   100ac:	01f51513          	slli	a0,a0,0x1f
   100b0:	00054863          	bltz	a0,100c0 <reset_vector+0x74>
   100b4:	0000100f          	fence.i
   100b8:	00100193          	li	gp,1
   100bc:	00000073          	ecall
   100c0:	ffff0297          	auipc	t0,0xffff0
   100c4:	f4028293          	addi	t0,t0,-192 # 0 <_start-0x10000>
   100c8:	00028e63          	beqz	t0,100e4 <reset_vector+0x98>
   100cc:	10529073          	csrw	stvec,t0
   100d0:	0000b2b7          	lui	t0,0xb
   100d4:	10928293          	addi	t0,t0,265 # b109 <_start-0x4ef7>
   100d8:	30229073          	csrw	medeleg,t0
   100dc:	30202373          	csrr	t1,medeleg
   100e0:	f4629ee3          	bne	t0,t1,1003c <handle_exception>
   100e4:	30005073          	csrwi	mstatus,0
   100e8:	00002537          	lui	a0,0x2
   100ec:	80050513          	addi	a0,a0,-2048 # 1800 <_start-0xe800>
   100f0:	30052073          	csrs	mstatus,a0
   100f4:	00000297          	auipc	t0,0x0
   100f8:	01428293          	addi	t0,t0,20 # 10108 <reset_vector+0xbc>
   100fc:	34129073          	csrw	mepc,t0
   10100:	f1402573          	csrr	a0,mhartid
   10104:	30200073          	mret
   10108:	00000293          	li	t0,0
   1010c:	08500e63          	beq	zero,t0,101a8 <reset_vector+0x15c>
   10110:	00003517          	auipc	a0,0x3
   10114:	f4050513          	addi	a0,a0,-192 # 13050 <end_signature>
   10118:	6e9010ef          	jal	ra,12000 <FN_WriteStr>
   1011c:	00003517          	auipc	a0,0x3
   10120:	f4f50513          	addi	a0,a0,-177 # 1306b <end_signature+0x1b>
   10124:	6dd010ef          	jal	ra,12000 <FN_WriteStr>
   10128:	00003517          	auipc	a0,0x3
   1012c:	f5250513          	addi	a0,a0,-174 # 1307a <end_signature+0x2a>
   10130:	6d1010ef          	jal	ra,12000 <FN_WriteStr>
   10134:	00003517          	auipc	a0,0x3
   10138:	f4e50513          	addi	a0,a0,-178 # 13082 <end_signature+0x32>
   1013c:	6c5010ef          	jal	ra,12000 <FN_WriteStr>
   10140:	00003517          	auipc	a0,0x3
   10144:	f4550513          	addi	a0,a0,-187 # 13085 <end_signature+0x35>
   10148:	6b9010ef          	jal	ra,12000 <FN_WriteStr>
   1014c:	00003517          	auipc	a0,0x3
   10150:	f3c50513          	addi	a0,a0,-196 # 13088 <end_signature+0x38>
   10154:	6ad010ef          	jal	ra,12000 <FN_WriteStr>
   10158:	00003517          	auipc	a0,0x3
   1015c:	f3350513          	addi	a0,a0,-205 # 1308b <end_signature+0x3b>
   10160:	6a1010ef          	jal	ra,12000 <FN_WriteStr>
   10164:	00000513          	li	a0,0
   10168:	6b5010ef          	jal	ra,1201c <FN_WriteA0>
   1016c:	00003517          	auipc	a0,0x3
   10170:	f2150513          	addi	a0,a0,-223 # 1308d <end_signature+0x3d>
   10174:	68d010ef          	jal	ra,12000 <FN_WriteStr>
   10178:	00003517          	auipc	a0,0x3
   1017c:	f1b50513          	addi	a0,a0,-229 # 13093 <end_signature+0x43>
   10180:	681010ef          	jal	ra,12000 <FN_WriteStr>
   10184:	00003517          	auipc	a0,0x3
   10188:	f1a50513          	addi	a0,a0,-230 # 1309e <end_signature+0x4e>
   1018c:	675010ef          	jal	ra,12000 <FN_WriteStr>
   10190:	06400193          	li	gp,100
   10194:	0000100f          	fence.i
   10198:	00018063          	beqz	gp,10198 <reset_vector+0x14c>
   1019c:	00119193          	slli	gp,gp,0x1
   101a0:	0011e193          	ori	gp,gp,1
   101a4:	00000073          	ecall
   101a8:	00003517          	auipc	a0,0x3
   101ac:	ef850513          	addi	a0,a0,-264 # 130a0 <end_signature+0x50>
   101b0:	651010ef          	jal	ra,12000 <FN_WriteStr>
   101b4:	00003517          	auipc	a0,0x3
   101b8:	f1e50513          	addi	a0,a0,-226 # 130d2 <end_signature+0x82>
   101bc:	645010ef          	jal	ra,12000 <FN_WriteStr>
   101c0:	00003797          	auipc	a5,0x3
   101c4:	e5078793          	addi	a5,a5,-432 # 13010 <begin_signature>
   101c8:	000000b7          	lui	ra,0x0
   101cc:	000011b7          	lui	gp,0x1
   101d0:	fffff2b7          	lui	t0,0xfffff
   101d4:	7ffffeb7          	lui	t4,0x7ffff
   101d8:	80000fb7          	lui	t6,0x80000
   101dc:	0017a023          	sw	ra,0(a5)
   101e0:	0037a223          	sw	gp,4(a5)
   101e4:	0057a423          	sw	t0,8(a5)
   101e8:	01d7a623          	sw	t4,12(a5)
   101ec:	01f7a823          	sw	t6,16(a5)
   101f0:	fff00013          	li	zero,-1
   101f4:	00000293          	li	t0,0
   101f8:	08508e63          	beq	ra,t0,10294 <reset_vector+0x248>
   101fc:	00003517          	auipc	a0,0x3
   10200:	efb50513          	addi	a0,a0,-261 # 130f7 <end_signature+0xa7>
   10204:	5fd010ef          	jal	ra,12000 <FN_WriteStr>
   10208:	00003517          	auipc	a0,0x3
   1020c:	f0a50513          	addi	a0,a0,-246 # 13112 <end_signature+0xc2>
   10210:	5f1010ef          	jal	ra,12000 <FN_WriteStr>
   10214:	00003517          	auipc	a0,0x3
   10218:	f0d50513          	addi	a0,a0,-243 # 13121 <end_signature+0xd1>
   1021c:	5e5010ef          	jal	ra,12000 <FN_WriteStr>
   10220:	00003517          	auipc	a0,0x3
   10224:	f0950513          	addi	a0,a0,-247 # 13129 <end_signature+0xd9>
   10228:	5d9010ef          	jal	ra,12000 <FN_WriteStr>
   1022c:	00003517          	auipc	a0,0x3
   10230:	f0050513          	addi	a0,a0,-256 # 1312c <end_signature+0xdc>
   10234:	5cd010ef          	jal	ra,12000 <FN_WriteStr>
   10238:	00003517          	auipc	a0,0x3
   1023c:	ef750513          	addi	a0,a0,-265 # 1312f <end_signature+0xdf>
   10240:	5c1010ef          	jal	ra,12000 <FN_WriteStr>
   10244:	00003517          	auipc	a0,0x3
   10248:	eee50513          	addi	a0,a0,-274 # 13132 <end_signature+0xe2>
   1024c:	5b5010ef          	jal	ra,12000 <FN_WriteStr>
   10250:	00008513          	mv	a0,ra
   10254:	5c9010ef          	jal	ra,1201c <FN_WriteA0>
   10258:	00003517          	auipc	a0,0x3
   1025c:	edc50513          	addi	a0,a0,-292 # 13134 <end_signature+0xe4>
   10260:	5a1010ef          	jal	ra,12000 <FN_WriteStr>
   10264:	00003517          	auipc	a0,0x3
   10268:	ed650513          	addi	a0,a0,-298 # 1313a <end_signature+0xea>
   1026c:	595010ef          	jal	ra,12000 <FN_WriteStr>
   10270:	00003517          	auipc	a0,0x3
   10274:	ed550513          	addi	a0,a0,-299 # 13145 <end_signature+0xf5>
   10278:	589010ef          	jal	ra,12000 <FN_WriteStr>
   1027c:	06400193          	li	gp,100
   10280:	0000100f          	fence.i
   10284:	00018063          	beqz	gp,10284 <reset_vector+0x238>
   10288:	00119193          	slli	gp,gp,0x1
   1028c:	0011e193          	ori	gp,gp,1
   10290:	00000073          	ecall
   10294:	000012b7          	lui	t0,0x1
   10298:	08518e63          	beq	gp,t0,10334 <reset_vector+0x2e8>
   1029c:	00003517          	auipc	a0,0x3
   102a0:	eab50513          	addi	a0,a0,-341 # 13147 <end_signature+0xf7>
   102a4:	55d010ef          	jal	ra,12000 <FN_WriteStr>
   102a8:	00003517          	auipc	a0,0x3
   102ac:	eba50513          	addi	a0,a0,-326 # 13162 <end_signature+0x112>
   102b0:	551010ef          	jal	ra,12000 <FN_WriteStr>
   102b4:	00003517          	auipc	a0,0x3
   102b8:	ebd50513          	addi	a0,a0,-323 # 13171 <end_signature+0x121>
   102bc:	545010ef          	jal	ra,12000 <FN_WriteStr>
   102c0:	00003517          	auipc	a0,0x3
   102c4:	eb950513          	addi	a0,a0,-327 # 13179 <end_signature+0x129>
   102c8:	539010ef          	jal	ra,12000 <FN_WriteStr>
   102cc:	00003517          	auipc	a0,0x3
   102d0:	eb050513          	addi	a0,a0,-336 # 1317c <end_signature+0x12c>
   102d4:	52d010ef          	jal	ra,12000 <FN_WriteStr>
   102d8:	00003517          	auipc	a0,0x3
   102dc:	ea750513          	addi	a0,a0,-345 # 1317f <end_signature+0x12f>
   102e0:	521010ef          	jal	ra,12000 <FN_WriteStr>
   102e4:	00003517          	auipc	a0,0x3
   102e8:	e9e50513          	addi	a0,a0,-354 # 13182 <end_signature+0x132>
   102ec:	515010ef          	jal	ra,12000 <FN_WriteStr>
   102f0:	00018513          	mv	a0,gp
   102f4:	529010ef          	jal	ra,1201c <FN_WriteA0>
   102f8:	00003517          	auipc	a0,0x3
   102fc:	e8c50513          	addi	a0,a0,-372 # 13184 <end_signature+0x134>
   10300:	501010ef          	jal	ra,12000 <FN_WriteStr>
   10304:	00003517          	auipc	a0,0x3
   10308:	e8650513          	addi	a0,a0,-378 # 1318a <end_signature+0x13a>
   1030c:	4f5010ef          	jal	ra,12000 <FN_WriteStr>
   10310:	00003517          	auipc	a0,0x3
   10314:	e8550513          	addi	a0,a0,-379 # 13195 <end_signature+0x145>
   10318:	4e9010ef          	jal	ra,12000 <FN_WriteStr>
   1031c:	06400193          	li	gp,100
   10320:	0000100f          	fence.i
   10324:	00018063          	beqz	gp,10324 <reset_vector+0x2d8>
   10328:	00119193          	slli	gp,gp,0x1
   1032c:	0011e193          	ori	gp,gp,1
   10330:	00000073          	ecall
   10334:	00000293          	li	t0,0
   10338:	08528e63          	beq	t0,t0,103d4 <reset_vector+0x388>
   1033c:	00003517          	auipc	a0,0x3
   10340:	e5b50513          	addi	a0,a0,-421 # 13197 <end_signature+0x147>
   10344:	4bd010ef          	jal	ra,12000 <FN_WriteStr>
   10348:	00003517          	auipc	a0,0x3
   1034c:	e6a50513          	addi	a0,a0,-406 # 131b2 <end_signature+0x162>
   10350:	4b1010ef          	jal	ra,12000 <FN_WriteStr>
   10354:	00003517          	auipc	a0,0x3
   10358:	e6d50513          	addi	a0,a0,-403 # 131c1 <end_signature+0x171>
   1035c:	4a5010ef          	jal	ra,12000 <FN_WriteStr>
   10360:	00003517          	auipc	a0,0x3
   10364:	e6950513          	addi	a0,a0,-407 # 131c9 <end_signature+0x179>
   10368:	499010ef          	jal	ra,12000 <FN_WriteStr>
   1036c:	00003517          	auipc	a0,0x3
   10370:	e6050513          	addi	a0,a0,-416 # 131cc <end_signature+0x17c>
   10374:	48d010ef          	jal	ra,12000 <FN_WriteStr>
   10378:	00003517          	auipc	a0,0x3
   1037c:	e5750513          	addi	a0,a0,-425 # 131cf <end_signature+0x17f>
   10380:	481010ef          	jal	ra,12000 <FN_WriteStr>
   10384:	00003517          	auipc	a0,0x3
   10388:	e4e50513          	addi	a0,a0,-434 # 131d2 <end_signature+0x182>
   1038c:	475010ef          	jal	ra,12000 <FN_WriteStr>
   10390:	00028513          	mv	a0,t0
   10394:	489010ef          	jal	ra,1201c <FN_WriteA0>
   10398:	00003517          	auipc	a0,0x3
   1039c:	e3c50513          	addi	a0,a0,-452 # 131d4 <end_signature+0x184>
   103a0:	461010ef          	jal	ra,12000 <FN_WriteStr>
   103a4:	00003517          	auipc	a0,0x3
   103a8:	e3650513          	addi	a0,a0,-458 # 131da <end_signature+0x18a>
   103ac:	455010ef          	jal	ra,12000 <FN_WriteStr>
   103b0:	00003517          	auipc	a0,0x3
   103b4:	e3550513          	addi	a0,a0,-459 # 131e5 <end_signature+0x195>
   103b8:	449010ef          	jal	ra,12000 <FN_WriteStr>
   103bc:	06400193          	li	gp,100
   103c0:	0000100f          	fence.i
   103c4:	00018063          	beqz	gp,103c4 <reset_vector+0x378>
   103c8:	00119193          	slli	gp,gp,0x1
   103cc:	0011e193          	ori	gp,gp,1
   103d0:	00000073          	ecall
   103d4:	7ffff2b7          	lui	t0,0x7ffff
   103d8:	085e8e63          	beq	t4,t0,10474 <reset_vector+0x428>
   103dc:	00003517          	auipc	a0,0x3
   103e0:	e0b50513          	addi	a0,a0,-501 # 131e7 <end_signature+0x197>
   103e4:	41d010ef          	jal	ra,12000 <FN_WriteStr>
   103e8:	00003517          	auipc	a0,0x3
   103ec:	e1a50513          	addi	a0,a0,-486 # 13202 <end_signature+0x1b2>
   103f0:	411010ef          	jal	ra,12000 <FN_WriteStr>
   103f4:	00003517          	auipc	a0,0x3
   103f8:	e1d50513          	addi	a0,a0,-483 # 13211 <end_signature+0x1c1>
   103fc:	405010ef          	jal	ra,12000 <FN_WriteStr>
   10400:	00003517          	auipc	a0,0x3
   10404:	e1950513          	addi	a0,a0,-487 # 13219 <end_signature+0x1c9>
   10408:	3f9010ef          	jal	ra,12000 <FN_WriteStr>
   1040c:	00003517          	auipc	a0,0x3
   10410:	e1050513          	addi	a0,a0,-496 # 1321c <end_signature+0x1cc>
   10414:	3ed010ef          	jal	ra,12000 <FN_WriteStr>
   10418:	00003517          	auipc	a0,0x3
   1041c:	e0750513          	addi	a0,a0,-505 # 1321f <end_signature+0x1cf>
   10420:	3e1010ef          	jal	ra,12000 <FN_WriteStr>
   10424:	00003517          	auipc	a0,0x3
   10428:	dff50513          	addi	a0,a0,-513 # 13223 <end_signature+0x1d3>
   1042c:	3d5010ef          	jal	ra,12000 <FN_WriteStr>
   10430:	000e8513          	mv	a0,t4
   10434:	3e9010ef          	jal	ra,1201c <FN_WriteA0>
   10438:	00003517          	auipc	a0,0x3
   1043c:	ded50513          	addi	a0,a0,-531 # 13225 <end_signature+0x1d5>
   10440:	3c1010ef          	jal	ra,12000 <FN_WriteStr>
   10444:	00003517          	auipc	a0,0x3
   10448:	de750513          	addi	a0,a0,-537 # 1322b <end_signature+0x1db>
   1044c:	3b5010ef          	jal	ra,12000 <FN_WriteStr>
   10450:	00003517          	auipc	a0,0x3
   10454:	de650513          	addi	a0,a0,-538 # 13236 <end_signature+0x1e6>
   10458:	3a9010ef          	jal	ra,12000 <FN_WriteStr>
   1045c:	06400193          	li	gp,100
   10460:	0000100f          	fence.i
   10464:	00018063          	beqz	gp,10464 <reset_vector+0x418>
   10468:	00119193          	slli	gp,gp,0x1
   1046c:	0011e193          	ori	gp,gp,1
   10470:	00000073          	ecall
   10474:	800002b7          	lui	t0,0x80000
   10478:	085f8e63          	beq	t6,t0,10514 <reset_vector+0x4c8>
   1047c:	00003517          	auipc	a0,0x3
   10480:	dbc50513          	addi	a0,a0,-580 # 13238 <end_signature+0x1e8>
   10484:	37d010ef          	jal	ra,12000 <FN_WriteStr>
   10488:	00003517          	auipc	a0,0x3
   1048c:	dcb50513          	addi	a0,a0,-565 # 13253 <end_signature+0x203>
   10490:	371010ef          	jal	ra,12000 <FN_WriteStr>
   10494:	00003517          	auipc	a0,0x3
   10498:	dce50513          	addi	a0,a0,-562 # 13262 <end_signature+0x212>
   1049c:	365010ef          	jal	ra,12000 <FN_WriteStr>
   104a0:	00003517          	auipc	a0,0x3
   104a4:	dca50513          	addi	a0,a0,-566 # 1326a <end_signature+0x21a>
   104a8:	359010ef          	jal	ra,12000 <FN_WriteStr>
   104ac:	00003517          	auipc	a0,0x3
   104b0:	dc150513          	addi	a0,a0,-575 # 1326d <end_signature+0x21d>
   104b4:	34d010ef          	jal	ra,12000 <FN_WriteStr>
   104b8:	00003517          	auipc	a0,0x3
   104bc:	db850513          	addi	a0,a0,-584 # 13270 <end_signature+0x220>
   104c0:	341010ef          	jal	ra,12000 <FN_WriteStr>
   104c4:	00003517          	auipc	a0,0x3
   104c8:	db050513          	addi	a0,a0,-592 # 13274 <end_signature+0x224>
   104cc:	335010ef          	jal	ra,12000 <FN_WriteStr>
   104d0:	000f8513          	mv	a0,t6
   104d4:	349010ef          	jal	ra,1201c <FN_WriteA0>
   104d8:	00003517          	auipc	a0,0x3
   104dc:	d9e50513          	addi	a0,a0,-610 # 13276 <end_signature+0x226>
   104e0:	321010ef          	jal	ra,12000 <FN_WriteStr>
   104e4:	00003517          	auipc	a0,0x3
   104e8:	d9850513          	addi	a0,a0,-616 # 1327c <end_signature+0x22c>
   104ec:	315010ef          	jal	ra,12000 <FN_WriteStr>
   104f0:	00003517          	auipc	a0,0x3
   104f4:	d9750513          	addi	a0,a0,-617 # 13287 <end_signature+0x237>
   104f8:	309010ef          	jal	ra,12000 <FN_WriteStr>
   104fc:	06400193          	li	gp,100
   10500:	0000100f          	fence.i
   10504:	00018063          	beqz	gp,10504 <reset_vector+0x4b8>
   10508:	00119193          	slli	gp,gp,0x1
   1050c:	0011e193          	ori	gp,gp,1
   10510:	00000073          	ecall
   10514:	00003517          	auipc	a0,0x3
   10518:	d7550513          	addi	a0,a0,-651 # 13289 <end_signature+0x239>
   1051c:	2e5010ef          	jal	ra,12000 <FN_WriteStr>
   10520:	00003517          	auipc	a0,0x3
   10524:	d8550513          	addi	a0,a0,-635 # 132a5 <end_signature+0x255>
   10528:	2d9010ef          	jal	ra,12000 <FN_WriteStr>
   1052c:	00003797          	auipc	a5,0x3
   10530:	ad478793          	addi	a5,a5,-1324 # 13000 <test_B_data>
   10534:	00003817          	auipc	a6,0x3
   10538:	af080813          	addi	a6,a6,-1296 # 13024 <test_B_res>
   1053c:	0007a103          	lw	sp,0(a5)
   10540:	0007a203          	lw	tp,0(a5)
   10544:	0007a303          	lw	t1,0(a5)
   10548:	0007ae03          	lw	t3,0(a5)
   1054c:	0007af03          	lw	t5,0(a5)
   10550:	80000137          	lui	sp,0x80000
   10554:	7ffff237          	lui	tp,0x7ffff
   10558:	00000337          	lui	t1,0x0
   1055c:	00001e37          	lui	t3,0x1
   10560:	ffffff37          	lui	t5,0xfffff
   10564:	00282023          	sw	sp,0(a6)
   10568:	00482223          	sw	tp,4(a6)
   1056c:	00682423          	sw	t1,8(a6)
   10570:	01c82623          	sw	t3,12(a6)
   10574:	01e82823          	sw	t5,16(a6)
   10578:	800002b7          	lui	t0,0x80000
   1057c:	08510e63          	beq	sp,t0,10618 <reset_vector+0x5cc>
   10580:	00003517          	auipc	a0,0x3
   10584:	d5350513          	addi	a0,a0,-685 # 132d3 <end_signature+0x283>
   10588:	279010ef          	jal	ra,12000 <FN_WriteStr>
   1058c:	00003517          	auipc	a0,0x3
   10590:	d6250513          	addi	a0,a0,-670 # 132ee <end_signature+0x29e>
   10594:	26d010ef          	jal	ra,12000 <FN_WriteStr>
   10598:	00003517          	auipc	a0,0x3
   1059c:	d6550513          	addi	a0,a0,-667 # 132fd <end_signature+0x2ad>
   105a0:	261010ef          	jal	ra,12000 <FN_WriteStr>
   105a4:	00003517          	auipc	a0,0x3
   105a8:	d6150513          	addi	a0,a0,-671 # 13305 <end_signature+0x2b5>
   105ac:	255010ef          	jal	ra,12000 <FN_WriteStr>
   105b0:	00003517          	auipc	a0,0x3
   105b4:	d5950513          	addi	a0,a0,-679 # 13309 <end_signature+0x2b9>
   105b8:	249010ef          	jal	ra,12000 <FN_WriteStr>
   105bc:	00003517          	auipc	a0,0x3
   105c0:	d5050513          	addi	a0,a0,-688 # 1330c <end_signature+0x2bc>
   105c4:	23d010ef          	jal	ra,12000 <FN_WriteStr>
   105c8:	00003517          	auipc	a0,0x3
   105cc:	d4750513          	addi	a0,a0,-697 # 1330f <end_signature+0x2bf>
   105d0:	231010ef          	jal	ra,12000 <FN_WriteStr>
   105d4:	00010513          	mv	a0,sp
   105d8:	245010ef          	jal	ra,1201c <FN_WriteA0>
   105dc:	00003517          	auipc	a0,0x3
   105e0:	d3550513          	addi	a0,a0,-715 # 13311 <end_signature+0x2c1>
   105e4:	21d010ef          	jal	ra,12000 <FN_WriteStr>
   105e8:	00003517          	auipc	a0,0x3
   105ec:	d2f50513          	addi	a0,a0,-721 # 13317 <end_signature+0x2c7>
   105f0:	211010ef          	jal	ra,12000 <FN_WriteStr>
   105f4:	00003517          	auipc	a0,0x3
   105f8:	d2e50513          	addi	a0,a0,-722 # 13322 <end_signature+0x2d2>
   105fc:	205010ef          	jal	ra,12000 <FN_WriteStr>
   10600:	06400193          	li	gp,100
   10604:	0000100f          	fence.i
   10608:	00018063          	beqz	gp,10608 <reset_vector+0x5bc>
   1060c:	00119193          	slli	gp,gp,0x1
   10610:	0011e193          	ori	gp,gp,1
   10614:	00000073          	ecall
   10618:	7ffff2b7          	lui	t0,0x7ffff
   1061c:	08520e63          	beq	tp,t0,106b8 <reset_vector+0x66c>
   10620:	00003517          	auipc	a0,0x3
   10624:	d0450513          	addi	a0,a0,-764 # 13324 <end_signature+0x2d4>
   10628:	1d9010ef          	jal	ra,12000 <FN_WriteStr>
   1062c:	00003517          	auipc	a0,0x3
   10630:	d1350513          	addi	a0,a0,-749 # 1333f <end_signature+0x2ef>
   10634:	1cd010ef          	jal	ra,12000 <FN_WriteStr>
   10638:	00003517          	auipc	a0,0x3
   1063c:	d1650513          	addi	a0,a0,-746 # 1334e <end_signature+0x2fe>
   10640:	1c1010ef          	jal	ra,12000 <FN_WriteStr>
   10644:	00003517          	auipc	a0,0x3
   10648:	d1250513          	addi	a0,a0,-750 # 13356 <end_signature+0x306>
   1064c:	1b5010ef          	jal	ra,12000 <FN_WriteStr>
   10650:	00003517          	auipc	a0,0x3
   10654:	d0a50513          	addi	a0,a0,-758 # 1335a <end_signature+0x30a>
   10658:	1a9010ef          	jal	ra,12000 <FN_WriteStr>
   1065c:	00003517          	auipc	a0,0x3
   10660:	d0150513          	addi	a0,a0,-767 # 1335d <end_signature+0x30d>
   10664:	19d010ef          	jal	ra,12000 <FN_WriteStr>
   10668:	00003517          	auipc	a0,0x3
   1066c:	cf850513          	addi	a0,a0,-776 # 13360 <end_signature+0x310>
   10670:	191010ef          	jal	ra,12000 <FN_WriteStr>
   10674:	00020513          	mv	a0,tp
   10678:	1a5010ef          	jal	ra,1201c <FN_WriteA0>
   1067c:	00003517          	auipc	a0,0x3
   10680:	ce650513          	addi	a0,a0,-794 # 13362 <end_signature+0x312>
   10684:	17d010ef          	jal	ra,12000 <FN_WriteStr>
   10688:	00003517          	auipc	a0,0x3
   1068c:	ce050513          	addi	a0,a0,-800 # 13368 <end_signature+0x318>
   10690:	171010ef          	jal	ra,12000 <FN_WriteStr>
   10694:	00003517          	auipc	a0,0x3
   10698:	cdf50513          	addi	a0,a0,-801 # 13373 <end_signature+0x323>
   1069c:	165010ef          	jal	ra,12000 <FN_WriteStr>
   106a0:	06400193          	li	gp,100
   106a4:	0000100f          	fence.i
   106a8:	00018063          	beqz	gp,106a8 <reset_vector+0x65c>
   106ac:	00119193          	slli	gp,gp,0x1
   106b0:	0011e193          	ori	gp,gp,1
   106b4:	00000073          	ecall
   106b8:	00000293          	li	t0,0
   106bc:	08530e63          	beq	t1,t0,10758 <reset_vector+0x70c>
   106c0:	00003517          	auipc	a0,0x3
   106c4:	cb550513          	addi	a0,a0,-843 # 13375 <end_signature+0x325>
   106c8:	139010ef          	jal	ra,12000 <FN_WriteStr>
   106cc:	00003517          	auipc	a0,0x3
   106d0:	cc450513          	addi	a0,a0,-828 # 13390 <end_signature+0x340>
   106d4:	12d010ef          	jal	ra,12000 <FN_WriteStr>
   106d8:	00003517          	auipc	a0,0x3
   106dc:	cc750513          	addi	a0,a0,-825 # 1339f <end_signature+0x34f>
   106e0:	121010ef          	jal	ra,12000 <FN_WriteStr>
   106e4:	00003517          	auipc	a0,0x3
   106e8:	cc350513          	addi	a0,a0,-829 # 133a7 <end_signature+0x357>
   106ec:	115010ef          	jal	ra,12000 <FN_WriteStr>
   106f0:	00003517          	auipc	a0,0x3
   106f4:	cbb50513          	addi	a0,a0,-837 # 133ab <end_signature+0x35b>
   106f8:	109010ef          	jal	ra,12000 <FN_WriteStr>
   106fc:	00003517          	auipc	a0,0x3
   10700:	cb250513          	addi	a0,a0,-846 # 133ae <end_signature+0x35e>
   10704:	0fd010ef          	jal	ra,12000 <FN_WriteStr>
   10708:	00003517          	auipc	a0,0x3
   1070c:	ca950513          	addi	a0,a0,-855 # 133b1 <end_signature+0x361>
   10710:	0f1010ef          	jal	ra,12000 <FN_WriteStr>
   10714:	00030513          	mv	a0,t1
   10718:	105010ef          	jal	ra,1201c <FN_WriteA0>
   1071c:	00003517          	auipc	a0,0x3
   10720:	c9750513          	addi	a0,a0,-873 # 133b3 <end_signature+0x363>
   10724:	0dd010ef          	jal	ra,12000 <FN_WriteStr>
   10728:	00003517          	auipc	a0,0x3
   1072c:	c9150513          	addi	a0,a0,-879 # 133b9 <end_signature+0x369>
   10730:	0d1010ef          	jal	ra,12000 <FN_WriteStr>
   10734:	00003517          	auipc	a0,0x3
   10738:	c9050513          	addi	a0,a0,-880 # 133c4 <end_signature+0x374>
   1073c:	0c5010ef          	jal	ra,12000 <FN_WriteStr>
   10740:	06400193          	li	gp,100
   10744:	0000100f          	fence.i
   10748:	00018063          	beqz	gp,10748 <reset_vector+0x6fc>
   1074c:	00119193          	slli	gp,gp,0x1
   10750:	0011e193          	ori	gp,gp,1
   10754:	00000073          	ecall
   10758:	000012b7          	lui	t0,0x1
   1075c:	085e0e63          	beq	t3,t0,107f8 <reset_vector+0x7ac>
   10760:	00003517          	auipc	a0,0x3
   10764:	c6650513          	addi	a0,a0,-922 # 133c6 <end_signature+0x376>
   10768:	099010ef          	jal	ra,12000 <FN_WriteStr>
   1076c:	00003517          	auipc	a0,0x3
   10770:	c7550513          	addi	a0,a0,-907 # 133e1 <end_signature+0x391>
   10774:	08d010ef          	jal	ra,12000 <FN_WriteStr>
   10778:	00003517          	auipc	a0,0x3
   1077c:	c7850513          	addi	a0,a0,-904 # 133f0 <end_signature+0x3a0>
   10780:	081010ef          	jal	ra,12000 <FN_WriteStr>
   10784:	00003517          	auipc	a0,0x3
   10788:	c7450513          	addi	a0,a0,-908 # 133f8 <end_signature+0x3a8>
   1078c:	075010ef          	jal	ra,12000 <FN_WriteStr>
   10790:	00003517          	auipc	a0,0x3
   10794:	c6c50513          	addi	a0,a0,-916 # 133fc <end_signature+0x3ac>
   10798:	069010ef          	jal	ra,12000 <FN_WriteStr>
   1079c:	00003517          	auipc	a0,0x3
   107a0:	c6350513          	addi	a0,a0,-925 # 133ff <end_signature+0x3af>
   107a4:	05d010ef          	jal	ra,12000 <FN_WriteStr>
   107a8:	00003517          	auipc	a0,0x3
   107ac:	c5b50513          	addi	a0,a0,-933 # 13403 <end_signature+0x3b3>
   107b0:	051010ef          	jal	ra,12000 <FN_WriteStr>
   107b4:	000e0513          	mv	a0,t3
   107b8:	065010ef          	jal	ra,1201c <FN_WriteA0>
   107bc:	00003517          	auipc	a0,0x3
   107c0:	c4950513          	addi	a0,a0,-951 # 13405 <end_signature+0x3b5>
   107c4:	03d010ef          	jal	ra,12000 <FN_WriteStr>
   107c8:	00003517          	auipc	a0,0x3
   107cc:	c4350513          	addi	a0,a0,-957 # 1340b <end_signature+0x3bb>
   107d0:	031010ef          	jal	ra,12000 <FN_WriteStr>
   107d4:	00003517          	auipc	a0,0x3
   107d8:	c4250513          	addi	a0,a0,-958 # 13416 <end_signature+0x3c6>
   107dc:	025010ef          	jal	ra,12000 <FN_WriteStr>
   107e0:	06400193          	li	gp,100
   107e4:	0000100f          	fence.i
   107e8:	00018063          	beqz	gp,107e8 <reset_vector+0x79c>
   107ec:	00119193          	slli	gp,gp,0x1
   107f0:	0011e193          	ori	gp,gp,1
   107f4:	00000073          	ecall
   107f8:	fffff2b7          	lui	t0,0xfffff
   107fc:	085f0e63          	beq	t5,t0,10898 <reset_vector+0x84c>
   10800:	00003517          	auipc	a0,0x3
   10804:	c1850513          	addi	a0,a0,-1000 # 13418 <end_signature+0x3c8>
   10808:	7f8010ef          	jal	ra,12000 <FN_WriteStr>
   1080c:	00003517          	auipc	a0,0x3
   10810:	c2750513          	addi	a0,a0,-985 # 13433 <end_signature+0x3e3>
   10814:	7ec010ef          	jal	ra,12000 <FN_WriteStr>
   10818:	00003517          	auipc	a0,0x3
   1081c:	c2a50513          	addi	a0,a0,-982 # 13442 <end_signature+0x3f2>
   10820:	7e0010ef          	jal	ra,12000 <FN_WriteStr>
   10824:	00003517          	auipc	a0,0x3
   10828:	c2650513          	addi	a0,a0,-986 # 1344a <end_signature+0x3fa>
   1082c:	7d4010ef          	jal	ra,12000 <FN_WriteStr>
   10830:	00003517          	auipc	a0,0x3
   10834:	c1e50513          	addi	a0,a0,-994 # 1344e <end_signature+0x3fe>
   10838:	7c8010ef          	jal	ra,12000 <FN_WriteStr>
   1083c:	00003517          	auipc	a0,0x3
   10840:	c1550513          	addi	a0,a0,-1003 # 13451 <end_signature+0x401>
   10844:	7bc010ef          	jal	ra,12000 <FN_WriteStr>
   10848:	00003517          	auipc	a0,0x3
   1084c:	c0d50513          	addi	a0,a0,-1011 # 13455 <end_signature+0x405>
   10850:	7b0010ef          	jal	ra,12000 <FN_WriteStr>
   10854:	000f0513          	mv	a0,t5
   10858:	7c4010ef          	jal	ra,1201c <FN_WriteA0>
   1085c:	00003517          	auipc	a0,0x3
   10860:	bfb50513          	addi	a0,a0,-1029 # 13457 <end_signature+0x407>
   10864:	79c010ef          	jal	ra,12000 <FN_WriteStr>
   10868:	00003517          	auipc	a0,0x3
   1086c:	bf550513          	addi	a0,a0,-1035 # 1345d <end_signature+0x40d>
   10870:	790010ef          	jal	ra,12000 <FN_WriteStr>
   10874:	00003517          	auipc	a0,0x3
   10878:	bf450513          	addi	a0,a0,-1036 # 13468 <end_signature+0x418>
   1087c:	784010ef          	jal	ra,12000 <FN_WriteStr>
   10880:	06400193          	li	gp,100
   10884:	0000100f          	fence.i
   10888:	00018063          	beqz	gp,10888 <reset_vector+0x83c>
   1088c:	00119193          	slli	gp,gp,0x1
   10890:	0011e193          	ori	gp,gp,1
   10894:	00000073          	ecall
   10898:	00003517          	auipc	a0,0x3
   1089c:	bd250513          	addi	a0,a0,-1070 # 1346a <end_signature+0x41a>
   108a0:	760010ef          	jal	ra,12000 <FN_WriteStr>
   108a4:	00003517          	auipc	a0,0x3
   108a8:	be250513          	addi	a0,a0,-1054 # 13486 <end_signature+0x436>
   108ac:	754010ef          	jal	ra,12000 <FN_WriteStr>
   108b0:	00002897          	auipc	a7,0x2
   108b4:	78888893          	addi	a7,a7,1928 # 13038 <test_C_res>
   108b8:	427270b7          	lui	ra,0x42727
   108bc:	e6f08093          	addi	ra,ra,-401 # 42726e6f <_end+0x427137e3>
   108c0:	123457b7          	lui	a5,0x12345
   108c4:	67878793          	addi	a5,a5,1656 # 12345678 <_end+0x12331fec>
   108c8:	9abcef37          	lui	t5,0x9abce
   108cc:	ef0f0f13          	addi	t5,t5,-272 # 9abcdef0 <_end+0x9abba864>
   108d0:	42727137          	lui	sp,0x42727
   108d4:	e6f10113          	addi	sp,sp,-401 # 42726e6f <_end+0x427137e3>
   108d8:	12345837          	lui	a6,0x12345
   108dc:	67880813          	addi	a6,a6,1656 # 12345678 <_end+0x12331fec>
   108e0:	9abcefb7          	lui	t6,0x9abce
   108e4:	ef0f8f93          	addi	t6,t6,-272 # 9abcdef0 <_end+0x9abba864>
   108e8:	0018a023          	sw	ra,0(a7)
   108ec:	00f8a223          	sw	a5,4(a7)
   108f0:	01e8a423          	sw	t5,8(a7)
   108f4:	0028a623          	sw	sp,12(a7)
   108f8:	0108a823          	sw	a6,16(a7)
   108fc:	01f8aa23          	sw	t6,20(a7)
   10900:	123452b7          	lui	t0,0x12345
   10904:	67828293          	addi	t0,t0,1656 # 12345678 <_end+0x12331fec>
   10908:	08578e63          	beq	a5,t0,109a4 <reset_vector+0x958>
   1090c:	00003517          	auipc	a0,0x3
   10910:	bbf50513          	addi	a0,a0,-1089 # 134cb <end_signature+0x47b>
   10914:	6ec010ef          	jal	ra,12000 <FN_WriteStr>
   10918:	00003517          	auipc	a0,0x3
   1091c:	bce50513          	addi	a0,a0,-1074 # 134e6 <end_signature+0x496>
   10920:	6e0010ef          	jal	ra,12000 <FN_WriteStr>
   10924:	00003517          	auipc	a0,0x3
   10928:	bd150513          	addi	a0,a0,-1071 # 134f5 <end_signature+0x4a5>
   1092c:	6d4010ef          	jal	ra,12000 <FN_WriteStr>
   10930:	00003517          	auipc	a0,0x3
   10934:	bcd50513          	addi	a0,a0,-1075 # 134fd <end_signature+0x4ad>
   10938:	6c8010ef          	jal	ra,12000 <FN_WriteStr>
   1093c:	00003517          	auipc	a0,0x3
   10940:	bc550513          	addi	a0,a0,-1083 # 13501 <end_signature+0x4b1>
   10944:	6bc010ef          	jal	ra,12000 <FN_WriteStr>
   10948:	00003517          	auipc	a0,0x3
   1094c:	bbc50513          	addi	a0,a0,-1092 # 13504 <end_signature+0x4b4>
   10950:	6b0010ef          	jal	ra,12000 <FN_WriteStr>
   10954:	00003517          	auipc	a0,0x3
   10958:	bb450513          	addi	a0,a0,-1100 # 13508 <end_signature+0x4b8>
   1095c:	6a4010ef          	jal	ra,12000 <FN_WriteStr>
   10960:	00078513          	mv	a0,a5
   10964:	6b8010ef          	jal	ra,1201c <FN_WriteA0>
   10968:	00003517          	auipc	a0,0x3
   1096c:	ba250513          	addi	a0,a0,-1118 # 1350a <end_signature+0x4ba>
   10970:	690010ef          	jal	ra,12000 <FN_WriteStr>
   10974:	00003517          	auipc	a0,0x3
   10978:	b9c50513          	addi	a0,a0,-1124 # 13510 <end_signature+0x4c0>
   1097c:	684010ef          	jal	ra,12000 <FN_WriteStr>
   10980:	00003517          	auipc	a0,0x3
   10984:	b9b50513          	addi	a0,a0,-1125 # 1351b <end_signature+0x4cb>
   10988:	678010ef          	jal	ra,12000 <FN_WriteStr>
   1098c:	06400193          	li	gp,100
   10990:	0000100f          	fence.i
   10994:	00018063          	beqz	gp,10994 <reset_vector+0x948>
   10998:	00119193          	slli	gp,gp,0x1
   1099c:	0011e193          	ori	gp,gp,1
   109a0:	00000073          	ecall
   109a4:	9abce2b7          	lui	t0,0x9abce
   109a8:	ef028293          	addi	t0,t0,-272 # 9abcdef0 <_end+0x9abba864>
   109ac:	085f0e63          	beq	t5,t0,10a48 <reset_vector+0x9fc>
   109b0:	00003517          	auipc	a0,0x3
   109b4:	b6d50513          	addi	a0,a0,-1171 # 1351d <end_signature+0x4cd>
   109b8:	648010ef          	jal	ra,12000 <FN_WriteStr>
   109bc:	00003517          	auipc	a0,0x3
   109c0:	b7c50513          	addi	a0,a0,-1156 # 13538 <end_signature+0x4e8>
   109c4:	63c010ef          	jal	ra,12000 <FN_WriteStr>
   109c8:	00003517          	auipc	a0,0x3
   109cc:	b7f50513          	addi	a0,a0,-1153 # 13547 <end_signature+0x4f7>
   109d0:	630010ef          	jal	ra,12000 <FN_WriteStr>
   109d4:	00003517          	auipc	a0,0x3
   109d8:	b7b50513          	addi	a0,a0,-1157 # 1354f <end_signature+0x4ff>
   109dc:	624010ef          	jal	ra,12000 <FN_WriteStr>
   109e0:	00003517          	auipc	a0,0x3
   109e4:	b7350513          	addi	a0,a0,-1165 # 13553 <end_signature+0x503>
   109e8:	618010ef          	jal	ra,12000 <FN_WriteStr>
   109ec:	00003517          	auipc	a0,0x3
   109f0:	b6a50513          	addi	a0,a0,-1174 # 13556 <end_signature+0x506>
   109f4:	60c010ef          	jal	ra,12000 <FN_WriteStr>
   109f8:	00003517          	auipc	a0,0x3
   109fc:	b6250513          	addi	a0,a0,-1182 # 1355a <end_signature+0x50a>
   10a00:	600010ef          	jal	ra,12000 <FN_WriteStr>
   10a04:	000f0513          	mv	a0,t5
   10a08:	614010ef          	jal	ra,1201c <FN_WriteA0>
   10a0c:	00003517          	auipc	a0,0x3
   10a10:	b5050513          	addi	a0,a0,-1200 # 1355c <end_signature+0x50c>
   10a14:	5ec010ef          	jal	ra,12000 <FN_WriteStr>
   10a18:	00003517          	auipc	a0,0x3
   10a1c:	b4a50513          	addi	a0,a0,-1206 # 13562 <end_signature+0x512>
   10a20:	5e0010ef          	jal	ra,12000 <FN_WriteStr>
   10a24:	00003517          	auipc	a0,0x3
   10a28:	b4950513          	addi	a0,a0,-1207 # 1356d <end_signature+0x51d>
   10a2c:	5d4010ef          	jal	ra,12000 <FN_WriteStr>
   10a30:	06400193          	li	gp,100
   10a34:	0000100f          	fence.i
   10a38:	00018063          	beqz	gp,10a38 <reset_vector+0x9ec>
   10a3c:	00119193          	slli	gp,gp,0x1
   10a40:	0011e193          	ori	gp,gp,1
   10a44:	00000073          	ecall
   10a48:	427272b7          	lui	t0,0x42727
   10a4c:	e6f28293          	addi	t0,t0,-401 # 42726e6f <_end+0x427137e3>
   10a50:	08510e63          	beq	sp,t0,10aec <reset_vector+0xaa0>
   10a54:	00003517          	auipc	a0,0x3
   10a58:	b1b50513          	addi	a0,a0,-1253 # 1356f <end_signature+0x51f>
   10a5c:	5a4010ef          	jal	ra,12000 <FN_WriteStr>
   10a60:	00003517          	auipc	a0,0x3
   10a64:	b2a50513          	addi	a0,a0,-1238 # 1358a <end_signature+0x53a>
   10a68:	598010ef          	jal	ra,12000 <FN_WriteStr>
   10a6c:	00003517          	auipc	a0,0x3
   10a70:	b2d50513          	addi	a0,a0,-1235 # 13599 <end_signature+0x549>
   10a74:	58c010ef          	jal	ra,12000 <FN_WriteStr>
   10a78:	00003517          	auipc	a0,0x3
   10a7c:	b2950513          	addi	a0,a0,-1239 # 135a1 <end_signature+0x551>
   10a80:	580010ef          	jal	ra,12000 <FN_WriteStr>
   10a84:	00003517          	auipc	a0,0x3
   10a88:	b2150513          	addi	a0,a0,-1247 # 135a5 <end_signature+0x555>
   10a8c:	574010ef          	jal	ra,12000 <FN_WriteStr>
   10a90:	00003517          	auipc	a0,0x3
   10a94:	b1850513          	addi	a0,a0,-1256 # 135a8 <end_signature+0x558>
   10a98:	568010ef          	jal	ra,12000 <FN_WriteStr>
   10a9c:	00003517          	auipc	a0,0x3
   10aa0:	b0f50513          	addi	a0,a0,-1265 # 135ab <end_signature+0x55b>
   10aa4:	55c010ef          	jal	ra,12000 <FN_WriteStr>
   10aa8:	00010513          	mv	a0,sp
   10aac:	570010ef          	jal	ra,1201c <FN_WriteA0>
   10ab0:	00003517          	auipc	a0,0x3
   10ab4:	afd50513          	addi	a0,a0,-1283 # 135ad <end_signature+0x55d>
   10ab8:	548010ef          	jal	ra,12000 <FN_WriteStr>
   10abc:	00003517          	auipc	a0,0x3
   10ac0:	af750513          	addi	a0,a0,-1289 # 135b3 <end_signature+0x563>
   10ac4:	53c010ef          	jal	ra,12000 <FN_WriteStr>
   10ac8:	00003517          	auipc	a0,0x3
   10acc:	af650513          	addi	a0,a0,-1290 # 135be <end_signature+0x56e>
   10ad0:	530010ef          	jal	ra,12000 <FN_WriteStr>
   10ad4:	06400193          	li	gp,100
   10ad8:	0000100f          	fence.i
   10adc:	00018063          	beqz	gp,10adc <reset_vector+0xa90>
   10ae0:	00119193          	slli	gp,gp,0x1
   10ae4:	0011e193          	ori	gp,gp,1
   10ae8:	00000073          	ecall
   10aec:	123452b7          	lui	t0,0x12345
   10af0:	67828293          	addi	t0,t0,1656 # 12345678 <_end+0x12331fec>
   10af4:	08580e63          	beq	a6,t0,10b90 <reset_vector+0xb44>
   10af8:	00003517          	auipc	a0,0x3
   10afc:	ac850513          	addi	a0,a0,-1336 # 135c0 <end_signature+0x570>
   10b00:	500010ef          	jal	ra,12000 <FN_WriteStr>
   10b04:	00003517          	auipc	a0,0x3
   10b08:	ad750513          	addi	a0,a0,-1321 # 135db <end_signature+0x58b>
   10b0c:	4f4010ef          	jal	ra,12000 <FN_WriteStr>
   10b10:	00003517          	auipc	a0,0x3
   10b14:	ada50513          	addi	a0,a0,-1318 # 135ea <end_signature+0x59a>
   10b18:	4e8010ef          	jal	ra,12000 <FN_WriteStr>
   10b1c:	00003517          	auipc	a0,0x3
   10b20:	ad650513          	addi	a0,a0,-1322 # 135f2 <end_signature+0x5a2>
   10b24:	4dc010ef          	jal	ra,12000 <FN_WriteStr>
   10b28:	00003517          	auipc	a0,0x3
   10b2c:	ace50513          	addi	a0,a0,-1330 # 135f6 <end_signature+0x5a6>
   10b30:	4d0010ef          	jal	ra,12000 <FN_WriteStr>
   10b34:	00003517          	auipc	a0,0x3
   10b38:	ac550513          	addi	a0,a0,-1339 # 135f9 <end_signature+0x5a9>
   10b3c:	4c4010ef          	jal	ra,12000 <FN_WriteStr>
   10b40:	00003517          	auipc	a0,0x3
   10b44:	abd50513          	addi	a0,a0,-1347 # 135fd <end_signature+0x5ad>
   10b48:	4b8010ef          	jal	ra,12000 <FN_WriteStr>
   10b4c:	00080513          	mv	a0,a6
   10b50:	4cc010ef          	jal	ra,1201c <FN_WriteA0>
   10b54:	00003517          	auipc	a0,0x3
   10b58:	aab50513          	addi	a0,a0,-1365 # 135ff <end_signature+0x5af>
   10b5c:	4a4010ef          	jal	ra,12000 <FN_WriteStr>
   10b60:	00003517          	auipc	a0,0x3
   10b64:	aa550513          	addi	a0,a0,-1371 # 13605 <end_signature+0x5b5>
   10b68:	498010ef          	jal	ra,12000 <FN_WriteStr>
   10b6c:	00003517          	auipc	a0,0x3
   10b70:	aa450513          	addi	a0,a0,-1372 # 13610 <end_signature+0x5c0>
   10b74:	48c010ef          	jal	ra,12000 <FN_WriteStr>
   10b78:	06400193          	li	gp,100
   10b7c:	0000100f          	fence.i
   10b80:	00018063          	beqz	gp,10b80 <reset_vector+0xb34>
   10b84:	00119193          	slli	gp,gp,0x1
   10b88:	0011e193          	ori	gp,gp,1
   10b8c:	00000073          	ecall
   10b90:	9abce2b7          	lui	t0,0x9abce
   10b94:	ef028293          	addi	t0,t0,-272 # 9abcdef0 <_end+0x9abba864>
   10b98:	085f8e63          	beq	t6,t0,10c34 <reset_vector+0xbe8>
   10b9c:	00003517          	auipc	a0,0x3
   10ba0:	a7650513          	addi	a0,a0,-1418 # 13612 <end_signature+0x5c2>
   10ba4:	45c010ef          	jal	ra,12000 <FN_WriteStr>
   10ba8:	00003517          	auipc	a0,0x3
   10bac:	a8550513          	addi	a0,a0,-1403 # 1362d <end_signature+0x5dd>
   10bb0:	450010ef          	jal	ra,12000 <FN_WriteStr>
   10bb4:	00003517          	auipc	a0,0x3
   10bb8:	a8850513          	addi	a0,a0,-1400 # 1363c <end_signature+0x5ec>
   10bbc:	444010ef          	jal	ra,12000 <FN_WriteStr>
   10bc0:	00003517          	auipc	a0,0x3
   10bc4:	a8450513          	addi	a0,a0,-1404 # 13644 <end_signature+0x5f4>
   10bc8:	438010ef          	jal	ra,12000 <FN_WriteStr>
   10bcc:	00003517          	auipc	a0,0x3
   10bd0:	a7c50513          	addi	a0,a0,-1412 # 13648 <end_signature+0x5f8>
   10bd4:	42c010ef          	jal	ra,12000 <FN_WriteStr>
   10bd8:	00003517          	auipc	a0,0x3
   10bdc:	a7350513          	addi	a0,a0,-1421 # 1364b <end_signature+0x5fb>
   10be0:	420010ef          	jal	ra,12000 <FN_WriteStr>
   10be4:	00003517          	auipc	a0,0x3
   10be8:	a6b50513          	addi	a0,a0,-1429 # 1364f <end_signature+0x5ff>
   10bec:	414010ef          	jal	ra,12000 <FN_WriteStr>
   10bf0:	000f8513          	mv	a0,t6
   10bf4:	428010ef          	jal	ra,1201c <FN_WriteA0>
   10bf8:	00003517          	auipc	a0,0x3
   10bfc:	a5950513          	addi	a0,a0,-1447 # 13651 <end_signature+0x601>
   10c00:	400010ef          	jal	ra,12000 <FN_WriteStr>
   10c04:	00003517          	auipc	a0,0x3
   10c08:	a5350513          	addi	a0,a0,-1453 # 13657 <end_signature+0x607>
   10c0c:	3f4010ef          	jal	ra,12000 <FN_WriteStr>
   10c10:	00003517          	auipc	a0,0x3
   10c14:	a5250513          	addi	a0,a0,-1454 # 13662 <end_signature+0x612>
   10c18:	3e8010ef          	jal	ra,12000 <FN_WriteStr>
   10c1c:	06400193          	li	gp,100
   10c20:	0000100f          	fence.i
   10c24:	00018063          	beqz	gp,10c24 <reset_vector+0xbd8>
   10c28:	00119193          	slli	gp,gp,0x1
   10c2c:	0011e193          	ori	gp,gp,1
   10c30:	00000073          	ecall
   10c34:	00003517          	auipc	a0,0x3
   10c38:	a3050513          	addi	a0,a0,-1488 # 13664 <end_signature+0x614>
   10c3c:	3c4010ef          	jal	ra,12000 <FN_WriteStr>
   10c40:	00003517          	auipc	a0,0x3
   10c44:	a4050513          	addi	a0,a0,-1472 # 13680 <end_signature+0x630>
   10c48:	3b8010ef          	jal	ra,12000 <FN_WriteStr>
   10c4c:	0000100f          	fence.i
   10c50:	00100193          	li	gp,1
   10c54:	00000073          	ecall
   10c58:	c0001073          	unimp
	...

Disassembly of section .tohost:

00011000 <tohost>:
	...

00011100 <fromhost>:
	...

Disassembly of section .text:

00012000 <FN_WriteStr>:
   12000:	00050293          	mv	t0,a0
   12004:	0002c503          	lbu	a0,0(t0)
   12008:	00128293          	addi	t0,t0,1
   1200c:	00050663          	beqz	a0,12018 <FN_WriteStr+0x18>
   12010:	0005200b          	0x5200b
   12014:	ff1ff06f          	j	12004 <FN_WriteStr+0x4>
   12018:	00008067          	ret

0001201c <FN_WriteA0>:
   1201c:	00050293          	mv	t0,a0
   12020:	fff00513          	li	a0,-1
   12024:	01f55513          	srli	a0,a0,0x1f
   12028:	00155513          	srli	a0,a0,0x1
   1202c:	02051463          	bnez	a0,12054 <FN_WriteA0_64>

00012030 <FN_WriteA0_32>:
   12030:	00800313          	li	t1,8
   12034:	00439393          	slli	t2,t2,0x4
   12038:	00f2f513          	andi	a0,t0,15
   1203c:	0042d293          	srli	t0,t0,0x4
   12040:	00a3e3b3          	or	t2,t2,a0
   12044:	fff30313          	addi	t1,t1,-1
   12048:	fe0316e3          	bnez	t1,12034 <FN_WriteA0_32+0x4>
   1204c:	00800313          	li	t1,8
   12050:	0240006f          	j	12074 <FN_WriteA0_common>

00012054 <FN_WriteA0_64>:
   12054:	01000313          	li	t1,16
   12058:	00439393          	slli	t2,t2,0x4
   1205c:	00f2f513          	andi	a0,t0,15
   12060:	0042d293          	srli	t0,t0,0x4
   12064:	00a3e3b3          	or	t2,t2,a0
   12068:	fff30313          	addi	t1,t1,-1
   1206c:	fe0316e3          	bnez	t1,12058 <FN_WriteA0_64+0x4>
   12070:	01000313          	li	t1,16

00012074 <FN_WriteA0_common>:
   12074:	00a00293          	li	t0,10
   12078:	00f3f513          	andi	a0,t2,15
   1207c:	00554663          	blt	a0,t0,12088 <FN_WriteA0_common+0x14>
   12080:	05750513          	addi	a0,a0,87
   12084:	0080006f          	j	1208c <FN_WriteA0_common+0x18>
   12088:	03050513          	addi	a0,a0,48
   1208c:	0005200b          	0x5200b
   12090:	0043d393          	srli	t2,t2,0x4
   12094:	fff30313          	addi	t1,t1,-1
   12098:	fe0310e3          	bnez	t1,12078 <FN_WriteA0_common+0x4>
   1209c:	00008067          	ret

Disassembly of section .data:

00013000 <test_B_data>:
   13000:	1111                	addi	sp,sp,-28
   13002:	1111                	addi	sp,sp,-28
	...

00013010 <begin_signature>:
   13010:	ffff                	0xffff
   13012:	ffff                	0xffff
   13014:	ffff                	0xffff
   13016:	ffff                	0xffff
   13018:	ffff                	0xffff
   1301a:	ffff                	0xffff
   1301c:	ffff                	0xffff
   1301e:	ffff                	0xffff
   13020:	ffff                	0xffff
   13022:	ffff                	0xffff

00013024 <test_B_res>:
   13024:	ffff                	0xffff
   13026:	ffff                	0xffff
   13028:	ffff                	0xffff
   1302a:	ffff                	0xffff
   1302c:	ffff                	0xffff
   1302e:	ffff                	0xffff
   13030:	ffff                	0xffff
   13032:	ffff                	0xffff
   13034:	ffff                	0xffff
   13036:	ffff                	0xffff

00013038 <test_C_res>:
   13038:	ffff                	0xffff
   1303a:	ffff                	0xffff
   1303c:	ffff                	0xffff
   1303e:	ffff                	0xffff
   13040:	ffff                	0xffff
   13042:	ffff                	0xffff
   13044:	ffff                	0xffff
   13046:	ffff                	0xffff
   13048:	ffff                	0xffff
   1304a:	ffff                	0xffff
   1304c:	ffff                	0xffff
   1304e:	ffff                	0xffff

Disassembly of section .data.string:

00013050 <_end-0x63c>:
   13050:	7341                	lui	t1,0xffff0
   13052:	74726573          	csrrsi	a0,0x747,4
   13056:	6f69                	lui	t5,0x1a
   13058:	206e                	fld	ft0,216(sp)
   1305a:	6976                	flw	fs2,92(sp)
   1305c:	74616c6f          	jal	s8,297a2 <_end+0x16116>
   13060:	6f69                	lui	t5,0x1a
   13062:	3a6e                	fld	fs4,248(sp)
   13064:	6620                	flw	fs0,72(a2)
   13066:	6c69                	lui	s8,0x1a
   13068:	2065                	jal	13110 <end_signature+0xc0>
   1306a:	7300                	flw	fs0,32(a4)
   1306c:	6372                	flw	ft6,28(sp)
   1306e:	4c2d492f          	0x4c2d492f
   13072:	4955                	li	s2,21
   13074:	302d                	jal	1289e <FN_WriteA0_common+0x82a>
   13076:	2e31                	jal	13392 <end_signature+0x342>
   13078:	202c0053          	fsgnj.s	ft0,fs8,ft2
   1307c:	696c                	flw	fa1,84(a0)
   1307e:	656e                	flw	fa0,216(sp)
   13080:	0020                	addi	s0,sp,8
   13082:	3134                	fld	fa3,96(a0)
   13084:	3a00                	fld	fs0,48(a2)
   13086:	0020                	addi	s0,sp,8
   13088:	3078                	fld	fa4,224(s0)
   1308a:	2800                	fld	fs0,16(s0)
   1308c:	2900                	fld	fs0,16(a0)
   1308e:	2120                	fld	fs0,64(a0)
   13090:	203d                	jal	130be <end_signature+0x6e>
   13092:	3000                	fld	fs0,32(s0)
   13094:	3078                	fld	fa4,224(s0)
   13096:	3030                	fld	fa2,96(s0)
   13098:	3030                	fld	fa2,96(s0)
   1309a:	3030                	fld	fa2,96(s0)
   1309c:	0030                	addi	a2,sp,8
   1309e:	000a                	c.slli	zero,0x2
   130a0:	65542023          	sw	s5,1600(s0)
   130a4:	42207473          	csrrci	s0,0x422,0
   130a8:	6765                	lui	a4,0x19
   130aa:	6e69                	lui	t3,0x1a
   130ac:	5220                	lw	s0,96(a2)
   130ae:	7365                	lui	t1,0xffff9
   130b0:	7265                	lui	tp,0xffff9
   130b2:	6576                	flw	fa0,92(sp)
   130b4:	2064                	fld	fs1,192(s0)
   130b6:	6572                	flw	fa0,28(sp)
   130b8:	72207367          	0x72207367
   130bc:	2861                	jal	13154 <end_signature+0x104>
   130be:	3178                	fld	fa4,224(a0)
   130c0:	2029                	jal	130ca <end_signature+0x7a>
   130c2:	3061                	jal	1294a <FN_WriteA0_common+0x8d6>
   130c4:	7828                	flw	fa0,112(s0)
   130c6:	3031                	jal	128d2 <FN_WriteA0_common+0x85e>
   130c8:	2029                	jal	130d2 <end_signature+0x82>
   130ca:	3074                	fld	fa3,224(s0)
   130cc:	7828                	flw	fa0,112(s0)
   130ce:	2935                	jal	1350a <end_signature+0x4ba>
   130d0:	000a                	c.slli	zero,0x2
   130d2:	65542023          	sw	s5,1600(s0)
   130d6:	70207473          	csrrci	s0,0x702,0
   130da:	7261                	lui	tp,0xffff8
   130dc:	2074                	fld	fa3,192(s0)
   130de:	2041                	jal	1315e <end_signature+0x10e>
   130e0:	202d                	jal	1310a <end_signature+0xba>
   130e2:	656e6567          	0x656e6567
   130e6:	6172                	flw	ft2,28(sp)
   130e8:	206c                	fld	fa1,192(s0)
   130ea:	6574                	flw	fa3,76(a0)
   130ec:	6f207473          	csrrci	s0,0x6f2,0
   130f0:	2066                	fld	ft0,88(sp)
   130f2:	554c                	lw	a1,44(a0)
   130f4:	0a49                	addi	s4,s4,18
   130f6:	4100                	lw	s0,0(a0)
   130f8:	72657373          	csrrci	t1,0x726,10
   130fc:	6974                	flw	fa3,84(a0)
   130fe:	76206e6f          	jal	t3,19860 <_end+0x61d4>
   13102:	6f69                	lui	t5,0x1a
   13104:	616c                	flw	fa1,68(a0)
   13106:	6974                	flw	fa3,84(a0)
   13108:	203a6e6f          	jal	t3,b9b0a <_end+0xa647e>
   1310c:	6966                	flw	fs2,88(sp)
   1310e:	656c                	flw	fa1,76(a0)
   13110:	0020                	addi	s0,sp,8
   13112:	2f637273          	csrrci	tp,0x2f6,6
   13116:	2d49                	jal	137a8 <_end+0x11c>
   13118:	554c                	lw	a1,44(a0)
   1311a:	2d49                	jal	137ac <_end+0x120>
   1311c:	3130                	fld	fa2,96(a0)
   1311e:	532e                	lw	t1,232(sp)
   13120:	2c00                	fld	fs0,24(s0)
   13122:	6c20                	flw	fs0,88(s0)
   13124:	6e69                	lui	t3,0x1a
   13126:	2065                	jal	131ce <end_signature+0x17e>
   13128:	3600                	fld	fs0,40(a2)
   1312a:	0038                	addi	a4,sp,8
   1312c:	203a                	fld	ft0,392(sp)
   1312e:	7800                	flw	fs0,48(s0)
   13130:	0031                	c.nop	12
   13132:	0028                	addi	a0,sp,8
   13134:	2029                	jal	1313e <end_signature+0xee>
   13136:	3d21                	jal	12f4e <FN_WriteA0_common+0xeda>
   13138:	0020                	addi	s0,sp,8
   1313a:	7830                	flw	fa2,112(s0)
   1313c:	3030                	fld	fa2,96(s0)
   1313e:	3030                	fld	fa2,96(s0)
   13140:	3030                	fld	fa2,96(s0)
   13142:	3030                	fld	fa2,96(s0)
   13144:	0a00                	addi	s0,sp,272
   13146:	4100                	lw	s0,0(a0)
   13148:	72657373          	csrrci	t1,0x726,10
   1314c:	6974                	flw	fa3,84(a0)
   1314e:	76206e6f          	jal	t3,198b0 <_end+0x6224>
   13152:	6f69                	lui	t5,0x1a
   13154:	616c                	flw	fa1,68(a0)
   13156:	6974                	flw	fa3,84(a0)
   13158:	203a6e6f          	jal	t3,b9b5a <_end+0xa64ce>
   1315c:	6966                	flw	fs2,88(sp)
   1315e:	656c                	flw	fa1,76(a0)
   13160:	0020                	addi	s0,sp,8
   13162:	2f637273          	csrrci	tp,0x2f6,6
   13166:	2d49                	jal	137f8 <_end+0x16c>
   13168:	554c                	lw	a1,44(a0)
   1316a:	2d49                	jal	137fc <_end+0x170>
   1316c:	3130                	fld	fa2,96(a0)
   1316e:	532e                	lw	t1,232(sp)
   13170:	2c00                	fld	fs0,24(s0)
   13172:	6c20                	flw	fs0,88(s0)
   13174:	6e69                	lui	t3,0x1a
   13176:	2065                	jal	1321e <end_signature+0x1ce>
   13178:	3600                	fld	fs0,40(a2)
   1317a:	0039                	c.nop	14
   1317c:	203a                	fld	ft0,392(sp)
   1317e:	7800                	flw	fs0,48(s0)
   13180:	00280033          	add	zero,a6,sp
   13184:	2029                	jal	1318e <end_signature+0x13e>
   13186:	3d21                	jal	12f9e <FN_WriteA0_common+0xf2a>
   13188:	0020                	addi	s0,sp,8
   1318a:	7830                	flw	fa2,112(s0)
   1318c:	3030                	fld	fa2,96(s0)
   1318e:	3030                	fld	fa2,96(s0)
   13190:	3031                	jal	1299c <FN_WriteA0_common+0x928>
   13192:	3030                	fld	fa2,96(s0)
   13194:	0a00                	addi	s0,sp,272
   13196:	4100                	lw	s0,0(a0)
   13198:	72657373          	csrrci	t1,0x726,10
   1319c:	6974                	flw	fa3,84(a0)
   1319e:	76206e6f          	jal	t3,19900 <_end+0x6274>
   131a2:	6f69                	lui	t5,0x1a
   131a4:	616c                	flw	fa1,68(a0)
   131a6:	6974                	flw	fa3,84(a0)
   131a8:	203a6e6f          	jal	t3,b9baa <_end+0xa651e>
   131ac:	6966                	flw	fs2,88(sp)
   131ae:	656c                	flw	fa1,76(a0)
   131b0:	0020                	addi	s0,sp,8
   131b2:	2f637273          	csrrci	tp,0x2f6,6
   131b6:	2d49                	jal	13848 <_end+0x1bc>
   131b8:	554c                	lw	a1,44(a0)
   131ba:	2d49                	jal	1384c <_end+0x1c0>
   131bc:	3130                	fld	fa2,96(a0)
   131be:	532e                	lw	t1,232(sp)
   131c0:	2c00                	fld	fs0,24(s0)
   131c2:	6c20                	flw	fs0,88(s0)
   131c4:	6e69                	lui	t3,0x1a
   131c6:	2065                	jal	1326e <end_signature+0x21e>
   131c8:	3700                	fld	fs0,40(a4)
   131ca:	0030                	addi	a2,sp,8
   131cc:	203a                	fld	ft0,392(sp)
   131ce:	7800                	flw	fs0,48(s0)
   131d0:	0035                	c.nop	13
   131d2:	0028                	addi	a0,sp,8
   131d4:	2029                	jal	131de <end_signature+0x18e>
   131d6:	3d21                	jal	12fee <FN_WriteA0_common+0xf7a>
   131d8:	0020                	addi	s0,sp,8
   131da:	7830                	flw	fa2,112(s0)
   131dc:	3030                	fld	fa2,96(s0)
   131de:	3030                	fld	fa2,96(s0)
   131e0:	3030                	fld	fa2,96(s0)
   131e2:	3030                	fld	fa2,96(s0)
   131e4:	0a00                	addi	s0,sp,272
   131e6:	4100                	lw	s0,0(a0)
   131e8:	72657373          	csrrci	t1,0x726,10
   131ec:	6974                	flw	fa3,84(a0)
   131ee:	76206e6f          	jal	t3,19950 <_end+0x62c4>
   131f2:	6f69                	lui	t5,0x1a
   131f4:	616c                	flw	fa1,68(a0)
   131f6:	6974                	flw	fa3,84(a0)
   131f8:	203a6e6f          	jal	t3,b9bfa <_end+0xa656e>
   131fc:	6966                	flw	fs2,88(sp)
   131fe:	656c                	flw	fa1,76(a0)
   13200:	0020                	addi	s0,sp,8
   13202:	2f637273          	csrrci	tp,0x2f6,6
   13206:	2d49                	jal	13898 <_end+0x20c>
   13208:	554c                	lw	a1,44(a0)
   1320a:	2d49                	jal	1389c <_end+0x210>
   1320c:	3130                	fld	fa2,96(a0)
   1320e:	532e                	lw	t1,232(sp)
   13210:	2c00                	fld	fs0,24(s0)
   13212:	6c20                	flw	fs0,88(s0)
   13214:	6e69                	lui	t3,0x1a
   13216:	2065                	jal	132be <end_signature+0x26e>
   13218:	3700                	fld	fs0,40(a4)
   1321a:	0031                	c.nop	12
   1321c:	203a                	fld	ft0,392(sp)
   1321e:	7800                	flw	fs0,48(s0)
   13220:	3932                	fld	fs2,296(sp)
   13222:	2800                	fld	fs0,16(s0)
   13224:	2900                	fld	fs0,16(a0)
   13226:	2120                	fld	fs0,64(a0)
   13228:	203d                	jal	13256 <end_signature+0x206>
   1322a:	3000                	fld	fs0,32(s0)
   1322c:	3778                	fld	fa4,232(a4)
   1322e:	4646                	lw	a2,80(sp)
   13230:	4646                	lw	a2,80(sp)
   13232:	3030                	fld	fa2,96(s0)
   13234:	0030                	addi	a2,sp,8
   13236:	000a                	c.slli	zero,0x2
   13238:	7341                	lui	t1,0xffff0
   1323a:	74726573          	csrrsi	a0,0x747,4
   1323e:	6f69                	lui	t5,0x1a
   13240:	206e                	fld	ft0,216(sp)
   13242:	6976                	flw	fs2,92(sp)
   13244:	74616c6f          	jal	s8,2998a <_end+0x162fe>
   13248:	6f69                	lui	t5,0x1a
   1324a:	3a6e                	fld	fs4,248(sp)
   1324c:	6620                	flw	fs0,72(a2)
   1324e:	6c69                	lui	s8,0x1a
   13250:	2065                	jal	132f8 <end_signature+0x2a8>
   13252:	7300                	flw	fs0,32(a4)
   13254:	6372                	flw	ft6,28(sp)
   13256:	4c2d492f          	0x4c2d492f
   1325a:	4955                	li	s2,21
   1325c:	302d                	jal	12a86 <FN_WriteA0_common+0xa12>
   1325e:	2e31                	jal	1357a <end_signature+0x52a>
   13260:	202c0053          	fsgnj.s	ft0,fs8,ft2
   13264:	696c                	flw	fa1,84(a0)
   13266:	656e                	flw	fa0,216(sp)
   13268:	0020                	addi	s0,sp,8
   1326a:	3a003237          	lui	tp,0x3a003
   1326e:	0020                	addi	s0,sp,8
   13270:	3378                	fld	fa4,224(a4)
   13272:	0031                	c.nop	12
   13274:	0028                	addi	a0,sp,8
   13276:	2029                	jal	13280 <end_signature+0x230>
   13278:	3d21                	jal	13090 <end_signature+0x40>
   1327a:	0020                	addi	s0,sp,8
   1327c:	7830                	flw	fa2,112(s0)
   1327e:	3038                	fld	fa4,96(s0)
   13280:	3030                	fld	fa2,96(s0)
   13282:	3030                	fld	fa2,96(s0)
   13284:	3030                	fld	fa2,96(s0)
   13286:	0a00                	addi	s0,sp,272
   13288:	2300                	fld	fs0,0(a4)
   1328a:	5420                	lw	s0,104(s0)
   1328c:	7365                	lui	t1,0xffff9
   1328e:	2074                	fld	fa3,192(s0)
   13290:	6170                	flw	fa2,68(a0)
   13292:	7472                	flw	fs0,60(sp)
   13294:	4120                	lw	s0,64(a0)
   13296:	2031                	jal	132a2 <end_signature+0x252>
   13298:	2d20                	fld	fs0,88(a0)
   1329a:	4320                	lw	s0,64(a4)
   1329c:	6c706d6f          	jal	s10,1a162 <_end+0x6ad6>
   132a0:	7465                	lui	s0,0xffff9
   132a2:	0a65                	addi	s4,s4,25
   132a4:	2300                	fld	fs0,0(a4)
   132a6:	5420                	lw	s0,104(s0)
   132a8:	7365                	lui	t1,0xffff9
   132aa:	2074                	fld	fa3,192(s0)
   132ac:	6170                	flw	fa2,68(a0)
   132ae:	7472                	flw	fs0,60(sp)
   132b0:	4220                	lw	s0,64(a2)
   132b2:	2d20                	fld	fs0,88(a0)
   132b4:	7420                	flw	fs0,104(s0)
   132b6:	7365                	lui	t1,0xffff9
   132b8:	2074                	fld	fa3,192(s0)
   132ba:	554c                	lw	a1,44(a0)
   132bc:	2049                	jal	1333e <end_signature+0x2ee>
   132be:	7265766f          	jal	a2,6a9e4 <_end+0x57358>
   132c2:	74697277          	0x74697277
   132c6:	7365                	lui	t1,0xffff9
   132c8:	6c20                	flw	fs0,88(s0)
   132ca:	6220776f          	jal	a4,1a8ec <_end+0x7260>
   132ce:	7469                	lui	s0,0xffffa
   132d0:	41000a73          	0x41000a73
   132d4:	72657373          	csrrci	t1,0x726,10
   132d8:	6974                	flw	fa3,84(a0)
   132da:	76206e6f          	jal	t3,19a3c <_end+0x63b0>
   132de:	6f69                	lui	t5,0x1a
   132e0:	616c                	flw	fa1,68(a0)
   132e2:	6974                	flw	fa3,84(a0)
   132e4:	203a6e6f          	jal	t3,b9ce6 <_end+0xa665a>
   132e8:	6966                	flw	fs2,88(sp)
   132ea:	656c                	flw	fa1,76(a0)
   132ec:	0020                	addi	s0,sp,8
   132ee:	2f637273          	csrrci	tp,0x2f6,6
   132f2:	2d49                	jal	13984 <_end+0x2f8>
   132f4:	554c                	lw	a1,44(a0)
   132f6:	2d49                	jal	13988 <_end+0x2fc>
   132f8:	3130                	fld	fa2,96(a0)
   132fa:	532e                	lw	t1,232(sp)
   132fc:	2c00                	fld	fs0,24(s0)
   132fe:	6c20                	flw	fs0,88(s0)
   13300:	6e69                	lui	t3,0x1a
   13302:	2065                	jal	133aa <end_signature+0x35a>
   13304:	3100                	fld	fs0,32(a0)
   13306:	3430                	fld	fa2,104(s0)
   13308:	3a00                	fld	fs0,48(a2)
   1330a:	0020                	addi	s0,sp,8
   1330c:	3278                	fld	fa4,224(a2)
   1330e:	2800                	fld	fs0,16(s0)
   13310:	2900                	fld	fs0,16(a0)
   13312:	2120                	fld	fs0,64(a0)
   13314:	203d                	jal	13342 <end_signature+0x2f2>
   13316:	3000                	fld	fs0,32(s0)
   13318:	3878                	fld	fa4,240(s0)
   1331a:	3030                	fld	fa2,96(s0)
   1331c:	3030                	fld	fa2,96(s0)
   1331e:	3030                	fld	fa2,96(s0)
   13320:	0030                	addi	a2,sp,8
   13322:	000a                	c.slli	zero,0x2
   13324:	7341                	lui	t1,0xffff0
   13326:	74726573          	csrrsi	a0,0x747,4
   1332a:	6f69                	lui	t5,0x1a
   1332c:	206e                	fld	ft0,216(sp)
   1332e:	6976                	flw	fs2,92(sp)
   13330:	74616c6f          	jal	s8,29a76 <_end+0x163ea>
   13334:	6f69                	lui	t5,0x1a
   13336:	3a6e                	fld	fs4,248(sp)
   13338:	6620                	flw	fs0,72(a2)
   1333a:	6c69                	lui	s8,0x1a
   1333c:	2065                	jal	133e4 <end_signature+0x394>
   1333e:	7300                	flw	fs0,32(a4)
   13340:	6372                	flw	ft6,28(sp)
   13342:	4c2d492f          	0x4c2d492f
   13346:	4955                	li	s2,21
   13348:	302d                	jal	12b72 <FN_WriteA0_common+0xafe>
   1334a:	2e31                	jal	13666 <end_signature+0x616>
   1334c:	202c0053          	fsgnj.s	ft0,fs8,ft2
   13350:	696c                	flw	fa1,84(a0)
   13352:	656e                	flw	fa0,216(sp)
   13354:	0020                	addi	s0,sp,8
   13356:	3031                	jal	12b62 <FN_WriteA0_common+0xaee>
   13358:	0035                	c.nop	13
   1335a:	203a                	fld	ft0,392(sp)
   1335c:	7800                	flw	fs0,48(s0)
   1335e:	0034                	addi	a3,sp,8
   13360:	0028                	addi	a0,sp,8
   13362:	2029                	jal	1336c <end_signature+0x31c>
   13364:	3d21                	jal	1317c <end_signature+0x12c>
   13366:	0020                	addi	s0,sp,8
   13368:	7830                	flw	fa2,112(s0)
   1336a:	46464637          	lui	a2,0x46464
   1336e:	3046                	fld	ft0,112(sp)
   13370:	3030                	fld	fa2,96(s0)
   13372:	0a00                	addi	s0,sp,272
   13374:	4100                	lw	s0,0(a0)
   13376:	72657373          	csrrci	t1,0x726,10
   1337a:	6974                	flw	fa3,84(a0)
   1337c:	76206e6f          	jal	t3,19ade <_end+0x6452>
   13380:	6f69                	lui	t5,0x1a
   13382:	616c                	flw	fa1,68(a0)
   13384:	6974                	flw	fa3,84(a0)
   13386:	203a6e6f          	jal	t3,b9d88 <_end+0xa66fc>
   1338a:	6966                	flw	fs2,88(sp)
   1338c:	656c                	flw	fa1,76(a0)
   1338e:	0020                	addi	s0,sp,8
   13390:	2f637273          	csrrci	tp,0x2f6,6
   13394:	2d49                	jal	13a26 <_end+0x39a>
   13396:	554c                	lw	a1,44(a0)
   13398:	2d49                	jal	13a2a <_end+0x39e>
   1339a:	3130                	fld	fa2,96(a0)
   1339c:	532e                	lw	t1,232(sp)
   1339e:	2c00                	fld	fs0,24(s0)
   133a0:	6c20                	flw	fs0,88(s0)
   133a2:	6e69                	lui	t3,0x1a
   133a4:	2065                	jal	1344c <end_signature+0x3fc>
   133a6:	3100                	fld	fs0,32(a0)
   133a8:	3630                	fld	fa2,104(a2)
   133aa:	3a00                	fld	fs0,48(a2)
   133ac:	0020                	addi	s0,sp,8
   133ae:	3678                	fld	fa4,232(a2)
   133b0:	2800                	fld	fs0,16(s0)
   133b2:	2900                	fld	fs0,16(a0)
   133b4:	2120                	fld	fs0,64(a0)
   133b6:	203d                	jal	133e4 <end_signature+0x394>
   133b8:	3000                	fld	fs0,32(s0)
   133ba:	3078                	fld	fa4,224(s0)
   133bc:	3030                	fld	fa2,96(s0)
   133be:	3030                	fld	fa2,96(s0)
   133c0:	3030                	fld	fa2,96(s0)
   133c2:	0030                	addi	a2,sp,8
   133c4:	000a                	c.slli	zero,0x2
   133c6:	7341                	lui	t1,0xffff0
   133c8:	74726573          	csrrsi	a0,0x747,4
   133cc:	6f69                	lui	t5,0x1a
   133ce:	206e                	fld	ft0,216(sp)
   133d0:	6976                	flw	fs2,92(sp)
   133d2:	74616c6f          	jal	s8,29b18 <_end+0x1648c>
   133d6:	6f69                	lui	t5,0x1a
   133d8:	3a6e                	fld	fs4,248(sp)
   133da:	6620                	flw	fs0,72(a2)
   133dc:	6c69                	lui	s8,0x1a
   133de:	2065                	jal	13486 <end_signature+0x436>
   133e0:	7300                	flw	fs0,32(a4)
   133e2:	6372                	flw	ft6,28(sp)
   133e4:	4c2d492f          	0x4c2d492f
   133e8:	4955                	li	s2,21
   133ea:	302d                	jal	12c14 <FN_WriteA0_common+0xba0>
   133ec:	2e31                	jal	13708 <_end+0x7c>
   133ee:	202c0053          	fsgnj.s	ft0,fs8,ft2
   133f2:	696c                	flw	fa1,84(a0)
   133f4:	656e                	flw	fa0,216(sp)
   133f6:	0020                	addi	s0,sp,8
   133f8:	3031                	jal	12c04 <FN_WriteA0_common+0xb90>
   133fa:	203a0037          	lui	zero,0x203a0
   133fe:	7800                	flw	fs0,48(s0)
   13400:	3832                	fld	fa6,296(sp)
   13402:	2800                	fld	fs0,16(s0)
   13404:	2900                	fld	fs0,16(a0)
   13406:	2120                	fld	fs0,64(a0)
   13408:	203d                	jal	13436 <end_signature+0x3e6>
   1340a:	3000                	fld	fs0,32(s0)
   1340c:	3078                	fld	fa4,224(s0)
   1340e:	3030                	fld	fa2,96(s0)
   13410:	3130                	fld	fa2,96(a0)
   13412:	3030                	fld	fa2,96(s0)
   13414:	0030                	addi	a2,sp,8
   13416:	000a                	c.slli	zero,0x2
   13418:	7341                	lui	t1,0xffff0
   1341a:	74726573          	csrrsi	a0,0x747,4
   1341e:	6f69                	lui	t5,0x1a
   13420:	206e                	fld	ft0,216(sp)
   13422:	6976                	flw	fs2,92(sp)
   13424:	74616c6f          	jal	s8,29b6a <_end+0x164de>
   13428:	6f69                	lui	t5,0x1a
   1342a:	3a6e                	fld	fs4,248(sp)
   1342c:	6620                	flw	fs0,72(a2)
   1342e:	6c69                	lui	s8,0x1a
   13430:	2065                	jal	134d8 <end_signature+0x488>
   13432:	7300                	flw	fs0,32(a4)
   13434:	6372                	flw	ft6,28(sp)
   13436:	4c2d492f          	0x4c2d492f
   1343a:	4955                	li	s2,21
   1343c:	302d                	jal	12c66 <FN_WriteA0_common+0xbf2>
   1343e:	2e31                	jal	1375a <_end+0xce>
   13440:	202c0053          	fsgnj.s	ft0,fs8,ft2
   13444:	696c                	flw	fa1,84(a0)
   13446:	656e                	flw	fa0,216(sp)
   13448:	0020                	addi	s0,sp,8
   1344a:	3031                	jal	12c56 <FN_WriteA0_common+0xbe2>
   1344c:	0038                	addi	a4,sp,8
   1344e:	203a                	fld	ft0,392(sp)
   13450:	7800                	flw	fs0,48(s0)
   13452:	28003033          	0x28003033
   13456:	2900                	fld	fs0,16(a0)
   13458:	2120                	fld	fs0,64(a0)
   1345a:	203d                	jal	13488 <end_signature+0x438>
   1345c:	3000                	fld	fs0,32(s0)
   1345e:	4678                	lw	a4,76(a2)
   13460:	4646                	lw	a2,80(sp)
   13462:	4646                	lw	a2,80(sp)
   13464:	3030                	fld	fa2,96(s0)
   13466:	0030                	addi	a2,sp,8
   13468:	000a                	c.slli	zero,0x2
   1346a:	65542023          	sw	s5,1600(s0) # ffffa640 <_end+0xfffe6fb4>
   1346e:	70207473          	csrrci	s0,0x702,0
   13472:	7261                	lui	tp,0xffff8
   13474:	2074                	fld	fa3,192(s0)
   13476:	3241                	jal	12df6 <FN_WriteA0_common+0xd82>
   13478:	2020                	fld	fs0,64(s0)
   1347a:	202d                	jal	134a4 <end_signature+0x454>
   1347c:	706d6f43          	fmadd.s	ft10,fs10,ft6,fa4,unknown
   13480:	656c                	flw	fa1,76(a0)
   13482:	6574                	flw	fa3,76(a0)
   13484:	000a                	c.slli	zero,0x2
   13486:	65542023          	sw	s5,1600(s0)
   1348a:	70207473          	csrrci	s0,0x702,0
   1348e:	7261                	lui	tp,0xffff8
   13490:	2074                	fld	fa3,192(s0)
   13492:	202d2043          	fmadd.s	ft0,fs10,ft2,ft4,rdn
   13496:	6574                	flw	fa3,76(a0)
   13498:	6c207473          	csrrci	s0,0x6c2,0
   1349c:	6964616f          	jal	sp,59b32 <_end+0x464a6>
   134a0:	676e                	flw	fa4,216(sp)
   134a2:	6920                	flw	fs0,80(a0)
   134a4:	6d6d                	lui	s10,0x1b
   134a6:	6465                	lui	s0,0x19
   134a8:	6169                	addi	sp,sp,208
   134aa:	6574                	flw	fa3,76(a0)
   134ac:	7520                	flw	fs0,104(a0)
   134ae:	676e6973          	csrrsi	s2,0x676,28
   134b2:	6c20                	flw	fs0,88(s0)
   134b4:	6975                	lui	s2,0x1d
   134b6:	2b20                	fld	fs0,80(a4)
   134b8:	6120                	flw	fs0,64(a0)
   134ba:	6464                	flw	fs1,76(s0)
   134bc:	2069                	jal	13546 <end_signature+0x4f6>
   134be:	6c20726f          	jal	tp,1ab80 <_end+0x74f4>
   134c2:	2069                	jal	1354c <end_signature+0x4fc>
   134c4:	6c61                	lui	s8,0x18
   134c6:	6169                	addi	sp,sp,208
   134c8:	41000a73          	0x41000a73
   134cc:	72657373          	csrrci	t1,0x726,10
   134d0:	6974                	flw	fa3,84(a0)
   134d2:	76206e6f          	jal	t3,19c34 <_end+0x65a8>
   134d6:	6f69                	lui	t5,0x1a
   134d8:	616c                	flw	fa1,68(a0)
   134da:	6974                	flw	fa3,84(a0)
   134dc:	203a6e6f          	jal	t3,b9ede <_end+0xa6852>
   134e0:	6966                	flw	fs2,88(sp)
   134e2:	656c                	flw	fa1,76(a0)
   134e4:	0020                	addi	s0,sp,8
   134e6:	2f637273          	csrrci	tp,0x2f6,6
   134ea:	2d49                	jal	13b7c <_end+0x4f0>
   134ec:	554c                	lw	a1,44(a0)
   134ee:	2d49                	jal	13b80 <_end+0x4f4>
   134f0:	3130                	fld	fa2,96(a0)
   134f2:	532e                	lw	t1,232(sp)
   134f4:	2c00                	fld	fs0,24(s0)
   134f6:	6c20                	flw	fs0,88(s0)
   134f8:	6e69                	lui	t3,0x1a
   134fa:	2065                	jal	135a2 <end_signature+0x552>
   134fc:	3100                	fld	fs0,32(a0)
   134fe:	3a003933          	0x3a003933
   13502:	0020                	addi	s0,sp,8
   13504:	3178                	fld	fa4,224(a0)
   13506:	0035                	c.nop	13
   13508:	0028                	addi	a0,sp,8
   1350a:	2029                	jal	13514 <end_signature+0x4c4>
   1350c:	3d21                	jal	13324 <end_signature+0x2d4>
   1350e:	0020                	addi	s0,sp,8
   13510:	7830                	flw	fa2,112(s0)
   13512:	3231                	jal	12e1e <FN_WriteA0_common+0xdaa>
   13514:	36353433          	0x36353433
   13518:	0a003837          	lui	a6,0xa003
   1351c:	4100                	lw	s0,0(a0)
   1351e:	72657373          	csrrci	t1,0x726,10
   13522:	6974                	flw	fa3,84(a0)
   13524:	76206e6f          	jal	t3,19c86 <_end+0x65fa>
   13528:	6f69                	lui	t5,0x1a
   1352a:	616c                	flw	fa1,68(a0)
   1352c:	6974                	flw	fa3,84(a0)
   1352e:	203a6e6f          	jal	t3,b9f30 <_end+0xa68a4>
   13532:	6966                	flw	fs2,88(sp)
   13534:	656c                	flw	fa1,76(a0)
   13536:	0020                	addi	s0,sp,8
   13538:	2f637273          	csrrci	tp,0x2f6,6
   1353c:	2d49                	jal	13bce <_end+0x542>
   1353e:	554c                	lw	a1,44(a0)
   13540:	2d49                	jal	13bd2 <_end+0x546>
   13542:	3130                	fld	fa2,96(a0)
   13544:	532e                	lw	t1,232(sp)
   13546:	2c00                	fld	fs0,24(s0)
   13548:	6c20                	flw	fs0,88(s0)
   1354a:	6e69                	lui	t3,0x1a
   1354c:	2065                	jal	135f4 <end_signature+0x5a4>
   1354e:	3100                	fld	fs0,32(a0)
   13550:	3034                	fld	fa3,96(s0)
   13552:	3a00                	fld	fs0,48(a2)
   13554:	0020                	addi	s0,sp,8
   13556:	3378                	fld	fa4,224(a4)
   13558:	0030                	addi	a2,sp,8
   1355a:	0028                	addi	a0,sp,8
   1355c:	2029                	jal	13566 <end_signature+0x516>
   1355e:	3d21                	jal	13376 <end_signature+0x326>
   13560:	0020                	addi	s0,sp,8
   13562:	7830                	flw	fa2,112(s0)
   13564:	4139                	li	sp,14
   13566:	4342                	lw	t1,16(sp)
   13568:	4544                	lw	s1,12(a0)
   1356a:	3046                	fld	ft0,112(sp)
   1356c:	0a00                	addi	s0,sp,272
   1356e:	4100                	lw	s0,0(a0)
   13570:	72657373          	csrrci	t1,0x726,10
   13574:	6974                	flw	fa3,84(a0)
   13576:	76206e6f          	jal	t3,19cd8 <_end+0x664c>
   1357a:	6f69                	lui	t5,0x1a
   1357c:	616c                	flw	fa1,68(a0)
   1357e:	6974                	flw	fa3,84(a0)
   13580:	203a6e6f          	jal	t3,b9f82 <_end+0xa68f6>
   13584:	6966                	flw	fs2,88(sp)
   13586:	656c                	flw	fa1,76(a0)
   13588:	0020                	addi	s0,sp,8
   1358a:	2f637273          	csrrci	tp,0x2f6,6
   1358e:	2d49                	jal	13c20 <_end+0x594>
   13590:	554c                	lw	a1,44(a0)
   13592:	2d49                	jal	13c24 <_end+0x598>
   13594:	3130                	fld	fa2,96(a0)
   13596:	532e                	lw	t1,232(sp)
   13598:	2c00                	fld	fs0,24(s0)
   1359a:	6c20                	flw	fs0,88(s0)
   1359c:	6e69                	lui	t3,0x1a
   1359e:	2065                	jal	13646 <end_signature+0x5f6>
   135a0:	3100                	fld	fs0,32(a0)
   135a2:	3134                	fld	fa3,96(a0)
   135a4:	3a00                	fld	fs0,48(a2)
   135a6:	0020                	addi	s0,sp,8
   135a8:	3278                	fld	fa4,224(a2)
   135aa:	2800                	fld	fs0,16(s0)
   135ac:	2900                	fld	fs0,16(a0)
   135ae:	2120                	fld	fs0,64(a0)
   135b0:	203d                	jal	135de <end_signature+0x58e>
   135b2:	3000                	fld	fs0,32(s0)
   135b4:	3478                	fld	fa4,232(s0)
   135b6:	3732                	fld	fa4,296(sp)
   135b8:	3632                	fld	fa2,296(sp)
   135ba:	3645                	jal	1315a <end_signature+0x10a>
   135bc:	0046                	c.slli	zero,0x11
   135be:	000a                	c.slli	zero,0x2
   135c0:	7341                	lui	t1,0xffff0
   135c2:	74726573          	csrrsi	a0,0x747,4
   135c6:	6f69                	lui	t5,0x1a
   135c8:	206e                	fld	ft0,216(sp)
   135ca:	6976                	flw	fs2,92(sp)
   135cc:	74616c6f          	jal	s8,29d12 <_end+0x16686>
   135d0:	6f69                	lui	t5,0x1a
   135d2:	3a6e                	fld	fs4,248(sp)
   135d4:	6620                	flw	fs0,72(a2)
   135d6:	6c69                	lui	s8,0x1a
   135d8:	2065                	jal	13680 <end_signature+0x630>
   135da:	7300                	flw	fs0,32(a4)
   135dc:	6372                	flw	ft6,28(sp)
   135de:	4c2d492f          	0x4c2d492f
   135e2:	4955                	li	s2,21
   135e4:	302d                	jal	12e0e <FN_WriteA0_common+0xd9a>
   135e6:	2e31                	jal	13902 <_end+0x276>
   135e8:	202c0053          	fsgnj.s	ft0,fs8,ft2
   135ec:	696c                	flw	fa1,84(a0)
   135ee:	656e                	flw	fa0,216(sp)
   135f0:	0020                	addi	s0,sp,8
   135f2:	3431                	jal	12ffe <FN_WriteA0_common+0xf8a>
   135f4:	0032                	c.slli	zero,0xc
   135f6:	203a                	fld	ft0,392(sp)
   135f8:	7800                	flw	fs0,48(s0)
   135fa:	3631                	jal	13106 <end_signature+0xb6>
   135fc:	2800                	fld	fs0,16(s0)
   135fe:	2900                	fld	fs0,16(a0)
   13600:	2120                	fld	fs0,64(a0)
   13602:	203d                	jal	13630 <end_signature+0x5e0>
   13604:	3000                	fld	fs0,32(s0)
   13606:	3178                	fld	fa4,224(a0)
   13608:	3332                	fld	ft6,296(sp)
   1360a:	3534                	fld	fa3,104(a0)
   1360c:	3736                	fld	fa4,360(sp)
   1360e:	0038                	addi	a4,sp,8
   13610:	000a                	c.slli	zero,0x2
   13612:	7341                	lui	t1,0xffff0
   13614:	74726573          	csrrsi	a0,0x747,4
   13618:	6f69                	lui	t5,0x1a
   1361a:	206e                	fld	ft0,216(sp)
   1361c:	6976                	flw	fs2,92(sp)
   1361e:	74616c6f          	jal	s8,29d64 <_end+0x166d8>
   13622:	6f69                	lui	t5,0x1a
   13624:	3a6e                	fld	fs4,248(sp)
   13626:	6620                	flw	fs0,72(a2)
   13628:	6c69                	lui	s8,0x1a
   1362a:	2065                	jal	136d2 <_end+0x46>
   1362c:	7300                	flw	fs0,32(a4)
   1362e:	6372                	flw	ft6,28(sp)
   13630:	4c2d492f          	0x4c2d492f
   13634:	4955                	li	s2,21
   13636:	302d                	jal	12e60 <FN_WriteA0_common+0xdec>
   13638:	2e31                	jal	13954 <_end+0x2c8>
   1363a:	202c0053          	fsgnj.s	ft0,fs8,ft2
   1363e:	696c                	flw	fa1,84(a0)
   13640:	656e                	flw	fa0,216(sp)
   13642:	0020                	addi	s0,sp,8
   13644:	3431                	jal	13050 <end_signature>
   13646:	203a0033          	0x203a0033
   1364a:	7800                	flw	fs0,48(s0)
   1364c:	28003133          	0x28003133
   13650:	2900                	fld	fs0,16(a0)
   13652:	2120                	fld	fs0,64(a0)
   13654:	203d                	jal	13682 <end_signature+0x632>
   13656:	3000                	fld	fs0,32(s0)
   13658:	3978                	fld	fa4,240(a0)
   1365a:	4241                	li	tp,16
   1365c:	46454443          	fmadd.q	fs0,fa0,ft4,fs0,rmm
   13660:	0030                	addi	a2,sp,8
   13662:	000a                	c.slli	zero,0x2
   13664:	65542023          	sw	s5,1600(s0) # 19640 <_end+0x5fb4>
   13668:	70207473          	csrrci	s0,0x702,0
   1366c:	7261                	lui	tp,0xffff8
   1366e:	2074                	fld	fa3,192(s0)
   13670:	3341                	jal	133f0 <end_signature+0x3a0>
   13672:	2020                	fld	fs0,64(s0)
   13674:	202d                	jal	1369e <_end+0x12>
   13676:	706d6f43          	fmadd.s	ft10,fs10,ft6,fa4,unknown
   1367a:	656c                	flw	fa1,76(a0)
   1367c:	6574                	flw	fa3,76(a0)
   1367e:	000a                	c.slli	zero,0x2
   13680:	65542023          	sw	s5,1600(s0)
   13684:	45207473          	csrrci	s0,0x452,0
   13688:	646e                	flw	fs0,216(sp)
   1368a:	000a                	c.slli	zero,0x2
