
/home/benselfridge/riscv-compliance/work//I-LUI-01.elf:     file format elf32-littleriscv


Disassembly of section .text.init:

00010000 <_start>:
   10000:	04c0006f          	j	1004c <reset_vector>

00010004 <trap_vector>:
   10004:	34202f73          	csrr	t5,mcause
   10008:	00800f93          	li	t6,8
   1000c:	03ff0a63          	beq	t5,t6,10040 <write_tohost>
   10010:	00900f93          	li	t6,9
   10014:	03ff0663          	beq	t5,t6,10040 <write_tohost>
   10018:	00b00f93          	li	t6,11
   1001c:	03ff0263          	beq	t5,t6,10040 <write_tohost>
   10020:	ffff0f17          	auipc	t5,0xffff0
   10024:	fe0f0f13          	addi	t5,t5,-32 # 0 <_start-0x10000>
   10028:	000f0463          	beqz	t5,10030 <trap_vector+0x2c>
   1002c:	000f0067          	jr	t5
   10030:	34202f73          	csrr	t5,mcause
   10034:	000f5463          	bgez	t5,1003c <handle_exception>
   10038:	0040006f          	j	1003c <handle_exception>

0001003c <handle_exception>:
   1003c:	5391e193          	ori	gp,gp,1337

00010040 <write_tohost>:
   10040:	00001f17          	auipc	t5,0x1
   10044:	fc3f2023          	sw	gp,-64(t5) # 11000 <tohost>
   10048:	ff9ff06f          	j	10040 <write_tohost>

0001004c <reset_vector>:
   1004c:	f1402573          	csrr	a0,mhartid
   10050:	00051063          	bnez	a0,10050 <reset_vector+0x4>
   10054:	00000297          	auipc	t0,0x0
   10058:	01028293          	addi	t0,t0,16 # 10064 <reset_vector+0x18>
   1005c:	30529073          	csrw	mtvec,t0
   10060:	18005073          	csrwi	satp,0
   10064:	00000297          	auipc	t0,0x0
   10068:	01c28293          	addi	t0,t0,28 # 10080 <reset_vector+0x34>
   1006c:	30529073          	csrw	mtvec,t0
   10070:	fff00293          	li	t0,-1
   10074:	3b029073          	csrw	pmpaddr0,t0
   10078:	01f00293          	li	t0,31
   1007c:	3a029073          	csrw	pmpcfg0,t0
   10080:	00000297          	auipc	t0,0x0
   10084:	01828293          	addi	t0,t0,24 # 10098 <reset_vector+0x4c>
   10088:	30529073          	csrw	mtvec,t0
   1008c:	30205073          	csrwi	medeleg,0
   10090:	30305073          	csrwi	mideleg,0
   10094:	30405073          	csrwi	mie,0
   10098:	00000193          	li	gp,0
   1009c:	00000297          	auipc	t0,0x0
   100a0:	f6828293          	addi	t0,t0,-152 # 10004 <trap_vector>
   100a4:	30529073          	csrw	mtvec,t0
   100a8:	00100513          	li	a0,1
   100ac:	01f51513          	slli	a0,a0,0x1f
   100b0:	00054863          	bltz	a0,100c0 <reset_vector+0x74>
   100b4:	0000100f          	fence.i
   100b8:	00100193          	li	gp,1
   100bc:	00000073          	ecall
   100c0:	ffff0297          	auipc	t0,0xffff0
   100c4:	f4028293          	addi	t0,t0,-192 # 0 <_start-0x10000>
   100c8:	00028e63          	beqz	t0,100e4 <reset_vector+0x98>
   100cc:	10529073          	csrw	stvec,t0
   100d0:	0000b2b7          	lui	t0,0xb
   100d4:	10928293          	addi	t0,t0,265 # b109 <_start-0x4ef7>
   100d8:	30229073          	csrw	medeleg,t0
   100dc:	30202373          	csrr	t1,medeleg
   100e0:	f4629ee3          	bne	t0,t1,1003c <handle_exception>
   100e4:	30005073          	csrwi	mstatus,0
   100e8:	00002537          	lui	a0,0x2
   100ec:	80050513          	addi	a0,a0,-2048 # 1800 <_start-0xe800>
   100f0:	30052073          	csrs	mstatus,a0
   100f4:	00000297          	auipc	t0,0x0
   100f8:	01428293          	addi	t0,t0,20 # 10108 <reset_vector+0xbc>
   100fc:	34129073          	csrw	mepc,t0
   10100:	f1402573          	csrr	a0,mhartid
   10104:	30200073          	mret
   10108:	00000293          	li	t0,0
   1010c:	08500e63          	beq	zero,t0,101a8 <reset_vector+0x15c>
   10110:	00003517          	auipc	a0,0x3
   10114:	f4050513          	addi	a0,a0,-192 # 13050 <end_signature>
   10118:	6e9010ef          	jal	ra,12000 <FN_WriteStr>
   1011c:	00003517          	auipc	a0,0x3
   10120:	f4f50513          	addi	a0,a0,-177 # 1306b <end_signature+0x1b>
   10124:	6dd010ef          	jal	ra,12000 <FN_WriteStr>
   10128:	00003517          	auipc	a0,0x3
   1012c:	f5250513          	addi	a0,a0,-174 # 1307a <end_signature+0x2a>
   10130:	6d1010ef          	jal	ra,12000 <FN_WriteStr>
   10134:	00003517          	auipc	a0,0x3
   10138:	f4e50513          	addi	a0,a0,-178 # 13082 <end_signature+0x32>
   1013c:	6c5010ef          	jal	ra,12000 <FN_WriteStr>
   10140:	00003517          	auipc	a0,0x3
   10144:	f4550513          	addi	a0,a0,-187 # 13085 <end_signature+0x35>
   10148:	6b9010ef          	jal	ra,12000 <FN_WriteStr>
   1014c:	00003517          	auipc	a0,0x3
   10150:	f3c50513          	addi	a0,a0,-196 # 13088 <end_signature+0x38>
   10154:	6ad010ef          	jal	ra,12000 <FN_WriteStr>
   10158:	00003517          	auipc	a0,0x3
   1015c:	f3350513          	addi	a0,a0,-205 # 1308b <end_signature+0x3b>
   10160:	6a1010ef          	jal	ra,12000 <FN_WriteStr>
   10164:	00000513          	li	a0,0
   10168:	6b5010ef          	jal	ra,1201c <FN_WriteA0>
   1016c:	00003517          	auipc	a0,0x3
   10170:	f2150513          	addi	a0,a0,-223 # 1308d <end_signature+0x3d>
   10174:	68d010ef          	jal	ra,12000 <FN_WriteStr>
   10178:	00003517          	auipc	a0,0x3
   1017c:	f1b50513          	addi	a0,a0,-229 # 13093 <end_signature+0x43>
   10180:	681010ef          	jal	ra,12000 <FN_WriteStr>
   10184:	00003517          	auipc	a0,0x3
   10188:	f1a50513          	addi	a0,a0,-230 # 1309e <end_signature+0x4e>
   1018c:	675010ef          	jal	ra,12000 <FN_WriteStr>
   10190:	06400193          	li	gp,100
   10194:	0000100f          	fence.i
   10198:	00018063          	beqz	gp,10198 <reset_vector+0x14c>
   1019c:	00119193          	slli	gp,gp,0x1
   101a0:	0011e193          	ori	gp,gp,1
   101a4:	00000073          	ecall
   101a8:	00003517          	auipc	a0,0x3
   101ac:	ef850513          	addi	a0,a0,-264 # 130a0 <end_signature+0x50>
   101b0:	651010ef          	jal	ra,12000 <FN_WriteStr>
   101b4:	00003517          	auipc	a0,0x3
   101b8:	f1e50513          	addi	a0,a0,-226 # 130d2 <end_signature+0x82>
   101bc:	645010ef          	jal	ra,12000 <FN_WriteStr>
   101c0:	00003797          	auipc	a5,0x3
   101c4:	e5078793          	addi	a5,a5,-432 # 13010 <begin_signature>
   101c8:	000000b7          	lui	ra,0x0
   101cc:	000011b7          	lui	gp,0x1
   101d0:	fffff2b7          	lui	t0,0xfffff
   101d4:	7ffffeb7          	lui	t4,0x7ffff
   101d8:	80000fb7          	lui	t6,0x80000
   101dc:	0017a023          	sw	ra,0(a5)
   101e0:	0037a223          	sw	gp,4(a5)
   101e4:	0057a423          	sw	t0,8(a5)
   101e8:	01d7a623          	sw	t4,12(a5)
   101ec:	01f7a823          	sw	t6,16(a5)
   101f0:	fff00013          	li	zero,-1
   101f4:	00000293          	li	t0,0
   101f8:	08508e63          	beq	ra,t0,10294 <reset_vector+0x248>
   101fc:	00003517          	auipc	a0,0x3
   10200:	efb50513          	addi	a0,a0,-261 # 130f7 <end_signature+0xa7>
   10204:	5fd010ef          	jal	ra,12000 <FN_WriteStr>
   10208:	00003517          	auipc	a0,0x3
   1020c:	f0a50513          	addi	a0,a0,-246 # 13112 <end_signature+0xc2>
   10210:	5f1010ef          	jal	ra,12000 <FN_WriteStr>
   10214:	00003517          	auipc	a0,0x3
   10218:	f0d50513          	addi	a0,a0,-243 # 13121 <end_signature+0xd1>
   1021c:	5e5010ef          	jal	ra,12000 <FN_WriteStr>
   10220:	00003517          	auipc	a0,0x3
   10224:	f0950513          	addi	a0,a0,-247 # 13129 <end_signature+0xd9>
   10228:	5d9010ef          	jal	ra,12000 <FN_WriteStr>
   1022c:	00003517          	auipc	a0,0x3
   10230:	f0050513          	addi	a0,a0,-256 # 1312c <end_signature+0xdc>
   10234:	5cd010ef          	jal	ra,12000 <FN_WriteStr>
   10238:	00003517          	auipc	a0,0x3
   1023c:	ef750513          	addi	a0,a0,-265 # 1312f <end_signature+0xdf>
   10240:	5c1010ef          	jal	ra,12000 <FN_WriteStr>
   10244:	00003517          	auipc	a0,0x3
   10248:	eee50513          	addi	a0,a0,-274 # 13132 <end_signature+0xe2>
   1024c:	5b5010ef          	jal	ra,12000 <FN_WriteStr>
   10250:	00008513          	mv	a0,ra
   10254:	5c9010ef          	jal	ra,1201c <FN_WriteA0>
   10258:	00003517          	auipc	a0,0x3
   1025c:	edc50513          	addi	a0,a0,-292 # 13134 <end_signature+0xe4>
   10260:	5a1010ef          	jal	ra,12000 <FN_WriteStr>
   10264:	00003517          	auipc	a0,0x3
   10268:	ed650513          	addi	a0,a0,-298 # 1313a <end_signature+0xea>
   1026c:	595010ef          	jal	ra,12000 <FN_WriteStr>
   10270:	00003517          	auipc	a0,0x3
   10274:	ed550513          	addi	a0,a0,-299 # 13145 <end_signature+0xf5>
   10278:	589010ef          	jal	ra,12000 <FN_WriteStr>
   1027c:	06400193          	li	gp,100
   10280:	0000100f          	fence.i
   10284:	00018063          	beqz	gp,10284 <reset_vector+0x238>
   10288:	00119193          	slli	gp,gp,0x1
   1028c:	0011e193          	ori	gp,gp,1
   10290:	00000073          	ecall
   10294:	000012b7          	lui	t0,0x1
   10298:	08518e63          	beq	gp,t0,10334 <reset_vector+0x2e8>
   1029c:	00003517          	auipc	a0,0x3
   102a0:	eab50513          	addi	a0,a0,-341 # 13147 <end_signature+0xf7>
   102a4:	55d010ef          	jal	ra,12000 <FN_WriteStr>
   102a8:	00003517          	auipc	a0,0x3
   102ac:	eba50513          	addi	a0,a0,-326 # 13162 <end_signature+0x112>
   102b0:	551010ef          	jal	ra,12000 <FN_WriteStr>
   102b4:	00003517          	auipc	a0,0x3
   102b8:	ebd50513          	addi	a0,a0,-323 # 13171 <end_signature+0x121>
   102bc:	545010ef          	jal	ra,12000 <FN_WriteStr>
   102c0:	00003517          	auipc	a0,0x3
   102c4:	eb950513          	addi	a0,a0,-327 # 13179 <end_signature+0x129>
   102c8:	539010ef          	jal	ra,12000 <FN_WriteStr>
   102cc:	00003517          	auipc	a0,0x3
   102d0:	eb050513          	addi	a0,a0,-336 # 1317c <end_signature+0x12c>
   102d4:	52d010ef          	jal	ra,12000 <FN_WriteStr>
   102d8:	00003517          	auipc	a0,0x3
   102dc:	ea750513          	addi	a0,a0,-345 # 1317f <end_signature+0x12f>
   102e0:	521010ef          	jal	ra,12000 <FN_WriteStr>
   102e4:	00003517          	auipc	a0,0x3
   102e8:	e9e50513          	addi	a0,a0,-354 # 13182 <end_signature+0x132>
   102ec:	515010ef          	jal	ra,12000 <FN_WriteStr>
   102f0:	00018513          	mv	a0,gp
   102f4:	529010ef          	jal	ra,1201c <FN_WriteA0>
   102f8:	00003517          	auipc	a0,0x3
   102fc:	e8c50513          	addi	a0,a0,-372 # 13184 <end_signature+0x134>
   10300:	501010ef          	jal	ra,12000 <FN_WriteStr>
   10304:	00003517          	auipc	a0,0x3
   10308:	e8650513          	addi	a0,a0,-378 # 1318a <end_signature+0x13a>
   1030c:	4f5010ef          	jal	ra,12000 <FN_WriteStr>
   10310:	00003517          	auipc	a0,0x3
   10314:	e8550513          	addi	a0,a0,-379 # 13195 <end_signature+0x145>
   10318:	4e9010ef          	jal	ra,12000 <FN_WriteStr>
   1031c:	06400193          	li	gp,100
   10320:	0000100f          	fence.i
   10324:	00018063          	beqz	gp,10324 <reset_vector+0x2d8>
   10328:	00119193          	slli	gp,gp,0x1
   1032c:	0011e193          	ori	gp,gp,1
   10330:	00000073          	ecall
   10334:	00000293          	li	t0,0
   10338:	08528e63          	beq	t0,t0,103d4 <reset_vector+0x388>
   1033c:	00003517          	auipc	a0,0x3
   10340:	e5b50513          	addi	a0,a0,-421 # 13197 <end_signature+0x147>
   10344:	4bd010ef          	jal	ra,12000 <FN_WriteStr>
   10348:	00003517          	auipc	a0,0x3
   1034c:	e6a50513          	addi	a0,a0,-406 # 131b2 <end_signature+0x162>
   10350:	4b1010ef          	jal	ra,12000 <FN_WriteStr>
   10354:	00003517          	auipc	a0,0x3
   10358:	e6d50513          	addi	a0,a0,-403 # 131c1 <end_signature+0x171>
   1035c:	4a5010ef          	jal	ra,12000 <FN_WriteStr>
   10360:	00003517          	auipc	a0,0x3
   10364:	e6950513          	addi	a0,a0,-407 # 131c9 <end_signature+0x179>
   10368:	499010ef          	jal	ra,12000 <FN_WriteStr>
   1036c:	00003517          	auipc	a0,0x3
   10370:	e6050513          	addi	a0,a0,-416 # 131cc <end_signature+0x17c>
   10374:	48d010ef          	jal	ra,12000 <FN_WriteStr>
   10378:	00003517          	auipc	a0,0x3
   1037c:	e5750513          	addi	a0,a0,-425 # 131cf <end_signature+0x17f>
   10380:	481010ef          	jal	ra,12000 <FN_WriteStr>
   10384:	00003517          	auipc	a0,0x3
   10388:	e4e50513          	addi	a0,a0,-434 # 131d2 <end_signature+0x182>
   1038c:	475010ef          	jal	ra,12000 <FN_WriteStr>
   10390:	00028513          	mv	a0,t0
   10394:	489010ef          	jal	ra,1201c <FN_WriteA0>
   10398:	00003517          	auipc	a0,0x3
   1039c:	e3c50513          	addi	a0,a0,-452 # 131d4 <end_signature+0x184>
   103a0:	461010ef          	jal	ra,12000 <FN_WriteStr>
   103a4:	00003517          	auipc	a0,0x3
   103a8:	e3650513          	addi	a0,a0,-458 # 131da <end_signature+0x18a>
   103ac:	455010ef          	jal	ra,12000 <FN_WriteStr>
   103b0:	00003517          	auipc	a0,0x3
   103b4:	e3550513          	addi	a0,a0,-459 # 131e5 <end_signature+0x195>
   103b8:	449010ef          	jal	ra,12000 <FN_WriteStr>
   103bc:	06400193          	li	gp,100
   103c0:	0000100f          	fence.i
   103c4:	00018063          	beqz	gp,103c4 <reset_vector+0x378>
   103c8:	00119193          	slli	gp,gp,0x1
   103cc:	0011e193          	ori	gp,gp,1
   103d0:	00000073          	ecall
   103d4:	7ffff2b7          	lui	t0,0x7ffff
   103d8:	085e8e63          	beq	t4,t0,10474 <reset_vector+0x428>
   103dc:	00003517          	auipc	a0,0x3
   103e0:	e0b50513          	addi	a0,a0,-501 # 131e7 <end_signature+0x197>
   103e4:	41d010ef          	jal	ra,12000 <FN_WriteStr>
   103e8:	00003517          	auipc	a0,0x3
   103ec:	e1a50513          	addi	a0,a0,-486 # 13202 <end_signature+0x1b2>
   103f0:	411010ef          	jal	ra,12000 <FN_WriteStr>
   103f4:	00003517          	auipc	a0,0x3
   103f8:	e1d50513          	addi	a0,a0,-483 # 13211 <end_signature+0x1c1>
   103fc:	405010ef          	jal	ra,12000 <FN_WriteStr>
   10400:	00003517          	auipc	a0,0x3
   10404:	e1950513          	addi	a0,a0,-487 # 13219 <end_signature+0x1c9>
   10408:	3f9010ef          	jal	ra,12000 <FN_WriteStr>
   1040c:	00003517          	auipc	a0,0x3
   10410:	e1050513          	addi	a0,a0,-496 # 1321c <end_signature+0x1cc>
   10414:	3ed010ef          	jal	ra,12000 <FN_WriteStr>
   10418:	00003517          	auipc	a0,0x3
   1041c:	e0750513          	addi	a0,a0,-505 # 1321f <end_signature+0x1cf>
   10420:	3e1010ef          	jal	ra,12000 <FN_WriteStr>
   10424:	00003517          	auipc	a0,0x3
   10428:	dff50513          	addi	a0,a0,-513 # 13223 <end_signature+0x1d3>
   1042c:	3d5010ef          	jal	ra,12000 <FN_WriteStr>
   10430:	000e8513          	mv	a0,t4
   10434:	3e9010ef          	jal	ra,1201c <FN_WriteA0>
   10438:	00003517          	auipc	a0,0x3
   1043c:	ded50513          	addi	a0,a0,-531 # 13225 <end_signature+0x1d5>
   10440:	3c1010ef          	jal	ra,12000 <FN_WriteStr>
   10444:	00003517          	auipc	a0,0x3
   10448:	de750513          	addi	a0,a0,-537 # 1322b <end_signature+0x1db>
   1044c:	3b5010ef          	jal	ra,12000 <FN_WriteStr>
   10450:	00003517          	auipc	a0,0x3
   10454:	de650513          	addi	a0,a0,-538 # 13236 <end_signature+0x1e6>
   10458:	3a9010ef          	jal	ra,12000 <FN_WriteStr>
   1045c:	06400193          	li	gp,100
   10460:	0000100f          	fence.i
   10464:	00018063          	beqz	gp,10464 <reset_vector+0x418>
   10468:	00119193          	slli	gp,gp,0x1
   1046c:	0011e193          	ori	gp,gp,1
   10470:	00000073          	ecall
   10474:	800002b7          	lui	t0,0x80000
   10478:	085f8e63          	beq	t6,t0,10514 <reset_vector+0x4c8>
   1047c:	00003517          	auipc	a0,0x3
   10480:	dbc50513          	addi	a0,a0,-580 # 13238 <end_signature+0x1e8>
   10484:	37d010ef          	jal	ra,12000 <FN_WriteStr>
   10488:	00003517          	auipc	a0,0x3
   1048c:	dcb50513          	addi	a0,a0,-565 # 13253 <end_signature+0x203>
   10490:	371010ef          	jal	ra,12000 <FN_WriteStr>
   10494:	00003517          	auipc	a0,0x3
   10498:	dce50513          	addi	a0,a0,-562 # 13262 <end_signature+0x212>
   1049c:	365010ef          	jal	ra,12000 <FN_WriteStr>
   104a0:	00003517          	auipc	a0,0x3
   104a4:	dca50513          	addi	a0,a0,-566 # 1326a <end_signature+0x21a>
   104a8:	359010ef          	jal	ra,12000 <FN_WriteStr>
   104ac:	00003517          	auipc	a0,0x3
   104b0:	dc150513          	addi	a0,a0,-575 # 1326d <end_signature+0x21d>
   104b4:	34d010ef          	jal	ra,12000 <FN_WriteStr>
   104b8:	00003517          	auipc	a0,0x3
   104bc:	db850513          	addi	a0,a0,-584 # 13270 <end_signature+0x220>
   104c0:	341010ef          	jal	ra,12000 <FN_WriteStr>
   104c4:	00003517          	auipc	a0,0x3
   104c8:	db050513          	addi	a0,a0,-592 # 13274 <end_signature+0x224>
   104cc:	335010ef          	jal	ra,12000 <FN_WriteStr>
   104d0:	000f8513          	mv	a0,t6
   104d4:	349010ef          	jal	ra,1201c <FN_WriteA0>
   104d8:	00003517          	auipc	a0,0x3
   104dc:	d9e50513          	addi	a0,a0,-610 # 13276 <end_signature+0x226>
   104e0:	321010ef          	jal	ra,12000 <FN_WriteStr>
   104e4:	00003517          	auipc	a0,0x3
   104e8:	d9850513          	addi	a0,a0,-616 # 1327c <end_signature+0x22c>
   104ec:	315010ef          	jal	ra,12000 <FN_WriteStr>
   104f0:	00003517          	auipc	a0,0x3
   104f4:	d9750513          	addi	a0,a0,-617 # 13287 <end_signature+0x237>
   104f8:	309010ef          	jal	ra,12000 <FN_WriteStr>
   104fc:	06400193          	li	gp,100
   10500:	0000100f          	fence.i
   10504:	00018063          	beqz	gp,10504 <reset_vector+0x4b8>
   10508:	00119193          	slli	gp,gp,0x1
   1050c:	0011e193          	ori	gp,gp,1
   10510:	00000073          	ecall
   10514:	00003517          	auipc	a0,0x3
   10518:	d7550513          	addi	a0,a0,-651 # 13289 <end_signature+0x239>
   1051c:	2e5010ef          	jal	ra,12000 <FN_WriteStr>
   10520:	00003517          	auipc	a0,0x3
   10524:	d8550513          	addi	a0,a0,-635 # 132a5 <end_signature+0x255>
   10528:	2d9010ef          	jal	ra,12000 <FN_WriteStr>
   1052c:	00003797          	auipc	a5,0x3
   10530:	ad478793          	addi	a5,a5,-1324 # 13000 <test_B_data>
   10534:	00003817          	auipc	a6,0x3
   10538:	af080813          	addi	a6,a6,-1296 # 13024 <test_B_res>
   1053c:	0007a103          	lw	sp,0(a5)
   10540:	0007a203          	lw	tp,0(a5)
   10544:	0007a303          	lw	t1,0(a5)
   10548:	0007ae03          	lw	t3,0(a5)
   1054c:	0007af03          	lw	t5,0(a5)
   10550:	80000137          	lui	sp,0x80000
   10554:	7ffff237          	lui	tp,0x7ffff
   10558:	00000337          	lui	t1,0x0
   1055c:	00001e37          	lui	t3,0x1
   10560:	ffffff37          	lui	t5,0xfffff
   10564:	00282023          	sw	sp,0(a6)
   10568:	00482223          	sw	tp,4(a6)
   1056c:	00682423          	sw	t1,8(a6)
   10570:	01c82623          	sw	t3,12(a6)
   10574:	01e82823          	sw	t5,16(a6)
   10578:	800002b7          	lui	t0,0x80000
   1057c:	08510e63          	beq	sp,t0,10618 <reset_vector+0x5cc>
   10580:	00003517          	auipc	a0,0x3
   10584:	d5350513          	addi	a0,a0,-685 # 132d3 <end_signature+0x283>
   10588:	279010ef          	jal	ra,12000 <FN_WriteStr>
   1058c:	00003517          	auipc	a0,0x3
   10590:	d6250513          	addi	a0,a0,-670 # 132ee <end_signature+0x29e>
   10594:	26d010ef          	jal	ra,12000 <FN_WriteStr>
   10598:	00003517          	auipc	a0,0x3
   1059c:	d6550513          	addi	a0,a0,-667 # 132fd <end_signature+0x2ad>
   105a0:	261010ef          	jal	ra,12000 <FN_WriteStr>
   105a4:	00003517          	auipc	a0,0x3
   105a8:	d6150513          	addi	a0,a0,-671 # 13305 <end_signature+0x2b5>
   105ac:	255010ef          	jal	ra,12000 <FN_WriteStr>
   105b0:	00003517          	auipc	a0,0x3
   105b4:	d5950513          	addi	a0,a0,-679 # 13309 <end_signature+0x2b9>
   105b8:	249010ef          	jal	ra,12000 <FN_WriteStr>
   105bc:	00003517          	auipc	a0,0x3
   105c0:	d5050513          	addi	a0,a0,-688 # 1330c <end_signature+0x2bc>
   105c4:	23d010ef          	jal	ra,12000 <FN_WriteStr>
   105c8:	00003517          	auipc	a0,0x3
   105cc:	d4750513          	addi	a0,a0,-697 # 1330f <end_signature+0x2bf>
   105d0:	231010ef          	jal	ra,12000 <FN_WriteStr>
   105d4:	00010513          	mv	a0,sp
   105d8:	245010ef          	jal	ra,1201c <FN_WriteA0>
   105dc:	00003517          	auipc	a0,0x3
   105e0:	d3550513          	addi	a0,a0,-715 # 13311 <end_signature+0x2c1>
   105e4:	21d010ef          	jal	ra,12000 <FN_WriteStr>
   105e8:	00003517          	auipc	a0,0x3
   105ec:	d2f50513          	addi	a0,a0,-721 # 13317 <end_signature+0x2c7>
   105f0:	211010ef          	jal	ra,12000 <FN_WriteStr>
   105f4:	00003517          	auipc	a0,0x3
   105f8:	d2e50513          	addi	a0,a0,-722 # 13322 <end_signature+0x2d2>
   105fc:	205010ef          	jal	ra,12000 <FN_WriteStr>
   10600:	06400193          	li	gp,100
   10604:	0000100f          	fence.i
   10608:	00018063          	beqz	gp,10608 <reset_vector+0x5bc>
   1060c:	00119193          	slli	gp,gp,0x1
   10610:	0011e193          	ori	gp,gp,1
   10614:	00000073          	ecall
   10618:	7ffff2b7          	lui	t0,0x7ffff
   1061c:	08520e63          	beq	tp,t0,106b8 <reset_vector+0x66c>
   10620:	00003517          	auipc	a0,0x3
   10624:	d0450513          	addi	a0,a0,-764 # 13324 <end_signature+0x2d4>
   10628:	1d9010ef          	jal	ra,12000 <FN_WriteStr>
   1062c:	00003517          	auipc	a0,0x3
   10630:	d1350513          	addi	a0,a0,-749 # 1333f <end_signature+0x2ef>
   10634:	1cd010ef          	jal	ra,12000 <FN_WriteStr>
   10638:	00003517          	auipc	a0,0x3
   1063c:	d1650513          	addi	a0,a0,-746 # 1334e <end_signature+0x2fe>
   10640:	1c1010ef          	jal	ra,12000 <FN_WriteStr>
   10644:	00003517          	auipc	a0,0x3
   10648:	d1250513          	addi	a0,a0,-750 # 13356 <end_signature+0x306>
   1064c:	1b5010ef          	jal	ra,12000 <FN_WriteStr>
   10650:	00003517          	auipc	a0,0x3
   10654:	d0a50513          	addi	a0,a0,-758 # 1335a <end_signature+0x30a>
   10658:	1a9010ef          	jal	ra,12000 <FN_WriteStr>
   1065c:	00003517          	auipc	a0,0x3
   10660:	d0150513          	addi	a0,a0,-767 # 1335d <end_signature+0x30d>
   10664:	19d010ef          	jal	ra,12000 <FN_WriteStr>
   10668:	00003517          	auipc	a0,0x3
   1066c:	cf850513          	addi	a0,a0,-776 # 13360 <end_signature+0x310>
   10670:	191010ef          	jal	ra,12000 <FN_WriteStr>
   10674:	00020513          	mv	a0,tp
   10678:	1a5010ef          	jal	ra,1201c <FN_WriteA0>
   1067c:	00003517          	auipc	a0,0x3
   10680:	ce650513          	addi	a0,a0,-794 # 13362 <end_signature+0x312>
   10684:	17d010ef          	jal	ra,12000 <FN_WriteStr>
   10688:	00003517          	auipc	a0,0x3
   1068c:	ce050513          	addi	a0,a0,-800 # 13368 <end_signature+0x318>
   10690:	171010ef          	jal	ra,12000 <FN_WriteStr>
   10694:	00003517          	auipc	a0,0x3
   10698:	cdf50513          	addi	a0,a0,-801 # 13373 <end_signature+0x323>
   1069c:	165010ef          	jal	ra,12000 <FN_WriteStr>
   106a0:	06400193          	li	gp,100
   106a4:	0000100f          	fence.i
   106a8:	00018063          	beqz	gp,106a8 <reset_vector+0x65c>
   106ac:	00119193          	slli	gp,gp,0x1
   106b0:	0011e193          	ori	gp,gp,1
   106b4:	00000073          	ecall
   106b8:	00000293          	li	t0,0
   106bc:	08530e63          	beq	t1,t0,10758 <reset_vector+0x70c>
   106c0:	00003517          	auipc	a0,0x3
   106c4:	cb550513          	addi	a0,a0,-843 # 13375 <end_signature+0x325>
   106c8:	139010ef          	jal	ra,12000 <FN_WriteStr>
   106cc:	00003517          	auipc	a0,0x3
   106d0:	cc450513          	addi	a0,a0,-828 # 13390 <end_signature+0x340>
   106d4:	12d010ef          	jal	ra,12000 <FN_WriteStr>
   106d8:	00003517          	auipc	a0,0x3
   106dc:	cc750513          	addi	a0,a0,-825 # 1339f <end_signature+0x34f>
   106e0:	121010ef          	jal	ra,12000 <FN_WriteStr>
   106e4:	00003517          	auipc	a0,0x3
   106e8:	cc350513          	addi	a0,a0,-829 # 133a7 <end_signature+0x357>
   106ec:	115010ef          	jal	ra,12000 <FN_WriteStr>
   106f0:	00003517          	auipc	a0,0x3
   106f4:	cbb50513          	addi	a0,a0,-837 # 133ab <end_signature+0x35b>
   106f8:	109010ef          	jal	ra,12000 <FN_WriteStr>
   106fc:	00003517          	auipc	a0,0x3
   10700:	cb250513          	addi	a0,a0,-846 # 133ae <end_signature+0x35e>
   10704:	0fd010ef          	jal	ra,12000 <FN_WriteStr>
   10708:	00003517          	auipc	a0,0x3
   1070c:	ca950513          	addi	a0,a0,-855 # 133b1 <end_signature+0x361>
   10710:	0f1010ef          	jal	ra,12000 <FN_WriteStr>
   10714:	00030513          	mv	a0,t1
   10718:	105010ef          	jal	ra,1201c <FN_WriteA0>
   1071c:	00003517          	auipc	a0,0x3
   10720:	c9750513          	addi	a0,a0,-873 # 133b3 <end_signature+0x363>
   10724:	0dd010ef          	jal	ra,12000 <FN_WriteStr>
   10728:	00003517          	auipc	a0,0x3
   1072c:	c9150513          	addi	a0,a0,-879 # 133b9 <end_signature+0x369>
   10730:	0d1010ef          	jal	ra,12000 <FN_WriteStr>
   10734:	00003517          	auipc	a0,0x3
   10738:	c9050513          	addi	a0,a0,-880 # 133c4 <end_signature+0x374>
   1073c:	0c5010ef          	jal	ra,12000 <FN_WriteStr>
   10740:	06400193          	li	gp,100
   10744:	0000100f          	fence.i
   10748:	00018063          	beqz	gp,10748 <reset_vector+0x6fc>
   1074c:	00119193          	slli	gp,gp,0x1
   10750:	0011e193          	ori	gp,gp,1
   10754:	00000073          	ecall
   10758:	000012b7          	lui	t0,0x1
   1075c:	085e0e63          	beq	t3,t0,107f8 <reset_vector+0x7ac>
   10760:	00003517          	auipc	a0,0x3
   10764:	c6650513          	addi	a0,a0,-922 # 133c6 <end_signature+0x376>
   10768:	099010ef          	jal	ra,12000 <FN_WriteStr>
   1076c:	00003517          	auipc	a0,0x3
   10770:	c7550513          	addi	a0,a0,-907 # 133e1 <end_signature+0x391>
   10774:	08d010ef          	jal	ra,12000 <FN_WriteStr>
   10778:	00003517          	auipc	a0,0x3
   1077c:	c7850513          	addi	a0,a0,-904 # 133f0 <end_signature+0x3a0>
   10780:	081010ef          	jal	ra,12000 <FN_WriteStr>
   10784:	00003517          	auipc	a0,0x3
   10788:	c7450513          	addi	a0,a0,-908 # 133f8 <end_signature+0x3a8>
   1078c:	075010ef          	jal	ra,12000 <FN_WriteStr>
   10790:	00003517          	auipc	a0,0x3
   10794:	c6c50513          	addi	a0,a0,-916 # 133fc <end_signature+0x3ac>
   10798:	069010ef          	jal	ra,12000 <FN_WriteStr>
   1079c:	00003517          	auipc	a0,0x3
   107a0:	c6350513          	addi	a0,a0,-925 # 133ff <end_signature+0x3af>
   107a4:	05d010ef          	jal	ra,12000 <FN_WriteStr>
   107a8:	00003517          	auipc	a0,0x3
   107ac:	c5b50513          	addi	a0,a0,-933 # 13403 <end_signature+0x3b3>
   107b0:	051010ef          	jal	ra,12000 <FN_WriteStr>
   107b4:	000e0513          	mv	a0,t3
   107b8:	065010ef          	jal	ra,1201c <FN_WriteA0>
   107bc:	00003517          	auipc	a0,0x3
   107c0:	c4950513          	addi	a0,a0,-951 # 13405 <end_signature+0x3b5>
   107c4:	03d010ef          	jal	ra,12000 <FN_WriteStr>
   107c8:	00003517          	auipc	a0,0x3
   107cc:	c4350513          	addi	a0,a0,-957 # 1340b <end_signature+0x3bb>
   107d0:	031010ef          	jal	ra,12000 <FN_WriteStr>
   107d4:	00003517          	auipc	a0,0x3
   107d8:	c4250513          	addi	a0,a0,-958 # 13416 <end_signature+0x3c6>
   107dc:	025010ef          	jal	ra,12000 <FN_WriteStr>
   107e0:	06400193          	li	gp,100
   107e4:	0000100f          	fence.i
   107e8:	00018063          	beqz	gp,107e8 <reset_vector+0x79c>
   107ec:	00119193          	slli	gp,gp,0x1
   107f0:	0011e193          	ori	gp,gp,1
   107f4:	00000073          	ecall
   107f8:	fffff2b7          	lui	t0,0xfffff
   107fc:	085f0e63          	beq	t5,t0,10898 <reset_vector+0x84c>
   10800:	00003517          	auipc	a0,0x3
   10804:	c1850513          	addi	a0,a0,-1000 # 13418 <end_signature+0x3c8>
   10808:	7f8010ef          	jal	ra,12000 <FN_WriteStr>
   1080c:	00003517          	auipc	a0,0x3
   10810:	c2750513          	addi	a0,a0,-985 # 13433 <end_signature+0x3e3>
   10814:	7ec010ef          	jal	ra,12000 <FN_WriteStr>
   10818:	00003517          	auipc	a0,0x3
   1081c:	c2a50513          	addi	a0,a0,-982 # 13442 <end_signature+0x3f2>
   10820:	7e0010ef          	jal	ra,12000 <FN_WriteStr>
   10824:	00003517          	auipc	a0,0x3
   10828:	c2650513          	addi	a0,a0,-986 # 1344a <end_signature+0x3fa>
   1082c:	7d4010ef          	jal	ra,12000 <FN_WriteStr>
   10830:	00003517          	auipc	a0,0x3
   10834:	c1e50513          	addi	a0,a0,-994 # 1344e <end_signature+0x3fe>
   10838:	7c8010ef          	jal	ra,12000 <FN_WriteStr>
   1083c:	00003517          	auipc	a0,0x3
   10840:	c1550513          	addi	a0,a0,-1003 # 13451 <end_signature+0x401>
   10844:	7bc010ef          	jal	ra,12000 <FN_WriteStr>
   10848:	00003517          	auipc	a0,0x3
   1084c:	c0d50513          	addi	a0,a0,-1011 # 13455 <end_signature+0x405>
   10850:	7b0010ef          	jal	ra,12000 <FN_WriteStr>
   10854:	000f0513          	mv	a0,t5
   10858:	7c4010ef          	jal	ra,1201c <FN_WriteA0>
   1085c:	00003517          	auipc	a0,0x3
   10860:	bfb50513          	addi	a0,a0,-1029 # 13457 <end_signature+0x407>
   10864:	79c010ef          	jal	ra,12000 <FN_WriteStr>
   10868:	00003517          	auipc	a0,0x3
   1086c:	bf550513          	addi	a0,a0,-1035 # 1345d <end_signature+0x40d>
   10870:	790010ef          	jal	ra,12000 <FN_WriteStr>
   10874:	00003517          	auipc	a0,0x3
   10878:	bf450513          	addi	a0,a0,-1036 # 13468 <end_signature+0x418>
   1087c:	784010ef          	jal	ra,12000 <FN_WriteStr>
   10880:	06400193          	li	gp,100
   10884:	0000100f          	fence.i
   10888:	00018063          	beqz	gp,10888 <reset_vector+0x83c>
   1088c:	00119193          	slli	gp,gp,0x1
   10890:	0011e193          	ori	gp,gp,1
   10894:	00000073          	ecall
   10898:	00003517          	auipc	a0,0x3
   1089c:	bd250513          	addi	a0,a0,-1070 # 1346a <end_signature+0x41a>
   108a0:	760010ef          	jal	ra,12000 <FN_WriteStr>
   108a4:	00003517          	auipc	a0,0x3
   108a8:	be250513          	addi	a0,a0,-1054 # 13486 <end_signature+0x436>
   108ac:	754010ef          	jal	ra,12000 <FN_WriteStr>
   108b0:	00002897          	auipc	a7,0x2
   108b4:	78888893          	addi	a7,a7,1928 # 13038 <test_C_res>
   108b8:	427270b7          	lui	ra,0x42727
   108bc:	e6f08093          	addi	ra,ra,-401 # 42726e6f <_end+0x427137e3>
   108c0:	123457b7          	lui	a5,0x12345
   108c4:	67878793          	addi	a5,a5,1656 # 12345678 <_end+0x12331fec>
   108c8:	9abcef37          	lui	t5,0x9abce
   108cc:	ef0f0f13          	addi	t5,t5,-272 # 9abcdef0 <_end+0x9abba864>
   108d0:	42727137          	lui	sp,0x42727
   108d4:	e6f10113          	addi	sp,sp,-401 # 42726e6f <_end+0x427137e3>
   108d8:	12345837          	lui	a6,0x12345
   108dc:	67880813          	addi	a6,a6,1656 # 12345678 <_end+0x12331fec>
   108e0:	9abcefb7          	lui	t6,0x9abce
   108e4:	ef0f8f93          	addi	t6,t6,-272 # 9abcdef0 <_end+0x9abba864>
   108e8:	0018a023          	sw	ra,0(a7)
   108ec:	00f8a223          	sw	a5,4(a7)
   108f0:	01e8a423          	sw	t5,8(a7)
   108f4:	0028a623          	sw	sp,12(a7)
   108f8:	0108a823          	sw	a6,16(a7)
   108fc:	01f8aa23          	sw	t6,20(a7)
   10900:	123452b7          	lui	t0,0x12345
   10904:	67828293          	addi	t0,t0,1656 # 12345678 <_end+0x12331fec>
   10908:	08578e63          	beq	a5,t0,109a4 <reset_vector+0x958>
   1090c:	00003517          	auipc	a0,0x3
   10910:	bbf50513          	addi	a0,a0,-1089 # 134cb <end_signature+0x47b>
   10914:	6ec010ef          	jal	ra,12000 <FN_WriteStr>
   10918:	00003517          	auipc	a0,0x3
   1091c:	bce50513          	addi	a0,a0,-1074 # 134e6 <end_signature+0x496>
   10920:	6e0010ef          	jal	ra,12000 <FN_WriteStr>
   10924:	00003517          	auipc	a0,0x3
   10928:	bd150513          	addi	a0,a0,-1071 # 134f5 <end_signature+0x4a5>
   1092c:	6d4010ef          	jal	ra,12000 <FN_WriteStr>
   10930:	00003517          	auipc	a0,0x3
   10934:	bcd50513          	addi	a0,a0,-1075 # 134fd <end_signature+0x4ad>
   10938:	6c8010ef          	jal	ra,12000 <FN_WriteStr>
   1093c:	00003517          	auipc	a0,0x3
   10940:	bc550513          	addi	a0,a0,-1083 # 13501 <end_signature+0x4b1>
   10944:	6bc010ef          	jal	ra,12000 <FN_WriteStr>
   10948:	00003517          	auipc	a0,0x3
   1094c:	bbc50513          	addi	a0,a0,-1092 # 13504 <end_signature+0x4b4>
   10950:	6b0010ef          	jal	ra,12000 <FN_WriteStr>
   10954:	00003517          	auipc	a0,0x3
   10958:	bb450513          	addi	a0,a0,-1100 # 13508 <end_signature+0x4b8>
   1095c:	6a4010ef          	jal	ra,12000 <FN_WriteStr>
   10960:	00078513          	mv	a0,a5
   10964:	6b8010ef          	jal	ra,1201c <FN_WriteA0>
   10968:	00003517          	auipc	a0,0x3
   1096c:	ba250513          	addi	a0,a0,-1118 # 1350a <end_signature+0x4ba>
   10970:	690010ef          	jal	ra,12000 <FN_WriteStr>
   10974:	00003517          	auipc	a0,0x3
   10978:	b9c50513          	addi	a0,a0,-1124 # 13510 <end_signature+0x4c0>
   1097c:	684010ef          	jal	ra,12000 <FN_WriteStr>
   10980:	00003517          	auipc	a0,0x3
   10984:	b9b50513          	addi	a0,a0,-1125 # 1351b <end_signature+0x4cb>
   10988:	678010ef          	jal	ra,12000 <FN_WriteStr>
   1098c:	06400193          	li	gp,100
   10990:	0000100f          	fence.i
   10994:	00018063          	beqz	gp,10994 <reset_vector+0x948>
   10998:	00119193          	slli	gp,gp,0x1
   1099c:	0011e193          	ori	gp,gp,1
   109a0:	00000073          	ecall
   109a4:	9abce2b7          	lui	t0,0x9abce
   109a8:	ef028293          	addi	t0,t0,-272 # 9abcdef0 <_end+0x9abba864>
   109ac:	085f0e63          	beq	t5,t0,10a48 <reset_vector+0x9fc>
   109b0:	00003517          	auipc	a0,0x3
   109b4:	b6d50513          	addi	a0,a0,-1171 # 1351d <end_signature+0x4cd>
   109b8:	648010ef          	jal	ra,12000 <FN_WriteStr>
   109bc:	00003517          	auipc	a0,0x3
   109c0:	b7c50513          	addi	a0,a0,-1156 # 13538 <end_signature+0x4e8>
   109c4:	63c010ef          	jal	ra,12000 <FN_WriteStr>
   109c8:	00003517          	auipc	a0,0x3
   109cc:	b7f50513          	addi	a0,a0,-1153 # 13547 <end_signature+0x4f7>
   109d0:	630010ef          	jal	ra,12000 <FN_WriteStr>
   109d4:	00003517          	auipc	a0,0x3
   109d8:	b7b50513          	addi	a0,a0,-1157 # 1354f <end_signature+0x4ff>
   109dc:	624010ef          	jal	ra,12000 <FN_WriteStr>
   109e0:	00003517          	auipc	a0,0x3
   109e4:	b7350513          	addi	a0,a0,-1165 # 13553 <end_signature+0x503>
   109e8:	618010ef          	jal	ra,12000 <FN_WriteStr>
   109ec:	00003517          	auipc	a0,0x3
   109f0:	b6a50513          	addi	a0,a0,-1174 # 13556 <end_signature+0x506>
   109f4:	60c010ef          	jal	ra,12000 <FN_WriteStr>
   109f8:	00003517          	auipc	a0,0x3
   109fc:	b6250513          	addi	a0,a0,-1182 # 1355a <end_signature+0x50a>
   10a00:	600010ef          	jal	ra,12000 <FN_WriteStr>
   10a04:	000f0513          	mv	a0,t5
   10a08:	614010ef          	jal	ra,1201c <FN_WriteA0>
   10a0c:	00003517          	auipc	a0,0x3
   10a10:	b5050513          	addi	a0,a0,-1200 # 1355c <end_signature+0x50c>
   10a14:	5ec010ef          	jal	ra,12000 <FN_WriteStr>
   10a18:	00003517          	auipc	a0,0x3
   10a1c:	b4a50513          	addi	a0,a0,-1206 # 13562 <end_signature+0x512>
   10a20:	5e0010ef          	jal	ra,12000 <FN_WriteStr>
   10a24:	00003517          	auipc	a0,0x3
   10a28:	b4950513          	addi	a0,a0,-1207 # 1356d <end_signature+0x51d>
   10a2c:	5d4010ef          	jal	ra,12000 <FN_WriteStr>
   10a30:	06400193          	li	gp,100
   10a34:	0000100f          	fence.i
   10a38:	00018063          	beqz	gp,10a38 <reset_vector+0x9ec>
   10a3c:	00119193          	slli	gp,gp,0x1
   10a40:	0011e193          	ori	gp,gp,1
   10a44:	00000073          	ecall
   10a48:	427272b7          	lui	t0,0x42727
   10a4c:	e6f28293          	addi	t0,t0,-401 # 42726e6f <_end+0x427137e3>
   10a50:	08510e63          	beq	sp,t0,10aec <reset_vector+0xaa0>
   10a54:	00003517          	auipc	a0,0x3
   10a58:	b1b50513          	addi	a0,a0,-1253 # 1356f <end_signature+0x51f>
   10a5c:	5a4010ef          	jal	ra,12000 <FN_WriteStr>
   10a60:	00003517          	auipc	a0,0x3
   10a64:	b2a50513          	addi	a0,a0,-1238 # 1358a <end_signature+0x53a>
   10a68:	598010ef          	jal	ra,12000 <FN_WriteStr>
   10a6c:	00003517          	auipc	a0,0x3
   10a70:	b2d50513          	addi	a0,a0,-1235 # 13599 <end_signature+0x549>
   10a74:	58c010ef          	jal	ra,12000 <FN_WriteStr>
   10a78:	00003517          	auipc	a0,0x3
   10a7c:	b2950513          	addi	a0,a0,-1239 # 135a1 <end_signature+0x551>
   10a80:	580010ef          	jal	ra,12000 <FN_WriteStr>
   10a84:	00003517          	auipc	a0,0x3
   10a88:	b2150513          	addi	a0,a0,-1247 # 135a5 <end_signature+0x555>
   10a8c:	574010ef          	jal	ra,12000 <FN_WriteStr>
   10a90:	00003517          	auipc	a0,0x3
   10a94:	b1850513          	addi	a0,a0,-1256 # 135a8 <end_signature+0x558>
   10a98:	568010ef          	jal	ra,12000 <FN_WriteStr>
   10a9c:	00003517          	auipc	a0,0x3
   10aa0:	b0f50513          	addi	a0,a0,-1265 # 135ab <end_signature+0x55b>
   10aa4:	55c010ef          	jal	ra,12000 <FN_WriteStr>
   10aa8:	00010513          	mv	a0,sp
   10aac:	570010ef          	jal	ra,1201c <FN_WriteA0>
   10ab0:	00003517          	auipc	a0,0x3
   10ab4:	afd50513          	addi	a0,a0,-1283 # 135ad <end_signature+0x55d>
   10ab8:	548010ef          	jal	ra,12000 <FN_WriteStr>
   10abc:	00003517          	auipc	a0,0x3
   10ac0:	af750513          	addi	a0,a0,-1289 # 135b3 <end_signature+0x563>
   10ac4:	53c010ef          	jal	ra,12000 <FN_WriteStr>
   10ac8:	00003517          	auipc	a0,0x3
   10acc:	af650513          	addi	a0,a0,-1290 # 135be <end_signature+0x56e>
   10ad0:	530010ef          	jal	ra,12000 <FN_WriteStr>
   10ad4:	06400193          	li	gp,100
   10ad8:	0000100f          	fence.i
   10adc:	00018063          	beqz	gp,10adc <reset_vector+0xa90>
   10ae0:	00119193          	slli	gp,gp,0x1
   10ae4:	0011e193          	ori	gp,gp,1
   10ae8:	00000073          	ecall
   10aec:	123452b7          	lui	t0,0x12345
   10af0:	67828293          	addi	t0,t0,1656 # 12345678 <_end+0x12331fec>
   10af4:	08580e63          	beq	a6,t0,10b90 <reset_vector+0xb44>
   10af8:	00003517          	auipc	a0,0x3
   10afc:	ac850513          	addi	a0,a0,-1336 # 135c0 <end_signature+0x570>
   10b00:	500010ef          	jal	ra,12000 <FN_WriteStr>
   10b04:	00003517          	auipc	a0,0x3
   10b08:	ad750513          	addi	a0,a0,-1321 # 135db <end_signature+0x58b>
   10b0c:	4f4010ef          	jal	ra,12000 <FN_WriteStr>
   10b10:	00003517          	auipc	a0,0x3
   10b14:	ada50513          	addi	a0,a0,-1318 # 135ea <end_signature+0x59a>
   10b18:	4e8010ef          	jal	ra,12000 <FN_WriteStr>
   10b1c:	00003517          	auipc	a0,0x3
   10b20:	ad650513          	addi	a0,a0,-1322 # 135f2 <end_signature+0x5a2>
   10b24:	4dc010ef          	jal	ra,12000 <FN_WriteStr>
   10b28:	00003517          	auipc	a0,0x3
   10b2c:	ace50513          	addi	a0,a0,-1330 # 135f6 <end_signature+0x5a6>
   10b30:	4d0010ef          	jal	ra,12000 <FN_WriteStr>
   10b34:	00003517          	auipc	a0,0x3
   10b38:	ac550513          	addi	a0,a0,-1339 # 135f9 <end_signature+0x5a9>
   10b3c:	4c4010ef          	jal	ra,12000 <FN_WriteStr>
   10b40:	00003517          	auipc	a0,0x3
   10b44:	abd50513          	addi	a0,a0,-1347 # 135fd <end_signature+0x5ad>
   10b48:	4b8010ef          	jal	ra,12000 <FN_WriteStr>
   10b4c:	00080513          	mv	a0,a6
   10b50:	4cc010ef          	jal	ra,1201c <FN_WriteA0>
   10b54:	00003517          	auipc	a0,0x3
   10b58:	aab50513          	addi	a0,a0,-1365 # 135ff <end_signature+0x5af>
   10b5c:	4a4010ef          	jal	ra,12000 <FN_WriteStr>
   10b60:	00003517          	auipc	a0,0x3
   10b64:	aa550513          	addi	a0,a0,-1371 # 13605 <end_signature+0x5b5>
   10b68:	498010ef          	jal	ra,12000 <FN_WriteStr>
   10b6c:	00003517          	auipc	a0,0x3
   10b70:	aa450513          	addi	a0,a0,-1372 # 13610 <end_signature+0x5c0>
   10b74:	48c010ef          	jal	ra,12000 <FN_WriteStr>
   10b78:	06400193          	li	gp,100
   10b7c:	0000100f          	fence.i
   10b80:	00018063          	beqz	gp,10b80 <reset_vector+0xb34>
   10b84:	00119193          	slli	gp,gp,0x1
   10b88:	0011e193          	ori	gp,gp,1
   10b8c:	00000073          	ecall
   10b90:	9abce2b7          	lui	t0,0x9abce
   10b94:	ef028293          	addi	t0,t0,-272 # 9abcdef0 <_end+0x9abba864>
   10b98:	085f8e63          	beq	t6,t0,10c34 <reset_vector+0xbe8>
   10b9c:	00003517          	auipc	a0,0x3
   10ba0:	a7650513          	addi	a0,a0,-1418 # 13612 <end_signature+0x5c2>
   10ba4:	45c010ef          	jal	ra,12000 <FN_WriteStr>
   10ba8:	00003517          	auipc	a0,0x3
   10bac:	a8550513          	addi	a0,a0,-1403 # 1362d <end_signature+0x5dd>
   10bb0:	450010ef          	jal	ra,12000 <FN_WriteStr>
   10bb4:	00003517          	auipc	a0,0x3
   10bb8:	a8850513          	addi	a0,a0,-1400 # 1363c <end_signature+0x5ec>
   10bbc:	444010ef          	jal	ra,12000 <FN_WriteStr>
   10bc0:	00003517          	auipc	a0,0x3
   10bc4:	a8450513          	addi	a0,a0,-1404 # 13644 <end_signature+0x5f4>
   10bc8:	438010ef          	jal	ra,12000 <FN_WriteStr>
   10bcc:	00003517          	auipc	a0,0x3
   10bd0:	a7c50513          	addi	a0,a0,-1412 # 13648 <end_signature+0x5f8>
   10bd4:	42c010ef          	jal	ra,12000 <FN_WriteStr>
   10bd8:	00003517          	auipc	a0,0x3
   10bdc:	a7350513          	addi	a0,a0,-1421 # 1364b <end_signature+0x5fb>
   10be0:	420010ef          	jal	ra,12000 <FN_WriteStr>
   10be4:	00003517          	auipc	a0,0x3
   10be8:	a6b50513          	addi	a0,a0,-1429 # 1364f <end_signature+0x5ff>
   10bec:	414010ef          	jal	ra,12000 <FN_WriteStr>
   10bf0:	000f8513          	mv	a0,t6
   10bf4:	428010ef          	jal	ra,1201c <FN_WriteA0>
   10bf8:	00003517          	auipc	a0,0x3
   10bfc:	a5950513          	addi	a0,a0,-1447 # 13651 <end_signature+0x601>
   10c00:	400010ef          	jal	ra,12000 <FN_WriteStr>
   10c04:	00003517          	auipc	a0,0x3
   10c08:	a5350513          	addi	a0,a0,-1453 # 13657 <end_signature+0x607>
   10c0c:	3f4010ef          	jal	ra,12000 <FN_WriteStr>
   10c10:	00003517          	auipc	a0,0x3
   10c14:	a5250513          	addi	a0,a0,-1454 # 13662 <end_signature+0x612>
   10c18:	3e8010ef          	jal	ra,12000 <FN_WriteStr>
   10c1c:	06400193          	li	gp,100
   10c20:	0000100f          	fence.i
   10c24:	00018063          	beqz	gp,10c24 <reset_vector+0xbd8>
   10c28:	00119193          	slli	gp,gp,0x1
   10c2c:	0011e193          	ori	gp,gp,1
   10c30:	00000073          	ecall
   10c34:	00003517          	auipc	a0,0x3
   10c38:	a3050513          	addi	a0,a0,-1488 # 13664 <end_signature+0x614>
   10c3c:	3c4010ef          	jal	ra,12000 <FN_WriteStr>
   10c40:	00003517          	auipc	a0,0x3
   10c44:	a4050513          	addi	a0,a0,-1472 # 13680 <end_signature+0x630>
   10c48:	3b8010ef          	jal	ra,12000 <FN_WriteStr>
   10c4c:	0000100f          	fence.i
   10c50:	00100193          	li	gp,1
   10c54:	00000073          	ecall
   10c58:	c0001073          	unimp
	...

Disassembly of section .tohost:

00011000 <tohost>:
	...

00011100 <fromhost>:
	...

Disassembly of section .text:

00012000 <FN_WriteStr>:
   12000:	00050293          	mv	t0,a0
   12004:	0002c503          	lbu	a0,0(t0)
   12008:	00128293          	addi	t0,t0,1
   1200c:	00050663          	beqz	a0,12018 <FN_WriteStr+0x18>
   12010:	0005200b          	0x5200b
   12014:	ff1ff06f          	j	12004 <FN_WriteStr+0x4>
   12018:	00008067          	ret

0001201c <FN_WriteA0>:
   1201c:	00050293          	mv	t0,a0
   12020:	fff00513          	li	a0,-1
   12024:	01f55513          	srli	a0,a0,0x1f
   12028:	00155513          	srli	a0,a0,0x1
   1202c:	02051463          	bnez	a0,12054 <FN_WriteA0_64>

00012030 <FN_WriteA0_32>:
   12030:	00800313          	li	t1,8
   12034:	00439393          	slli	t2,t2,0x4
   12038:	00f2f513          	andi	a0,t0,15
   1203c:	0042d293          	srli	t0,t0,0x4
   12040:	00a3e3b3          	or	t2,t2,a0
   12044:	fff30313          	addi	t1,t1,-1
   12048:	fe0316e3          	bnez	t1,12034 <FN_WriteA0_32+0x4>
   1204c:	00800313          	li	t1,8
   12050:	0240006f          	j	12074 <FN_WriteA0_common>

00012054 <FN_WriteA0_64>:
   12054:	01000313          	li	t1,16
   12058:	00439393          	slli	t2,t2,0x4
   1205c:	00f2f513          	andi	a0,t0,15
   12060:	0042d293          	srli	t0,t0,0x4
   12064:	00a3e3b3          	or	t2,t2,a0
   12068:	fff30313          	addi	t1,t1,-1
   1206c:	fe0316e3          	bnez	t1,12058 <FN_WriteA0_64+0x4>
   12070:	01000313          	li	t1,16

00012074 <FN_WriteA0_common>:
   12074:	00a00293          	li	t0,10
   12078:	00f3f513          	andi	a0,t2,15
   1207c:	00554663          	blt	a0,t0,12088 <FN_WriteA0_common+0x14>
   12080:	05750513          	addi	a0,a0,87
   12084:	0080006f          	j	1208c <FN_WriteA0_common+0x18>
   12088:	03050513          	addi	a0,a0,48
   1208c:	0005200b          	0x5200b
   12090:	0043d393          	srli	t2,t2,0x4
   12094:	fff30313          	addi	t1,t1,-1
   12098:	fe0310e3          	bnez	t1,12078 <FN_WriteA0_common+0x4>
   1209c:	00008067          	ret
