
/Users/benselfridge/RISCV/riscv-compliance/work//I-MISALIGN_JMP-01.elf:     file format elf32-littleriscv


Disassembly of section .text.init:

00010000 <_start>:
   10000:	04c0006f          	j	1004c <reset_vector>

00010004 <trap_vector>:
   10004:	34202f73          	csrr	t5,mcause
   10008:	00800f93          	li	t6,8
   1000c:	03ff0a63          	beq	t5,t6,10040 <write_tohost>
   10010:	00900f93          	li	t6,9
   10014:	03ff0663          	beq	t5,t6,10040 <write_tohost>
   10018:	00b00f93          	li	t6,11
   1001c:	03ff0263          	beq	t5,t6,10040 <write_tohost>
   10020:	ffff0f17          	auipc	t5,0xffff0
   10024:	fe0f0f13          	addi	t5,t5,-32 # 0 <_start-0x10000>
   10028:	000f0463          	beqz	t5,10030 <trap_vector+0x2c>
   1002c:	000f0067          	jr	t5
   10030:	34202f73          	csrr	t5,mcause
   10034:	000f5463          	bgez	t5,1003c <handle_exception>
   10038:	0040006f          	j	1003c <handle_exception>

0001003c <handle_exception>:
   1003c:	5391e193          	ori	gp,gp,1337

00010040 <write_tohost>:
   10040:	00001f17          	auipc	t5,0x1
   10044:	fc3f2023          	sw	gp,-64(t5) # 11000 <tohost>
   10048:	ff9ff06f          	j	10040 <write_tohost>

0001004c <reset_vector>:
   1004c:	f1402573          	csrr	a0,mhartid
   10050:	00051063          	bnez	a0,10050 <reset_vector+0x4>
   10054:	00000297          	auipc	t0,0x0
   10058:	01028293          	addi	t0,t0,16 # 10064 <reset_vector+0x18>
   1005c:	30529073          	csrw	mtvec,t0
   10060:	18005073          	csrwi	satp,0
   10064:	00000297          	auipc	t0,0x0
   10068:	01c28293          	addi	t0,t0,28 # 10080 <reset_vector+0x34>
   1006c:	30529073          	csrw	mtvec,t0
   10070:	fff00293          	li	t0,-1
   10074:	3b029073          	csrw	pmpaddr0,t0
   10078:	01f00293          	li	t0,31
   1007c:	3a029073          	csrw	pmpcfg0,t0
   10080:	00000297          	auipc	t0,0x0
   10084:	01828293          	addi	t0,t0,24 # 10098 <reset_vector+0x4c>
   10088:	30529073          	csrw	mtvec,t0
   1008c:	30205073          	csrwi	medeleg,0
   10090:	30305073          	csrwi	mideleg,0
   10094:	30405073          	csrwi	mie,0
   10098:	00000193          	li	gp,0
   1009c:	00000297          	auipc	t0,0x0
   100a0:	f6828293          	addi	t0,t0,-152 # 10004 <trap_vector>
   100a4:	30529073          	csrw	mtvec,t0
   100a8:	00100513          	li	a0,1
   100ac:	01f51513          	slli	a0,a0,0x1f
   100b0:	00054863          	bltz	a0,100c0 <reset_vector+0x74>
   100b4:	00000013          	nop
   100b8:	00100193          	li	gp,1
   100bc:	00000073          	ecall
   100c0:	ffff0297          	auipc	t0,0xffff0
   100c4:	f4028293          	addi	t0,t0,-192 # 0 <_start-0x10000>
   100c8:	00028e63          	beqz	t0,100e4 <reset_vector+0x98>
   100cc:	10529073          	csrw	stvec,t0
   100d0:	0000b2b7          	lui	t0,0xb
   100d4:	10928293          	addi	t0,t0,265 # b109 <_start-0x4ef7>
   100d8:	30229073          	csrw	medeleg,t0
   100dc:	30202373          	csrr	t1,medeleg
   100e0:	f4629ee3          	bne	t0,t1,1003c <handle_exception>
   100e4:	30005073          	csrwi	mstatus,0
   100e8:	00002537          	lui	a0,0x2
   100ec:	80050513          	addi	a0,a0,-2048 # 1800 <_start-0xe800>
   100f0:	30052073          	csrs	mstatus,a0
   100f4:	00000297          	auipc	t0,0x0
   100f8:	01428293          	addi	t0,t0,20 # 10108 <reset_vector+0xbc>
   100fc:	34129073          	csrw	mepc,t0
   10100:	f1402573          	csrr	a0,mhartid
   10104:	30200073          	mret
   10108:	00000097          	auipc	ra,0x0
   1010c:	20808093          	addi	ra,ra,520 # 10310 <_trap_handler>
   10110:	30509ff3          	csrrw	t6,mtvec,ra
   10114:	30127073          	csrci	misa,4
   10118:	00002097          	auipc	ra,0x2
   1011c:	ee808093          	addi	ra,ra,-280 # 12000 <begin_signature>
   10120:	11111137          	lui	sp,0x11111
   10124:	11110113          	addi	sp,sp,273 # 11111111 <_end+0x110ff081>
   10128:	00a0006f          	j	10132 <reset_vector+0xe6>
   1012c:	00000113          	li	sp,0
   10130:	00002097          	auipc	ra,0x2
   10134:	edc08093          	addi	ra,ra,-292 # 1200c <test_A2_res>
   10138:	22222137          	lui	sp,0x22222
   1013c:	22210113          	addi	sp,sp,546 # 22222222 <_end+0x22210192>
   10140:	00000217          	auipc	tp,0x0
   10144:	01120213          	addi	tp,tp,17 # 10151 <reset_vector+0x105>
   10148:	00020067          	jr	tp # 0 <_start-0x10000>
   1014c:	00000113          	li	sp,0
   10150:	0020a023          	sw	sp,0(ra)
   10154:	00408093          	addi	ra,ra,4
   10158:	33333137          	lui	sp,0x33333
   1015c:	33310113          	addi	sp,sp,819 # 33333333 <_end+0x333212a3>
   10160:	00000217          	auipc	tp,0x0
   10164:	01020213          	addi	tp,tp,16 # 10170 <reset_vector+0x124>
   10168:	00120067          	jr	1(tp) # 0 <_start-0x10000>
   1016c:	00000113          	li	sp,0
   10170:	0020a023          	sw	sp,0(ra)
   10174:	00408093          	addi	ra,ra,4
   10178:	44444137          	lui	sp,0x44444
   1017c:	44410113          	addi	sp,sp,1092 # 44444444 <_end+0x444323b4>
   10180:	00000217          	auipc	tp,0x0
   10184:	01420213          	addi	tp,tp,20 # 10194 <reset_vector+0x148>
   10188:	ffd20067          	jr	-3(tp) # 0 <_start-0x10000>
   1018c:	00000113          	li	sp,0
   10190:	0020a023          	sw	sp,0(ra)
   10194:	00408093          	addi	ra,ra,4
   10198:	00002097          	auipc	ra,0x2
   1019c:	e8008093          	addi	ra,ra,-384 # 12018 <test_A3_res_exc>
   101a0:	55555137          	lui	sp,0x55555
   101a4:	55510113          	addi	sp,sp,1365 # 55555555 <_end+0x555434c5>
   101a8:	00000217          	auipc	tp,0x0
   101ac:	01220213          	addi	tp,tp,18 # 101ba <reset_vector+0x16e>
   101b0:	00020067          	jr	tp # 0 <_start-0x10000>
   101b4:	00000113          	li	sp,0
   101b8:	66666137          	lui	sp,0x66666
   101bc:	66610113          	addi	sp,sp,1638 # 66666666 <_end+0x666545d6>
   101c0:	00000217          	auipc	tp,0x0
   101c4:	01320213          	addi	tp,tp,19 # 101d3 <reset_vector+0x187>
   101c8:	00020067          	jr	tp # 0 <_start-0x10000>
   101cc:	00000113          	li	sp,0
   101d0:	77777137          	lui	sp,0x77777
   101d4:	77710113          	addi	sp,sp,1911 # 77777777 <_end+0x777656e7>
   101d8:	00000217          	auipc	tp,0x0
   101dc:	01020213          	addi	tp,tp,16 # 101e8 <reset_vector+0x19c>
   101e0:	00220067          	jr	2(tp) # 0 <_start-0x10000>
   101e4:	00000113          	li	sp,0
   101e8:	88889137          	lui	sp,0x88889
   101ec:	88810113          	addi	sp,sp,-1912 # 88888888 <_end+0x888767f8>
   101f0:	00000217          	auipc	tp,0x0
   101f4:	01020213          	addi	tp,tp,16 # 10200 <reset_vector+0x1b4>
   101f8:	00320067          	jr	3(tp) # 0 <_start-0x10000>
   101fc:	00000113          	li	sp,0
   10200:	00002097          	auipc	ra,0x2
   10204:	e4808093          	addi	ra,ra,-440 # 12048 <test_B1_res_exc>
   10208:	00500293          	li	t0,5
   1020c:	00600313          	li	t1,6
   10210:	00628763          	beq	t0,t1,1021e <reset_vector+0x1d2>
   10214:	9999a137          	lui	sp,0x9999a
   10218:	99910113          	addi	sp,sp,-1639 # 99999999 <_end+0x99987909>
   1021c:	00000013          	nop
   10220:	00000013          	nop
   10224:	00528563          	beq	t0,t0,1022e <reset_vector+0x1e2>
   10228:	00000113          	li	sp,0
   1022c:	00002097          	auipc	ra,0x2
   10230:	e2808093          	addi	ra,ra,-472 # 12054 <test_B2_res_exc>
   10234:	00500293          	li	t0,5
   10238:	00600313          	li	t1,6
   1023c:	00529763          	bne	t0,t0,1024a <reset_vector+0x1fe>
   10240:	aaaab137          	lui	sp,0xaaaab
   10244:	aaa10113          	addi	sp,sp,-1366 # aaaaaaaa <_end+0xaaa98a1a>
   10248:	00000013          	nop
   1024c:	00000013          	nop
   10250:	00629563          	bne	t0,t1,1025a <reset_vector+0x20e>
   10254:	00000113          	li	sp,0
   10258:	00002097          	auipc	ra,0x2
   1025c:	e0808093          	addi	ra,ra,-504 # 12060 <test_B3_res_exc>
   10260:	00500293          	li	t0,5
   10264:	00600313          	li	t1,6
   10268:	00534763          	blt	t1,t0,10276 <reset_vector+0x22a>
   1026c:	bbbbc137          	lui	sp,0xbbbbc
   10270:	bbb10113          	addi	sp,sp,-1093 # bbbbbbbb <_end+0xbbba9b2b>
   10274:	00000013          	nop
   10278:	00000013          	nop
   1027c:	0062c563          	blt	t0,t1,10286 <reset_vector+0x23a>
   10280:	00000113          	li	sp,0
   10284:	00002097          	auipc	ra,0x2
   10288:	de808093          	addi	ra,ra,-536 # 1206c <test_B4_res_exc>
   1028c:	00500293          	li	t0,5
   10290:	00600313          	li	t1,6
   10294:	00536763          	bltu	t1,t0,102a2 <reset_vector+0x256>
   10298:	ccccd137          	lui	sp,0xccccd
   1029c:	ccc10113          	addi	sp,sp,-820 # cccccccc <_end+0xcccbac3c>
   102a0:	00000013          	nop
   102a4:	00000013          	nop
   102a8:	0062e563          	bltu	t0,t1,102b2 <reset_vector+0x266>
   102ac:	00000113          	li	sp,0
   102b0:	00002097          	auipc	ra,0x2
   102b4:	dc808093          	addi	ra,ra,-568 # 12078 <test_B5_res_exc>
   102b8:	00500293          	li	t0,5
   102bc:	00600313          	li	t1,6
   102c0:	0062d763          	ble	t1,t0,102ce <reset_vector+0x282>
   102c4:	dddde137          	lui	sp,0xdddde
   102c8:	ddd10113          	addi	sp,sp,-547 # dddddddd <_end+0xdddcbd4d>
   102cc:	00000013          	nop
   102d0:	00000013          	nop
   102d4:	00535563          	ble	t0,t1,102de <reset_vector+0x292>
   102d8:	00000113          	li	sp,0
   102dc:	00002097          	auipc	ra,0x2
   102e0:	da808093          	addi	ra,ra,-600 # 12084 <test_B6_res_exc>
   102e4:	00500293          	li	t0,5
   102e8:	00600313          	li	t1,6
   102ec:	0062f763          	bleu	t1,t0,102fa <reset_vector+0x2ae>
   102f0:	eeeef137          	lui	sp,0xeeeef
   102f4:	eee10113          	addi	sp,sp,-274 # eeeeeeee <_end+0xeeedce5e>
   102f8:	00000013          	nop
   102fc:	00000013          	nop
   10300:	00537563          	bleu	t0,t1,1030a <reset_vector+0x2be>
   10304:	00000113          	li	sp,0
   10308:	305f9073          	csrw	mtvec,t6
   1030c:	0300006f          	j	1033c <test_end>

00010310 <_trap_handler>:
   10310:	34302f73          	csrr	t5,mtval
   10314:	ffef0f13          	addi	t5,t5,-2
   10318:	341f1073          	csrw	mepc,t5
   1031c:	34302f73          	csrr	t5,mtval
   10320:	003f7f13          	andi	t5,t5,3
   10324:	01e0a023          	sw	t5,0(ra)
   10328:	34202f73          	csrr	t5,mcause
   1032c:	01e0a223          	sw	t5,4(ra)
   10330:	0020a423          	sw	sp,8(ra)
   10334:	00c08093          	addi	ra,ra,12
   10338:	30200073          	mret

0001033c <test_end>:
   1033c:	00000013          	nop
   10340:	00100193          	li	gp,1
   10344:	00000073          	ecall
   10348:	c0001073          	unimp
	...

Disassembly of section .tohost:

00011000 <tohost>:
	...

00011100 <fromhost>:
	...
