
/home/benselfridge/riscv-compliance/work//I-ORI-01.elf:     file format elf32-littleriscv


Disassembly of section .text.init:

00010000 <_start>:
   10000:	04c0006f          	j	1004c <reset_vector>

00010004 <trap_vector>:
   10004:	34202f73          	csrr	t5,mcause
   10008:	00800f93          	li	t6,8
   1000c:	03ff0a63          	beq	t5,t6,10040 <write_tohost>
   10010:	00900f93          	li	t6,9
   10014:	03ff0663          	beq	t5,t6,10040 <write_tohost>
   10018:	00b00f93          	li	t6,11
   1001c:	03ff0263          	beq	t5,t6,10040 <write_tohost>
   10020:	ffff0f17          	auipc	t5,0xffff0
   10024:	fe0f0f13          	addi	t5,t5,-32 # 0 <_start-0x10000>
   10028:	000f0463          	beqz	t5,10030 <trap_vector+0x2c>
   1002c:	000f0067          	jr	t5
   10030:	34202f73          	csrr	t5,mcause
   10034:	000f5463          	bgez	t5,1003c <handle_exception>
   10038:	0040006f          	j	1003c <handle_exception>

0001003c <handle_exception>:
   1003c:	5391e193          	ori	gp,gp,1337

00010040 <write_tohost>:
   10040:	00002f17          	auipc	t5,0x2
   10044:	fc3f2023          	sw	gp,-64(t5) # 12000 <tohost>
   10048:	ff9ff06f          	j	10040 <write_tohost>

0001004c <reset_vector>:
   1004c:	f1402573          	csrr	a0,mhartid
   10050:	00051063          	bnez	a0,10050 <reset_vector+0x4>
   10054:	00000297          	auipc	t0,0x0
   10058:	01028293          	addi	t0,t0,16 # 10064 <reset_vector+0x18>
   1005c:	30529073          	csrw	mtvec,t0
   10060:	18005073          	csrwi	satp,0
   10064:	00000297          	auipc	t0,0x0
   10068:	01c28293          	addi	t0,t0,28 # 10080 <reset_vector+0x34>
   1006c:	30529073          	csrw	mtvec,t0
   10070:	fff00293          	li	t0,-1
   10074:	3b029073          	csrw	pmpaddr0,t0
   10078:	01f00293          	li	t0,31
   1007c:	3a029073          	csrw	pmpcfg0,t0
   10080:	00000297          	auipc	t0,0x0
   10084:	01828293          	addi	t0,t0,24 # 10098 <reset_vector+0x4c>
   10088:	30529073          	csrw	mtvec,t0
   1008c:	30205073          	csrwi	medeleg,0
   10090:	30305073          	csrwi	mideleg,0
   10094:	30405073          	csrwi	mie,0
   10098:	00000193          	li	gp,0
   1009c:	00000297          	auipc	t0,0x0
   100a0:	f6828293          	addi	t0,t0,-152 # 10004 <trap_vector>
   100a4:	30529073          	csrw	mtvec,t0
   100a8:	00100513          	li	a0,1
   100ac:	01f51513          	slli	a0,a0,0x1f
   100b0:	00054863          	bltz	a0,100c0 <reset_vector+0x74>
   100b4:	0000100f          	fence.i
   100b8:	00100193          	li	gp,1
   100bc:	00000073          	ecall
   100c0:	ffff0297          	auipc	t0,0xffff0
   100c4:	f4028293          	addi	t0,t0,-192 # 0 <_start-0x10000>
   100c8:	00028e63          	beqz	t0,100e4 <reset_vector+0x98>
   100cc:	10529073          	csrw	stvec,t0
   100d0:	0000b2b7          	lui	t0,0xb
   100d4:	10928293          	addi	t0,t0,265 # b109 <_start-0x4ef7>
   100d8:	30229073          	csrw	medeleg,t0
   100dc:	30202373          	csrr	t1,medeleg
   100e0:	f4629ee3          	bne	t0,t1,1003c <handle_exception>
   100e4:	30005073          	csrwi	mstatus,0
   100e8:	00002537          	lui	a0,0x2
   100ec:	80050513          	addi	a0,a0,-2048 # 1800 <_start-0xe800>
   100f0:	30052073          	csrs	mstatus,a0
   100f4:	00000297          	auipc	t0,0x0
   100f8:	01428293          	addi	t0,t0,20 # 10108 <reset_vector+0xbc>
   100fc:	34129073          	csrw	mepc,t0
   10100:	f1402573          	csrr	a0,mhartid
   10104:	30200073          	mret
   10108:	00000293          	li	t0,0
   1010c:	08500e63          	beq	zero,t0,101a8 <reset_vector+0x15c>
   10110:	00004517          	auipc	a0,0x4
   10114:	fd050513          	addi	a0,a0,-48 # 140e0 <end_signature>
   10118:	6e9020ef          	jal	ra,13000 <FN_WriteStr>
   1011c:	00004517          	auipc	a0,0x4
   10120:	fdf50513          	addi	a0,a0,-33 # 140fb <end_signature+0x1b>
   10124:	6dd020ef          	jal	ra,13000 <FN_WriteStr>
   10128:	00004517          	auipc	a0,0x4
   1012c:	fe250513          	addi	a0,a0,-30 # 1410a <end_signature+0x2a>
   10130:	6d1020ef          	jal	ra,13000 <FN_WriteStr>
   10134:	00004517          	auipc	a0,0x4
   10138:	fde50513          	addi	a0,a0,-34 # 14112 <end_signature+0x32>
   1013c:	6c5020ef          	jal	ra,13000 <FN_WriteStr>
   10140:	00004517          	auipc	a0,0x4
   10144:	fd550513          	addi	a0,a0,-43 # 14115 <end_signature+0x35>
   10148:	6b9020ef          	jal	ra,13000 <FN_WriteStr>
   1014c:	00004517          	auipc	a0,0x4
   10150:	fcc50513          	addi	a0,a0,-52 # 14118 <end_signature+0x38>
   10154:	6ad020ef          	jal	ra,13000 <FN_WriteStr>
   10158:	00004517          	auipc	a0,0x4
   1015c:	fc350513          	addi	a0,a0,-61 # 1411b <end_signature+0x3b>
   10160:	6a1020ef          	jal	ra,13000 <FN_WriteStr>
   10164:	00000513          	li	a0,0
   10168:	6b5020ef          	jal	ra,1301c <FN_WriteA0>
   1016c:	00004517          	auipc	a0,0x4
   10170:	fb150513          	addi	a0,a0,-79 # 1411d <end_signature+0x3d>
   10174:	68d020ef          	jal	ra,13000 <FN_WriteStr>
   10178:	00004517          	auipc	a0,0x4
   1017c:	fab50513          	addi	a0,a0,-85 # 14123 <end_signature+0x43>
   10180:	681020ef          	jal	ra,13000 <FN_WriteStr>
   10184:	00004517          	auipc	a0,0x4
   10188:	faa50513          	addi	a0,a0,-86 # 1412e <end_signature+0x4e>
   1018c:	675020ef          	jal	ra,13000 <FN_WriteStr>
   10190:	06400193          	li	gp,100
   10194:	0000100f          	fence.i
   10198:	00018063          	beqz	gp,10198 <reset_vector+0x14c>
   1019c:	00119193          	slli	gp,gp,0x1
   101a0:	0011e193          	ori	gp,gp,1
   101a4:	00000073          	ecall
   101a8:	00004517          	auipc	a0,0x4
   101ac:	f8850513          	addi	a0,a0,-120 # 14130 <end_signature+0x50>
   101b0:	651020ef          	jal	ra,13000 <FN_WriteStr>
   101b4:	00004517          	auipc	a0,0x4
   101b8:	fae50513          	addi	a0,a0,-82 # 14162 <end_signature+0x82>
   101bc:	645020ef          	jal	ra,13000 <FN_WriteStr>
   101c0:	00004097          	auipc	ra,0x4
   101c4:	e4008093          	addi	ra,ra,-448 # 14000 <test_A1_data>
   101c8:	00004117          	auipc	sp,0x4
   101cc:	e6810113          	addi	sp,sp,-408 # 14030 <begin_signature>
   101d0:	0000a183          	lw	gp,0(ra)
   101d4:	0011e213          	ori	tp,gp,1
   101d8:	7ff1e293          	ori	t0,gp,2047
   101dc:	fff1e313          	ori	t1,gp,-1
   101e0:	0001e393          	ori	t2,gp,0
   101e4:	8001e413          	ori	s0,gp,-2048
   101e8:	00312023          	sw	gp,0(sp)
   101ec:	00412223          	sw	tp,4(sp)
   101f0:	00512423          	sw	t0,8(sp)
   101f4:	00612623          	sw	t1,12(sp)
   101f8:	00712823          	sw	t2,16(sp)
   101fc:	00812a23          	sw	s0,20(sp)
   10200:	fff00013          	li	zero,-1
   10204:	00000293          	li	t0,0
   10208:	08518e63          	beq	gp,t0,102a4 <reset_vector+0x258>
   1020c:	00004517          	auipc	a0,0x4
   10210:	fa950513          	addi	a0,a0,-87 # 141b5 <end_signature+0xd5>
   10214:	5ed020ef          	jal	ra,13000 <FN_WriteStr>
   10218:	00004517          	auipc	a0,0x4
   1021c:	fb850513          	addi	a0,a0,-72 # 141d0 <end_signature+0xf0>
   10220:	5e1020ef          	jal	ra,13000 <FN_WriteStr>
   10224:	00004517          	auipc	a0,0x4
   10228:	fbb50513          	addi	a0,a0,-69 # 141df <end_signature+0xff>
   1022c:	5d5020ef          	jal	ra,13000 <FN_WriteStr>
   10230:	00004517          	auipc	a0,0x4
   10234:	fb750513          	addi	a0,a0,-73 # 141e7 <end_signature+0x107>
   10238:	5c9020ef          	jal	ra,13000 <FN_WriteStr>
   1023c:	00004517          	auipc	a0,0x4
   10240:	fae50513          	addi	a0,a0,-82 # 141ea <end_signature+0x10a>
   10244:	5bd020ef          	jal	ra,13000 <FN_WriteStr>
   10248:	00004517          	auipc	a0,0x4
   1024c:	fa550513          	addi	a0,a0,-91 # 141ed <end_signature+0x10d>
   10250:	5b1020ef          	jal	ra,13000 <FN_WriteStr>
   10254:	00004517          	auipc	a0,0x4
   10258:	f9c50513          	addi	a0,a0,-100 # 141f0 <end_signature+0x110>
   1025c:	5a5020ef          	jal	ra,13000 <FN_WriteStr>
   10260:	00018513          	mv	a0,gp
   10264:	5b9020ef          	jal	ra,1301c <FN_WriteA0>
   10268:	00004517          	auipc	a0,0x4
   1026c:	f8a50513          	addi	a0,a0,-118 # 141f2 <end_signature+0x112>
   10270:	591020ef          	jal	ra,13000 <FN_WriteStr>
   10274:	00004517          	auipc	a0,0x4
   10278:	f8450513          	addi	a0,a0,-124 # 141f8 <end_signature+0x118>
   1027c:	585020ef          	jal	ra,13000 <FN_WriteStr>
   10280:	00004517          	auipc	a0,0x4
   10284:	f8350513          	addi	a0,a0,-125 # 14203 <end_signature+0x123>
   10288:	579020ef          	jal	ra,13000 <FN_WriteStr>
   1028c:	06400193          	li	gp,100
   10290:	0000100f          	fence.i
   10294:	00018063          	beqz	gp,10294 <reset_vector+0x248>
   10298:	00119193          	slli	gp,gp,0x1
   1029c:	0011e193          	ori	gp,gp,1
   102a0:	00000073          	ecall
   102a4:	00100293          	li	t0,1
   102a8:	08520e63          	beq	tp,t0,10344 <reset_vector+0x2f8>
   102ac:	00004517          	auipc	a0,0x4
   102b0:	f5950513          	addi	a0,a0,-167 # 14205 <end_signature+0x125>
   102b4:	54d020ef          	jal	ra,13000 <FN_WriteStr>
   102b8:	00004517          	auipc	a0,0x4
   102bc:	f6850513          	addi	a0,a0,-152 # 14220 <end_signature+0x140>
   102c0:	541020ef          	jal	ra,13000 <FN_WriteStr>
   102c4:	00004517          	auipc	a0,0x4
   102c8:	f6b50513          	addi	a0,a0,-149 # 1422f <end_signature+0x14f>
   102cc:	535020ef          	jal	ra,13000 <FN_WriteStr>
   102d0:	00004517          	auipc	a0,0x4
   102d4:	f6750513          	addi	a0,a0,-153 # 14237 <end_signature+0x157>
   102d8:	529020ef          	jal	ra,13000 <FN_WriteStr>
   102dc:	00004517          	auipc	a0,0x4
   102e0:	f5e50513          	addi	a0,a0,-162 # 1423a <end_signature+0x15a>
   102e4:	51d020ef          	jal	ra,13000 <FN_WriteStr>
   102e8:	00004517          	auipc	a0,0x4
   102ec:	f5550513          	addi	a0,a0,-171 # 1423d <end_signature+0x15d>
   102f0:	511020ef          	jal	ra,13000 <FN_WriteStr>
   102f4:	00004517          	auipc	a0,0x4
   102f8:	f4c50513          	addi	a0,a0,-180 # 14240 <end_signature+0x160>
   102fc:	505020ef          	jal	ra,13000 <FN_WriteStr>
   10300:	00020513          	mv	a0,tp
   10304:	519020ef          	jal	ra,1301c <FN_WriteA0>
   10308:	00004517          	auipc	a0,0x4
   1030c:	f3a50513          	addi	a0,a0,-198 # 14242 <end_signature+0x162>
   10310:	4f1020ef          	jal	ra,13000 <FN_WriteStr>
   10314:	00004517          	auipc	a0,0x4
   10318:	f3450513          	addi	a0,a0,-204 # 14248 <end_signature+0x168>
   1031c:	4e5020ef          	jal	ra,13000 <FN_WriteStr>
   10320:	00004517          	auipc	a0,0x4
   10324:	f3350513          	addi	a0,a0,-205 # 14253 <end_signature+0x173>
   10328:	4d9020ef          	jal	ra,13000 <FN_WriteStr>
   1032c:	06400193          	li	gp,100
   10330:	0000100f          	fence.i
   10334:	00018063          	beqz	gp,10334 <reset_vector+0x2e8>
   10338:	00119193          	slli	gp,gp,0x1
   1033c:	0011e193          	ori	gp,gp,1
   10340:	00000073          	ecall
   10344:	00000293          	li	t0,0
   10348:	08528e63          	beq	t0,t0,103e4 <reset_vector+0x398>
   1034c:	00004517          	auipc	a0,0x4
   10350:	f0950513          	addi	a0,a0,-247 # 14255 <end_signature+0x175>
   10354:	4ad020ef          	jal	ra,13000 <FN_WriteStr>
   10358:	00004517          	auipc	a0,0x4
   1035c:	f1850513          	addi	a0,a0,-232 # 14270 <end_signature+0x190>
   10360:	4a1020ef          	jal	ra,13000 <FN_WriteStr>
   10364:	00004517          	auipc	a0,0x4
   10368:	f1b50513          	addi	a0,a0,-229 # 1427f <end_signature+0x19f>
   1036c:	495020ef          	jal	ra,13000 <FN_WriteStr>
   10370:	00004517          	auipc	a0,0x4
   10374:	f1750513          	addi	a0,a0,-233 # 14287 <end_signature+0x1a7>
   10378:	489020ef          	jal	ra,13000 <FN_WriteStr>
   1037c:	00004517          	auipc	a0,0x4
   10380:	f0e50513          	addi	a0,a0,-242 # 1428a <end_signature+0x1aa>
   10384:	47d020ef          	jal	ra,13000 <FN_WriteStr>
   10388:	00004517          	auipc	a0,0x4
   1038c:	f0550513          	addi	a0,a0,-251 # 1428d <end_signature+0x1ad>
   10390:	471020ef          	jal	ra,13000 <FN_WriteStr>
   10394:	00004517          	auipc	a0,0x4
   10398:	efc50513          	addi	a0,a0,-260 # 14290 <end_signature+0x1b0>
   1039c:	465020ef          	jal	ra,13000 <FN_WriteStr>
   103a0:	00028513          	mv	a0,t0
   103a4:	479020ef          	jal	ra,1301c <FN_WriteA0>
   103a8:	00004517          	auipc	a0,0x4
   103ac:	eea50513          	addi	a0,a0,-278 # 14292 <end_signature+0x1b2>
   103b0:	451020ef          	jal	ra,13000 <FN_WriteStr>
   103b4:	00004517          	auipc	a0,0x4
   103b8:	ee450513          	addi	a0,a0,-284 # 14298 <end_signature+0x1b8>
   103bc:	445020ef          	jal	ra,13000 <FN_WriteStr>
   103c0:	00004517          	auipc	a0,0x4
   103c4:	ee350513          	addi	a0,a0,-285 # 142a3 <end_signature+0x1c3>
   103c8:	439020ef          	jal	ra,13000 <FN_WriteStr>
   103cc:	06400193          	li	gp,100
   103d0:	0000100f          	fence.i
   103d4:	00018063          	beqz	gp,103d4 <reset_vector+0x388>
   103d8:	00119193          	slli	gp,gp,0x1
   103dc:	0011e193          	ori	gp,gp,1
   103e0:	00000073          	ecall
   103e4:	fff00293          	li	t0,-1
   103e8:	08530e63          	beq	t1,t0,10484 <reset_vector+0x438>
   103ec:	00004517          	auipc	a0,0x4
   103f0:	eb950513          	addi	a0,a0,-327 # 142a5 <end_signature+0x1c5>
   103f4:	40d020ef          	jal	ra,13000 <FN_WriteStr>
   103f8:	00004517          	auipc	a0,0x4
   103fc:	ec850513          	addi	a0,a0,-312 # 142c0 <end_signature+0x1e0>
   10400:	401020ef          	jal	ra,13000 <FN_WriteStr>
   10404:	00004517          	auipc	a0,0x4
   10408:	ecb50513          	addi	a0,a0,-309 # 142cf <end_signature+0x1ef>
   1040c:	3f5020ef          	jal	ra,13000 <FN_WriteStr>
   10410:	00004517          	auipc	a0,0x4
   10414:	ec750513          	addi	a0,a0,-313 # 142d7 <end_signature+0x1f7>
   10418:	3e9020ef          	jal	ra,13000 <FN_WriteStr>
   1041c:	00004517          	auipc	a0,0x4
   10420:	ebe50513          	addi	a0,a0,-322 # 142da <end_signature+0x1fa>
   10424:	3dd020ef          	jal	ra,13000 <FN_WriteStr>
   10428:	00004517          	auipc	a0,0x4
   1042c:	eb550513          	addi	a0,a0,-331 # 142dd <end_signature+0x1fd>
   10430:	3d1020ef          	jal	ra,13000 <FN_WriteStr>
   10434:	00004517          	auipc	a0,0x4
   10438:	eac50513          	addi	a0,a0,-340 # 142e0 <end_signature+0x200>
   1043c:	3c5020ef          	jal	ra,13000 <FN_WriteStr>
   10440:	00030513          	mv	a0,t1
   10444:	3d9020ef          	jal	ra,1301c <FN_WriteA0>
   10448:	00004517          	auipc	a0,0x4
   1044c:	e9a50513          	addi	a0,a0,-358 # 142e2 <end_signature+0x202>
   10450:	3b1020ef          	jal	ra,13000 <FN_WriteStr>
   10454:	00004517          	auipc	a0,0x4
   10458:	e9450513          	addi	a0,a0,-364 # 142e8 <end_signature+0x208>
   1045c:	3a5020ef          	jal	ra,13000 <FN_WriteStr>
   10460:	00004517          	auipc	a0,0x4
   10464:	e9350513          	addi	a0,a0,-365 # 142f3 <end_signature+0x213>
   10468:	399020ef          	jal	ra,13000 <FN_WriteStr>
   1046c:	06400193          	li	gp,100
   10470:	0000100f          	fence.i
   10474:	00018063          	beqz	gp,10474 <reset_vector+0x428>
   10478:	00119193          	slli	gp,gp,0x1
   1047c:	0011e193          	ori	gp,gp,1
   10480:	00000073          	ecall
   10484:	00000293          	li	t0,0
   10488:	08538e63          	beq	t2,t0,10524 <reset_vector+0x4d8>
   1048c:	00004517          	auipc	a0,0x4
   10490:	e6950513          	addi	a0,a0,-407 # 142f5 <end_signature+0x215>
   10494:	36d020ef          	jal	ra,13000 <FN_WriteStr>
   10498:	00004517          	auipc	a0,0x4
   1049c:	e7850513          	addi	a0,a0,-392 # 14310 <end_signature+0x230>
   104a0:	361020ef          	jal	ra,13000 <FN_WriteStr>
   104a4:	00004517          	auipc	a0,0x4
   104a8:	e7b50513          	addi	a0,a0,-389 # 1431f <end_signature+0x23f>
   104ac:	355020ef          	jal	ra,13000 <FN_WriteStr>
   104b0:	00004517          	auipc	a0,0x4
   104b4:	e7750513          	addi	a0,a0,-393 # 14327 <end_signature+0x247>
   104b8:	349020ef          	jal	ra,13000 <FN_WriteStr>
   104bc:	00004517          	auipc	a0,0x4
   104c0:	e6e50513          	addi	a0,a0,-402 # 1432a <end_signature+0x24a>
   104c4:	33d020ef          	jal	ra,13000 <FN_WriteStr>
   104c8:	00004517          	auipc	a0,0x4
   104cc:	e6550513          	addi	a0,a0,-411 # 1432d <end_signature+0x24d>
   104d0:	331020ef          	jal	ra,13000 <FN_WriteStr>
   104d4:	00004517          	auipc	a0,0x4
   104d8:	e5c50513          	addi	a0,a0,-420 # 14330 <end_signature+0x250>
   104dc:	325020ef          	jal	ra,13000 <FN_WriteStr>
   104e0:	00038513          	mv	a0,t2
   104e4:	339020ef          	jal	ra,1301c <FN_WriteA0>
   104e8:	00004517          	auipc	a0,0x4
   104ec:	e4a50513          	addi	a0,a0,-438 # 14332 <end_signature+0x252>
   104f0:	311020ef          	jal	ra,13000 <FN_WriteStr>
   104f4:	00004517          	auipc	a0,0x4
   104f8:	e4450513          	addi	a0,a0,-444 # 14338 <end_signature+0x258>
   104fc:	305020ef          	jal	ra,13000 <FN_WriteStr>
   10500:	00004517          	auipc	a0,0x4
   10504:	e4350513          	addi	a0,a0,-445 # 14343 <end_signature+0x263>
   10508:	2f9020ef          	jal	ra,13000 <FN_WriteStr>
   1050c:	06400193          	li	gp,100
   10510:	0000100f          	fence.i
   10514:	00018063          	beqz	gp,10514 <reset_vector+0x4c8>
   10518:	00119193          	slli	gp,gp,0x1
   1051c:	0011e193          	ori	gp,gp,1
   10520:	00000073          	ecall
   10524:	80000293          	li	t0,-2048
   10528:	08540e63          	beq	s0,t0,105c4 <reset_vector+0x578>
   1052c:	00004517          	auipc	a0,0x4
   10530:	e1950513          	addi	a0,a0,-487 # 14345 <end_signature+0x265>
   10534:	2cd020ef          	jal	ra,13000 <FN_WriteStr>
   10538:	00004517          	auipc	a0,0x4
   1053c:	e2850513          	addi	a0,a0,-472 # 14360 <end_signature+0x280>
   10540:	2c1020ef          	jal	ra,13000 <FN_WriteStr>
   10544:	00004517          	auipc	a0,0x4
   10548:	e2b50513          	addi	a0,a0,-469 # 1436f <end_signature+0x28f>
   1054c:	2b5020ef          	jal	ra,13000 <FN_WriteStr>
   10550:	00004517          	auipc	a0,0x4
   10554:	e2750513          	addi	a0,a0,-473 # 14377 <end_signature+0x297>
   10558:	2a9020ef          	jal	ra,13000 <FN_WriteStr>
   1055c:	00004517          	auipc	a0,0x4
   10560:	e1e50513          	addi	a0,a0,-482 # 1437a <end_signature+0x29a>
   10564:	29d020ef          	jal	ra,13000 <FN_WriteStr>
   10568:	00004517          	auipc	a0,0x4
   1056c:	e1550513          	addi	a0,a0,-491 # 1437d <end_signature+0x29d>
   10570:	291020ef          	jal	ra,13000 <FN_WriteStr>
   10574:	00004517          	auipc	a0,0x4
   10578:	e0c50513          	addi	a0,a0,-500 # 14380 <end_signature+0x2a0>
   1057c:	285020ef          	jal	ra,13000 <FN_WriteStr>
   10580:	00040513          	mv	a0,s0
   10584:	299020ef          	jal	ra,1301c <FN_WriteA0>
   10588:	00004517          	auipc	a0,0x4
   1058c:	dfa50513          	addi	a0,a0,-518 # 14382 <end_signature+0x2a2>
   10590:	271020ef          	jal	ra,13000 <FN_WriteStr>
   10594:	00004517          	auipc	a0,0x4
   10598:	df450513          	addi	a0,a0,-524 # 14388 <end_signature+0x2a8>
   1059c:	265020ef          	jal	ra,13000 <FN_WriteStr>
   105a0:	00004517          	auipc	a0,0x4
   105a4:	df350513          	addi	a0,a0,-525 # 14393 <end_signature+0x2b3>
   105a8:	259020ef          	jal	ra,13000 <FN_WriteStr>
   105ac:	06400193          	li	gp,100
   105b0:	0000100f          	fence.i
   105b4:	00018063          	beqz	gp,105b4 <reset_vector+0x568>
   105b8:	00119193          	slli	gp,gp,0x1
   105bc:	0011e193          	ori	gp,gp,1
   105c0:	00000073          	ecall
   105c4:	00004517          	auipc	a0,0x4
   105c8:	dd150513          	addi	a0,a0,-559 # 14395 <end_signature+0x2b5>
   105cc:	235020ef          	jal	ra,13000 <FN_WriteStr>
   105d0:	00004517          	auipc	a0,0x4
   105d4:	de150513          	addi	a0,a0,-543 # 143b1 <end_signature+0x2d1>
   105d8:	229020ef          	jal	ra,13000 <FN_WriteStr>
   105dc:	00004097          	auipc	ra,0x4
   105e0:	a2808093          	addi	ra,ra,-1496 # 14004 <test_A2_data>
   105e4:	00004117          	auipc	sp,0x4
   105e8:	a6410113          	addi	sp,sp,-1436 # 14048 <test_A2_res>
   105ec:	0000a403          	lw	s0,0(ra)
   105f0:	00146493          	ori	s1,s0,1
   105f4:	7ff46513          	ori	a0,s0,2047
   105f8:	fff46593          	ori	a1,s0,-1
   105fc:	00046613          	ori	a2,s0,0
   10600:	80046693          	ori	a3,s0,-2048
   10604:	00812023          	sw	s0,0(sp)
   10608:	00912223          	sw	s1,4(sp)
   1060c:	00a12423          	sw	a0,8(sp)
   10610:	00b12623          	sw	a1,12(sp)
   10614:	00c12823          	sw	a2,16(sp)
   10618:	00d12a23          	sw	a3,20(sp)
   1061c:	00100293          	li	t0,1
   10620:	08540e63          	beq	s0,t0,106bc <reset_vector+0x670>
   10624:	00004517          	auipc	a0,0x4
   10628:	de050513          	addi	a0,a0,-544 # 14404 <end_signature+0x324>
   1062c:	1d5020ef          	jal	ra,13000 <FN_WriteStr>
   10630:	00004517          	auipc	a0,0x4
   10634:	def50513          	addi	a0,a0,-529 # 1441f <end_signature+0x33f>
   10638:	1c9020ef          	jal	ra,13000 <FN_WriteStr>
   1063c:	00004517          	auipc	a0,0x4
   10640:	df250513          	addi	a0,a0,-526 # 1442e <end_signature+0x34e>
   10644:	1bd020ef          	jal	ra,13000 <FN_WriteStr>
   10648:	00004517          	auipc	a0,0x4
   1064c:	dee50513          	addi	a0,a0,-530 # 14436 <end_signature+0x356>
   10650:	1b1020ef          	jal	ra,13000 <FN_WriteStr>
   10654:	00004517          	auipc	a0,0x4
   10658:	de650513          	addi	a0,a0,-538 # 1443a <end_signature+0x35a>
   1065c:	1a5020ef          	jal	ra,13000 <FN_WriteStr>
   10660:	00004517          	auipc	a0,0x4
   10664:	ddd50513          	addi	a0,a0,-547 # 1443d <end_signature+0x35d>
   10668:	199020ef          	jal	ra,13000 <FN_WriteStr>
   1066c:	00004517          	auipc	a0,0x4
   10670:	dd450513          	addi	a0,a0,-556 # 14440 <end_signature+0x360>
   10674:	18d020ef          	jal	ra,13000 <FN_WriteStr>
   10678:	00040513          	mv	a0,s0
   1067c:	1a1020ef          	jal	ra,1301c <FN_WriteA0>
   10680:	00004517          	auipc	a0,0x4
   10684:	dc250513          	addi	a0,a0,-574 # 14442 <end_signature+0x362>
   10688:	179020ef          	jal	ra,13000 <FN_WriteStr>
   1068c:	00004517          	auipc	a0,0x4
   10690:	dbc50513          	addi	a0,a0,-580 # 14448 <end_signature+0x368>
   10694:	16d020ef          	jal	ra,13000 <FN_WriteStr>
   10698:	00004517          	auipc	a0,0x4
   1069c:	dbb50513          	addi	a0,a0,-581 # 14453 <end_signature+0x373>
   106a0:	161020ef          	jal	ra,13000 <FN_WriteStr>
   106a4:	06400193          	li	gp,100
   106a8:	0000100f          	fence.i
   106ac:	00018063          	beqz	gp,106ac <reset_vector+0x660>
   106b0:	00119193          	slli	gp,gp,0x1
   106b4:	0011e193          	ori	gp,gp,1
   106b8:	00000073          	ecall
   106bc:	00100293          	li	t0,1
   106c0:	08548e63          	beq	s1,t0,1075c <reset_vector+0x710>
   106c4:	00004517          	auipc	a0,0x4
   106c8:	d9150513          	addi	a0,a0,-623 # 14455 <end_signature+0x375>
   106cc:	135020ef          	jal	ra,13000 <FN_WriteStr>
   106d0:	00004517          	auipc	a0,0x4
   106d4:	da050513          	addi	a0,a0,-608 # 14470 <end_signature+0x390>
   106d8:	129020ef          	jal	ra,13000 <FN_WriteStr>
   106dc:	00004517          	auipc	a0,0x4
   106e0:	da350513          	addi	a0,a0,-605 # 1447f <end_signature+0x39f>
   106e4:	11d020ef          	jal	ra,13000 <FN_WriteStr>
   106e8:	00004517          	auipc	a0,0x4
   106ec:	d9f50513          	addi	a0,a0,-609 # 14487 <end_signature+0x3a7>
   106f0:	111020ef          	jal	ra,13000 <FN_WriteStr>
   106f4:	00004517          	auipc	a0,0x4
   106f8:	d9750513          	addi	a0,a0,-617 # 1448b <end_signature+0x3ab>
   106fc:	105020ef          	jal	ra,13000 <FN_WriteStr>
   10700:	00004517          	auipc	a0,0x4
   10704:	d8e50513          	addi	a0,a0,-626 # 1448e <end_signature+0x3ae>
   10708:	0f9020ef          	jal	ra,13000 <FN_WriteStr>
   1070c:	00004517          	auipc	a0,0x4
   10710:	d8550513          	addi	a0,a0,-635 # 14491 <end_signature+0x3b1>
   10714:	0ed020ef          	jal	ra,13000 <FN_WriteStr>
   10718:	00048513          	mv	a0,s1
   1071c:	101020ef          	jal	ra,1301c <FN_WriteA0>
   10720:	00004517          	auipc	a0,0x4
   10724:	d7350513          	addi	a0,a0,-653 # 14493 <end_signature+0x3b3>
   10728:	0d9020ef          	jal	ra,13000 <FN_WriteStr>
   1072c:	00004517          	auipc	a0,0x4
   10730:	d6d50513          	addi	a0,a0,-659 # 14499 <end_signature+0x3b9>
   10734:	0cd020ef          	jal	ra,13000 <FN_WriteStr>
   10738:	00004517          	auipc	a0,0x4
   1073c:	d6c50513          	addi	a0,a0,-660 # 144a4 <end_signature+0x3c4>
   10740:	0c1020ef          	jal	ra,13000 <FN_WriteStr>
   10744:	06400193          	li	gp,100
   10748:	0000100f          	fence.i
   1074c:	00018063          	beqz	gp,1074c <reset_vector+0x700>
   10750:	00119193          	slli	gp,gp,0x1
   10754:	0011e193          	ori	gp,gp,1
   10758:	00000073          	ecall
   1075c:	fff00293          	li	t0,-1
   10760:	08558e63          	beq	a1,t0,107fc <reset_vector+0x7b0>
   10764:	00004517          	auipc	a0,0x4
   10768:	d4250513          	addi	a0,a0,-702 # 144a6 <end_signature+0x3c6>
   1076c:	095020ef          	jal	ra,13000 <FN_WriteStr>
   10770:	00004517          	auipc	a0,0x4
   10774:	d5150513          	addi	a0,a0,-687 # 144c1 <end_signature+0x3e1>
   10778:	089020ef          	jal	ra,13000 <FN_WriteStr>
   1077c:	00004517          	auipc	a0,0x4
   10780:	d5450513          	addi	a0,a0,-684 # 144d0 <end_signature+0x3f0>
   10784:	07d020ef          	jal	ra,13000 <FN_WriteStr>
   10788:	00004517          	auipc	a0,0x4
   1078c:	d5050513          	addi	a0,a0,-688 # 144d8 <end_signature+0x3f8>
   10790:	071020ef          	jal	ra,13000 <FN_WriteStr>
   10794:	00004517          	auipc	a0,0x4
   10798:	d4850513          	addi	a0,a0,-696 # 144dc <end_signature+0x3fc>
   1079c:	065020ef          	jal	ra,13000 <FN_WriteStr>
   107a0:	00004517          	auipc	a0,0x4
   107a4:	d3f50513          	addi	a0,a0,-705 # 144df <end_signature+0x3ff>
   107a8:	059020ef          	jal	ra,13000 <FN_WriteStr>
   107ac:	00004517          	auipc	a0,0x4
   107b0:	d3750513          	addi	a0,a0,-713 # 144e3 <end_signature+0x403>
   107b4:	04d020ef          	jal	ra,13000 <FN_WriteStr>
   107b8:	00058513          	mv	a0,a1
   107bc:	061020ef          	jal	ra,1301c <FN_WriteA0>
   107c0:	00004517          	auipc	a0,0x4
   107c4:	d2550513          	addi	a0,a0,-731 # 144e5 <end_signature+0x405>
   107c8:	039020ef          	jal	ra,13000 <FN_WriteStr>
   107cc:	00004517          	auipc	a0,0x4
   107d0:	d1f50513          	addi	a0,a0,-737 # 144eb <end_signature+0x40b>
   107d4:	02d020ef          	jal	ra,13000 <FN_WriteStr>
   107d8:	00004517          	auipc	a0,0x4
   107dc:	d1e50513          	addi	a0,a0,-738 # 144f6 <end_signature+0x416>
   107e0:	021020ef          	jal	ra,13000 <FN_WriteStr>
   107e4:	06400193          	li	gp,100
   107e8:	0000100f          	fence.i
   107ec:	00018063          	beqz	gp,107ec <reset_vector+0x7a0>
   107f0:	00119193          	slli	gp,gp,0x1
   107f4:	0011e193          	ori	gp,gp,1
   107f8:	00000073          	ecall
   107fc:	00100293          	li	t0,1
   10800:	08560e63          	beq	a2,t0,1089c <reset_vector+0x850>
   10804:	00004517          	auipc	a0,0x4
   10808:	cf450513          	addi	a0,a0,-780 # 144f8 <end_signature+0x418>
   1080c:	7f4020ef          	jal	ra,13000 <FN_WriteStr>
   10810:	00004517          	auipc	a0,0x4
   10814:	d0350513          	addi	a0,a0,-765 # 14513 <end_signature+0x433>
   10818:	7e8020ef          	jal	ra,13000 <FN_WriteStr>
   1081c:	00004517          	auipc	a0,0x4
   10820:	d0650513          	addi	a0,a0,-762 # 14522 <end_signature+0x442>
   10824:	7dc020ef          	jal	ra,13000 <FN_WriteStr>
   10828:	00004517          	auipc	a0,0x4
   1082c:	d0250513          	addi	a0,a0,-766 # 1452a <end_signature+0x44a>
   10830:	7d0020ef          	jal	ra,13000 <FN_WriteStr>
   10834:	00004517          	auipc	a0,0x4
   10838:	cfa50513          	addi	a0,a0,-774 # 1452e <end_signature+0x44e>
   1083c:	7c4020ef          	jal	ra,13000 <FN_WriteStr>
   10840:	00004517          	auipc	a0,0x4
   10844:	cf150513          	addi	a0,a0,-783 # 14531 <end_signature+0x451>
   10848:	7b8020ef          	jal	ra,13000 <FN_WriteStr>
   1084c:	00004517          	auipc	a0,0x4
   10850:	ce950513          	addi	a0,a0,-791 # 14535 <end_signature+0x455>
   10854:	7ac020ef          	jal	ra,13000 <FN_WriteStr>
   10858:	00060513          	mv	a0,a2
   1085c:	7c0020ef          	jal	ra,1301c <FN_WriteA0>
   10860:	00004517          	auipc	a0,0x4
   10864:	cd750513          	addi	a0,a0,-809 # 14537 <end_signature+0x457>
   10868:	798020ef          	jal	ra,13000 <FN_WriteStr>
   1086c:	00004517          	auipc	a0,0x4
   10870:	cd150513          	addi	a0,a0,-815 # 1453d <end_signature+0x45d>
   10874:	78c020ef          	jal	ra,13000 <FN_WriteStr>
   10878:	00004517          	auipc	a0,0x4
   1087c:	cd050513          	addi	a0,a0,-816 # 14548 <end_signature+0x468>
   10880:	780020ef          	jal	ra,13000 <FN_WriteStr>
   10884:	06400193          	li	gp,100
   10888:	0000100f          	fence.i
   1088c:	00018063          	beqz	gp,1088c <reset_vector+0x840>
   10890:	00119193          	slli	gp,gp,0x1
   10894:	0011e193          	ori	gp,gp,1
   10898:	00000073          	ecall
   1089c:	80100293          	li	t0,-2047
   108a0:	08568e63          	beq	a3,t0,1093c <reset_vector+0x8f0>
   108a4:	00004517          	auipc	a0,0x4
   108a8:	ca650513          	addi	a0,a0,-858 # 1454a <end_signature+0x46a>
   108ac:	754020ef          	jal	ra,13000 <FN_WriteStr>
   108b0:	00004517          	auipc	a0,0x4
   108b4:	cb550513          	addi	a0,a0,-843 # 14565 <end_signature+0x485>
   108b8:	748020ef          	jal	ra,13000 <FN_WriteStr>
   108bc:	00004517          	auipc	a0,0x4
   108c0:	cb850513          	addi	a0,a0,-840 # 14574 <end_signature+0x494>
   108c4:	73c020ef          	jal	ra,13000 <FN_WriteStr>
   108c8:	00004517          	auipc	a0,0x4
   108cc:	cb450513          	addi	a0,a0,-844 # 1457c <end_signature+0x49c>
   108d0:	730020ef          	jal	ra,13000 <FN_WriteStr>
   108d4:	00004517          	auipc	a0,0x4
   108d8:	cac50513          	addi	a0,a0,-852 # 14580 <end_signature+0x4a0>
   108dc:	724020ef          	jal	ra,13000 <FN_WriteStr>
   108e0:	00004517          	auipc	a0,0x4
   108e4:	ca350513          	addi	a0,a0,-861 # 14583 <end_signature+0x4a3>
   108e8:	718020ef          	jal	ra,13000 <FN_WriteStr>
   108ec:	00004517          	auipc	a0,0x4
   108f0:	c9b50513          	addi	a0,a0,-869 # 14587 <end_signature+0x4a7>
   108f4:	70c020ef          	jal	ra,13000 <FN_WriteStr>
   108f8:	00068513          	mv	a0,a3
   108fc:	720020ef          	jal	ra,1301c <FN_WriteA0>
   10900:	00004517          	auipc	a0,0x4
   10904:	c8950513          	addi	a0,a0,-887 # 14589 <end_signature+0x4a9>
   10908:	6f8020ef          	jal	ra,13000 <FN_WriteStr>
   1090c:	00004517          	auipc	a0,0x4
   10910:	c8350513          	addi	a0,a0,-893 # 1458f <end_signature+0x4af>
   10914:	6ec020ef          	jal	ra,13000 <FN_WriteStr>
   10918:	00004517          	auipc	a0,0x4
   1091c:	c8250513          	addi	a0,a0,-894 # 1459a <end_signature+0x4ba>
   10920:	6e0020ef          	jal	ra,13000 <FN_WriteStr>
   10924:	06400193          	li	gp,100
   10928:	0000100f          	fence.i
   1092c:	00018063          	beqz	gp,1092c <reset_vector+0x8e0>
   10930:	00119193          	slli	gp,gp,0x1
   10934:	0011e193          	ori	gp,gp,1
   10938:	00000073          	ecall
   1093c:	00004517          	auipc	a0,0x4
   10940:	c6050513          	addi	a0,a0,-928 # 1459c <end_signature+0x4bc>
   10944:	6bc020ef          	jal	ra,13000 <FN_WriteStr>
   10948:	00004517          	auipc	a0,0x4
   1094c:	c7050513          	addi	a0,a0,-912 # 145b8 <end_signature+0x4d8>
   10950:	6b0020ef          	jal	ra,13000 <FN_WriteStr>
   10954:	00003097          	auipc	ra,0x3
   10958:	6b408093          	addi	ra,ra,1716 # 14008 <test_A3_data>
   1095c:	00003117          	auipc	sp,0x3
   10960:	70410113          	addi	sp,sp,1796 # 14060 <test_A3_res>
   10964:	0000a683          	lw	a3,0(ra)
   10968:	0016e713          	ori	a4,a3,1
   1096c:	7ff6e793          	ori	a5,a3,2047
   10970:	fff6e813          	ori	a6,a3,-1
   10974:	0006e893          	ori	a7,a3,0
   10978:	8006e913          	ori	s2,a3,-2048
   1097c:	00d12023          	sw	a3,0(sp)
   10980:	00e12223          	sw	a4,4(sp)
   10984:	00f12423          	sw	a5,8(sp)
   10988:	01012623          	sw	a6,12(sp)
   1098c:	01112823          	sw	a7,16(sp)
   10990:	01212a23          	sw	s2,20(sp)
   10994:	fff00293          	li	t0,-1
   10998:	08568e63          	beq	a3,t0,10a34 <reset_vector+0x9e8>
   1099c:	00004517          	auipc	a0,0x4
   109a0:	c7050513          	addi	a0,a0,-912 # 1460c <end_signature+0x52c>
   109a4:	65c020ef          	jal	ra,13000 <FN_WriteStr>
   109a8:	00004517          	auipc	a0,0x4
   109ac:	c7f50513          	addi	a0,a0,-897 # 14627 <end_signature+0x547>
   109b0:	650020ef          	jal	ra,13000 <FN_WriteStr>
   109b4:	00004517          	auipc	a0,0x4
   109b8:	c8250513          	addi	a0,a0,-894 # 14636 <end_signature+0x556>
   109bc:	644020ef          	jal	ra,13000 <FN_WriteStr>
   109c0:	00004517          	auipc	a0,0x4
   109c4:	c7e50513          	addi	a0,a0,-898 # 1463e <end_signature+0x55e>
   109c8:	638020ef          	jal	ra,13000 <FN_WriteStr>
   109cc:	00004517          	auipc	a0,0x4
   109d0:	c7650513          	addi	a0,a0,-906 # 14642 <end_signature+0x562>
   109d4:	62c020ef          	jal	ra,13000 <FN_WriteStr>
   109d8:	00004517          	auipc	a0,0x4
   109dc:	c6d50513          	addi	a0,a0,-915 # 14645 <end_signature+0x565>
   109e0:	620020ef          	jal	ra,13000 <FN_WriteStr>
   109e4:	00004517          	auipc	a0,0x4
   109e8:	c6550513          	addi	a0,a0,-923 # 14649 <end_signature+0x569>
   109ec:	614020ef          	jal	ra,13000 <FN_WriteStr>
   109f0:	00068513          	mv	a0,a3
   109f4:	628020ef          	jal	ra,1301c <FN_WriteA0>
   109f8:	00004517          	auipc	a0,0x4
   109fc:	c5350513          	addi	a0,a0,-941 # 1464b <end_signature+0x56b>
   10a00:	600020ef          	jal	ra,13000 <FN_WriteStr>
   10a04:	00004517          	auipc	a0,0x4
   10a08:	c4d50513          	addi	a0,a0,-947 # 14651 <end_signature+0x571>
   10a0c:	5f4020ef          	jal	ra,13000 <FN_WriteStr>
   10a10:	00004517          	auipc	a0,0x4
   10a14:	c4c50513          	addi	a0,a0,-948 # 1465c <end_signature+0x57c>
   10a18:	5e8020ef          	jal	ra,13000 <FN_WriteStr>
   10a1c:	06400193          	li	gp,100
   10a20:	0000100f          	fence.i
   10a24:	00018063          	beqz	gp,10a24 <reset_vector+0x9d8>
   10a28:	00119193          	slli	gp,gp,0x1
   10a2c:	0011e193          	ori	gp,gp,1
   10a30:	00000073          	ecall
   10a34:	fff00293          	li	t0,-1
   10a38:	08570e63          	beq	a4,t0,10ad4 <reset_vector+0xa88>
   10a3c:	00004517          	auipc	a0,0x4
   10a40:	c2250513          	addi	a0,a0,-990 # 1465e <end_signature+0x57e>
   10a44:	5bc020ef          	jal	ra,13000 <FN_WriteStr>
   10a48:	00004517          	auipc	a0,0x4
   10a4c:	c3150513          	addi	a0,a0,-975 # 14679 <end_signature+0x599>
   10a50:	5b0020ef          	jal	ra,13000 <FN_WriteStr>
   10a54:	00004517          	auipc	a0,0x4
   10a58:	c3450513          	addi	a0,a0,-972 # 14688 <end_signature+0x5a8>
   10a5c:	5a4020ef          	jal	ra,13000 <FN_WriteStr>
   10a60:	00004517          	auipc	a0,0x4
   10a64:	c3050513          	addi	a0,a0,-976 # 14690 <end_signature+0x5b0>
   10a68:	598020ef          	jal	ra,13000 <FN_WriteStr>
   10a6c:	00004517          	auipc	a0,0x4
   10a70:	c2850513          	addi	a0,a0,-984 # 14694 <end_signature+0x5b4>
   10a74:	58c020ef          	jal	ra,13000 <FN_WriteStr>
   10a78:	00004517          	auipc	a0,0x4
   10a7c:	c1f50513          	addi	a0,a0,-993 # 14697 <end_signature+0x5b7>
   10a80:	580020ef          	jal	ra,13000 <FN_WriteStr>
   10a84:	00004517          	auipc	a0,0x4
   10a88:	c1750513          	addi	a0,a0,-1001 # 1469b <end_signature+0x5bb>
   10a8c:	574020ef          	jal	ra,13000 <FN_WriteStr>
   10a90:	00070513          	mv	a0,a4
   10a94:	588020ef          	jal	ra,1301c <FN_WriteA0>
   10a98:	00004517          	auipc	a0,0x4
   10a9c:	c0550513          	addi	a0,a0,-1019 # 1469d <end_signature+0x5bd>
   10aa0:	560020ef          	jal	ra,13000 <FN_WriteStr>
   10aa4:	00004517          	auipc	a0,0x4
   10aa8:	bff50513          	addi	a0,a0,-1025 # 146a3 <end_signature+0x5c3>
   10aac:	554020ef          	jal	ra,13000 <FN_WriteStr>
   10ab0:	00004517          	auipc	a0,0x4
   10ab4:	bfe50513          	addi	a0,a0,-1026 # 146ae <end_signature+0x5ce>
   10ab8:	548020ef          	jal	ra,13000 <FN_WriteStr>
   10abc:	06400193          	li	gp,100
   10ac0:	0000100f          	fence.i
   10ac4:	00018063          	beqz	gp,10ac4 <reset_vector+0xa78>
   10ac8:	00119193          	slli	gp,gp,0x1
   10acc:	0011e193          	ori	gp,gp,1
   10ad0:	00000073          	ecall
   10ad4:	fff00293          	li	t0,-1
   10ad8:	08578e63          	beq	a5,t0,10b74 <reset_vector+0xb28>
   10adc:	00004517          	auipc	a0,0x4
   10ae0:	bd450513          	addi	a0,a0,-1068 # 146b0 <end_signature+0x5d0>
   10ae4:	51c020ef          	jal	ra,13000 <FN_WriteStr>
   10ae8:	00004517          	auipc	a0,0x4
   10aec:	be350513          	addi	a0,a0,-1053 # 146cb <end_signature+0x5eb>
   10af0:	510020ef          	jal	ra,13000 <FN_WriteStr>
   10af4:	00004517          	auipc	a0,0x4
   10af8:	be650513          	addi	a0,a0,-1050 # 146da <end_signature+0x5fa>
   10afc:	504020ef          	jal	ra,13000 <FN_WriteStr>
   10b00:	00004517          	auipc	a0,0x4
   10b04:	be250513          	addi	a0,a0,-1054 # 146e2 <end_signature+0x602>
   10b08:	4f8020ef          	jal	ra,13000 <FN_WriteStr>
   10b0c:	00004517          	auipc	a0,0x4
   10b10:	bda50513          	addi	a0,a0,-1062 # 146e6 <end_signature+0x606>
   10b14:	4ec020ef          	jal	ra,13000 <FN_WriteStr>
   10b18:	00004517          	auipc	a0,0x4
   10b1c:	bd150513          	addi	a0,a0,-1071 # 146e9 <end_signature+0x609>
   10b20:	4e0020ef          	jal	ra,13000 <FN_WriteStr>
   10b24:	00004517          	auipc	a0,0x4
   10b28:	bc950513          	addi	a0,a0,-1079 # 146ed <end_signature+0x60d>
   10b2c:	4d4020ef          	jal	ra,13000 <FN_WriteStr>
   10b30:	00078513          	mv	a0,a5
   10b34:	4e8020ef          	jal	ra,1301c <FN_WriteA0>
   10b38:	00004517          	auipc	a0,0x4
   10b3c:	bb750513          	addi	a0,a0,-1097 # 146ef <end_signature+0x60f>
   10b40:	4c0020ef          	jal	ra,13000 <FN_WriteStr>
   10b44:	00004517          	auipc	a0,0x4
   10b48:	bb150513          	addi	a0,a0,-1103 # 146f5 <end_signature+0x615>
   10b4c:	4b4020ef          	jal	ra,13000 <FN_WriteStr>
   10b50:	00004517          	auipc	a0,0x4
   10b54:	bb050513          	addi	a0,a0,-1104 # 14700 <end_signature+0x620>
   10b58:	4a8020ef          	jal	ra,13000 <FN_WriteStr>
   10b5c:	06400193          	li	gp,100
   10b60:	0000100f          	fence.i
   10b64:	00018063          	beqz	gp,10b64 <reset_vector+0xb18>
   10b68:	00119193          	slli	gp,gp,0x1
   10b6c:	0011e193          	ori	gp,gp,1
   10b70:	00000073          	ecall
   10b74:	fff00293          	li	t0,-1
   10b78:	08580e63          	beq	a6,t0,10c14 <reset_vector+0xbc8>
   10b7c:	00004517          	auipc	a0,0x4
   10b80:	b8650513          	addi	a0,a0,-1146 # 14702 <end_signature+0x622>
   10b84:	47c020ef          	jal	ra,13000 <FN_WriteStr>
   10b88:	00004517          	auipc	a0,0x4
   10b8c:	b9550513          	addi	a0,a0,-1131 # 1471d <end_signature+0x63d>
   10b90:	470020ef          	jal	ra,13000 <FN_WriteStr>
   10b94:	00004517          	auipc	a0,0x4
   10b98:	b9850513          	addi	a0,a0,-1128 # 1472c <end_signature+0x64c>
   10b9c:	464020ef          	jal	ra,13000 <FN_WriteStr>
   10ba0:	00004517          	auipc	a0,0x4
   10ba4:	b9450513          	addi	a0,a0,-1132 # 14734 <end_signature+0x654>
   10ba8:	458020ef          	jal	ra,13000 <FN_WriteStr>
   10bac:	00004517          	auipc	a0,0x4
   10bb0:	b8c50513          	addi	a0,a0,-1140 # 14738 <end_signature+0x658>
   10bb4:	44c020ef          	jal	ra,13000 <FN_WriteStr>
   10bb8:	00004517          	auipc	a0,0x4
   10bbc:	b8350513          	addi	a0,a0,-1149 # 1473b <end_signature+0x65b>
   10bc0:	440020ef          	jal	ra,13000 <FN_WriteStr>
   10bc4:	00004517          	auipc	a0,0x4
   10bc8:	b7b50513          	addi	a0,a0,-1157 # 1473f <end_signature+0x65f>
   10bcc:	434020ef          	jal	ra,13000 <FN_WriteStr>
   10bd0:	00080513          	mv	a0,a6
   10bd4:	448020ef          	jal	ra,1301c <FN_WriteA0>
   10bd8:	00004517          	auipc	a0,0x4
   10bdc:	b6950513          	addi	a0,a0,-1175 # 14741 <end_signature+0x661>
   10be0:	420020ef          	jal	ra,13000 <FN_WriteStr>
   10be4:	00004517          	auipc	a0,0x4
   10be8:	b6350513          	addi	a0,a0,-1181 # 14747 <end_signature+0x667>
   10bec:	414020ef          	jal	ra,13000 <FN_WriteStr>
   10bf0:	00004517          	auipc	a0,0x4
   10bf4:	b6250513          	addi	a0,a0,-1182 # 14752 <end_signature+0x672>
   10bf8:	408020ef          	jal	ra,13000 <FN_WriteStr>
   10bfc:	06400193          	li	gp,100
   10c00:	0000100f          	fence.i
   10c04:	00018063          	beqz	gp,10c04 <reset_vector+0xbb8>
   10c08:	00119193          	slli	gp,gp,0x1
   10c0c:	0011e193          	ori	gp,gp,1
   10c10:	00000073          	ecall
   10c14:	fff00293          	li	t0,-1
   10c18:	08588e63          	beq	a7,t0,10cb4 <reset_vector+0xc68>
   10c1c:	00004517          	auipc	a0,0x4
   10c20:	b3850513          	addi	a0,a0,-1224 # 14754 <end_signature+0x674>
   10c24:	3dc020ef          	jal	ra,13000 <FN_WriteStr>
   10c28:	00004517          	auipc	a0,0x4
   10c2c:	b4750513          	addi	a0,a0,-1209 # 1476f <end_signature+0x68f>
   10c30:	3d0020ef          	jal	ra,13000 <FN_WriteStr>
   10c34:	00004517          	auipc	a0,0x4
   10c38:	b4a50513          	addi	a0,a0,-1206 # 1477e <end_signature+0x69e>
   10c3c:	3c4020ef          	jal	ra,13000 <FN_WriteStr>
   10c40:	00004517          	auipc	a0,0x4
   10c44:	b4650513          	addi	a0,a0,-1210 # 14786 <end_signature+0x6a6>
   10c48:	3b8020ef          	jal	ra,13000 <FN_WriteStr>
   10c4c:	00004517          	auipc	a0,0x4
   10c50:	b3e50513          	addi	a0,a0,-1218 # 1478a <end_signature+0x6aa>
   10c54:	3ac020ef          	jal	ra,13000 <FN_WriteStr>
   10c58:	00004517          	auipc	a0,0x4
   10c5c:	b3550513          	addi	a0,a0,-1227 # 1478d <end_signature+0x6ad>
   10c60:	3a0020ef          	jal	ra,13000 <FN_WriteStr>
   10c64:	00004517          	auipc	a0,0x4
   10c68:	b2d50513          	addi	a0,a0,-1235 # 14791 <end_signature+0x6b1>
   10c6c:	394020ef          	jal	ra,13000 <FN_WriteStr>
   10c70:	00088513          	mv	a0,a7
   10c74:	3a8020ef          	jal	ra,1301c <FN_WriteA0>
   10c78:	00004517          	auipc	a0,0x4
   10c7c:	b1b50513          	addi	a0,a0,-1253 # 14793 <end_signature+0x6b3>
   10c80:	380020ef          	jal	ra,13000 <FN_WriteStr>
   10c84:	00004517          	auipc	a0,0x4
   10c88:	b1550513          	addi	a0,a0,-1259 # 14799 <end_signature+0x6b9>
   10c8c:	374020ef          	jal	ra,13000 <FN_WriteStr>
   10c90:	00004517          	auipc	a0,0x4
   10c94:	b1450513          	addi	a0,a0,-1260 # 147a4 <end_signature+0x6c4>
   10c98:	368020ef          	jal	ra,13000 <FN_WriteStr>
   10c9c:	06400193          	li	gp,100
   10ca0:	0000100f          	fence.i
   10ca4:	00018063          	beqz	gp,10ca4 <reset_vector+0xc58>
   10ca8:	00119193          	slli	gp,gp,0x1
   10cac:	0011e193          	ori	gp,gp,1
   10cb0:	00000073          	ecall
   10cb4:	fff00293          	li	t0,-1
   10cb8:	08590e63          	beq	s2,t0,10d54 <reset_vector+0xd08>
   10cbc:	00004517          	auipc	a0,0x4
   10cc0:	aea50513          	addi	a0,a0,-1302 # 147a6 <end_signature+0x6c6>
   10cc4:	33c020ef          	jal	ra,13000 <FN_WriteStr>
   10cc8:	00004517          	auipc	a0,0x4
   10ccc:	af950513          	addi	a0,a0,-1287 # 147c1 <end_signature+0x6e1>
   10cd0:	330020ef          	jal	ra,13000 <FN_WriteStr>
   10cd4:	00004517          	auipc	a0,0x4
   10cd8:	afc50513          	addi	a0,a0,-1284 # 147d0 <end_signature+0x6f0>
   10cdc:	324020ef          	jal	ra,13000 <FN_WriteStr>
   10ce0:	00004517          	auipc	a0,0x4
   10ce4:	af850513          	addi	a0,a0,-1288 # 147d8 <end_signature+0x6f8>
   10ce8:	318020ef          	jal	ra,13000 <FN_WriteStr>
   10cec:	00004517          	auipc	a0,0x4
   10cf0:	af050513          	addi	a0,a0,-1296 # 147dc <end_signature+0x6fc>
   10cf4:	30c020ef          	jal	ra,13000 <FN_WriteStr>
   10cf8:	00004517          	auipc	a0,0x4
   10cfc:	ae750513          	addi	a0,a0,-1305 # 147df <end_signature+0x6ff>
   10d00:	300020ef          	jal	ra,13000 <FN_WriteStr>
   10d04:	00004517          	auipc	a0,0x4
   10d08:	adf50513          	addi	a0,a0,-1313 # 147e3 <end_signature+0x703>
   10d0c:	2f4020ef          	jal	ra,13000 <FN_WriteStr>
   10d10:	00090513          	mv	a0,s2
   10d14:	308020ef          	jal	ra,1301c <FN_WriteA0>
   10d18:	00004517          	auipc	a0,0x4
   10d1c:	acd50513          	addi	a0,a0,-1331 # 147e5 <end_signature+0x705>
   10d20:	2e0020ef          	jal	ra,13000 <FN_WriteStr>
   10d24:	00004517          	auipc	a0,0x4
   10d28:	ac750513          	addi	a0,a0,-1337 # 147eb <end_signature+0x70b>
   10d2c:	2d4020ef          	jal	ra,13000 <FN_WriteStr>
   10d30:	00004517          	auipc	a0,0x4
   10d34:	ac650513          	addi	a0,a0,-1338 # 147f6 <end_signature+0x716>
   10d38:	2c8020ef          	jal	ra,13000 <FN_WriteStr>
   10d3c:	06400193          	li	gp,100
   10d40:	0000100f          	fence.i
   10d44:	00018063          	beqz	gp,10d44 <reset_vector+0xcf8>
   10d48:	00119193          	slli	gp,gp,0x1
   10d4c:	0011e193          	ori	gp,gp,1
   10d50:	00000073          	ecall
   10d54:	00004517          	auipc	a0,0x4
   10d58:	aa450513          	addi	a0,a0,-1372 # 147f8 <end_signature+0x718>
   10d5c:	2a4020ef          	jal	ra,13000 <FN_WriteStr>
   10d60:	00004517          	auipc	a0,0x4
   10d64:	ab450513          	addi	a0,a0,-1356 # 14814 <end_signature+0x734>
   10d68:	298020ef          	jal	ra,13000 <FN_WriteStr>
   10d6c:	00003097          	auipc	ra,0x3
   10d70:	2a008093          	addi	ra,ra,672 # 1400c <test_A4_data>
   10d74:	00003117          	auipc	sp,0x3
   10d78:	30410113          	addi	sp,sp,772 # 14078 <test_A4_res>
   10d7c:	0000a903          	lw	s2,0(ra)
   10d80:	00196993          	ori	s3,s2,1
   10d84:	7ff96a13          	ori	s4,s2,2047
   10d88:	fff96a93          	ori	s5,s2,-1
   10d8c:	00096b13          	ori	s6,s2,0
   10d90:	80096b93          	ori	s7,s2,-2048
   10d94:	01212023          	sw	s2,0(sp)
   10d98:	01312223          	sw	s3,4(sp)
   10d9c:	01412423          	sw	s4,8(sp)
   10da0:	01512623          	sw	s5,12(sp)
   10da4:	01612823          	sw	s6,16(sp)
   10da8:	01712a23          	sw	s7,20(sp)
   10dac:	800002b7          	lui	t0,0x80000
   10db0:	fff28293          	addi	t0,t0,-1 # 7fffffff <_end+0x7ffeadcb>
   10db4:	08590e63          	beq	s2,t0,10e50 <reset_vector+0xe04>
   10db8:	00004517          	auipc	a0,0x4
   10dbc:	ab850513          	addi	a0,a0,-1352 # 14870 <end_signature+0x790>
   10dc0:	240020ef          	jal	ra,13000 <FN_WriteStr>
   10dc4:	00004517          	auipc	a0,0x4
   10dc8:	ac750513          	addi	a0,a0,-1337 # 1488b <end_signature+0x7ab>
   10dcc:	234020ef          	jal	ra,13000 <FN_WriteStr>
   10dd0:	00004517          	auipc	a0,0x4
   10dd4:	aca50513          	addi	a0,a0,-1334 # 1489a <end_signature+0x7ba>
   10dd8:	228020ef          	jal	ra,13000 <FN_WriteStr>
   10ddc:	00004517          	auipc	a0,0x4
   10de0:	ac650513          	addi	a0,a0,-1338 # 148a2 <end_signature+0x7c2>
   10de4:	21c020ef          	jal	ra,13000 <FN_WriteStr>
   10de8:	00004517          	auipc	a0,0x4
   10dec:	abe50513          	addi	a0,a0,-1346 # 148a6 <end_signature+0x7c6>
   10df0:	210020ef          	jal	ra,13000 <FN_WriteStr>
   10df4:	00004517          	auipc	a0,0x4
   10df8:	ab550513          	addi	a0,a0,-1355 # 148a9 <end_signature+0x7c9>
   10dfc:	204020ef          	jal	ra,13000 <FN_WriteStr>
   10e00:	00004517          	auipc	a0,0x4
   10e04:	aad50513          	addi	a0,a0,-1363 # 148ad <end_signature+0x7cd>
   10e08:	1f8020ef          	jal	ra,13000 <FN_WriteStr>
   10e0c:	00090513          	mv	a0,s2
   10e10:	20c020ef          	jal	ra,1301c <FN_WriteA0>
   10e14:	00004517          	auipc	a0,0x4
   10e18:	a9b50513          	addi	a0,a0,-1381 # 148af <end_signature+0x7cf>
   10e1c:	1e4020ef          	jal	ra,13000 <FN_WriteStr>
   10e20:	00004517          	auipc	a0,0x4
   10e24:	a9550513          	addi	a0,a0,-1387 # 148b5 <end_signature+0x7d5>
   10e28:	1d8020ef          	jal	ra,13000 <FN_WriteStr>
   10e2c:	00004517          	auipc	a0,0x4
   10e30:	a9450513          	addi	a0,a0,-1388 # 148c0 <end_signature+0x7e0>
   10e34:	1cc020ef          	jal	ra,13000 <FN_WriteStr>
   10e38:	06400193          	li	gp,100
   10e3c:	0000100f          	fence.i
   10e40:	00018063          	beqz	gp,10e40 <reset_vector+0xdf4>
   10e44:	00119193          	slli	gp,gp,0x1
   10e48:	0011e193          	ori	gp,gp,1
   10e4c:	00000073          	ecall
   10e50:	800002b7          	lui	t0,0x80000
   10e54:	fff28293          	addi	t0,t0,-1 # 7fffffff <_end+0x7ffeadcb>
   10e58:	08598e63          	beq	s3,t0,10ef4 <reset_vector+0xea8>
   10e5c:	00004517          	auipc	a0,0x4
   10e60:	a6650513          	addi	a0,a0,-1434 # 148c2 <end_signature+0x7e2>
   10e64:	19c020ef          	jal	ra,13000 <FN_WriteStr>
   10e68:	00004517          	auipc	a0,0x4
   10e6c:	a7550513          	addi	a0,a0,-1419 # 148dd <end_signature+0x7fd>
   10e70:	190020ef          	jal	ra,13000 <FN_WriteStr>
   10e74:	00004517          	auipc	a0,0x4
   10e78:	a7850513          	addi	a0,a0,-1416 # 148ec <end_signature+0x80c>
   10e7c:	184020ef          	jal	ra,13000 <FN_WriteStr>
   10e80:	00004517          	auipc	a0,0x4
   10e84:	a7450513          	addi	a0,a0,-1420 # 148f4 <end_signature+0x814>
   10e88:	178020ef          	jal	ra,13000 <FN_WriteStr>
   10e8c:	00004517          	auipc	a0,0x4
   10e90:	a6c50513          	addi	a0,a0,-1428 # 148f8 <end_signature+0x818>
   10e94:	16c020ef          	jal	ra,13000 <FN_WriteStr>
   10e98:	00004517          	auipc	a0,0x4
   10e9c:	a6350513          	addi	a0,a0,-1437 # 148fb <end_signature+0x81b>
   10ea0:	160020ef          	jal	ra,13000 <FN_WriteStr>
   10ea4:	00004517          	auipc	a0,0x4
   10ea8:	a5b50513          	addi	a0,a0,-1445 # 148ff <end_signature+0x81f>
   10eac:	154020ef          	jal	ra,13000 <FN_WriteStr>
   10eb0:	00098513          	mv	a0,s3
   10eb4:	168020ef          	jal	ra,1301c <FN_WriteA0>
   10eb8:	00004517          	auipc	a0,0x4
   10ebc:	a4950513          	addi	a0,a0,-1463 # 14901 <end_signature+0x821>
   10ec0:	140020ef          	jal	ra,13000 <FN_WriteStr>
   10ec4:	00004517          	auipc	a0,0x4
   10ec8:	a4350513          	addi	a0,a0,-1469 # 14907 <end_signature+0x827>
   10ecc:	134020ef          	jal	ra,13000 <FN_WriteStr>
   10ed0:	00004517          	auipc	a0,0x4
   10ed4:	a4250513          	addi	a0,a0,-1470 # 14912 <end_signature+0x832>
   10ed8:	128020ef          	jal	ra,13000 <FN_WriteStr>
   10edc:	06400193          	li	gp,100
   10ee0:	0000100f          	fence.i
   10ee4:	00018063          	beqz	gp,10ee4 <reset_vector+0xe98>
   10ee8:	00119193          	slli	gp,gp,0x1
   10eec:	0011e193          	ori	gp,gp,1
   10ef0:	00000073          	ecall
   10ef4:	800002b7          	lui	t0,0x80000
   10ef8:	fff28293          	addi	t0,t0,-1 # 7fffffff <_end+0x7ffeadcb>
   10efc:	085a0e63          	beq	s4,t0,10f98 <reset_vector+0xf4c>
   10f00:	00004517          	auipc	a0,0x4
   10f04:	a1450513          	addi	a0,a0,-1516 # 14914 <end_signature+0x834>
   10f08:	0f8020ef          	jal	ra,13000 <FN_WriteStr>
   10f0c:	00004517          	auipc	a0,0x4
   10f10:	a2350513          	addi	a0,a0,-1501 # 1492f <end_signature+0x84f>
   10f14:	0ec020ef          	jal	ra,13000 <FN_WriteStr>
   10f18:	00004517          	auipc	a0,0x4
   10f1c:	a2650513          	addi	a0,a0,-1498 # 1493e <end_signature+0x85e>
   10f20:	0e0020ef          	jal	ra,13000 <FN_WriteStr>
   10f24:	00004517          	auipc	a0,0x4
   10f28:	a2250513          	addi	a0,a0,-1502 # 14946 <end_signature+0x866>
   10f2c:	0d4020ef          	jal	ra,13000 <FN_WriteStr>
   10f30:	00004517          	auipc	a0,0x4
   10f34:	a1a50513          	addi	a0,a0,-1510 # 1494a <end_signature+0x86a>
   10f38:	0c8020ef          	jal	ra,13000 <FN_WriteStr>
   10f3c:	00004517          	auipc	a0,0x4
   10f40:	a1150513          	addi	a0,a0,-1519 # 1494d <end_signature+0x86d>
   10f44:	0bc020ef          	jal	ra,13000 <FN_WriteStr>
   10f48:	00004517          	auipc	a0,0x4
   10f4c:	a0950513          	addi	a0,a0,-1527 # 14951 <end_signature+0x871>
   10f50:	0b0020ef          	jal	ra,13000 <FN_WriteStr>
   10f54:	000a0513          	mv	a0,s4
   10f58:	0c4020ef          	jal	ra,1301c <FN_WriteA0>
   10f5c:	00004517          	auipc	a0,0x4
   10f60:	9f750513          	addi	a0,a0,-1545 # 14953 <end_signature+0x873>
   10f64:	09c020ef          	jal	ra,13000 <FN_WriteStr>
   10f68:	00004517          	auipc	a0,0x4
   10f6c:	9f150513          	addi	a0,a0,-1551 # 14959 <end_signature+0x879>
   10f70:	090020ef          	jal	ra,13000 <FN_WriteStr>
   10f74:	00004517          	auipc	a0,0x4
   10f78:	9f050513          	addi	a0,a0,-1552 # 14964 <end_signature+0x884>
   10f7c:	084020ef          	jal	ra,13000 <FN_WriteStr>
   10f80:	06400193          	li	gp,100
   10f84:	0000100f          	fence.i
   10f88:	00018063          	beqz	gp,10f88 <reset_vector+0xf3c>
   10f8c:	00119193          	slli	gp,gp,0x1
   10f90:	0011e193          	ori	gp,gp,1
   10f94:	00000073          	ecall
   10f98:	fff00293          	li	t0,-1
   10f9c:	085a8e63          	beq	s5,t0,11038 <reset_vector+0xfec>
   10fa0:	00004517          	auipc	a0,0x4
   10fa4:	9c650513          	addi	a0,a0,-1594 # 14966 <end_signature+0x886>
   10fa8:	058020ef          	jal	ra,13000 <FN_WriteStr>
   10fac:	00004517          	auipc	a0,0x4
   10fb0:	9d550513          	addi	a0,a0,-1579 # 14981 <end_signature+0x8a1>
   10fb4:	04c020ef          	jal	ra,13000 <FN_WriteStr>
   10fb8:	00004517          	auipc	a0,0x4
   10fbc:	9d850513          	addi	a0,a0,-1576 # 14990 <end_signature+0x8b0>
   10fc0:	040020ef          	jal	ra,13000 <FN_WriteStr>
   10fc4:	00004517          	auipc	a0,0x4
   10fc8:	9d450513          	addi	a0,a0,-1580 # 14998 <end_signature+0x8b8>
   10fcc:	034020ef          	jal	ra,13000 <FN_WriteStr>
   10fd0:	00004517          	auipc	a0,0x4
   10fd4:	9cc50513          	addi	a0,a0,-1588 # 1499c <end_signature+0x8bc>
   10fd8:	028020ef          	jal	ra,13000 <FN_WriteStr>
   10fdc:	00004517          	auipc	a0,0x4
   10fe0:	9c350513          	addi	a0,a0,-1597 # 1499f <end_signature+0x8bf>
   10fe4:	01c020ef          	jal	ra,13000 <FN_WriteStr>
   10fe8:	00004517          	auipc	a0,0x4
   10fec:	9bb50513          	addi	a0,a0,-1605 # 149a3 <end_signature+0x8c3>
   10ff0:	010020ef          	jal	ra,13000 <FN_WriteStr>
   10ff4:	000a8513          	mv	a0,s5
   10ff8:	024020ef          	jal	ra,1301c <FN_WriteA0>
   10ffc:	00004517          	auipc	a0,0x4
   11000:	9a950513          	addi	a0,a0,-1623 # 149a5 <end_signature+0x8c5>
   11004:	7fd010ef          	jal	ra,13000 <FN_WriteStr>
   11008:	00004517          	auipc	a0,0x4
   1100c:	9a350513          	addi	a0,a0,-1629 # 149ab <end_signature+0x8cb>
   11010:	7f1010ef          	jal	ra,13000 <FN_WriteStr>
   11014:	00004517          	auipc	a0,0x4
   11018:	9a250513          	addi	a0,a0,-1630 # 149b6 <end_signature+0x8d6>
   1101c:	7e5010ef          	jal	ra,13000 <FN_WriteStr>
   11020:	06400193          	li	gp,100
   11024:	0000100f          	fence.i
   11028:	00018063          	beqz	gp,11028 <reset_vector+0xfdc>
   1102c:	00119193          	slli	gp,gp,0x1
   11030:	0011e193          	ori	gp,gp,1
   11034:	00000073          	ecall
   11038:	800002b7          	lui	t0,0x80000
   1103c:	fff28293          	addi	t0,t0,-1 # 7fffffff <_end+0x7ffeadcb>
   11040:	085b0e63          	beq	s6,t0,110dc <reset_vector+0x1090>
   11044:	00004517          	auipc	a0,0x4
   11048:	97450513          	addi	a0,a0,-1676 # 149b8 <end_signature+0x8d8>
   1104c:	7b5010ef          	jal	ra,13000 <FN_WriteStr>
   11050:	00004517          	auipc	a0,0x4
   11054:	98350513          	addi	a0,a0,-1661 # 149d3 <end_signature+0x8f3>
   11058:	7a9010ef          	jal	ra,13000 <FN_WriteStr>
   1105c:	00004517          	auipc	a0,0x4
   11060:	98650513          	addi	a0,a0,-1658 # 149e2 <end_signature+0x902>
   11064:	79d010ef          	jal	ra,13000 <FN_WriteStr>
   11068:	00004517          	auipc	a0,0x4
   1106c:	98250513          	addi	a0,a0,-1662 # 149ea <end_signature+0x90a>
   11070:	791010ef          	jal	ra,13000 <FN_WriteStr>
   11074:	00004517          	auipc	a0,0x4
   11078:	97a50513          	addi	a0,a0,-1670 # 149ee <end_signature+0x90e>
   1107c:	785010ef          	jal	ra,13000 <FN_WriteStr>
   11080:	00004517          	auipc	a0,0x4
   11084:	97150513          	addi	a0,a0,-1679 # 149f1 <end_signature+0x911>
   11088:	779010ef          	jal	ra,13000 <FN_WriteStr>
   1108c:	00004517          	auipc	a0,0x4
   11090:	96950513          	addi	a0,a0,-1687 # 149f5 <end_signature+0x915>
   11094:	76d010ef          	jal	ra,13000 <FN_WriteStr>
   11098:	000b0513          	mv	a0,s6
   1109c:	781010ef          	jal	ra,1301c <FN_WriteA0>
   110a0:	00004517          	auipc	a0,0x4
   110a4:	95750513          	addi	a0,a0,-1705 # 149f7 <end_signature+0x917>
   110a8:	759010ef          	jal	ra,13000 <FN_WriteStr>
   110ac:	00004517          	auipc	a0,0x4
   110b0:	95150513          	addi	a0,a0,-1711 # 149fd <end_signature+0x91d>
   110b4:	74d010ef          	jal	ra,13000 <FN_WriteStr>
   110b8:	00004517          	auipc	a0,0x4
   110bc:	95050513          	addi	a0,a0,-1712 # 14a08 <end_signature+0x928>
   110c0:	741010ef          	jal	ra,13000 <FN_WriteStr>
   110c4:	06400193          	li	gp,100
   110c8:	0000100f          	fence.i
   110cc:	00018063          	beqz	gp,110cc <reset_vector+0x1080>
   110d0:	00119193          	slli	gp,gp,0x1
   110d4:	0011e193          	ori	gp,gp,1
   110d8:	00000073          	ecall
   110dc:	fff00293          	li	t0,-1
   110e0:	085b8e63          	beq	s7,t0,1117c <reset_vector+0x1130>
   110e4:	00004517          	auipc	a0,0x4
   110e8:	92650513          	addi	a0,a0,-1754 # 14a0a <end_signature+0x92a>
   110ec:	715010ef          	jal	ra,13000 <FN_WriteStr>
   110f0:	00004517          	auipc	a0,0x4
   110f4:	93550513          	addi	a0,a0,-1739 # 14a25 <end_signature+0x945>
   110f8:	709010ef          	jal	ra,13000 <FN_WriteStr>
   110fc:	00004517          	auipc	a0,0x4
   11100:	93850513          	addi	a0,a0,-1736 # 14a34 <end_signature+0x954>
   11104:	6fd010ef          	jal	ra,13000 <FN_WriteStr>
   11108:	00004517          	auipc	a0,0x4
   1110c:	93450513          	addi	a0,a0,-1740 # 14a3c <end_signature+0x95c>
   11110:	6f1010ef          	jal	ra,13000 <FN_WriteStr>
   11114:	00004517          	auipc	a0,0x4
   11118:	92c50513          	addi	a0,a0,-1748 # 14a40 <end_signature+0x960>
   1111c:	6e5010ef          	jal	ra,13000 <FN_WriteStr>
   11120:	00004517          	auipc	a0,0x4
   11124:	92350513          	addi	a0,a0,-1757 # 14a43 <end_signature+0x963>
   11128:	6d9010ef          	jal	ra,13000 <FN_WriteStr>
   1112c:	00004517          	auipc	a0,0x4
   11130:	91b50513          	addi	a0,a0,-1765 # 14a47 <end_signature+0x967>
   11134:	6cd010ef          	jal	ra,13000 <FN_WriteStr>
   11138:	000b8513          	mv	a0,s7
   1113c:	6e1010ef          	jal	ra,1301c <FN_WriteA0>
   11140:	00004517          	auipc	a0,0x4
   11144:	90950513          	addi	a0,a0,-1783 # 14a49 <end_signature+0x969>
   11148:	6b9010ef          	jal	ra,13000 <FN_WriteStr>
   1114c:	00004517          	auipc	a0,0x4
   11150:	90350513          	addi	a0,a0,-1789 # 14a4f <end_signature+0x96f>
   11154:	6ad010ef          	jal	ra,13000 <FN_WriteStr>
   11158:	00004517          	auipc	a0,0x4
   1115c:	90250513          	addi	a0,a0,-1790 # 14a5a <end_signature+0x97a>
   11160:	6a1010ef          	jal	ra,13000 <FN_WriteStr>
   11164:	06400193          	li	gp,100
   11168:	0000100f          	fence.i
   1116c:	00018063          	beqz	gp,1116c <reset_vector+0x1120>
   11170:	00119193          	slli	gp,gp,0x1
   11174:	0011e193          	ori	gp,gp,1
   11178:	00000073          	ecall
   1117c:	00004517          	auipc	a0,0x4
   11180:	8e050513          	addi	a0,a0,-1824 # 14a5c <end_signature+0x97c>
   11184:	67d010ef          	jal	ra,13000 <FN_WriteStr>
   11188:	00004517          	auipc	a0,0x4
   1118c:	8f050513          	addi	a0,a0,-1808 # 14a78 <end_signature+0x998>
   11190:	671010ef          	jal	ra,13000 <FN_WriteStr>
   11194:	00003097          	auipc	ra,0x3
   11198:	e7c08093          	addi	ra,ra,-388 # 14010 <test_A5_data>
   1119c:	00003117          	auipc	sp,0x3
   111a0:	ef410113          	addi	sp,sp,-268 # 14090 <test_A5_res>
   111a4:	0000ab83          	lw	s7,0(ra)
   111a8:	001bec13          	ori	s8,s7,1
   111ac:	7ffbec93          	ori	s9,s7,2047
   111b0:	fffbed13          	ori	s10,s7,-1
   111b4:	000bed93          	ori	s11,s7,0
   111b8:	800bee13          	ori	t3,s7,-2048
   111bc:	01712023          	sw	s7,0(sp)
   111c0:	01812223          	sw	s8,4(sp)
   111c4:	01912423          	sw	s9,8(sp)
   111c8:	01a12623          	sw	s10,12(sp)
   111cc:	01b12823          	sw	s11,16(sp)
   111d0:	01c12a23          	sw	t3,20(sp)
   111d4:	800002b7          	lui	t0,0x80000
   111d8:	085b8e63          	beq	s7,t0,11274 <reset_vector+0x1228>
   111dc:	00004517          	auipc	a0,0x4
   111e0:	8f850513          	addi	a0,a0,-1800 # 14ad4 <end_signature+0x9f4>
   111e4:	61d010ef          	jal	ra,13000 <FN_WriteStr>
   111e8:	00004517          	auipc	a0,0x4
   111ec:	90750513          	addi	a0,a0,-1785 # 14aef <end_signature+0xa0f>
   111f0:	611010ef          	jal	ra,13000 <FN_WriteStr>
   111f4:	00004517          	auipc	a0,0x4
   111f8:	90a50513          	addi	a0,a0,-1782 # 14afe <end_signature+0xa1e>
   111fc:	605010ef          	jal	ra,13000 <FN_WriteStr>
   11200:	00004517          	auipc	a0,0x4
   11204:	90650513          	addi	a0,a0,-1786 # 14b06 <end_signature+0xa26>
   11208:	5f9010ef          	jal	ra,13000 <FN_WriteStr>
   1120c:	00004517          	auipc	a0,0x4
   11210:	8fe50513          	addi	a0,a0,-1794 # 14b0a <end_signature+0xa2a>
   11214:	5ed010ef          	jal	ra,13000 <FN_WriteStr>
   11218:	00004517          	auipc	a0,0x4
   1121c:	8f550513          	addi	a0,a0,-1803 # 14b0d <end_signature+0xa2d>
   11220:	5e1010ef          	jal	ra,13000 <FN_WriteStr>
   11224:	00004517          	auipc	a0,0x4
   11228:	8ed50513          	addi	a0,a0,-1811 # 14b11 <end_signature+0xa31>
   1122c:	5d5010ef          	jal	ra,13000 <FN_WriteStr>
   11230:	000b8513          	mv	a0,s7
   11234:	5e9010ef          	jal	ra,1301c <FN_WriteA0>
   11238:	00004517          	auipc	a0,0x4
   1123c:	8db50513          	addi	a0,a0,-1829 # 14b13 <end_signature+0xa33>
   11240:	5c1010ef          	jal	ra,13000 <FN_WriteStr>
   11244:	00004517          	auipc	a0,0x4
   11248:	8d550513          	addi	a0,a0,-1835 # 14b19 <end_signature+0xa39>
   1124c:	5b5010ef          	jal	ra,13000 <FN_WriteStr>
   11250:	00004517          	auipc	a0,0x4
   11254:	8d450513          	addi	a0,a0,-1836 # 14b24 <end_signature+0xa44>
   11258:	5a9010ef          	jal	ra,13000 <FN_WriteStr>
   1125c:	06400193          	li	gp,100
   11260:	0000100f          	fence.i
   11264:	00018063          	beqz	gp,11264 <reset_vector+0x1218>
   11268:	00119193          	slli	gp,gp,0x1
   1126c:	0011e193          	ori	gp,gp,1
   11270:	00000073          	ecall
   11274:	800002b7          	lui	t0,0x80000
   11278:	00128293          	addi	t0,t0,1 # 80000001 <_end+0x7ffeadcd>
   1127c:	085c0e63          	beq	s8,t0,11318 <reset_vector+0x12cc>
   11280:	00004517          	auipc	a0,0x4
   11284:	8a650513          	addi	a0,a0,-1882 # 14b26 <end_signature+0xa46>
   11288:	579010ef          	jal	ra,13000 <FN_WriteStr>
   1128c:	00004517          	auipc	a0,0x4
   11290:	8b550513          	addi	a0,a0,-1867 # 14b41 <end_signature+0xa61>
   11294:	56d010ef          	jal	ra,13000 <FN_WriteStr>
   11298:	00004517          	auipc	a0,0x4
   1129c:	8b850513          	addi	a0,a0,-1864 # 14b50 <end_signature+0xa70>
   112a0:	561010ef          	jal	ra,13000 <FN_WriteStr>
   112a4:	00004517          	auipc	a0,0x4
   112a8:	8b450513          	addi	a0,a0,-1868 # 14b58 <end_signature+0xa78>
   112ac:	555010ef          	jal	ra,13000 <FN_WriteStr>
   112b0:	00004517          	auipc	a0,0x4
   112b4:	8ac50513          	addi	a0,a0,-1876 # 14b5c <end_signature+0xa7c>
   112b8:	549010ef          	jal	ra,13000 <FN_WriteStr>
   112bc:	00004517          	auipc	a0,0x4
   112c0:	8a350513          	addi	a0,a0,-1885 # 14b5f <end_signature+0xa7f>
   112c4:	53d010ef          	jal	ra,13000 <FN_WriteStr>
   112c8:	00004517          	auipc	a0,0x4
   112cc:	89b50513          	addi	a0,a0,-1893 # 14b63 <end_signature+0xa83>
   112d0:	531010ef          	jal	ra,13000 <FN_WriteStr>
   112d4:	000c0513          	mv	a0,s8
   112d8:	545010ef          	jal	ra,1301c <FN_WriteA0>
   112dc:	00004517          	auipc	a0,0x4
   112e0:	88950513          	addi	a0,a0,-1911 # 14b65 <end_signature+0xa85>
   112e4:	51d010ef          	jal	ra,13000 <FN_WriteStr>
   112e8:	00004517          	auipc	a0,0x4
   112ec:	88350513          	addi	a0,a0,-1917 # 14b6b <end_signature+0xa8b>
   112f0:	511010ef          	jal	ra,13000 <FN_WriteStr>
   112f4:	00004517          	auipc	a0,0x4
   112f8:	88250513          	addi	a0,a0,-1918 # 14b76 <end_signature+0xa96>
   112fc:	505010ef          	jal	ra,13000 <FN_WriteStr>
   11300:	06400193          	li	gp,100
   11304:	0000100f          	fence.i
   11308:	00018063          	beqz	gp,11308 <reset_vector+0x12bc>
   1130c:	00119193          	slli	gp,gp,0x1
   11310:	0011e193          	ori	gp,gp,1
   11314:	00000073          	ecall
   11318:	800002b7          	lui	t0,0x80000
   1131c:	7ff28293          	addi	t0,t0,2047 # 800007ff <_end+0x7ffeb5cb>
   11320:	085c8e63          	beq	s9,t0,113bc <reset_vector+0x1370>
   11324:	00004517          	auipc	a0,0x4
   11328:	85450513          	addi	a0,a0,-1964 # 14b78 <end_signature+0xa98>
   1132c:	4d5010ef          	jal	ra,13000 <FN_WriteStr>
   11330:	00004517          	auipc	a0,0x4
   11334:	86350513          	addi	a0,a0,-1949 # 14b93 <end_signature+0xab3>
   11338:	4c9010ef          	jal	ra,13000 <FN_WriteStr>
   1133c:	00004517          	auipc	a0,0x4
   11340:	86650513          	addi	a0,a0,-1946 # 14ba2 <end_signature+0xac2>
   11344:	4bd010ef          	jal	ra,13000 <FN_WriteStr>
   11348:	00004517          	auipc	a0,0x4
   1134c:	86250513          	addi	a0,a0,-1950 # 14baa <end_signature+0xaca>
   11350:	4b1010ef          	jal	ra,13000 <FN_WriteStr>
   11354:	00004517          	auipc	a0,0x4
   11358:	85a50513          	addi	a0,a0,-1958 # 14bae <end_signature+0xace>
   1135c:	4a5010ef          	jal	ra,13000 <FN_WriteStr>
   11360:	00004517          	auipc	a0,0x4
   11364:	85150513          	addi	a0,a0,-1967 # 14bb1 <end_signature+0xad1>
   11368:	499010ef          	jal	ra,13000 <FN_WriteStr>
   1136c:	00004517          	auipc	a0,0x4
   11370:	84950513          	addi	a0,a0,-1975 # 14bb5 <end_signature+0xad5>
   11374:	48d010ef          	jal	ra,13000 <FN_WriteStr>
   11378:	000c8513          	mv	a0,s9
   1137c:	4a1010ef          	jal	ra,1301c <FN_WriteA0>
   11380:	00004517          	auipc	a0,0x4
   11384:	83750513          	addi	a0,a0,-1993 # 14bb7 <end_signature+0xad7>
   11388:	479010ef          	jal	ra,13000 <FN_WriteStr>
   1138c:	00004517          	auipc	a0,0x4
   11390:	83150513          	addi	a0,a0,-1999 # 14bbd <end_signature+0xadd>
   11394:	46d010ef          	jal	ra,13000 <FN_WriteStr>
   11398:	00004517          	auipc	a0,0x4
   1139c:	83050513          	addi	a0,a0,-2000 # 14bc8 <end_signature+0xae8>
   113a0:	461010ef          	jal	ra,13000 <FN_WriteStr>
   113a4:	06400193          	li	gp,100
   113a8:	0000100f          	fence.i
   113ac:	00018063          	beqz	gp,113ac <reset_vector+0x1360>
   113b0:	00119193          	slli	gp,gp,0x1
   113b4:	0011e193          	ori	gp,gp,1
   113b8:	00000073          	ecall
   113bc:	fff00293          	li	t0,-1
   113c0:	085d0e63          	beq	s10,t0,1145c <reset_vector+0x1410>
   113c4:	00004517          	auipc	a0,0x4
   113c8:	80650513          	addi	a0,a0,-2042 # 14bca <end_signature+0xaea>
   113cc:	435010ef          	jal	ra,13000 <FN_WriteStr>
   113d0:	00004517          	auipc	a0,0x4
   113d4:	81550513          	addi	a0,a0,-2027 # 14be5 <end_signature+0xb05>
   113d8:	429010ef          	jal	ra,13000 <FN_WriteStr>
   113dc:	00004517          	auipc	a0,0x4
   113e0:	81850513          	addi	a0,a0,-2024 # 14bf4 <end_signature+0xb14>
   113e4:	41d010ef          	jal	ra,13000 <FN_WriteStr>
   113e8:	00004517          	auipc	a0,0x4
   113ec:	81450513          	addi	a0,a0,-2028 # 14bfc <end_signature+0xb1c>
   113f0:	411010ef          	jal	ra,13000 <FN_WriteStr>
   113f4:	00004517          	auipc	a0,0x4
   113f8:	80c50513          	addi	a0,a0,-2036 # 14c00 <end_signature+0xb20>
   113fc:	405010ef          	jal	ra,13000 <FN_WriteStr>
   11400:	00004517          	auipc	a0,0x4
   11404:	80350513          	addi	a0,a0,-2045 # 14c03 <end_signature+0xb23>
   11408:	3f9010ef          	jal	ra,13000 <FN_WriteStr>
   1140c:	00003517          	auipc	a0,0x3
   11410:	7fb50513          	addi	a0,a0,2043 # 14c07 <end_signature+0xb27>
   11414:	3ed010ef          	jal	ra,13000 <FN_WriteStr>
   11418:	000d0513          	mv	a0,s10
   1141c:	401010ef          	jal	ra,1301c <FN_WriteA0>
   11420:	00003517          	auipc	a0,0x3
   11424:	7e950513          	addi	a0,a0,2025 # 14c09 <end_signature+0xb29>
   11428:	3d9010ef          	jal	ra,13000 <FN_WriteStr>
   1142c:	00003517          	auipc	a0,0x3
   11430:	7e350513          	addi	a0,a0,2019 # 14c0f <end_signature+0xb2f>
   11434:	3cd010ef          	jal	ra,13000 <FN_WriteStr>
   11438:	00003517          	auipc	a0,0x3
   1143c:	7e250513          	addi	a0,a0,2018 # 14c1a <end_signature+0xb3a>
   11440:	3c1010ef          	jal	ra,13000 <FN_WriteStr>
   11444:	06400193          	li	gp,100
   11448:	0000100f          	fence.i
   1144c:	00018063          	beqz	gp,1144c <reset_vector+0x1400>
   11450:	00119193          	slli	gp,gp,0x1
   11454:	0011e193          	ori	gp,gp,1
   11458:	00000073          	ecall
   1145c:	800002b7          	lui	t0,0x80000
   11460:	085d8e63          	beq	s11,t0,114fc <reset_vector+0x14b0>
   11464:	00003517          	auipc	a0,0x3
   11468:	7b850513          	addi	a0,a0,1976 # 14c1c <end_signature+0xb3c>
   1146c:	395010ef          	jal	ra,13000 <FN_WriteStr>
   11470:	00003517          	auipc	a0,0x3
   11474:	7c750513          	addi	a0,a0,1991 # 14c37 <end_signature+0xb57>
   11478:	389010ef          	jal	ra,13000 <FN_WriteStr>
   1147c:	00003517          	auipc	a0,0x3
   11480:	7ca50513          	addi	a0,a0,1994 # 14c46 <end_signature+0xb66>
   11484:	37d010ef          	jal	ra,13000 <FN_WriteStr>
   11488:	00003517          	auipc	a0,0x3
   1148c:	7c650513          	addi	a0,a0,1990 # 14c4e <end_signature+0xb6e>
   11490:	371010ef          	jal	ra,13000 <FN_WriteStr>
   11494:	00003517          	auipc	a0,0x3
   11498:	7be50513          	addi	a0,a0,1982 # 14c52 <end_signature+0xb72>
   1149c:	365010ef          	jal	ra,13000 <FN_WriteStr>
   114a0:	00003517          	auipc	a0,0x3
   114a4:	7b550513          	addi	a0,a0,1973 # 14c55 <end_signature+0xb75>
   114a8:	359010ef          	jal	ra,13000 <FN_WriteStr>
   114ac:	00003517          	auipc	a0,0x3
   114b0:	7ad50513          	addi	a0,a0,1965 # 14c59 <end_signature+0xb79>
   114b4:	34d010ef          	jal	ra,13000 <FN_WriteStr>
   114b8:	000d8513          	mv	a0,s11
   114bc:	361010ef          	jal	ra,1301c <FN_WriteA0>
   114c0:	00003517          	auipc	a0,0x3
   114c4:	79b50513          	addi	a0,a0,1947 # 14c5b <end_signature+0xb7b>
   114c8:	339010ef          	jal	ra,13000 <FN_WriteStr>
   114cc:	00003517          	auipc	a0,0x3
   114d0:	79550513          	addi	a0,a0,1941 # 14c61 <end_signature+0xb81>
   114d4:	32d010ef          	jal	ra,13000 <FN_WriteStr>
   114d8:	00003517          	auipc	a0,0x3
   114dc:	79450513          	addi	a0,a0,1940 # 14c6c <end_signature+0xb8c>
   114e0:	321010ef          	jal	ra,13000 <FN_WriteStr>
   114e4:	06400193          	li	gp,100
   114e8:	0000100f          	fence.i
   114ec:	00018063          	beqz	gp,114ec <reset_vector+0x14a0>
   114f0:	00119193          	slli	gp,gp,0x1
   114f4:	0011e193          	ori	gp,gp,1
   114f8:	00000073          	ecall
   114fc:	80000293          	li	t0,-2048
   11500:	085e0e63          	beq	t3,t0,1159c <reset_vector+0x1550>
   11504:	00003517          	auipc	a0,0x3
   11508:	76a50513          	addi	a0,a0,1898 # 14c6e <end_signature+0xb8e>
   1150c:	2f5010ef          	jal	ra,13000 <FN_WriteStr>
   11510:	00003517          	auipc	a0,0x3
   11514:	77950513          	addi	a0,a0,1913 # 14c89 <end_signature+0xba9>
   11518:	2e9010ef          	jal	ra,13000 <FN_WriteStr>
   1151c:	00003517          	auipc	a0,0x3
   11520:	77c50513          	addi	a0,a0,1916 # 14c98 <end_signature+0xbb8>
   11524:	2dd010ef          	jal	ra,13000 <FN_WriteStr>
   11528:	00003517          	auipc	a0,0x3
   1152c:	77850513          	addi	a0,a0,1912 # 14ca0 <end_signature+0xbc0>
   11530:	2d1010ef          	jal	ra,13000 <FN_WriteStr>
   11534:	00003517          	auipc	a0,0x3
   11538:	77050513          	addi	a0,a0,1904 # 14ca4 <end_signature+0xbc4>
   1153c:	2c5010ef          	jal	ra,13000 <FN_WriteStr>
   11540:	00003517          	auipc	a0,0x3
   11544:	76750513          	addi	a0,a0,1895 # 14ca7 <end_signature+0xbc7>
   11548:	2b9010ef          	jal	ra,13000 <FN_WriteStr>
   1154c:	00003517          	auipc	a0,0x3
   11550:	75f50513          	addi	a0,a0,1887 # 14cab <end_signature+0xbcb>
   11554:	2ad010ef          	jal	ra,13000 <FN_WriteStr>
   11558:	000e0513          	mv	a0,t3
   1155c:	2c1010ef          	jal	ra,1301c <FN_WriteA0>
   11560:	00003517          	auipc	a0,0x3
   11564:	74d50513          	addi	a0,a0,1869 # 14cad <end_signature+0xbcd>
   11568:	299010ef          	jal	ra,13000 <FN_WriteStr>
   1156c:	00003517          	auipc	a0,0x3
   11570:	74750513          	addi	a0,a0,1863 # 14cb3 <end_signature+0xbd3>
   11574:	28d010ef          	jal	ra,13000 <FN_WriteStr>
   11578:	00003517          	auipc	a0,0x3
   1157c:	74650513          	addi	a0,a0,1862 # 14cbe <end_signature+0xbde>
   11580:	281010ef          	jal	ra,13000 <FN_WriteStr>
   11584:	06400193          	li	gp,100
   11588:	0000100f          	fence.i
   1158c:	00018063          	beqz	gp,1158c <reset_vector+0x1540>
   11590:	00119193          	slli	gp,gp,0x1
   11594:	0011e193          	ori	gp,gp,1
   11598:	00000073          	ecall
   1159c:	00003517          	auipc	a0,0x3
   115a0:	72450513          	addi	a0,a0,1828 # 14cc0 <end_signature+0xbe0>
   115a4:	25d010ef          	jal	ra,13000 <FN_WriteStr>
   115a8:	00003517          	auipc	a0,0x3
   115ac:	73450513          	addi	a0,a0,1844 # 14cdc <end_signature+0xbfc>
   115b0:	251010ef          	jal	ra,13000 <FN_WriteStr>
   115b4:	00003d17          	auipc	s10,0x3
   115b8:	a60d0d13          	addi	s10,s10,-1440 # 14014 <test_B_data>
   115bc:	00003d97          	auipc	s11,0x3
   115c0:	aecd8d93          	addi	s11,s11,-1300 # 140a8 <test_B_res>
   115c4:	000d2e03          	lw	t3,0(s10)
   115c8:	010e6e93          	ori	t4,t3,16
   115cc:	020eef13          	ori	t5,t4,32
   115d0:	040f6f93          	ori	t6,t5,64
   115d4:	080fe093          	ori	ra,t6,128
   115d8:	1000e113          	ori	sp,ra,256
   115dc:	80016193          	ori	gp,sp,-2048
   115e0:	01cda023          	sw	t3,0(s11)
   115e4:	01dda223          	sw	t4,4(s11)
   115e8:	01eda423          	sw	t5,8(s11)
   115ec:	01fda623          	sw	t6,12(s11)
   115f0:	001da823          	sw	ra,16(s11)
   115f4:	002daa23          	sw	sp,20(s11)
   115f8:	003dac23          	sw	gp,24(s11)
   115fc:	00d00293          	li	t0,13
   11600:	085e0e63          	beq	t3,t0,1169c <reset_vector+0x1650>
   11604:	00003517          	auipc	a0,0x3
   11608:	71150513          	addi	a0,a0,1809 # 14d15 <end_signature+0xc35>
   1160c:	1f5010ef          	jal	ra,13000 <FN_WriteStr>
   11610:	00003517          	auipc	a0,0x3
   11614:	72050513          	addi	a0,a0,1824 # 14d30 <end_signature+0xc50>
   11618:	1e9010ef          	jal	ra,13000 <FN_WriteStr>
   1161c:	00003517          	auipc	a0,0x3
   11620:	72350513          	addi	a0,a0,1827 # 14d3f <end_signature+0xc5f>
   11624:	1dd010ef          	jal	ra,13000 <FN_WriteStr>
   11628:	00003517          	auipc	a0,0x3
   1162c:	71f50513          	addi	a0,a0,1823 # 14d47 <end_signature+0xc67>
   11630:	1d1010ef          	jal	ra,13000 <FN_WriteStr>
   11634:	00003517          	auipc	a0,0x3
   11638:	71750513          	addi	a0,a0,1815 # 14d4b <end_signature+0xc6b>
   1163c:	1c5010ef          	jal	ra,13000 <FN_WriteStr>
   11640:	00003517          	auipc	a0,0x3
   11644:	70e50513          	addi	a0,a0,1806 # 14d4e <end_signature+0xc6e>
   11648:	1b9010ef          	jal	ra,13000 <FN_WriteStr>
   1164c:	00003517          	auipc	a0,0x3
   11650:	70650513          	addi	a0,a0,1798 # 14d52 <end_signature+0xc72>
   11654:	1ad010ef          	jal	ra,13000 <FN_WriteStr>
   11658:	000e0513          	mv	a0,t3
   1165c:	1c1010ef          	jal	ra,1301c <FN_WriteA0>
   11660:	00003517          	auipc	a0,0x3
   11664:	6f450513          	addi	a0,a0,1780 # 14d54 <end_signature+0xc74>
   11668:	199010ef          	jal	ra,13000 <FN_WriteStr>
   1166c:	00003517          	auipc	a0,0x3
   11670:	6ee50513          	addi	a0,a0,1774 # 14d5a <end_signature+0xc7a>
   11674:	18d010ef          	jal	ra,13000 <FN_WriteStr>
   11678:	00003517          	auipc	a0,0x3
   1167c:	6ed50513          	addi	a0,a0,1773 # 14d65 <end_signature+0xc85>
   11680:	181010ef          	jal	ra,13000 <FN_WriteStr>
   11684:	06400193          	li	gp,100
   11688:	0000100f          	fence.i
   1168c:	00018063          	beqz	gp,1168c <reset_vector+0x1640>
   11690:	00119193          	slli	gp,gp,0x1
   11694:	0011e193          	ori	gp,gp,1
   11698:	00000073          	ecall
   1169c:	01d00293          	li	t0,29
   116a0:	085e8e63          	beq	t4,t0,1173c <reset_vector+0x16f0>
   116a4:	00003517          	auipc	a0,0x3
   116a8:	6c350513          	addi	a0,a0,1731 # 14d67 <end_signature+0xc87>
   116ac:	155010ef          	jal	ra,13000 <FN_WriteStr>
   116b0:	00003517          	auipc	a0,0x3
   116b4:	6d250513          	addi	a0,a0,1746 # 14d82 <end_signature+0xca2>
   116b8:	149010ef          	jal	ra,13000 <FN_WriteStr>
   116bc:	00003517          	auipc	a0,0x3
   116c0:	6d550513          	addi	a0,a0,1749 # 14d91 <end_signature+0xcb1>
   116c4:	13d010ef          	jal	ra,13000 <FN_WriteStr>
   116c8:	00003517          	auipc	a0,0x3
   116cc:	6d150513          	addi	a0,a0,1745 # 14d99 <end_signature+0xcb9>
   116d0:	131010ef          	jal	ra,13000 <FN_WriteStr>
   116d4:	00003517          	auipc	a0,0x3
   116d8:	6c950513          	addi	a0,a0,1737 # 14d9d <end_signature+0xcbd>
   116dc:	125010ef          	jal	ra,13000 <FN_WriteStr>
   116e0:	00003517          	auipc	a0,0x3
   116e4:	6c050513          	addi	a0,a0,1728 # 14da0 <end_signature+0xcc0>
   116e8:	119010ef          	jal	ra,13000 <FN_WriteStr>
   116ec:	00003517          	auipc	a0,0x3
   116f0:	6b850513          	addi	a0,a0,1720 # 14da4 <end_signature+0xcc4>
   116f4:	10d010ef          	jal	ra,13000 <FN_WriteStr>
   116f8:	000e8513          	mv	a0,t4
   116fc:	121010ef          	jal	ra,1301c <FN_WriteA0>
   11700:	00003517          	auipc	a0,0x3
   11704:	6a650513          	addi	a0,a0,1702 # 14da6 <end_signature+0xcc6>
   11708:	0f9010ef          	jal	ra,13000 <FN_WriteStr>
   1170c:	00003517          	auipc	a0,0x3
   11710:	6a050513          	addi	a0,a0,1696 # 14dac <end_signature+0xccc>
   11714:	0ed010ef          	jal	ra,13000 <FN_WriteStr>
   11718:	00003517          	auipc	a0,0x3
   1171c:	69f50513          	addi	a0,a0,1695 # 14db7 <end_signature+0xcd7>
   11720:	0e1010ef          	jal	ra,13000 <FN_WriteStr>
   11724:	06400193          	li	gp,100
   11728:	0000100f          	fence.i
   1172c:	00018063          	beqz	gp,1172c <reset_vector+0x16e0>
   11730:	00119193          	slli	gp,gp,0x1
   11734:	0011e193          	ori	gp,gp,1
   11738:	00000073          	ecall
   1173c:	03d00293          	li	t0,61
   11740:	085f0e63          	beq	t5,t0,117dc <reset_vector+0x1790>
   11744:	00003517          	auipc	a0,0x3
   11748:	67550513          	addi	a0,a0,1653 # 14db9 <end_signature+0xcd9>
   1174c:	0b5010ef          	jal	ra,13000 <FN_WriteStr>
   11750:	00003517          	auipc	a0,0x3
   11754:	68450513          	addi	a0,a0,1668 # 14dd4 <end_signature+0xcf4>
   11758:	0a9010ef          	jal	ra,13000 <FN_WriteStr>
   1175c:	00003517          	auipc	a0,0x3
   11760:	68750513          	addi	a0,a0,1671 # 14de3 <end_signature+0xd03>
   11764:	09d010ef          	jal	ra,13000 <FN_WriteStr>
   11768:	00003517          	auipc	a0,0x3
   1176c:	68350513          	addi	a0,a0,1667 # 14deb <end_signature+0xd0b>
   11770:	091010ef          	jal	ra,13000 <FN_WriteStr>
   11774:	00003517          	auipc	a0,0x3
   11778:	67b50513          	addi	a0,a0,1659 # 14def <end_signature+0xd0f>
   1177c:	085010ef          	jal	ra,13000 <FN_WriteStr>
   11780:	00003517          	auipc	a0,0x3
   11784:	67250513          	addi	a0,a0,1650 # 14df2 <end_signature+0xd12>
   11788:	079010ef          	jal	ra,13000 <FN_WriteStr>
   1178c:	00003517          	auipc	a0,0x3
   11790:	66a50513          	addi	a0,a0,1642 # 14df6 <end_signature+0xd16>
   11794:	06d010ef          	jal	ra,13000 <FN_WriteStr>
   11798:	000f0513          	mv	a0,t5
   1179c:	081010ef          	jal	ra,1301c <FN_WriteA0>
   117a0:	00003517          	auipc	a0,0x3
   117a4:	65850513          	addi	a0,a0,1624 # 14df8 <end_signature+0xd18>
   117a8:	059010ef          	jal	ra,13000 <FN_WriteStr>
   117ac:	00003517          	auipc	a0,0x3
   117b0:	65250513          	addi	a0,a0,1618 # 14dfe <end_signature+0xd1e>
   117b4:	04d010ef          	jal	ra,13000 <FN_WriteStr>
   117b8:	00003517          	auipc	a0,0x3
   117bc:	65150513          	addi	a0,a0,1617 # 14e09 <end_signature+0xd29>
   117c0:	041010ef          	jal	ra,13000 <FN_WriteStr>
   117c4:	06400193          	li	gp,100
   117c8:	0000100f          	fence.i
   117cc:	00018063          	beqz	gp,117cc <reset_vector+0x1780>
   117d0:	00119193          	slli	gp,gp,0x1
   117d4:	0011e193          	ori	gp,gp,1
   117d8:	00000073          	ecall
   117dc:	07d00293          	li	t0,125
   117e0:	085f8e63          	beq	t6,t0,1187c <reset_vector+0x1830>
   117e4:	00003517          	auipc	a0,0x3
   117e8:	62750513          	addi	a0,a0,1575 # 14e0b <end_signature+0xd2b>
   117ec:	015010ef          	jal	ra,13000 <FN_WriteStr>
   117f0:	00003517          	auipc	a0,0x3
   117f4:	63650513          	addi	a0,a0,1590 # 14e26 <end_signature+0xd46>
   117f8:	009010ef          	jal	ra,13000 <FN_WriteStr>
   117fc:	00003517          	auipc	a0,0x3
   11800:	63950513          	addi	a0,a0,1593 # 14e35 <end_signature+0xd55>
   11804:	7fc010ef          	jal	ra,13000 <FN_WriteStr>
   11808:	00003517          	auipc	a0,0x3
   1180c:	63550513          	addi	a0,a0,1589 # 14e3d <end_signature+0xd5d>
   11810:	7f0010ef          	jal	ra,13000 <FN_WriteStr>
   11814:	00003517          	auipc	a0,0x3
   11818:	62d50513          	addi	a0,a0,1581 # 14e41 <end_signature+0xd61>
   1181c:	7e4010ef          	jal	ra,13000 <FN_WriteStr>
   11820:	00003517          	auipc	a0,0x3
   11824:	62450513          	addi	a0,a0,1572 # 14e44 <end_signature+0xd64>
   11828:	7d8010ef          	jal	ra,13000 <FN_WriteStr>
   1182c:	00003517          	auipc	a0,0x3
   11830:	61c50513          	addi	a0,a0,1564 # 14e48 <end_signature+0xd68>
   11834:	7cc010ef          	jal	ra,13000 <FN_WriteStr>
   11838:	000f8513          	mv	a0,t6
   1183c:	7e0010ef          	jal	ra,1301c <FN_WriteA0>
   11840:	00003517          	auipc	a0,0x3
   11844:	60a50513          	addi	a0,a0,1546 # 14e4a <end_signature+0xd6a>
   11848:	7b8010ef          	jal	ra,13000 <FN_WriteStr>
   1184c:	00003517          	auipc	a0,0x3
   11850:	60450513          	addi	a0,a0,1540 # 14e50 <end_signature+0xd70>
   11854:	7ac010ef          	jal	ra,13000 <FN_WriteStr>
   11858:	00003517          	auipc	a0,0x3
   1185c:	60350513          	addi	a0,a0,1539 # 14e5b <end_signature+0xd7b>
   11860:	7a0010ef          	jal	ra,13000 <FN_WriteStr>
   11864:	06400193          	li	gp,100
   11868:	0000100f          	fence.i
   1186c:	00018063          	beqz	gp,1186c <reset_vector+0x1820>
   11870:	00119193          	slli	gp,gp,0x1
   11874:	0011e193          	ori	gp,gp,1
   11878:	00000073          	ecall
   1187c:	1fd00293          	li	t0,509
   11880:	08510e63          	beq	sp,t0,1191c <reset_vector+0x18d0>
   11884:	00003517          	auipc	a0,0x3
   11888:	5d950513          	addi	a0,a0,1497 # 14e5d <end_signature+0xd7d>
   1188c:	774010ef          	jal	ra,13000 <FN_WriteStr>
   11890:	00003517          	auipc	a0,0x3
   11894:	5e850513          	addi	a0,a0,1512 # 14e78 <end_signature+0xd98>
   11898:	768010ef          	jal	ra,13000 <FN_WriteStr>
   1189c:	00003517          	auipc	a0,0x3
   118a0:	5eb50513          	addi	a0,a0,1515 # 14e87 <end_signature+0xda7>
   118a4:	75c010ef          	jal	ra,13000 <FN_WriteStr>
   118a8:	00003517          	auipc	a0,0x3
   118ac:	5e750513          	addi	a0,a0,1511 # 14e8f <end_signature+0xdaf>
   118b0:	750010ef          	jal	ra,13000 <FN_WriteStr>
   118b4:	00003517          	auipc	a0,0x3
   118b8:	5df50513          	addi	a0,a0,1503 # 14e93 <end_signature+0xdb3>
   118bc:	744010ef          	jal	ra,13000 <FN_WriteStr>
   118c0:	00003517          	auipc	a0,0x3
   118c4:	5d650513          	addi	a0,a0,1494 # 14e96 <end_signature+0xdb6>
   118c8:	738010ef          	jal	ra,13000 <FN_WriteStr>
   118cc:	00003517          	auipc	a0,0x3
   118d0:	5cd50513          	addi	a0,a0,1485 # 14e99 <end_signature+0xdb9>
   118d4:	72c010ef          	jal	ra,13000 <FN_WriteStr>
   118d8:	00010513          	mv	a0,sp
   118dc:	740010ef          	jal	ra,1301c <FN_WriteA0>
   118e0:	00003517          	auipc	a0,0x3
   118e4:	5bb50513          	addi	a0,a0,1467 # 14e9b <end_signature+0xdbb>
   118e8:	718010ef          	jal	ra,13000 <FN_WriteStr>
   118ec:	00003517          	auipc	a0,0x3
   118f0:	5b550513          	addi	a0,a0,1461 # 14ea1 <end_signature+0xdc1>
   118f4:	70c010ef          	jal	ra,13000 <FN_WriteStr>
   118f8:	00003517          	auipc	a0,0x3
   118fc:	5b450513          	addi	a0,a0,1460 # 14eac <end_signature+0xdcc>
   11900:	700010ef          	jal	ra,13000 <FN_WriteStr>
   11904:	06400193          	li	gp,100
   11908:	0000100f          	fence.i
   1190c:	00018063          	beqz	gp,1190c <reset_vector+0x18c0>
   11910:	00119193          	slli	gp,gp,0x1
   11914:	0011e193          	ori	gp,gp,1
   11918:	00000073          	ecall
   1191c:	9fd00293          	li	t0,-1539
   11920:	08518e63          	beq	gp,t0,119bc <reset_vector+0x1970>
   11924:	00003517          	auipc	a0,0x3
   11928:	58a50513          	addi	a0,a0,1418 # 14eae <end_signature+0xdce>
   1192c:	6d4010ef          	jal	ra,13000 <FN_WriteStr>
   11930:	00003517          	auipc	a0,0x3
   11934:	59950513          	addi	a0,a0,1433 # 14ec9 <end_signature+0xde9>
   11938:	6c8010ef          	jal	ra,13000 <FN_WriteStr>
   1193c:	00003517          	auipc	a0,0x3
   11940:	59c50513          	addi	a0,a0,1436 # 14ed8 <end_signature+0xdf8>
   11944:	6bc010ef          	jal	ra,13000 <FN_WriteStr>
   11948:	00003517          	auipc	a0,0x3
   1194c:	59850513          	addi	a0,a0,1432 # 14ee0 <end_signature+0xe00>
   11950:	6b0010ef          	jal	ra,13000 <FN_WriteStr>
   11954:	00003517          	auipc	a0,0x3
   11958:	59050513          	addi	a0,a0,1424 # 14ee4 <end_signature+0xe04>
   1195c:	6a4010ef          	jal	ra,13000 <FN_WriteStr>
   11960:	00003517          	auipc	a0,0x3
   11964:	58750513          	addi	a0,a0,1415 # 14ee7 <end_signature+0xe07>
   11968:	698010ef          	jal	ra,13000 <FN_WriteStr>
   1196c:	00003517          	auipc	a0,0x3
   11970:	57e50513          	addi	a0,a0,1406 # 14eea <end_signature+0xe0a>
   11974:	68c010ef          	jal	ra,13000 <FN_WriteStr>
   11978:	00018513          	mv	a0,gp
   1197c:	6a0010ef          	jal	ra,1301c <FN_WriteA0>
   11980:	00003517          	auipc	a0,0x3
   11984:	56c50513          	addi	a0,a0,1388 # 14eec <end_signature+0xe0c>
   11988:	678010ef          	jal	ra,13000 <FN_WriteStr>
   1198c:	00003517          	auipc	a0,0x3
   11990:	56650513          	addi	a0,a0,1382 # 14ef2 <end_signature+0xe12>
   11994:	66c010ef          	jal	ra,13000 <FN_WriteStr>
   11998:	00003517          	auipc	a0,0x3
   1199c:	56550513          	addi	a0,a0,1381 # 14efd <end_signature+0xe1d>
   119a0:	660010ef          	jal	ra,13000 <FN_WriteStr>
   119a4:	06400193          	li	gp,100
   119a8:	0000100f          	fence.i
   119ac:	00018063          	beqz	gp,119ac <reset_vector+0x1960>
   119b0:	00119193          	slli	gp,gp,0x1
   119b4:	0011e193          	ori	gp,gp,1
   119b8:	00000073          	ecall
   119bc:	00003517          	auipc	a0,0x3
   119c0:	54350513          	addi	a0,a0,1347 # 14eff <end_signature+0xe1f>
   119c4:	63c010ef          	jal	ra,13000 <FN_WriteStr>
   119c8:	00003517          	auipc	a0,0x3
   119cc:	55250513          	addi	a0,a0,1362 # 14f1a <end_signature+0xe3a>
   119d0:	630010ef          	jal	ra,13000 <FN_WriteStr>
   119d4:	00002097          	auipc	ra,0x2
   119d8:	64408093          	addi	ra,ra,1604 # 14018 <test_C_data>
   119dc:	00002117          	auipc	sp,0x2
   119e0:	6e810113          	addi	sp,sp,1768 # 140c4 <test_C_res>
   119e4:	0000a283          	lw	t0,0(ra)
   119e8:	0012e013          	ori	zero,t0,1
   119ec:	00012023          	sw	zero,0(sp)
   119f0:	00000293          	li	t0,0
   119f4:	08500e63          	beq	zero,t0,11a90 <reset_vector+0x1a44>
   119f8:	00003517          	auipc	a0,0x3
   119fc:	54950513          	addi	a0,a0,1353 # 14f41 <end_signature+0xe61>
   11a00:	600010ef          	jal	ra,13000 <FN_WriteStr>
   11a04:	00003517          	auipc	a0,0x3
   11a08:	55850513          	addi	a0,a0,1368 # 14f5c <end_signature+0xe7c>
   11a0c:	5f4010ef          	jal	ra,13000 <FN_WriteStr>
   11a10:	00003517          	auipc	a0,0x3
   11a14:	55b50513          	addi	a0,a0,1371 # 14f6b <end_signature+0xe8b>
   11a18:	5e8010ef          	jal	ra,13000 <FN_WriteStr>
   11a1c:	00003517          	auipc	a0,0x3
   11a20:	55750513          	addi	a0,a0,1367 # 14f73 <end_signature+0xe93>
   11a24:	5dc010ef          	jal	ra,13000 <FN_WriteStr>
   11a28:	00003517          	auipc	a0,0x3
   11a2c:	54f50513          	addi	a0,a0,1359 # 14f77 <end_signature+0xe97>
   11a30:	5d0010ef          	jal	ra,13000 <FN_WriteStr>
   11a34:	00003517          	auipc	a0,0x3
   11a38:	54650513          	addi	a0,a0,1350 # 14f7a <end_signature+0xe9a>
   11a3c:	5c4010ef          	jal	ra,13000 <FN_WriteStr>
   11a40:	00003517          	auipc	a0,0x3
   11a44:	53d50513          	addi	a0,a0,1341 # 14f7d <end_signature+0xe9d>
   11a48:	5b8010ef          	jal	ra,13000 <FN_WriteStr>
   11a4c:	00000513          	li	a0,0
   11a50:	5cc010ef          	jal	ra,1301c <FN_WriteA0>
   11a54:	00003517          	auipc	a0,0x3
   11a58:	52b50513          	addi	a0,a0,1323 # 14f7f <end_signature+0xe9f>
   11a5c:	5a4010ef          	jal	ra,13000 <FN_WriteStr>
   11a60:	00003517          	auipc	a0,0x3
   11a64:	52550513          	addi	a0,a0,1317 # 14f85 <end_signature+0xea5>
   11a68:	598010ef          	jal	ra,13000 <FN_WriteStr>
   11a6c:	00003517          	auipc	a0,0x3
   11a70:	52450513          	addi	a0,a0,1316 # 14f90 <end_signature+0xeb0>
   11a74:	58c010ef          	jal	ra,13000 <FN_WriteStr>
   11a78:	06400193          	li	gp,100
   11a7c:	0000100f          	fence.i
   11a80:	00018063          	beqz	gp,11a80 <reset_vector+0x1a34>
   11a84:	00119193          	slli	gp,gp,0x1
   11a88:	0011e193          	ori	gp,gp,1
   11a8c:	00000073          	ecall
   11a90:	00003517          	auipc	a0,0x3
   11a94:	50250513          	addi	a0,a0,1282 # 14f92 <end_signature+0xeb2>
   11a98:	568010ef          	jal	ra,13000 <FN_WriteStr>
   11a9c:	00003517          	auipc	a0,0x3
   11aa0:	51150513          	addi	a0,a0,1297 # 14fad <end_signature+0xecd>
   11aa4:	55c010ef          	jal	ra,13000 <FN_WriteStr>
   11aa8:	00002097          	auipc	ra,0x2
   11aac:	57408093          	addi	ra,ra,1396 # 1401c <test_D_data>
   11ab0:	00002117          	auipc	sp,0x2
   11ab4:	61810113          	addi	sp,sp,1560 # 140c8 <test_D_res>
   11ab8:	0000a283          	lw	t0,0(ra)
   11abc:	0012e013          	ori	zero,t0,1
   11ac0:	00106293          	ori	t0,zero,1
   11ac4:	00012023          	sw	zero,0(sp)
   11ac8:	00512223          	sw	t0,4(sp)
   11acc:	00000293          	li	t0,0
   11ad0:	08500e63          	beq	zero,t0,11b6c <reset_vector+0x1b20>
   11ad4:	00003517          	auipc	a0,0x3
   11ad8:	50950513          	addi	a0,a0,1289 # 14fdd <end_signature+0xefd>
   11adc:	524010ef          	jal	ra,13000 <FN_WriteStr>
   11ae0:	00003517          	auipc	a0,0x3
   11ae4:	51850513          	addi	a0,a0,1304 # 14ff8 <end_signature+0xf18>
   11ae8:	518010ef          	jal	ra,13000 <FN_WriteStr>
   11aec:	00003517          	auipc	a0,0x3
   11af0:	51b50513          	addi	a0,a0,1307 # 15007 <end_signature+0xf27>
   11af4:	50c010ef          	jal	ra,13000 <FN_WriteStr>
   11af8:	00003517          	auipc	a0,0x3
   11afc:	51750513          	addi	a0,a0,1303 # 1500f <end_signature+0xf2f>
   11b00:	500010ef          	jal	ra,13000 <FN_WriteStr>
   11b04:	00003517          	auipc	a0,0x3
   11b08:	50f50513          	addi	a0,a0,1295 # 15013 <end_signature+0xf33>
   11b0c:	4f4010ef          	jal	ra,13000 <FN_WriteStr>
   11b10:	00003517          	auipc	a0,0x3
   11b14:	50650513          	addi	a0,a0,1286 # 15016 <end_signature+0xf36>
   11b18:	4e8010ef          	jal	ra,13000 <FN_WriteStr>
   11b1c:	00003517          	auipc	a0,0x3
   11b20:	4fd50513          	addi	a0,a0,1277 # 15019 <end_signature+0xf39>
   11b24:	4dc010ef          	jal	ra,13000 <FN_WriteStr>
   11b28:	00000513          	li	a0,0
   11b2c:	4f0010ef          	jal	ra,1301c <FN_WriteA0>
   11b30:	00003517          	auipc	a0,0x3
   11b34:	4eb50513          	addi	a0,a0,1259 # 1501b <end_signature+0xf3b>
   11b38:	4c8010ef          	jal	ra,13000 <FN_WriteStr>
   11b3c:	00003517          	auipc	a0,0x3
   11b40:	4e550513          	addi	a0,a0,1253 # 15021 <end_signature+0xf41>
   11b44:	4bc010ef          	jal	ra,13000 <FN_WriteStr>
   11b48:	00003517          	auipc	a0,0x3
   11b4c:	4e450513          	addi	a0,a0,1252 # 1502c <end_signature+0xf4c>
   11b50:	4b0010ef          	jal	ra,13000 <FN_WriteStr>
   11b54:	06400193          	li	gp,100
   11b58:	0000100f          	fence.i
   11b5c:	00018063          	beqz	gp,11b5c <reset_vector+0x1b10>
   11b60:	00119193          	slli	gp,gp,0x1
   11b64:	0011e193          	ori	gp,gp,1
   11b68:	00000073          	ecall
   11b6c:	00000293          	li	t0,0
   11b70:	08528e63          	beq	t0,t0,11c0c <reset_vector+0x1bc0>
   11b74:	00003517          	auipc	a0,0x3
   11b78:	4ba50513          	addi	a0,a0,1210 # 1502e <end_signature+0xf4e>
   11b7c:	484010ef          	jal	ra,13000 <FN_WriteStr>
   11b80:	00003517          	auipc	a0,0x3
   11b84:	4c950513          	addi	a0,a0,1225 # 15049 <end_signature+0xf69>
   11b88:	478010ef          	jal	ra,13000 <FN_WriteStr>
   11b8c:	00003517          	auipc	a0,0x3
   11b90:	4cc50513          	addi	a0,a0,1228 # 15058 <end_signature+0xf78>
   11b94:	46c010ef          	jal	ra,13000 <FN_WriteStr>
   11b98:	00003517          	auipc	a0,0x3
   11b9c:	4c850513          	addi	a0,a0,1224 # 15060 <end_signature+0xf80>
   11ba0:	460010ef          	jal	ra,13000 <FN_WriteStr>
   11ba4:	00003517          	auipc	a0,0x3
   11ba8:	4c050513          	addi	a0,a0,1216 # 15064 <end_signature+0xf84>
   11bac:	454010ef          	jal	ra,13000 <FN_WriteStr>
   11bb0:	00003517          	auipc	a0,0x3
   11bb4:	4b750513          	addi	a0,a0,1207 # 15067 <end_signature+0xf87>
   11bb8:	448010ef          	jal	ra,13000 <FN_WriteStr>
   11bbc:	00003517          	auipc	a0,0x3
   11bc0:	4ae50513          	addi	a0,a0,1198 # 1506a <end_signature+0xf8a>
   11bc4:	43c010ef          	jal	ra,13000 <FN_WriteStr>
   11bc8:	00028513          	mv	a0,t0
   11bcc:	450010ef          	jal	ra,1301c <FN_WriteA0>
   11bd0:	00003517          	auipc	a0,0x3
   11bd4:	49c50513          	addi	a0,a0,1180 # 1506c <end_signature+0xf8c>
   11bd8:	428010ef          	jal	ra,13000 <FN_WriteStr>
   11bdc:	00003517          	auipc	a0,0x3
   11be0:	49650513          	addi	a0,a0,1174 # 15072 <end_signature+0xf92>
   11be4:	41c010ef          	jal	ra,13000 <FN_WriteStr>
   11be8:	00003517          	auipc	a0,0x3
   11bec:	49550513          	addi	a0,a0,1173 # 1507d <end_signature+0xf9d>
   11bf0:	410010ef          	jal	ra,13000 <FN_WriteStr>
   11bf4:	06400193          	li	gp,100
   11bf8:	0000100f          	fence.i
   11bfc:	00018063          	beqz	gp,11bfc <reset_vector+0x1bb0>
   11c00:	00119193          	slli	gp,gp,0x1
   11c04:	0011e193          	ori	gp,gp,1
   11c08:	00000073          	ecall
   11c0c:	00003517          	auipc	a0,0x3
   11c10:	47350513          	addi	a0,a0,1139 # 1507f <end_signature+0xf9f>
   11c14:	3ec010ef          	jal	ra,13000 <FN_WriteStr>
   11c18:	00003517          	auipc	a0,0x3
   11c1c:	48250513          	addi	a0,a0,1154 # 1509a <end_signature+0xfba>
   11c20:	3e0010ef          	jal	ra,13000 <FN_WriteStr>
   11c24:	00002097          	auipc	ra,0x2
   11c28:	3fc08093          	addi	ra,ra,1020 # 14020 <test_E_data>
   11c2c:	00002117          	auipc	sp,0x2
   11c30:	4a410113          	addi	sp,sp,1188 # 140d0 <test_E_res>
   11c34:	0000a183          	lw	gp,0(ra)
   11c38:	0001e213          	ori	tp,gp,0
   11c3c:	00026293          	ori	t0,tp,0
   11c40:	0002e313          	ori	t1,t0,0
   11c44:	00036713          	ori	a4,t1,0
   11c48:	00076793          	ori	a5,a4,0
   11c4c:	0007e813          	ori	a6,a5,0
   11c50:	00086c93          	ori	s9,a6,0
   11c54:	000ced13          	ori	s10,s9,0
   11c58:	000d6d93          	ori	s11,s10,0
   11c5c:	00312023          	sw	gp,0(sp)
   11c60:	00412223          	sw	tp,4(sp)
   11c64:	01a12423          	sw	s10,8(sp)
   11c68:	01b12623          	sw	s11,12(sp)
   11c6c:	369262b7          	lui	t0,0x36926
   11c70:	81428293          	addi	t0,t0,-2028 # 36925814 <_end+0x369105e0>
   11c74:	08518e63          	beq	gp,t0,11d10 <reset_vector+0x1cc4>
   11c78:	00003517          	auipc	a0,0x3
   11c7c:	44f50513          	addi	a0,a0,1103 # 150c7 <end_signature+0xfe7>
   11c80:	380010ef          	jal	ra,13000 <FN_WriteStr>
   11c84:	00003517          	auipc	a0,0x3
   11c88:	45e50513          	addi	a0,a0,1118 # 150e2 <end_signature+0x1002>
   11c8c:	374010ef          	jal	ra,13000 <FN_WriteStr>
   11c90:	00003517          	auipc	a0,0x3
   11c94:	46150513          	addi	a0,a0,1121 # 150f1 <end_signature+0x1011>
   11c98:	368010ef          	jal	ra,13000 <FN_WriteStr>
   11c9c:	00003517          	auipc	a0,0x3
   11ca0:	45d50513          	addi	a0,a0,1117 # 150f9 <end_signature+0x1019>
   11ca4:	35c010ef          	jal	ra,13000 <FN_WriteStr>
   11ca8:	00003517          	auipc	a0,0x3
   11cac:	45550513          	addi	a0,a0,1109 # 150fd <end_signature+0x101d>
   11cb0:	350010ef          	jal	ra,13000 <FN_WriteStr>
   11cb4:	00003517          	auipc	a0,0x3
   11cb8:	44c50513          	addi	a0,a0,1100 # 15100 <end_signature+0x1020>
   11cbc:	344010ef          	jal	ra,13000 <FN_WriteStr>
   11cc0:	00003517          	auipc	a0,0x3
   11cc4:	44350513          	addi	a0,a0,1091 # 15103 <end_signature+0x1023>
   11cc8:	338010ef          	jal	ra,13000 <FN_WriteStr>
   11ccc:	00018513          	mv	a0,gp
   11cd0:	34c010ef          	jal	ra,1301c <FN_WriteA0>
   11cd4:	00003517          	auipc	a0,0x3
   11cd8:	43150513          	addi	a0,a0,1073 # 15105 <end_signature+0x1025>
   11cdc:	324010ef          	jal	ra,13000 <FN_WriteStr>
   11ce0:	00003517          	auipc	a0,0x3
   11ce4:	42b50513          	addi	a0,a0,1067 # 1510b <end_signature+0x102b>
   11ce8:	318010ef          	jal	ra,13000 <FN_WriteStr>
   11cec:	00003517          	auipc	a0,0x3
   11cf0:	42a50513          	addi	a0,a0,1066 # 15116 <end_signature+0x1036>
   11cf4:	30c010ef          	jal	ra,13000 <FN_WriteStr>
   11cf8:	06400193          	li	gp,100
   11cfc:	0000100f          	fence.i
   11d00:	00018063          	beqz	gp,11d00 <reset_vector+0x1cb4>
   11d04:	00119193          	slli	gp,gp,0x1
   11d08:	0011e193          	ori	gp,gp,1
   11d0c:	00000073          	ecall
   11d10:	369262b7          	lui	t0,0x36926
   11d14:	81428293          	addi	t0,t0,-2028 # 36925814 <_end+0x369105e0>
   11d18:	08520e63          	beq	tp,t0,11db4 <reset_vector+0x1d68>
   11d1c:	00003517          	auipc	a0,0x3
   11d20:	3fc50513          	addi	a0,a0,1020 # 15118 <end_signature+0x1038>
   11d24:	2dc010ef          	jal	ra,13000 <FN_WriteStr>
   11d28:	00003517          	auipc	a0,0x3
   11d2c:	40b50513          	addi	a0,a0,1035 # 15133 <end_signature+0x1053>
   11d30:	2d0010ef          	jal	ra,13000 <FN_WriteStr>
   11d34:	00003517          	auipc	a0,0x3
   11d38:	40e50513          	addi	a0,a0,1038 # 15142 <end_signature+0x1062>
   11d3c:	2c4010ef          	jal	ra,13000 <FN_WriteStr>
   11d40:	00003517          	auipc	a0,0x3
   11d44:	40a50513          	addi	a0,a0,1034 # 1514a <end_signature+0x106a>
   11d48:	2b8010ef          	jal	ra,13000 <FN_WriteStr>
   11d4c:	00003517          	auipc	a0,0x3
   11d50:	40250513          	addi	a0,a0,1026 # 1514e <end_signature+0x106e>
   11d54:	2ac010ef          	jal	ra,13000 <FN_WriteStr>
   11d58:	00003517          	auipc	a0,0x3
   11d5c:	3f950513          	addi	a0,a0,1017 # 15151 <end_signature+0x1071>
   11d60:	2a0010ef          	jal	ra,13000 <FN_WriteStr>
   11d64:	00003517          	auipc	a0,0x3
   11d68:	3f050513          	addi	a0,a0,1008 # 15154 <end_signature+0x1074>
   11d6c:	294010ef          	jal	ra,13000 <FN_WriteStr>
   11d70:	00020513          	mv	a0,tp
   11d74:	2a8010ef          	jal	ra,1301c <FN_WriteA0>
   11d78:	00003517          	auipc	a0,0x3
   11d7c:	3de50513          	addi	a0,a0,990 # 15156 <end_signature+0x1076>
   11d80:	280010ef          	jal	ra,13000 <FN_WriteStr>
   11d84:	00003517          	auipc	a0,0x3
   11d88:	3d850513          	addi	a0,a0,984 # 1515c <end_signature+0x107c>
   11d8c:	274010ef          	jal	ra,13000 <FN_WriteStr>
   11d90:	00003517          	auipc	a0,0x3
   11d94:	3d750513          	addi	a0,a0,983 # 15167 <end_signature+0x1087>
   11d98:	268010ef          	jal	ra,13000 <FN_WriteStr>
   11d9c:	06400193          	li	gp,100
   11da0:	0000100f          	fence.i
   11da4:	00018063          	beqz	gp,11da4 <reset_vector+0x1d58>
   11da8:	00119193          	slli	gp,gp,0x1
   11dac:	0011e193          	ori	gp,gp,1
   11db0:	00000073          	ecall
   11db4:	369262b7          	lui	t0,0x36926
   11db8:	81428293          	addi	t0,t0,-2028 # 36925814 <_end+0x369105e0>
   11dbc:	085d0e63          	beq	s10,t0,11e58 <reset_vector+0x1e0c>
   11dc0:	00003517          	auipc	a0,0x3
   11dc4:	3a950513          	addi	a0,a0,937 # 15169 <end_signature+0x1089>
   11dc8:	238010ef          	jal	ra,13000 <FN_WriteStr>
   11dcc:	00003517          	auipc	a0,0x3
   11dd0:	3b850513          	addi	a0,a0,952 # 15184 <end_signature+0x10a4>
   11dd4:	22c010ef          	jal	ra,13000 <FN_WriteStr>
   11dd8:	00003517          	auipc	a0,0x3
   11ddc:	3bb50513          	addi	a0,a0,955 # 15193 <end_signature+0x10b3>
   11de0:	220010ef          	jal	ra,13000 <FN_WriteStr>
   11de4:	00003517          	auipc	a0,0x3
   11de8:	3b750513          	addi	a0,a0,951 # 1519b <end_signature+0x10bb>
   11dec:	214010ef          	jal	ra,13000 <FN_WriteStr>
   11df0:	00003517          	auipc	a0,0x3
   11df4:	3af50513          	addi	a0,a0,943 # 1519f <end_signature+0x10bf>
   11df8:	208010ef          	jal	ra,13000 <FN_WriteStr>
   11dfc:	00003517          	auipc	a0,0x3
   11e00:	3a650513          	addi	a0,a0,934 # 151a2 <end_signature+0x10c2>
   11e04:	1fc010ef          	jal	ra,13000 <FN_WriteStr>
   11e08:	00003517          	auipc	a0,0x3
   11e0c:	39e50513          	addi	a0,a0,926 # 151a6 <end_signature+0x10c6>
   11e10:	1f0010ef          	jal	ra,13000 <FN_WriteStr>
   11e14:	000d0513          	mv	a0,s10
   11e18:	204010ef          	jal	ra,1301c <FN_WriteA0>
   11e1c:	00003517          	auipc	a0,0x3
   11e20:	38c50513          	addi	a0,a0,908 # 151a8 <end_signature+0x10c8>
   11e24:	1dc010ef          	jal	ra,13000 <FN_WriteStr>
   11e28:	00003517          	auipc	a0,0x3
   11e2c:	38650513          	addi	a0,a0,902 # 151ae <end_signature+0x10ce>
   11e30:	1d0010ef          	jal	ra,13000 <FN_WriteStr>
   11e34:	00003517          	auipc	a0,0x3
   11e38:	38550513          	addi	a0,a0,901 # 151b9 <end_signature+0x10d9>
   11e3c:	1c4010ef          	jal	ra,13000 <FN_WriteStr>
   11e40:	06400193          	li	gp,100
   11e44:	0000100f          	fence.i
   11e48:	00018063          	beqz	gp,11e48 <reset_vector+0x1dfc>
   11e4c:	00119193          	slli	gp,gp,0x1
   11e50:	0011e193          	ori	gp,gp,1
   11e54:	00000073          	ecall
   11e58:	369262b7          	lui	t0,0x36926
   11e5c:	81428293          	addi	t0,t0,-2028 # 36925814 <_end+0x369105e0>
   11e60:	085d8e63          	beq	s11,t0,11efc <reset_vector+0x1eb0>
   11e64:	00003517          	auipc	a0,0x3
   11e68:	35750513          	addi	a0,a0,855 # 151bb <end_signature+0x10db>
   11e6c:	194010ef          	jal	ra,13000 <FN_WriteStr>
   11e70:	00003517          	auipc	a0,0x3
   11e74:	36650513          	addi	a0,a0,870 # 151d6 <end_signature+0x10f6>
   11e78:	188010ef          	jal	ra,13000 <FN_WriteStr>
   11e7c:	00003517          	auipc	a0,0x3
   11e80:	36950513          	addi	a0,a0,873 # 151e5 <end_signature+0x1105>
   11e84:	17c010ef          	jal	ra,13000 <FN_WriteStr>
   11e88:	00003517          	auipc	a0,0x3
   11e8c:	36550513          	addi	a0,a0,869 # 151ed <end_signature+0x110d>
   11e90:	170010ef          	jal	ra,13000 <FN_WriteStr>
   11e94:	00003517          	auipc	a0,0x3
   11e98:	35d50513          	addi	a0,a0,861 # 151f1 <end_signature+0x1111>
   11e9c:	164010ef          	jal	ra,13000 <FN_WriteStr>
   11ea0:	00003517          	auipc	a0,0x3
   11ea4:	35450513          	addi	a0,a0,852 # 151f4 <end_signature+0x1114>
   11ea8:	158010ef          	jal	ra,13000 <FN_WriteStr>
   11eac:	00003517          	auipc	a0,0x3
   11eb0:	34c50513          	addi	a0,a0,844 # 151f8 <end_signature+0x1118>
   11eb4:	14c010ef          	jal	ra,13000 <FN_WriteStr>
   11eb8:	000d8513          	mv	a0,s11
   11ebc:	160010ef          	jal	ra,1301c <FN_WriteA0>
   11ec0:	00003517          	auipc	a0,0x3
   11ec4:	33a50513          	addi	a0,a0,826 # 151fa <end_signature+0x111a>
   11ec8:	138010ef          	jal	ra,13000 <FN_WriteStr>
   11ecc:	00003517          	auipc	a0,0x3
   11ed0:	33450513          	addi	a0,a0,820 # 15200 <end_signature+0x1120>
   11ed4:	12c010ef          	jal	ra,13000 <FN_WriteStr>
   11ed8:	00003517          	auipc	a0,0x3
   11edc:	33350513          	addi	a0,a0,819 # 1520b <end_signature+0x112b>
   11ee0:	120010ef          	jal	ra,13000 <FN_WriteStr>
   11ee4:	06400193          	li	gp,100
   11ee8:	0000100f          	fence.i
   11eec:	00018063          	beqz	gp,11eec <reset_vector+0x1ea0>
   11ef0:	00119193          	slli	gp,gp,0x1
   11ef4:	0011e193          	ori	gp,gp,1
   11ef8:	00000073          	ecall
   11efc:	00003517          	auipc	a0,0x3
   11f00:	31150513          	addi	a0,a0,785 # 1520d <end_signature+0x112d>
   11f04:	0fc010ef          	jal	ra,13000 <FN_WriteStr>
   11f08:	00003517          	auipc	a0,0x3
   11f0c:	32050513          	addi	a0,a0,800 # 15228 <end_signature+0x1148>
   11f10:	0f0010ef          	jal	ra,13000 <FN_WriteStr>
   11f14:	0000100f          	fence.i
   11f18:	00100193          	li	gp,1
   11f1c:	00000073          	ecall
   11f20:	c0001073          	unimp
	...

Disassembly of section .tohost:

00012000 <tohost>:
	...

00012100 <fromhost>:
	...

Disassembly of section .text:

00013000 <FN_WriteStr>:
   13000:	00050293          	mv	t0,a0
   13004:	0002c503          	lbu	a0,0(t0)
   13008:	00128293          	addi	t0,t0,1
   1300c:	00050663          	beqz	a0,13018 <FN_WriteStr+0x18>
   13010:	0005200b          	0x5200b
   13014:	ff1ff06f          	j	13004 <FN_WriteStr+0x4>
   13018:	00008067          	ret

0001301c <FN_WriteA0>:
   1301c:	00050293          	mv	t0,a0
   13020:	fff00513          	li	a0,-1
   13024:	01f55513          	srli	a0,a0,0x1f
   13028:	00155513          	srli	a0,a0,0x1
   1302c:	02051463          	bnez	a0,13054 <FN_WriteA0_64>

00013030 <FN_WriteA0_32>:
   13030:	00800313          	li	t1,8
   13034:	00439393          	slli	t2,t2,0x4
   13038:	00f2f513          	andi	a0,t0,15
   1303c:	0042d293          	srli	t0,t0,0x4
   13040:	00a3e3b3          	or	t2,t2,a0
   13044:	fff30313          	addi	t1,t1,-1
   13048:	fe0316e3          	bnez	t1,13034 <FN_WriteA0_32+0x4>
   1304c:	00800313          	li	t1,8
   13050:	0240006f          	j	13074 <FN_WriteA0_common>

00013054 <FN_WriteA0_64>:
   13054:	01000313          	li	t1,16
   13058:	00439393          	slli	t2,t2,0x4
   1305c:	00f2f513          	andi	a0,t0,15
   13060:	0042d293          	srli	t0,t0,0x4
   13064:	00a3e3b3          	or	t2,t2,a0
   13068:	fff30313          	addi	t1,t1,-1
   1306c:	fe0316e3          	bnez	t1,13058 <FN_WriteA0_64+0x4>
   13070:	01000313          	li	t1,16

00013074 <FN_WriteA0_common>:
   13074:	00a00293          	li	t0,10
   13078:	00f3f513          	andi	a0,t2,15
   1307c:	00554663          	blt	a0,t0,13088 <FN_WriteA0_common+0x14>
   13080:	05750513          	addi	a0,a0,87
   13084:	0080006f          	j	1308c <FN_WriteA0_common+0x18>
   13088:	03050513          	addi	a0,a0,48
   1308c:	0005200b          	0x5200b
   13090:	0043d393          	srli	t2,t2,0x4
   13094:	fff30313          	addi	t1,t1,-1
   13098:	fe0310e3          	bnez	t1,13078 <FN_WriteA0_common+0x4>
   1309c:	00008067          	ret
