
/home/benselfridge/riscv-compliance/work//I-OR-01.elf:     file format elf32-littleriscv


Disassembly of section .text.init:

00010000 <_start>:
   10000:	04c0006f          	j	1004c <reset_vector>

00010004 <trap_vector>:
   10004:	34202f73          	csrr	t5,mcause
   10008:	00800f93          	li	t6,8
   1000c:	03ff0a63          	beq	t5,t6,10040 <write_tohost>
   10010:	00900f93          	li	t6,9
   10014:	03ff0663          	beq	t5,t6,10040 <write_tohost>
   10018:	00b00f93          	li	t6,11
   1001c:	03ff0263          	beq	t5,t6,10040 <write_tohost>
   10020:	ffff0f17          	auipc	t5,0xffff0
   10024:	fe0f0f13          	addi	t5,t5,-32 # 0 <_start-0x10000>
   10028:	000f0463          	beqz	t5,10030 <trap_vector+0x2c>
   1002c:	000f0067          	jr	t5
   10030:	34202f73          	csrr	t5,mcause
   10034:	000f5463          	bgez	t5,1003c <handle_exception>
   10038:	0040006f          	j	1003c <handle_exception>

0001003c <handle_exception>:
   1003c:	5391e193          	ori	gp,gp,1337

00010040 <write_tohost>:
   10040:	00003f17          	auipc	t5,0x3
   10044:	fc3f2023          	sw	gp,-64(t5) # 13000 <tohost>
   10048:	ff9ff06f          	j	10040 <write_tohost>

0001004c <reset_vector>:
   1004c:	f1402573          	csrr	a0,mhartid
   10050:	00051063          	bnez	a0,10050 <reset_vector+0x4>
   10054:	00000297          	auipc	t0,0x0
   10058:	01028293          	addi	t0,t0,16 # 10064 <reset_vector+0x18>
   1005c:	30529073          	csrw	mtvec,t0
   10060:	18005073          	csrwi	satp,0
   10064:	00000297          	auipc	t0,0x0
   10068:	01c28293          	addi	t0,t0,28 # 10080 <reset_vector+0x34>
   1006c:	30529073          	csrw	mtvec,t0
   10070:	fff00293          	li	t0,-1
   10074:	3b029073          	csrw	pmpaddr0,t0
   10078:	01f00293          	li	t0,31
   1007c:	3a029073          	csrw	pmpcfg0,t0
   10080:	00000297          	auipc	t0,0x0
   10084:	01828293          	addi	t0,t0,24 # 10098 <reset_vector+0x4c>
   10088:	30529073          	csrw	mtvec,t0
   1008c:	30205073          	csrwi	medeleg,0
   10090:	30305073          	csrwi	mideleg,0
   10094:	30405073          	csrwi	mie,0
   10098:	00000193          	li	gp,0
   1009c:	00000297          	auipc	t0,0x0
   100a0:	f6828293          	addi	t0,t0,-152 # 10004 <trap_vector>
   100a4:	30529073          	csrw	mtvec,t0
   100a8:	00100513          	li	a0,1
   100ac:	01f51513          	slli	a0,a0,0x1f
   100b0:	00054863          	bltz	a0,100c0 <reset_vector+0x74>
   100b4:	0000100f          	fence.i
   100b8:	00100193          	li	gp,1
   100bc:	00000073          	ecall
   100c0:	ffff0297          	auipc	t0,0xffff0
   100c4:	f4028293          	addi	t0,t0,-192 # 0 <_start-0x10000>
   100c8:	00028e63          	beqz	t0,100e4 <reset_vector+0x98>
   100cc:	10529073          	csrw	stvec,t0
   100d0:	0000b2b7          	lui	t0,0xb
   100d4:	10928293          	addi	t0,t0,265 # b109 <_start-0x4ef7>
   100d8:	30229073          	csrw	medeleg,t0
   100dc:	30202373          	csrr	t1,medeleg
   100e0:	f4629ee3          	bne	t0,t1,1003c <handle_exception>
   100e4:	30005073          	csrwi	mstatus,0
   100e8:	00002537          	lui	a0,0x2
   100ec:	80050513          	addi	a0,a0,-2048 # 1800 <_start-0xe800>
   100f0:	30052073          	csrs	mstatus,a0
   100f4:	00000297          	auipc	t0,0x0
   100f8:	01428293          	addi	t0,t0,20 # 10108 <reset_vector+0xbc>
   100fc:	34129073          	csrw	mepc,t0
   10100:	f1402573          	csrr	a0,mhartid
   10104:	30200073          	mret
   10108:	00000293          	li	t0,0
   1010c:	08500e63          	beq	zero,t0,101a8 <reset_vector+0x15c>
   10110:	00005517          	auipc	a0,0x5
   10114:	fd050513          	addi	a0,a0,-48 # 150e0 <end_signature>
   10118:	6e9030ef          	jal	ra,14000 <FN_WriteStr>
   1011c:	00005517          	auipc	a0,0x5
   10120:	fdf50513          	addi	a0,a0,-33 # 150fb <end_signature+0x1b>
   10124:	6dd030ef          	jal	ra,14000 <FN_WriteStr>
   10128:	00005517          	auipc	a0,0x5
   1012c:	fe150513          	addi	a0,a0,-31 # 15109 <end_signature+0x29>
   10130:	6d1030ef          	jal	ra,14000 <FN_WriteStr>
   10134:	00005517          	auipc	a0,0x5
   10138:	fdd50513          	addi	a0,a0,-35 # 15111 <end_signature+0x31>
   1013c:	6c5030ef          	jal	ra,14000 <FN_WriteStr>
   10140:	00005517          	auipc	a0,0x5
   10144:	fd450513          	addi	a0,a0,-44 # 15114 <end_signature+0x34>
   10148:	6b9030ef          	jal	ra,14000 <FN_WriteStr>
   1014c:	00005517          	auipc	a0,0x5
   10150:	fcb50513          	addi	a0,a0,-53 # 15117 <end_signature+0x37>
   10154:	6ad030ef          	jal	ra,14000 <FN_WriteStr>
   10158:	00005517          	auipc	a0,0x5
   1015c:	fc250513          	addi	a0,a0,-62 # 1511a <end_signature+0x3a>
   10160:	6a1030ef          	jal	ra,14000 <FN_WriteStr>
   10164:	00000513          	li	a0,0
   10168:	6b5030ef          	jal	ra,1401c <FN_WriteA0>
   1016c:	00005517          	auipc	a0,0x5
   10170:	fb050513          	addi	a0,a0,-80 # 1511c <end_signature+0x3c>
   10174:	68d030ef          	jal	ra,14000 <FN_WriteStr>
   10178:	00005517          	auipc	a0,0x5
   1017c:	faa50513          	addi	a0,a0,-86 # 15122 <end_signature+0x42>
   10180:	681030ef          	jal	ra,14000 <FN_WriteStr>
   10184:	00005517          	auipc	a0,0x5
   10188:	fa950513          	addi	a0,a0,-87 # 1512d <end_signature+0x4d>
   1018c:	675030ef          	jal	ra,14000 <FN_WriteStr>
   10190:	06400193          	li	gp,100
   10194:	0000100f          	fence.i
   10198:	00018063          	beqz	gp,10198 <reset_vector+0x14c>
   1019c:	00119193          	slli	gp,gp,0x1
   101a0:	0011e193          	ori	gp,gp,1
   101a4:	00000073          	ecall
   101a8:	00005517          	auipc	a0,0x5
   101ac:	f8750513          	addi	a0,a0,-121 # 1512f <end_signature+0x4f>
   101b0:	651030ef          	jal	ra,14000 <FN_WriteStr>
   101b4:	00005517          	auipc	a0,0x5
   101b8:	fad50513          	addi	a0,a0,-83 # 15161 <end_signature+0x81>
   101bc:	645030ef          	jal	ra,14000 <FN_WriteStr>
   101c0:	00005097          	auipc	ra,0x5
   101c4:	e4008093          	addi	ra,ra,-448 # 15000 <test_A1_data>
   101c8:	00005117          	auipc	sp,0x5
   101cc:	e6810113          	addi	sp,sp,-408 # 15030 <begin_signature>
   101d0:	0000a183          	lw	gp,0(ra)
   101d4:	00000213          	li	tp,0
   101d8:	00100293          	li	t0,1
   101dc:	fff00313          	li	t1,-1
   101e0:	800003b7          	lui	t2,0x80000
   101e4:	fff38393          	addi	t2,t2,-1 # 7fffffff <_end+0x7ffe9dfb>
   101e8:	80000437          	lui	s0,0x80000
   101ec:	0041e233          	or	tp,gp,tp
   101f0:	0051e2b3          	or	t0,gp,t0
   101f4:	0061e333          	or	t1,gp,t1
   101f8:	0071e3b3          	or	t2,gp,t2
   101fc:	0081e433          	or	s0,gp,s0
   10200:	00312023          	sw	gp,0(sp)
   10204:	00412223          	sw	tp,4(sp)
   10208:	00512423          	sw	t0,8(sp)
   1020c:	00612623          	sw	t1,12(sp)
   10210:	00712823          	sw	t2,16(sp)
   10214:	00812a23          	sw	s0,20(sp)
   10218:	fff00013          	li	zero,-1
   1021c:	00000293          	li	t0,0
   10220:	08518e63          	beq	gp,t0,102bc <reset_vector+0x270>
   10224:	00005517          	auipc	a0,0x5
   10228:	f8f50513          	addi	a0,a0,-113 # 151b3 <end_signature+0xd3>
   1022c:	5d5030ef          	jal	ra,14000 <FN_WriteStr>
   10230:	00005517          	auipc	a0,0x5
   10234:	f9e50513          	addi	a0,a0,-98 # 151ce <end_signature+0xee>
   10238:	5c9030ef          	jal	ra,14000 <FN_WriteStr>
   1023c:	00005517          	auipc	a0,0x5
   10240:	fa050513          	addi	a0,a0,-96 # 151dc <end_signature+0xfc>
   10244:	5bd030ef          	jal	ra,14000 <FN_WriteStr>
   10248:	00005517          	auipc	a0,0x5
   1024c:	f9c50513          	addi	a0,a0,-100 # 151e4 <end_signature+0x104>
   10250:	5b1030ef          	jal	ra,14000 <FN_WriteStr>
   10254:	00005517          	auipc	a0,0x5
   10258:	f9350513          	addi	a0,a0,-109 # 151e7 <end_signature+0x107>
   1025c:	5a5030ef          	jal	ra,14000 <FN_WriteStr>
   10260:	00005517          	auipc	a0,0x5
   10264:	f8a50513          	addi	a0,a0,-118 # 151ea <end_signature+0x10a>
   10268:	599030ef          	jal	ra,14000 <FN_WriteStr>
   1026c:	00005517          	auipc	a0,0x5
   10270:	f8150513          	addi	a0,a0,-127 # 151ed <end_signature+0x10d>
   10274:	58d030ef          	jal	ra,14000 <FN_WriteStr>
   10278:	00018513          	mv	a0,gp
   1027c:	5a1030ef          	jal	ra,1401c <FN_WriteA0>
   10280:	00005517          	auipc	a0,0x5
   10284:	f6f50513          	addi	a0,a0,-145 # 151ef <end_signature+0x10f>
   10288:	579030ef          	jal	ra,14000 <FN_WriteStr>
   1028c:	00005517          	auipc	a0,0x5
   10290:	f6950513          	addi	a0,a0,-151 # 151f5 <end_signature+0x115>
   10294:	56d030ef          	jal	ra,14000 <FN_WriteStr>
   10298:	00005517          	auipc	a0,0x5
   1029c:	f6850513          	addi	a0,a0,-152 # 15200 <end_signature+0x120>
   102a0:	561030ef          	jal	ra,14000 <FN_WriteStr>
   102a4:	06400193          	li	gp,100
   102a8:	0000100f          	fence.i
   102ac:	00018063          	beqz	gp,102ac <reset_vector+0x260>
   102b0:	00119193          	slli	gp,gp,0x1
   102b4:	0011e193          	ori	gp,gp,1
   102b8:	00000073          	ecall
   102bc:	00000293          	li	t0,0
   102c0:	08520e63          	beq	tp,t0,1035c <reset_vector+0x310>
   102c4:	00005517          	auipc	a0,0x5
   102c8:	f3e50513          	addi	a0,a0,-194 # 15202 <end_signature+0x122>
   102cc:	535030ef          	jal	ra,14000 <FN_WriteStr>
   102d0:	00005517          	auipc	a0,0x5
   102d4:	f4d50513          	addi	a0,a0,-179 # 1521d <end_signature+0x13d>
   102d8:	529030ef          	jal	ra,14000 <FN_WriteStr>
   102dc:	00005517          	auipc	a0,0x5
   102e0:	f4f50513          	addi	a0,a0,-177 # 1522b <end_signature+0x14b>
   102e4:	51d030ef          	jal	ra,14000 <FN_WriteStr>
   102e8:	00005517          	auipc	a0,0x5
   102ec:	f4b50513          	addi	a0,a0,-181 # 15233 <end_signature+0x153>
   102f0:	511030ef          	jal	ra,14000 <FN_WriteStr>
   102f4:	00005517          	auipc	a0,0x5
   102f8:	f4250513          	addi	a0,a0,-190 # 15236 <end_signature+0x156>
   102fc:	505030ef          	jal	ra,14000 <FN_WriteStr>
   10300:	00005517          	auipc	a0,0x5
   10304:	f3950513          	addi	a0,a0,-199 # 15239 <end_signature+0x159>
   10308:	4f9030ef          	jal	ra,14000 <FN_WriteStr>
   1030c:	00005517          	auipc	a0,0x5
   10310:	f3050513          	addi	a0,a0,-208 # 1523c <end_signature+0x15c>
   10314:	4ed030ef          	jal	ra,14000 <FN_WriteStr>
   10318:	00020513          	mv	a0,tp
   1031c:	501030ef          	jal	ra,1401c <FN_WriteA0>
   10320:	00005517          	auipc	a0,0x5
   10324:	f1e50513          	addi	a0,a0,-226 # 1523e <end_signature+0x15e>
   10328:	4d9030ef          	jal	ra,14000 <FN_WriteStr>
   1032c:	00005517          	auipc	a0,0x5
   10330:	f1850513          	addi	a0,a0,-232 # 15244 <end_signature+0x164>
   10334:	4cd030ef          	jal	ra,14000 <FN_WriteStr>
   10338:	00005517          	auipc	a0,0x5
   1033c:	f1750513          	addi	a0,a0,-233 # 1524f <end_signature+0x16f>
   10340:	4c1030ef          	jal	ra,14000 <FN_WriteStr>
   10344:	06400193          	li	gp,100
   10348:	0000100f          	fence.i
   1034c:	00018063          	beqz	gp,1034c <reset_vector+0x300>
   10350:	00119193          	slli	gp,gp,0x1
   10354:	0011e193          	ori	gp,gp,1
   10358:	00000073          	ecall
   1035c:	00000293          	li	t0,0
   10360:	08528e63          	beq	t0,t0,103fc <reset_vector+0x3b0>
   10364:	00005517          	auipc	a0,0x5
   10368:	eed50513          	addi	a0,a0,-275 # 15251 <end_signature+0x171>
   1036c:	495030ef          	jal	ra,14000 <FN_WriteStr>
   10370:	00005517          	auipc	a0,0x5
   10374:	efc50513          	addi	a0,a0,-260 # 1526c <end_signature+0x18c>
   10378:	489030ef          	jal	ra,14000 <FN_WriteStr>
   1037c:	00005517          	auipc	a0,0x5
   10380:	efe50513          	addi	a0,a0,-258 # 1527a <end_signature+0x19a>
   10384:	47d030ef          	jal	ra,14000 <FN_WriteStr>
   10388:	00005517          	auipc	a0,0x5
   1038c:	efa50513          	addi	a0,a0,-262 # 15282 <end_signature+0x1a2>
   10390:	471030ef          	jal	ra,14000 <FN_WriteStr>
   10394:	00005517          	auipc	a0,0x5
   10398:	ef150513          	addi	a0,a0,-271 # 15285 <end_signature+0x1a5>
   1039c:	465030ef          	jal	ra,14000 <FN_WriteStr>
   103a0:	00005517          	auipc	a0,0x5
   103a4:	ee850513          	addi	a0,a0,-280 # 15288 <end_signature+0x1a8>
   103a8:	459030ef          	jal	ra,14000 <FN_WriteStr>
   103ac:	00005517          	auipc	a0,0x5
   103b0:	edf50513          	addi	a0,a0,-289 # 1528b <end_signature+0x1ab>
   103b4:	44d030ef          	jal	ra,14000 <FN_WriteStr>
   103b8:	00028513          	mv	a0,t0
   103bc:	461030ef          	jal	ra,1401c <FN_WriteA0>
   103c0:	00005517          	auipc	a0,0x5
   103c4:	ecd50513          	addi	a0,a0,-307 # 1528d <end_signature+0x1ad>
   103c8:	439030ef          	jal	ra,14000 <FN_WriteStr>
   103cc:	00005517          	auipc	a0,0x5
   103d0:	ec750513          	addi	a0,a0,-313 # 15293 <end_signature+0x1b3>
   103d4:	42d030ef          	jal	ra,14000 <FN_WriteStr>
   103d8:	00005517          	auipc	a0,0x5
   103dc:	ec650513          	addi	a0,a0,-314 # 1529e <end_signature+0x1be>
   103e0:	421030ef          	jal	ra,14000 <FN_WriteStr>
   103e4:	06400193          	li	gp,100
   103e8:	0000100f          	fence.i
   103ec:	00018063          	beqz	gp,103ec <reset_vector+0x3a0>
   103f0:	00119193          	slli	gp,gp,0x1
   103f4:	0011e193          	ori	gp,gp,1
   103f8:	00000073          	ecall
   103fc:	fff00293          	li	t0,-1
   10400:	08530e63          	beq	t1,t0,1049c <reset_vector+0x450>
   10404:	00005517          	auipc	a0,0x5
   10408:	e9c50513          	addi	a0,a0,-356 # 152a0 <end_signature+0x1c0>
   1040c:	3f5030ef          	jal	ra,14000 <FN_WriteStr>
   10410:	00005517          	auipc	a0,0x5
   10414:	eab50513          	addi	a0,a0,-341 # 152bb <end_signature+0x1db>
   10418:	3e9030ef          	jal	ra,14000 <FN_WriteStr>
   1041c:	00005517          	auipc	a0,0x5
   10420:	ead50513          	addi	a0,a0,-339 # 152c9 <end_signature+0x1e9>
   10424:	3dd030ef          	jal	ra,14000 <FN_WriteStr>
   10428:	00005517          	auipc	a0,0x5
   1042c:	ea950513          	addi	a0,a0,-343 # 152d1 <end_signature+0x1f1>
   10430:	3d1030ef          	jal	ra,14000 <FN_WriteStr>
   10434:	00005517          	auipc	a0,0x5
   10438:	ea050513          	addi	a0,a0,-352 # 152d4 <end_signature+0x1f4>
   1043c:	3c5030ef          	jal	ra,14000 <FN_WriteStr>
   10440:	00005517          	auipc	a0,0x5
   10444:	e9750513          	addi	a0,a0,-361 # 152d7 <end_signature+0x1f7>
   10448:	3b9030ef          	jal	ra,14000 <FN_WriteStr>
   1044c:	00005517          	auipc	a0,0x5
   10450:	e8e50513          	addi	a0,a0,-370 # 152da <end_signature+0x1fa>
   10454:	3ad030ef          	jal	ra,14000 <FN_WriteStr>
   10458:	00030513          	mv	a0,t1
   1045c:	3c1030ef          	jal	ra,1401c <FN_WriteA0>
   10460:	00005517          	auipc	a0,0x5
   10464:	e7c50513          	addi	a0,a0,-388 # 152dc <end_signature+0x1fc>
   10468:	399030ef          	jal	ra,14000 <FN_WriteStr>
   1046c:	00005517          	auipc	a0,0x5
   10470:	e7650513          	addi	a0,a0,-394 # 152e2 <end_signature+0x202>
   10474:	38d030ef          	jal	ra,14000 <FN_WriteStr>
   10478:	00005517          	auipc	a0,0x5
   1047c:	e7550513          	addi	a0,a0,-395 # 152ed <end_signature+0x20d>
   10480:	381030ef          	jal	ra,14000 <FN_WriteStr>
   10484:	06400193          	li	gp,100
   10488:	0000100f          	fence.i
   1048c:	00018063          	beqz	gp,1048c <reset_vector+0x440>
   10490:	00119193          	slli	gp,gp,0x1
   10494:	0011e193          	ori	gp,gp,1
   10498:	00000073          	ecall
   1049c:	800002b7          	lui	t0,0x80000
   104a0:	fff28293          	addi	t0,t0,-1 # 7fffffff <_end+0x7ffe9dfb>
   104a4:	08538e63          	beq	t2,t0,10540 <reset_vector+0x4f4>
   104a8:	00005517          	auipc	a0,0x5
   104ac:	e4750513          	addi	a0,a0,-441 # 152ef <end_signature+0x20f>
   104b0:	351030ef          	jal	ra,14000 <FN_WriteStr>
   104b4:	00005517          	auipc	a0,0x5
   104b8:	e5650513          	addi	a0,a0,-426 # 1530a <end_signature+0x22a>
   104bc:	345030ef          	jal	ra,14000 <FN_WriteStr>
   104c0:	00005517          	auipc	a0,0x5
   104c4:	e5850513          	addi	a0,a0,-424 # 15318 <end_signature+0x238>
   104c8:	339030ef          	jal	ra,14000 <FN_WriteStr>
   104cc:	00005517          	auipc	a0,0x5
   104d0:	e5450513          	addi	a0,a0,-428 # 15320 <end_signature+0x240>
   104d4:	32d030ef          	jal	ra,14000 <FN_WriteStr>
   104d8:	00005517          	auipc	a0,0x5
   104dc:	e4b50513          	addi	a0,a0,-437 # 15323 <end_signature+0x243>
   104e0:	321030ef          	jal	ra,14000 <FN_WriteStr>
   104e4:	00005517          	auipc	a0,0x5
   104e8:	e4250513          	addi	a0,a0,-446 # 15326 <end_signature+0x246>
   104ec:	315030ef          	jal	ra,14000 <FN_WriteStr>
   104f0:	00005517          	auipc	a0,0x5
   104f4:	e3950513          	addi	a0,a0,-455 # 15329 <end_signature+0x249>
   104f8:	309030ef          	jal	ra,14000 <FN_WriteStr>
   104fc:	00038513          	mv	a0,t2
   10500:	31d030ef          	jal	ra,1401c <FN_WriteA0>
   10504:	00005517          	auipc	a0,0x5
   10508:	e2750513          	addi	a0,a0,-473 # 1532b <end_signature+0x24b>
   1050c:	2f5030ef          	jal	ra,14000 <FN_WriteStr>
   10510:	00005517          	auipc	a0,0x5
   10514:	e2150513          	addi	a0,a0,-479 # 15331 <end_signature+0x251>
   10518:	2e9030ef          	jal	ra,14000 <FN_WriteStr>
   1051c:	00005517          	auipc	a0,0x5
   10520:	e2050513          	addi	a0,a0,-480 # 1533c <end_signature+0x25c>
   10524:	2dd030ef          	jal	ra,14000 <FN_WriteStr>
   10528:	06400193          	li	gp,100
   1052c:	0000100f          	fence.i
   10530:	00018063          	beqz	gp,10530 <reset_vector+0x4e4>
   10534:	00119193          	slli	gp,gp,0x1
   10538:	0011e193          	ori	gp,gp,1
   1053c:	00000073          	ecall
   10540:	800002b7          	lui	t0,0x80000
   10544:	08540e63          	beq	s0,t0,105e0 <reset_vector+0x594>
   10548:	00005517          	auipc	a0,0x5
   1054c:	df650513          	addi	a0,a0,-522 # 1533e <end_signature+0x25e>
   10550:	2b1030ef          	jal	ra,14000 <FN_WriteStr>
   10554:	00005517          	auipc	a0,0x5
   10558:	e0550513          	addi	a0,a0,-507 # 15359 <end_signature+0x279>
   1055c:	2a5030ef          	jal	ra,14000 <FN_WriteStr>
   10560:	00005517          	auipc	a0,0x5
   10564:	e0750513          	addi	a0,a0,-505 # 15367 <end_signature+0x287>
   10568:	299030ef          	jal	ra,14000 <FN_WriteStr>
   1056c:	00005517          	auipc	a0,0x5
   10570:	e0350513          	addi	a0,a0,-509 # 1536f <end_signature+0x28f>
   10574:	28d030ef          	jal	ra,14000 <FN_WriteStr>
   10578:	00005517          	auipc	a0,0x5
   1057c:	dfa50513          	addi	a0,a0,-518 # 15372 <end_signature+0x292>
   10580:	281030ef          	jal	ra,14000 <FN_WriteStr>
   10584:	00005517          	auipc	a0,0x5
   10588:	df150513          	addi	a0,a0,-527 # 15375 <end_signature+0x295>
   1058c:	275030ef          	jal	ra,14000 <FN_WriteStr>
   10590:	00005517          	auipc	a0,0x5
   10594:	de850513          	addi	a0,a0,-536 # 15378 <end_signature+0x298>
   10598:	269030ef          	jal	ra,14000 <FN_WriteStr>
   1059c:	00040513          	mv	a0,s0
   105a0:	27d030ef          	jal	ra,1401c <FN_WriteA0>
   105a4:	00005517          	auipc	a0,0x5
   105a8:	dd650513          	addi	a0,a0,-554 # 1537a <end_signature+0x29a>
   105ac:	255030ef          	jal	ra,14000 <FN_WriteStr>
   105b0:	00005517          	auipc	a0,0x5
   105b4:	dd050513          	addi	a0,a0,-560 # 15380 <end_signature+0x2a0>
   105b8:	249030ef          	jal	ra,14000 <FN_WriteStr>
   105bc:	00005517          	auipc	a0,0x5
   105c0:	dcf50513          	addi	a0,a0,-561 # 1538b <end_signature+0x2ab>
   105c4:	23d030ef          	jal	ra,14000 <FN_WriteStr>
   105c8:	06400193          	li	gp,100
   105cc:	0000100f          	fence.i
   105d0:	00018063          	beqz	gp,105d0 <reset_vector+0x584>
   105d4:	00119193          	slli	gp,gp,0x1
   105d8:	0011e193          	ori	gp,gp,1
   105dc:	00000073          	ecall
   105e0:	00005517          	auipc	a0,0x5
   105e4:	dad50513          	addi	a0,a0,-595 # 1538d <end_signature+0x2ad>
   105e8:	219030ef          	jal	ra,14000 <FN_WriteStr>
   105ec:	00005517          	auipc	a0,0x5
   105f0:	dbd50513          	addi	a0,a0,-579 # 153a9 <end_signature+0x2c9>
   105f4:	20d030ef          	jal	ra,14000 <FN_WriteStr>
   105f8:	00005097          	auipc	ra,0x5
   105fc:	a0c08093          	addi	ra,ra,-1524 # 15004 <test_A2_data>
   10600:	00005117          	auipc	sp,0x5
   10604:	a4810113          	addi	sp,sp,-1464 # 15048 <test_A2_res>
   10608:	0000a403          	lw	s0,0(ra)
   1060c:	00000493          	li	s1,0
   10610:	00100513          	li	a0,1
   10614:	fff00593          	li	a1,-1
   10618:	80000637          	lui	a2,0x80000
   1061c:	fff60613          	addi	a2,a2,-1 # 7fffffff <_end+0x7ffe9dfb>
   10620:	800006b7          	lui	a3,0x80000
   10624:	009464b3          	or	s1,s0,s1
   10628:	00a46533          	or	a0,s0,a0
   1062c:	00b465b3          	or	a1,s0,a1
   10630:	00c46633          	or	a2,s0,a2
   10634:	00d466b3          	or	a3,s0,a3
   10638:	00812023          	sw	s0,0(sp)
   1063c:	00912223          	sw	s1,4(sp)
   10640:	00a12423          	sw	a0,8(sp)
   10644:	00b12623          	sw	a1,12(sp)
   10648:	00c12823          	sw	a2,16(sp)
   1064c:	00d12a23          	sw	a3,20(sp)
   10650:	00100293          	li	t0,1
   10654:	08540e63          	beq	s0,t0,106f0 <reset_vector+0x6a4>
   10658:	00005517          	auipc	a0,0x5
   1065c:	da350513          	addi	a0,a0,-605 # 153fb <end_signature+0x31b>
   10660:	1a1030ef          	jal	ra,14000 <FN_WriteStr>
   10664:	00005517          	auipc	a0,0x5
   10668:	db250513          	addi	a0,a0,-590 # 15416 <end_signature+0x336>
   1066c:	195030ef          	jal	ra,14000 <FN_WriteStr>
   10670:	00005517          	auipc	a0,0x5
   10674:	db450513          	addi	a0,a0,-588 # 15424 <end_signature+0x344>
   10678:	189030ef          	jal	ra,14000 <FN_WriteStr>
   1067c:	00005517          	auipc	a0,0x5
   10680:	db050513          	addi	a0,a0,-592 # 1542c <end_signature+0x34c>
   10684:	17d030ef          	jal	ra,14000 <FN_WriteStr>
   10688:	00005517          	auipc	a0,0x5
   1068c:	da850513          	addi	a0,a0,-600 # 15430 <end_signature+0x350>
   10690:	171030ef          	jal	ra,14000 <FN_WriteStr>
   10694:	00005517          	auipc	a0,0x5
   10698:	d9f50513          	addi	a0,a0,-609 # 15433 <end_signature+0x353>
   1069c:	165030ef          	jal	ra,14000 <FN_WriteStr>
   106a0:	00005517          	auipc	a0,0x5
   106a4:	d9650513          	addi	a0,a0,-618 # 15436 <end_signature+0x356>
   106a8:	159030ef          	jal	ra,14000 <FN_WriteStr>
   106ac:	00040513          	mv	a0,s0
   106b0:	16d030ef          	jal	ra,1401c <FN_WriteA0>
   106b4:	00005517          	auipc	a0,0x5
   106b8:	d8450513          	addi	a0,a0,-636 # 15438 <end_signature+0x358>
   106bc:	145030ef          	jal	ra,14000 <FN_WriteStr>
   106c0:	00005517          	auipc	a0,0x5
   106c4:	d7e50513          	addi	a0,a0,-642 # 1543e <end_signature+0x35e>
   106c8:	139030ef          	jal	ra,14000 <FN_WriteStr>
   106cc:	00005517          	auipc	a0,0x5
   106d0:	d7d50513          	addi	a0,a0,-643 # 15449 <end_signature+0x369>
   106d4:	12d030ef          	jal	ra,14000 <FN_WriteStr>
   106d8:	06400193          	li	gp,100
   106dc:	0000100f          	fence.i
   106e0:	00018063          	beqz	gp,106e0 <reset_vector+0x694>
   106e4:	00119193          	slli	gp,gp,0x1
   106e8:	0011e193          	ori	gp,gp,1
   106ec:	00000073          	ecall
   106f0:	00100293          	li	t0,1
   106f4:	08548e63          	beq	s1,t0,10790 <reset_vector+0x744>
   106f8:	00005517          	auipc	a0,0x5
   106fc:	d5350513          	addi	a0,a0,-685 # 1544b <end_signature+0x36b>
   10700:	101030ef          	jal	ra,14000 <FN_WriteStr>
   10704:	00005517          	auipc	a0,0x5
   10708:	d6250513          	addi	a0,a0,-670 # 15466 <end_signature+0x386>
   1070c:	0f5030ef          	jal	ra,14000 <FN_WriteStr>
   10710:	00005517          	auipc	a0,0x5
   10714:	d6450513          	addi	a0,a0,-668 # 15474 <end_signature+0x394>
   10718:	0e9030ef          	jal	ra,14000 <FN_WriteStr>
   1071c:	00005517          	auipc	a0,0x5
   10720:	d6050513          	addi	a0,a0,-672 # 1547c <end_signature+0x39c>
   10724:	0dd030ef          	jal	ra,14000 <FN_WriteStr>
   10728:	00005517          	auipc	a0,0x5
   1072c:	d5850513          	addi	a0,a0,-680 # 15480 <end_signature+0x3a0>
   10730:	0d1030ef          	jal	ra,14000 <FN_WriteStr>
   10734:	00005517          	auipc	a0,0x5
   10738:	d4f50513          	addi	a0,a0,-689 # 15483 <end_signature+0x3a3>
   1073c:	0c5030ef          	jal	ra,14000 <FN_WriteStr>
   10740:	00005517          	auipc	a0,0x5
   10744:	d4650513          	addi	a0,a0,-698 # 15486 <end_signature+0x3a6>
   10748:	0b9030ef          	jal	ra,14000 <FN_WriteStr>
   1074c:	00048513          	mv	a0,s1
   10750:	0cd030ef          	jal	ra,1401c <FN_WriteA0>
   10754:	00005517          	auipc	a0,0x5
   10758:	d3450513          	addi	a0,a0,-716 # 15488 <end_signature+0x3a8>
   1075c:	0a5030ef          	jal	ra,14000 <FN_WriteStr>
   10760:	00005517          	auipc	a0,0x5
   10764:	d2e50513          	addi	a0,a0,-722 # 1548e <end_signature+0x3ae>
   10768:	099030ef          	jal	ra,14000 <FN_WriteStr>
   1076c:	00005517          	auipc	a0,0x5
   10770:	d2d50513          	addi	a0,a0,-723 # 15499 <end_signature+0x3b9>
   10774:	08d030ef          	jal	ra,14000 <FN_WriteStr>
   10778:	06400193          	li	gp,100
   1077c:	0000100f          	fence.i
   10780:	00018063          	beqz	gp,10780 <reset_vector+0x734>
   10784:	00119193          	slli	gp,gp,0x1
   10788:	0011e193          	ori	gp,gp,1
   1078c:	00000073          	ecall
   10790:	fff00293          	li	t0,-1
   10794:	08558e63          	beq	a1,t0,10830 <reset_vector+0x7e4>
   10798:	00005517          	auipc	a0,0x5
   1079c:	d0350513          	addi	a0,a0,-765 # 1549b <end_signature+0x3bb>
   107a0:	061030ef          	jal	ra,14000 <FN_WriteStr>
   107a4:	00005517          	auipc	a0,0x5
   107a8:	d1250513          	addi	a0,a0,-750 # 154b6 <end_signature+0x3d6>
   107ac:	055030ef          	jal	ra,14000 <FN_WriteStr>
   107b0:	00005517          	auipc	a0,0x5
   107b4:	d1450513          	addi	a0,a0,-748 # 154c4 <end_signature+0x3e4>
   107b8:	049030ef          	jal	ra,14000 <FN_WriteStr>
   107bc:	00005517          	auipc	a0,0x5
   107c0:	d1050513          	addi	a0,a0,-752 # 154cc <end_signature+0x3ec>
   107c4:	03d030ef          	jal	ra,14000 <FN_WriteStr>
   107c8:	00005517          	auipc	a0,0x5
   107cc:	d0850513          	addi	a0,a0,-760 # 154d0 <end_signature+0x3f0>
   107d0:	031030ef          	jal	ra,14000 <FN_WriteStr>
   107d4:	00005517          	auipc	a0,0x5
   107d8:	cff50513          	addi	a0,a0,-769 # 154d3 <end_signature+0x3f3>
   107dc:	025030ef          	jal	ra,14000 <FN_WriteStr>
   107e0:	00005517          	auipc	a0,0x5
   107e4:	cf750513          	addi	a0,a0,-777 # 154d7 <end_signature+0x3f7>
   107e8:	019030ef          	jal	ra,14000 <FN_WriteStr>
   107ec:	00058513          	mv	a0,a1
   107f0:	02d030ef          	jal	ra,1401c <FN_WriteA0>
   107f4:	00005517          	auipc	a0,0x5
   107f8:	ce550513          	addi	a0,a0,-795 # 154d9 <end_signature+0x3f9>
   107fc:	005030ef          	jal	ra,14000 <FN_WriteStr>
   10800:	00005517          	auipc	a0,0x5
   10804:	cdf50513          	addi	a0,a0,-801 # 154df <end_signature+0x3ff>
   10808:	7f8030ef          	jal	ra,14000 <FN_WriteStr>
   1080c:	00005517          	auipc	a0,0x5
   10810:	cde50513          	addi	a0,a0,-802 # 154ea <end_signature+0x40a>
   10814:	7ec030ef          	jal	ra,14000 <FN_WriteStr>
   10818:	06400193          	li	gp,100
   1081c:	0000100f          	fence.i
   10820:	00018063          	beqz	gp,10820 <reset_vector+0x7d4>
   10824:	00119193          	slli	gp,gp,0x1
   10828:	0011e193          	ori	gp,gp,1
   1082c:	00000073          	ecall
   10830:	800002b7          	lui	t0,0x80000
   10834:	fff28293          	addi	t0,t0,-1 # 7fffffff <_end+0x7ffe9dfb>
   10838:	08560e63          	beq	a2,t0,108d4 <reset_vector+0x888>
   1083c:	00005517          	auipc	a0,0x5
   10840:	cb050513          	addi	a0,a0,-848 # 154ec <end_signature+0x40c>
   10844:	7bc030ef          	jal	ra,14000 <FN_WriteStr>
   10848:	00005517          	auipc	a0,0x5
   1084c:	cbf50513          	addi	a0,a0,-833 # 15507 <end_signature+0x427>
   10850:	7b0030ef          	jal	ra,14000 <FN_WriteStr>
   10854:	00005517          	auipc	a0,0x5
   10858:	cc150513          	addi	a0,a0,-831 # 15515 <end_signature+0x435>
   1085c:	7a4030ef          	jal	ra,14000 <FN_WriteStr>
   10860:	00005517          	auipc	a0,0x5
   10864:	cbd50513          	addi	a0,a0,-835 # 1551d <end_signature+0x43d>
   10868:	798030ef          	jal	ra,14000 <FN_WriteStr>
   1086c:	00005517          	auipc	a0,0x5
   10870:	cb550513          	addi	a0,a0,-843 # 15521 <end_signature+0x441>
   10874:	78c030ef          	jal	ra,14000 <FN_WriteStr>
   10878:	00005517          	auipc	a0,0x5
   1087c:	cac50513          	addi	a0,a0,-852 # 15524 <end_signature+0x444>
   10880:	780030ef          	jal	ra,14000 <FN_WriteStr>
   10884:	00005517          	auipc	a0,0x5
   10888:	ca450513          	addi	a0,a0,-860 # 15528 <end_signature+0x448>
   1088c:	774030ef          	jal	ra,14000 <FN_WriteStr>
   10890:	00060513          	mv	a0,a2
   10894:	788030ef          	jal	ra,1401c <FN_WriteA0>
   10898:	00005517          	auipc	a0,0x5
   1089c:	c9250513          	addi	a0,a0,-878 # 1552a <end_signature+0x44a>
   108a0:	760030ef          	jal	ra,14000 <FN_WriteStr>
   108a4:	00005517          	auipc	a0,0x5
   108a8:	c8c50513          	addi	a0,a0,-884 # 15530 <end_signature+0x450>
   108ac:	754030ef          	jal	ra,14000 <FN_WriteStr>
   108b0:	00005517          	auipc	a0,0x5
   108b4:	c8b50513          	addi	a0,a0,-885 # 1553b <end_signature+0x45b>
   108b8:	748030ef          	jal	ra,14000 <FN_WriteStr>
   108bc:	06400193          	li	gp,100
   108c0:	0000100f          	fence.i
   108c4:	00018063          	beqz	gp,108c4 <reset_vector+0x878>
   108c8:	00119193          	slli	gp,gp,0x1
   108cc:	0011e193          	ori	gp,gp,1
   108d0:	00000073          	ecall
   108d4:	800002b7          	lui	t0,0x80000
   108d8:	00128293          	addi	t0,t0,1 # 80000001 <_end+0x7ffe9dfd>
   108dc:	08568e63          	beq	a3,t0,10978 <reset_vector+0x92c>
   108e0:	00005517          	auipc	a0,0x5
   108e4:	c5d50513          	addi	a0,a0,-931 # 1553d <end_signature+0x45d>
   108e8:	718030ef          	jal	ra,14000 <FN_WriteStr>
   108ec:	00005517          	auipc	a0,0x5
   108f0:	c6c50513          	addi	a0,a0,-916 # 15558 <end_signature+0x478>
   108f4:	70c030ef          	jal	ra,14000 <FN_WriteStr>
   108f8:	00005517          	auipc	a0,0x5
   108fc:	c6e50513          	addi	a0,a0,-914 # 15566 <end_signature+0x486>
   10900:	700030ef          	jal	ra,14000 <FN_WriteStr>
   10904:	00005517          	auipc	a0,0x5
   10908:	c6a50513          	addi	a0,a0,-918 # 1556e <end_signature+0x48e>
   1090c:	6f4030ef          	jal	ra,14000 <FN_WriteStr>
   10910:	00005517          	auipc	a0,0x5
   10914:	c6250513          	addi	a0,a0,-926 # 15572 <end_signature+0x492>
   10918:	6e8030ef          	jal	ra,14000 <FN_WriteStr>
   1091c:	00005517          	auipc	a0,0x5
   10920:	c5950513          	addi	a0,a0,-935 # 15575 <end_signature+0x495>
   10924:	6dc030ef          	jal	ra,14000 <FN_WriteStr>
   10928:	00005517          	auipc	a0,0x5
   1092c:	c5150513          	addi	a0,a0,-943 # 15579 <end_signature+0x499>
   10930:	6d0030ef          	jal	ra,14000 <FN_WriteStr>
   10934:	00068513          	mv	a0,a3
   10938:	6e4030ef          	jal	ra,1401c <FN_WriteA0>
   1093c:	00005517          	auipc	a0,0x5
   10940:	c3f50513          	addi	a0,a0,-961 # 1557b <end_signature+0x49b>
   10944:	6bc030ef          	jal	ra,14000 <FN_WriteStr>
   10948:	00005517          	auipc	a0,0x5
   1094c:	c3950513          	addi	a0,a0,-967 # 15581 <end_signature+0x4a1>
   10950:	6b0030ef          	jal	ra,14000 <FN_WriteStr>
   10954:	00005517          	auipc	a0,0x5
   10958:	c3850513          	addi	a0,a0,-968 # 1558c <end_signature+0x4ac>
   1095c:	6a4030ef          	jal	ra,14000 <FN_WriteStr>
   10960:	06400193          	li	gp,100
   10964:	0000100f          	fence.i
   10968:	00018063          	beqz	gp,10968 <reset_vector+0x91c>
   1096c:	00119193          	slli	gp,gp,0x1
   10970:	0011e193          	ori	gp,gp,1
   10974:	00000073          	ecall
   10978:	00005517          	auipc	a0,0x5
   1097c:	c1650513          	addi	a0,a0,-1002 # 1558e <end_signature+0x4ae>
   10980:	680030ef          	jal	ra,14000 <FN_WriteStr>
   10984:	00005517          	auipc	a0,0x5
   10988:	c2650513          	addi	a0,a0,-986 # 155aa <end_signature+0x4ca>
   1098c:	674030ef          	jal	ra,14000 <FN_WriteStr>
   10990:	00004097          	auipc	ra,0x4
   10994:	67808093          	addi	ra,ra,1656 # 15008 <test_A3_data>
   10998:	00004117          	auipc	sp,0x4
   1099c:	6c810113          	addi	sp,sp,1736 # 15060 <test_A3_res>
   109a0:	0000a683          	lw	a3,0(ra)
   109a4:	00000713          	li	a4,0
   109a8:	00100793          	li	a5,1
   109ac:	fff00813          	li	a6,-1
   109b0:	800008b7          	lui	a7,0x80000
   109b4:	fff88893          	addi	a7,a7,-1 # 7fffffff <_end+0x7ffe9dfb>
   109b8:	80000937          	lui	s2,0x80000
   109bc:	00e6e733          	or	a4,a3,a4
   109c0:	00f6e7b3          	or	a5,a3,a5
   109c4:	0106e833          	or	a6,a3,a6
   109c8:	0116e8b3          	or	a7,a3,a7
   109cc:	0126e933          	or	s2,a3,s2
   109d0:	00d12023          	sw	a3,0(sp)
   109d4:	00e12223          	sw	a4,4(sp)
   109d8:	00f12423          	sw	a5,8(sp)
   109dc:	01012623          	sw	a6,12(sp)
   109e0:	01112823          	sw	a7,16(sp)
   109e4:	01212a23          	sw	s2,20(sp)
   109e8:	fff00293          	li	t0,-1
   109ec:	08568e63          	beq	a3,t0,10a88 <reset_vector+0xa3c>
   109f0:	00005517          	auipc	a0,0x5
   109f4:	c0d50513          	addi	a0,a0,-1011 # 155fd <end_signature+0x51d>
   109f8:	608030ef          	jal	ra,14000 <FN_WriteStr>
   109fc:	00005517          	auipc	a0,0x5
   10a00:	c1c50513          	addi	a0,a0,-996 # 15618 <end_signature+0x538>
   10a04:	5fc030ef          	jal	ra,14000 <FN_WriteStr>
   10a08:	00005517          	auipc	a0,0x5
   10a0c:	c1e50513          	addi	a0,a0,-994 # 15626 <end_signature+0x546>
   10a10:	5f0030ef          	jal	ra,14000 <FN_WriteStr>
   10a14:	00005517          	auipc	a0,0x5
   10a18:	c1a50513          	addi	a0,a0,-998 # 1562e <end_signature+0x54e>
   10a1c:	5e4030ef          	jal	ra,14000 <FN_WriteStr>
   10a20:	00005517          	auipc	a0,0x5
   10a24:	c1250513          	addi	a0,a0,-1006 # 15632 <end_signature+0x552>
   10a28:	5d8030ef          	jal	ra,14000 <FN_WriteStr>
   10a2c:	00005517          	auipc	a0,0x5
   10a30:	c0950513          	addi	a0,a0,-1015 # 15635 <end_signature+0x555>
   10a34:	5cc030ef          	jal	ra,14000 <FN_WriteStr>
   10a38:	00005517          	auipc	a0,0x5
   10a3c:	c0150513          	addi	a0,a0,-1023 # 15639 <end_signature+0x559>
   10a40:	5c0030ef          	jal	ra,14000 <FN_WriteStr>
   10a44:	00068513          	mv	a0,a3
   10a48:	5d4030ef          	jal	ra,1401c <FN_WriteA0>
   10a4c:	00005517          	auipc	a0,0x5
   10a50:	bef50513          	addi	a0,a0,-1041 # 1563b <end_signature+0x55b>
   10a54:	5ac030ef          	jal	ra,14000 <FN_WriteStr>
   10a58:	00005517          	auipc	a0,0x5
   10a5c:	be950513          	addi	a0,a0,-1047 # 15641 <end_signature+0x561>
   10a60:	5a0030ef          	jal	ra,14000 <FN_WriteStr>
   10a64:	00005517          	auipc	a0,0x5
   10a68:	be850513          	addi	a0,a0,-1048 # 1564c <end_signature+0x56c>
   10a6c:	594030ef          	jal	ra,14000 <FN_WriteStr>
   10a70:	06400193          	li	gp,100
   10a74:	0000100f          	fence.i
   10a78:	00018063          	beqz	gp,10a78 <reset_vector+0xa2c>
   10a7c:	00119193          	slli	gp,gp,0x1
   10a80:	0011e193          	ori	gp,gp,1
   10a84:	00000073          	ecall
   10a88:	fff00293          	li	t0,-1
   10a8c:	08570e63          	beq	a4,t0,10b28 <reset_vector+0xadc>
   10a90:	00005517          	auipc	a0,0x5
   10a94:	bbe50513          	addi	a0,a0,-1090 # 1564e <end_signature+0x56e>
   10a98:	568030ef          	jal	ra,14000 <FN_WriteStr>
   10a9c:	00005517          	auipc	a0,0x5
   10aa0:	bcd50513          	addi	a0,a0,-1075 # 15669 <end_signature+0x589>
   10aa4:	55c030ef          	jal	ra,14000 <FN_WriteStr>
   10aa8:	00005517          	auipc	a0,0x5
   10aac:	bcf50513          	addi	a0,a0,-1073 # 15677 <end_signature+0x597>
   10ab0:	550030ef          	jal	ra,14000 <FN_WriteStr>
   10ab4:	00005517          	auipc	a0,0x5
   10ab8:	bcb50513          	addi	a0,a0,-1077 # 1567f <end_signature+0x59f>
   10abc:	544030ef          	jal	ra,14000 <FN_WriteStr>
   10ac0:	00005517          	auipc	a0,0x5
   10ac4:	bc350513          	addi	a0,a0,-1085 # 15683 <end_signature+0x5a3>
   10ac8:	538030ef          	jal	ra,14000 <FN_WriteStr>
   10acc:	00005517          	auipc	a0,0x5
   10ad0:	bba50513          	addi	a0,a0,-1094 # 15686 <end_signature+0x5a6>
   10ad4:	52c030ef          	jal	ra,14000 <FN_WriteStr>
   10ad8:	00005517          	auipc	a0,0x5
   10adc:	bb250513          	addi	a0,a0,-1102 # 1568a <end_signature+0x5aa>
   10ae0:	520030ef          	jal	ra,14000 <FN_WriteStr>
   10ae4:	00070513          	mv	a0,a4
   10ae8:	534030ef          	jal	ra,1401c <FN_WriteA0>
   10aec:	00005517          	auipc	a0,0x5
   10af0:	ba050513          	addi	a0,a0,-1120 # 1568c <end_signature+0x5ac>
   10af4:	50c030ef          	jal	ra,14000 <FN_WriteStr>
   10af8:	00005517          	auipc	a0,0x5
   10afc:	b9a50513          	addi	a0,a0,-1126 # 15692 <end_signature+0x5b2>
   10b00:	500030ef          	jal	ra,14000 <FN_WriteStr>
   10b04:	00005517          	auipc	a0,0x5
   10b08:	b9950513          	addi	a0,a0,-1127 # 1569d <end_signature+0x5bd>
   10b0c:	4f4030ef          	jal	ra,14000 <FN_WriteStr>
   10b10:	06400193          	li	gp,100
   10b14:	0000100f          	fence.i
   10b18:	00018063          	beqz	gp,10b18 <reset_vector+0xacc>
   10b1c:	00119193          	slli	gp,gp,0x1
   10b20:	0011e193          	ori	gp,gp,1
   10b24:	00000073          	ecall
   10b28:	fff00293          	li	t0,-1
   10b2c:	08578e63          	beq	a5,t0,10bc8 <reset_vector+0xb7c>
   10b30:	00005517          	auipc	a0,0x5
   10b34:	b6f50513          	addi	a0,a0,-1169 # 1569f <end_signature+0x5bf>
   10b38:	4c8030ef          	jal	ra,14000 <FN_WriteStr>
   10b3c:	00005517          	auipc	a0,0x5
   10b40:	b7e50513          	addi	a0,a0,-1154 # 156ba <end_signature+0x5da>
   10b44:	4bc030ef          	jal	ra,14000 <FN_WriteStr>
   10b48:	00005517          	auipc	a0,0x5
   10b4c:	b8050513          	addi	a0,a0,-1152 # 156c8 <end_signature+0x5e8>
   10b50:	4b0030ef          	jal	ra,14000 <FN_WriteStr>
   10b54:	00005517          	auipc	a0,0x5
   10b58:	b7c50513          	addi	a0,a0,-1156 # 156d0 <end_signature+0x5f0>
   10b5c:	4a4030ef          	jal	ra,14000 <FN_WriteStr>
   10b60:	00005517          	auipc	a0,0x5
   10b64:	b7450513          	addi	a0,a0,-1164 # 156d4 <end_signature+0x5f4>
   10b68:	498030ef          	jal	ra,14000 <FN_WriteStr>
   10b6c:	00005517          	auipc	a0,0x5
   10b70:	b6b50513          	addi	a0,a0,-1173 # 156d7 <end_signature+0x5f7>
   10b74:	48c030ef          	jal	ra,14000 <FN_WriteStr>
   10b78:	00005517          	auipc	a0,0x5
   10b7c:	b6350513          	addi	a0,a0,-1181 # 156db <end_signature+0x5fb>
   10b80:	480030ef          	jal	ra,14000 <FN_WriteStr>
   10b84:	00078513          	mv	a0,a5
   10b88:	494030ef          	jal	ra,1401c <FN_WriteA0>
   10b8c:	00005517          	auipc	a0,0x5
   10b90:	b5150513          	addi	a0,a0,-1199 # 156dd <end_signature+0x5fd>
   10b94:	46c030ef          	jal	ra,14000 <FN_WriteStr>
   10b98:	00005517          	auipc	a0,0x5
   10b9c:	b4b50513          	addi	a0,a0,-1205 # 156e3 <end_signature+0x603>
   10ba0:	460030ef          	jal	ra,14000 <FN_WriteStr>
   10ba4:	00005517          	auipc	a0,0x5
   10ba8:	b4a50513          	addi	a0,a0,-1206 # 156ee <end_signature+0x60e>
   10bac:	454030ef          	jal	ra,14000 <FN_WriteStr>
   10bb0:	06400193          	li	gp,100
   10bb4:	0000100f          	fence.i
   10bb8:	00018063          	beqz	gp,10bb8 <reset_vector+0xb6c>
   10bbc:	00119193          	slli	gp,gp,0x1
   10bc0:	0011e193          	ori	gp,gp,1
   10bc4:	00000073          	ecall
   10bc8:	fff00293          	li	t0,-1
   10bcc:	08580e63          	beq	a6,t0,10c68 <reset_vector+0xc1c>
   10bd0:	00005517          	auipc	a0,0x5
   10bd4:	b2050513          	addi	a0,a0,-1248 # 156f0 <end_signature+0x610>
   10bd8:	428030ef          	jal	ra,14000 <FN_WriteStr>
   10bdc:	00005517          	auipc	a0,0x5
   10be0:	b2f50513          	addi	a0,a0,-1233 # 1570b <end_signature+0x62b>
   10be4:	41c030ef          	jal	ra,14000 <FN_WriteStr>
   10be8:	00005517          	auipc	a0,0x5
   10bec:	b3150513          	addi	a0,a0,-1231 # 15719 <end_signature+0x639>
   10bf0:	410030ef          	jal	ra,14000 <FN_WriteStr>
   10bf4:	00005517          	auipc	a0,0x5
   10bf8:	b2d50513          	addi	a0,a0,-1235 # 15721 <end_signature+0x641>
   10bfc:	404030ef          	jal	ra,14000 <FN_WriteStr>
   10c00:	00005517          	auipc	a0,0x5
   10c04:	b2550513          	addi	a0,a0,-1243 # 15725 <end_signature+0x645>
   10c08:	3f8030ef          	jal	ra,14000 <FN_WriteStr>
   10c0c:	00005517          	auipc	a0,0x5
   10c10:	b1c50513          	addi	a0,a0,-1252 # 15728 <end_signature+0x648>
   10c14:	3ec030ef          	jal	ra,14000 <FN_WriteStr>
   10c18:	00005517          	auipc	a0,0x5
   10c1c:	b1450513          	addi	a0,a0,-1260 # 1572c <end_signature+0x64c>
   10c20:	3e0030ef          	jal	ra,14000 <FN_WriteStr>
   10c24:	00080513          	mv	a0,a6
   10c28:	3f4030ef          	jal	ra,1401c <FN_WriteA0>
   10c2c:	00005517          	auipc	a0,0x5
   10c30:	b0250513          	addi	a0,a0,-1278 # 1572e <end_signature+0x64e>
   10c34:	3cc030ef          	jal	ra,14000 <FN_WriteStr>
   10c38:	00005517          	auipc	a0,0x5
   10c3c:	afc50513          	addi	a0,a0,-1284 # 15734 <end_signature+0x654>
   10c40:	3c0030ef          	jal	ra,14000 <FN_WriteStr>
   10c44:	00005517          	auipc	a0,0x5
   10c48:	afb50513          	addi	a0,a0,-1285 # 1573f <end_signature+0x65f>
   10c4c:	3b4030ef          	jal	ra,14000 <FN_WriteStr>
   10c50:	06400193          	li	gp,100
   10c54:	0000100f          	fence.i
   10c58:	00018063          	beqz	gp,10c58 <reset_vector+0xc0c>
   10c5c:	00119193          	slli	gp,gp,0x1
   10c60:	0011e193          	ori	gp,gp,1
   10c64:	00000073          	ecall
   10c68:	fff00293          	li	t0,-1
   10c6c:	08588e63          	beq	a7,t0,10d08 <reset_vector+0xcbc>
   10c70:	00005517          	auipc	a0,0x5
   10c74:	ad150513          	addi	a0,a0,-1327 # 15741 <end_signature+0x661>
   10c78:	388030ef          	jal	ra,14000 <FN_WriteStr>
   10c7c:	00005517          	auipc	a0,0x5
   10c80:	ae050513          	addi	a0,a0,-1312 # 1575c <end_signature+0x67c>
   10c84:	37c030ef          	jal	ra,14000 <FN_WriteStr>
   10c88:	00005517          	auipc	a0,0x5
   10c8c:	ae250513          	addi	a0,a0,-1310 # 1576a <end_signature+0x68a>
   10c90:	370030ef          	jal	ra,14000 <FN_WriteStr>
   10c94:	00005517          	auipc	a0,0x5
   10c98:	ade50513          	addi	a0,a0,-1314 # 15772 <end_signature+0x692>
   10c9c:	364030ef          	jal	ra,14000 <FN_WriteStr>
   10ca0:	00005517          	auipc	a0,0x5
   10ca4:	ad650513          	addi	a0,a0,-1322 # 15776 <end_signature+0x696>
   10ca8:	358030ef          	jal	ra,14000 <FN_WriteStr>
   10cac:	00005517          	auipc	a0,0x5
   10cb0:	acd50513          	addi	a0,a0,-1331 # 15779 <end_signature+0x699>
   10cb4:	34c030ef          	jal	ra,14000 <FN_WriteStr>
   10cb8:	00005517          	auipc	a0,0x5
   10cbc:	ac550513          	addi	a0,a0,-1339 # 1577d <end_signature+0x69d>
   10cc0:	340030ef          	jal	ra,14000 <FN_WriteStr>
   10cc4:	00088513          	mv	a0,a7
   10cc8:	354030ef          	jal	ra,1401c <FN_WriteA0>
   10ccc:	00005517          	auipc	a0,0x5
   10cd0:	ab350513          	addi	a0,a0,-1357 # 1577f <end_signature+0x69f>
   10cd4:	32c030ef          	jal	ra,14000 <FN_WriteStr>
   10cd8:	00005517          	auipc	a0,0x5
   10cdc:	aad50513          	addi	a0,a0,-1363 # 15785 <end_signature+0x6a5>
   10ce0:	320030ef          	jal	ra,14000 <FN_WriteStr>
   10ce4:	00005517          	auipc	a0,0x5
   10ce8:	aac50513          	addi	a0,a0,-1364 # 15790 <end_signature+0x6b0>
   10cec:	314030ef          	jal	ra,14000 <FN_WriteStr>
   10cf0:	06400193          	li	gp,100
   10cf4:	0000100f          	fence.i
   10cf8:	00018063          	beqz	gp,10cf8 <reset_vector+0xcac>
   10cfc:	00119193          	slli	gp,gp,0x1
   10d00:	0011e193          	ori	gp,gp,1
   10d04:	00000073          	ecall
   10d08:	fff00293          	li	t0,-1
   10d0c:	08590e63          	beq	s2,t0,10da8 <reset_vector+0xd5c>
   10d10:	00005517          	auipc	a0,0x5
   10d14:	a8250513          	addi	a0,a0,-1406 # 15792 <end_signature+0x6b2>
   10d18:	2e8030ef          	jal	ra,14000 <FN_WriteStr>
   10d1c:	00005517          	auipc	a0,0x5
   10d20:	a9150513          	addi	a0,a0,-1391 # 157ad <end_signature+0x6cd>
   10d24:	2dc030ef          	jal	ra,14000 <FN_WriteStr>
   10d28:	00005517          	auipc	a0,0x5
   10d2c:	a9350513          	addi	a0,a0,-1389 # 157bb <end_signature+0x6db>
   10d30:	2d0030ef          	jal	ra,14000 <FN_WriteStr>
   10d34:	00005517          	auipc	a0,0x5
   10d38:	a8f50513          	addi	a0,a0,-1393 # 157c3 <end_signature+0x6e3>
   10d3c:	2c4030ef          	jal	ra,14000 <FN_WriteStr>
   10d40:	00005517          	auipc	a0,0x5
   10d44:	a8750513          	addi	a0,a0,-1401 # 157c7 <end_signature+0x6e7>
   10d48:	2b8030ef          	jal	ra,14000 <FN_WriteStr>
   10d4c:	00005517          	auipc	a0,0x5
   10d50:	a7e50513          	addi	a0,a0,-1410 # 157ca <end_signature+0x6ea>
   10d54:	2ac030ef          	jal	ra,14000 <FN_WriteStr>
   10d58:	00005517          	auipc	a0,0x5
   10d5c:	a7650513          	addi	a0,a0,-1418 # 157ce <end_signature+0x6ee>
   10d60:	2a0030ef          	jal	ra,14000 <FN_WriteStr>
   10d64:	00090513          	mv	a0,s2
   10d68:	2b4030ef          	jal	ra,1401c <FN_WriteA0>
   10d6c:	00005517          	auipc	a0,0x5
   10d70:	a6450513          	addi	a0,a0,-1436 # 157d0 <end_signature+0x6f0>
   10d74:	28c030ef          	jal	ra,14000 <FN_WriteStr>
   10d78:	00005517          	auipc	a0,0x5
   10d7c:	a5e50513          	addi	a0,a0,-1442 # 157d6 <end_signature+0x6f6>
   10d80:	280030ef          	jal	ra,14000 <FN_WriteStr>
   10d84:	00005517          	auipc	a0,0x5
   10d88:	a5d50513          	addi	a0,a0,-1443 # 157e1 <end_signature+0x701>
   10d8c:	274030ef          	jal	ra,14000 <FN_WriteStr>
   10d90:	06400193          	li	gp,100
   10d94:	0000100f          	fence.i
   10d98:	00018063          	beqz	gp,10d98 <reset_vector+0xd4c>
   10d9c:	00119193          	slli	gp,gp,0x1
   10da0:	0011e193          	ori	gp,gp,1
   10da4:	00000073          	ecall
   10da8:	00005517          	auipc	a0,0x5
   10dac:	a3b50513          	addi	a0,a0,-1477 # 157e3 <end_signature+0x703>
   10db0:	250030ef          	jal	ra,14000 <FN_WriteStr>
   10db4:	00005517          	auipc	a0,0x5
   10db8:	a4b50513          	addi	a0,a0,-1461 # 157ff <end_signature+0x71f>
   10dbc:	244030ef          	jal	ra,14000 <FN_WriteStr>
   10dc0:	00004097          	auipc	ra,0x4
   10dc4:	24c08093          	addi	ra,ra,588 # 1500c <test_A4_data>
   10dc8:	00004117          	auipc	sp,0x4
   10dcc:	2b010113          	addi	sp,sp,688 # 15078 <test_A4_res>
   10dd0:	0000a903          	lw	s2,0(ra)
   10dd4:	00000993          	li	s3,0
   10dd8:	00100a13          	li	s4,1
   10ddc:	fff00a93          	li	s5,-1
   10de0:	80000b37          	lui	s6,0x80000
   10de4:	fffb0b13          	addi	s6,s6,-1 # 7fffffff <_end+0x7ffe9dfb>
   10de8:	80000bb7          	lui	s7,0x80000
   10dec:	013969b3          	or	s3,s2,s3
   10df0:	01496a33          	or	s4,s2,s4
   10df4:	01596ab3          	or	s5,s2,s5
   10df8:	01696b33          	or	s6,s2,s6
   10dfc:	01796bb3          	or	s7,s2,s7
   10e00:	01212023          	sw	s2,0(sp)
   10e04:	01312223          	sw	s3,4(sp)
   10e08:	01412423          	sw	s4,8(sp)
   10e0c:	01512623          	sw	s5,12(sp)
   10e10:	01612823          	sw	s6,16(sp)
   10e14:	01712a23          	sw	s7,20(sp)
   10e18:	800002b7          	lui	t0,0x80000
   10e1c:	fff28293          	addi	t0,t0,-1 # 7fffffff <_end+0x7ffe9dfb>
   10e20:	08590e63          	beq	s2,t0,10ebc <reset_vector+0xe70>
   10e24:	00005517          	auipc	a0,0x5
   10e28:	a3650513          	addi	a0,a0,-1482 # 1585a <end_signature+0x77a>
   10e2c:	1d4030ef          	jal	ra,14000 <FN_WriteStr>
   10e30:	00005517          	auipc	a0,0x5
   10e34:	a4550513          	addi	a0,a0,-1467 # 15875 <end_signature+0x795>
   10e38:	1c8030ef          	jal	ra,14000 <FN_WriteStr>
   10e3c:	00005517          	auipc	a0,0x5
   10e40:	a4750513          	addi	a0,a0,-1465 # 15883 <end_signature+0x7a3>
   10e44:	1bc030ef          	jal	ra,14000 <FN_WriteStr>
   10e48:	00005517          	auipc	a0,0x5
   10e4c:	a4350513          	addi	a0,a0,-1469 # 1588b <end_signature+0x7ab>
   10e50:	1b0030ef          	jal	ra,14000 <FN_WriteStr>
   10e54:	00005517          	auipc	a0,0x5
   10e58:	a3b50513          	addi	a0,a0,-1477 # 1588f <end_signature+0x7af>
   10e5c:	1a4030ef          	jal	ra,14000 <FN_WriteStr>
   10e60:	00005517          	auipc	a0,0x5
   10e64:	a3250513          	addi	a0,a0,-1486 # 15892 <end_signature+0x7b2>
   10e68:	198030ef          	jal	ra,14000 <FN_WriteStr>
   10e6c:	00005517          	auipc	a0,0x5
   10e70:	a2a50513          	addi	a0,a0,-1494 # 15896 <end_signature+0x7b6>
   10e74:	18c030ef          	jal	ra,14000 <FN_WriteStr>
   10e78:	00090513          	mv	a0,s2
   10e7c:	1a0030ef          	jal	ra,1401c <FN_WriteA0>
   10e80:	00005517          	auipc	a0,0x5
   10e84:	a1850513          	addi	a0,a0,-1512 # 15898 <end_signature+0x7b8>
   10e88:	178030ef          	jal	ra,14000 <FN_WriteStr>
   10e8c:	00005517          	auipc	a0,0x5
   10e90:	a1250513          	addi	a0,a0,-1518 # 1589e <end_signature+0x7be>
   10e94:	16c030ef          	jal	ra,14000 <FN_WriteStr>
   10e98:	00005517          	auipc	a0,0x5
   10e9c:	a1150513          	addi	a0,a0,-1519 # 158a9 <end_signature+0x7c9>
   10ea0:	160030ef          	jal	ra,14000 <FN_WriteStr>
   10ea4:	06400193          	li	gp,100
   10ea8:	0000100f          	fence.i
   10eac:	00018063          	beqz	gp,10eac <reset_vector+0xe60>
   10eb0:	00119193          	slli	gp,gp,0x1
   10eb4:	0011e193          	ori	gp,gp,1
   10eb8:	00000073          	ecall
   10ebc:	800002b7          	lui	t0,0x80000
   10ec0:	fff28293          	addi	t0,t0,-1 # 7fffffff <_end+0x7ffe9dfb>
   10ec4:	08598e63          	beq	s3,t0,10f60 <reset_vector+0xf14>
   10ec8:	00005517          	auipc	a0,0x5
   10ecc:	9e350513          	addi	a0,a0,-1565 # 158ab <end_signature+0x7cb>
   10ed0:	130030ef          	jal	ra,14000 <FN_WriteStr>
   10ed4:	00005517          	auipc	a0,0x5
   10ed8:	9f250513          	addi	a0,a0,-1550 # 158c6 <end_signature+0x7e6>
   10edc:	124030ef          	jal	ra,14000 <FN_WriteStr>
   10ee0:	00005517          	auipc	a0,0x5
   10ee4:	9f450513          	addi	a0,a0,-1548 # 158d4 <end_signature+0x7f4>
   10ee8:	118030ef          	jal	ra,14000 <FN_WriteStr>
   10eec:	00005517          	auipc	a0,0x5
   10ef0:	9f050513          	addi	a0,a0,-1552 # 158dc <end_signature+0x7fc>
   10ef4:	10c030ef          	jal	ra,14000 <FN_WriteStr>
   10ef8:	00005517          	auipc	a0,0x5
   10efc:	9e850513          	addi	a0,a0,-1560 # 158e0 <end_signature+0x800>
   10f00:	100030ef          	jal	ra,14000 <FN_WriteStr>
   10f04:	00005517          	auipc	a0,0x5
   10f08:	9df50513          	addi	a0,a0,-1569 # 158e3 <end_signature+0x803>
   10f0c:	0f4030ef          	jal	ra,14000 <FN_WriteStr>
   10f10:	00005517          	auipc	a0,0x5
   10f14:	9d750513          	addi	a0,a0,-1577 # 158e7 <end_signature+0x807>
   10f18:	0e8030ef          	jal	ra,14000 <FN_WriteStr>
   10f1c:	00098513          	mv	a0,s3
   10f20:	0fc030ef          	jal	ra,1401c <FN_WriteA0>
   10f24:	00005517          	auipc	a0,0x5
   10f28:	9c550513          	addi	a0,a0,-1595 # 158e9 <end_signature+0x809>
   10f2c:	0d4030ef          	jal	ra,14000 <FN_WriteStr>
   10f30:	00005517          	auipc	a0,0x5
   10f34:	9bf50513          	addi	a0,a0,-1601 # 158ef <end_signature+0x80f>
   10f38:	0c8030ef          	jal	ra,14000 <FN_WriteStr>
   10f3c:	00005517          	auipc	a0,0x5
   10f40:	9be50513          	addi	a0,a0,-1602 # 158fa <end_signature+0x81a>
   10f44:	0bc030ef          	jal	ra,14000 <FN_WriteStr>
   10f48:	06400193          	li	gp,100
   10f4c:	0000100f          	fence.i
   10f50:	00018063          	beqz	gp,10f50 <reset_vector+0xf04>
   10f54:	00119193          	slli	gp,gp,0x1
   10f58:	0011e193          	ori	gp,gp,1
   10f5c:	00000073          	ecall
   10f60:	800002b7          	lui	t0,0x80000
   10f64:	fff28293          	addi	t0,t0,-1 # 7fffffff <_end+0x7ffe9dfb>
   10f68:	085a0e63          	beq	s4,t0,11004 <reset_vector+0xfb8>
   10f6c:	00005517          	auipc	a0,0x5
   10f70:	99050513          	addi	a0,a0,-1648 # 158fc <end_signature+0x81c>
   10f74:	08c030ef          	jal	ra,14000 <FN_WriteStr>
   10f78:	00005517          	auipc	a0,0x5
   10f7c:	99f50513          	addi	a0,a0,-1633 # 15917 <end_signature+0x837>
   10f80:	080030ef          	jal	ra,14000 <FN_WriteStr>
   10f84:	00005517          	auipc	a0,0x5
   10f88:	9a150513          	addi	a0,a0,-1631 # 15925 <end_signature+0x845>
   10f8c:	074030ef          	jal	ra,14000 <FN_WriteStr>
   10f90:	00005517          	auipc	a0,0x5
   10f94:	99d50513          	addi	a0,a0,-1635 # 1592d <end_signature+0x84d>
   10f98:	068030ef          	jal	ra,14000 <FN_WriteStr>
   10f9c:	00005517          	auipc	a0,0x5
   10fa0:	99550513          	addi	a0,a0,-1643 # 15931 <end_signature+0x851>
   10fa4:	05c030ef          	jal	ra,14000 <FN_WriteStr>
   10fa8:	00005517          	auipc	a0,0x5
   10fac:	98c50513          	addi	a0,a0,-1652 # 15934 <end_signature+0x854>
   10fb0:	050030ef          	jal	ra,14000 <FN_WriteStr>
   10fb4:	00005517          	auipc	a0,0x5
   10fb8:	98450513          	addi	a0,a0,-1660 # 15938 <end_signature+0x858>
   10fbc:	044030ef          	jal	ra,14000 <FN_WriteStr>
   10fc0:	000a0513          	mv	a0,s4
   10fc4:	058030ef          	jal	ra,1401c <FN_WriteA0>
   10fc8:	00005517          	auipc	a0,0x5
   10fcc:	97250513          	addi	a0,a0,-1678 # 1593a <end_signature+0x85a>
   10fd0:	030030ef          	jal	ra,14000 <FN_WriteStr>
   10fd4:	00005517          	auipc	a0,0x5
   10fd8:	96c50513          	addi	a0,a0,-1684 # 15940 <end_signature+0x860>
   10fdc:	024030ef          	jal	ra,14000 <FN_WriteStr>
   10fe0:	00005517          	auipc	a0,0x5
   10fe4:	96b50513          	addi	a0,a0,-1685 # 1594b <end_signature+0x86b>
   10fe8:	018030ef          	jal	ra,14000 <FN_WriteStr>
   10fec:	06400193          	li	gp,100
   10ff0:	0000100f          	fence.i
   10ff4:	00018063          	beqz	gp,10ff4 <reset_vector+0xfa8>
   10ff8:	00119193          	slli	gp,gp,0x1
   10ffc:	0011e193          	ori	gp,gp,1
   11000:	00000073          	ecall
   11004:	fff00293          	li	t0,-1
   11008:	085a8e63          	beq	s5,t0,110a4 <reset_vector+0x1058>
   1100c:	00005517          	auipc	a0,0x5
   11010:	94150513          	addi	a0,a0,-1727 # 1594d <end_signature+0x86d>
   11014:	7ed020ef          	jal	ra,14000 <FN_WriteStr>
   11018:	00005517          	auipc	a0,0x5
   1101c:	95050513          	addi	a0,a0,-1712 # 15968 <end_signature+0x888>
   11020:	7e1020ef          	jal	ra,14000 <FN_WriteStr>
   11024:	00005517          	auipc	a0,0x5
   11028:	95250513          	addi	a0,a0,-1710 # 15976 <end_signature+0x896>
   1102c:	7d5020ef          	jal	ra,14000 <FN_WriteStr>
   11030:	00005517          	auipc	a0,0x5
   11034:	94e50513          	addi	a0,a0,-1714 # 1597e <end_signature+0x89e>
   11038:	7c9020ef          	jal	ra,14000 <FN_WriteStr>
   1103c:	00005517          	auipc	a0,0x5
   11040:	94650513          	addi	a0,a0,-1722 # 15982 <end_signature+0x8a2>
   11044:	7bd020ef          	jal	ra,14000 <FN_WriteStr>
   11048:	00005517          	auipc	a0,0x5
   1104c:	93d50513          	addi	a0,a0,-1731 # 15985 <end_signature+0x8a5>
   11050:	7b1020ef          	jal	ra,14000 <FN_WriteStr>
   11054:	00005517          	auipc	a0,0x5
   11058:	93550513          	addi	a0,a0,-1739 # 15989 <end_signature+0x8a9>
   1105c:	7a5020ef          	jal	ra,14000 <FN_WriteStr>
   11060:	000a8513          	mv	a0,s5
   11064:	7b9020ef          	jal	ra,1401c <FN_WriteA0>
   11068:	00005517          	auipc	a0,0x5
   1106c:	92350513          	addi	a0,a0,-1757 # 1598b <end_signature+0x8ab>
   11070:	791020ef          	jal	ra,14000 <FN_WriteStr>
   11074:	00005517          	auipc	a0,0x5
   11078:	91d50513          	addi	a0,a0,-1763 # 15991 <end_signature+0x8b1>
   1107c:	785020ef          	jal	ra,14000 <FN_WriteStr>
   11080:	00005517          	auipc	a0,0x5
   11084:	91c50513          	addi	a0,a0,-1764 # 1599c <end_signature+0x8bc>
   11088:	779020ef          	jal	ra,14000 <FN_WriteStr>
   1108c:	06400193          	li	gp,100
   11090:	0000100f          	fence.i
   11094:	00018063          	beqz	gp,11094 <reset_vector+0x1048>
   11098:	00119193          	slli	gp,gp,0x1
   1109c:	0011e193          	ori	gp,gp,1
   110a0:	00000073          	ecall
   110a4:	800002b7          	lui	t0,0x80000
   110a8:	fff28293          	addi	t0,t0,-1 # 7fffffff <_end+0x7ffe9dfb>
   110ac:	085b0e63          	beq	s6,t0,11148 <reset_vector+0x10fc>
   110b0:	00005517          	auipc	a0,0x5
   110b4:	8ee50513          	addi	a0,a0,-1810 # 1599e <end_signature+0x8be>
   110b8:	749020ef          	jal	ra,14000 <FN_WriteStr>
   110bc:	00005517          	auipc	a0,0x5
   110c0:	8fd50513          	addi	a0,a0,-1795 # 159b9 <end_signature+0x8d9>
   110c4:	73d020ef          	jal	ra,14000 <FN_WriteStr>
   110c8:	00005517          	auipc	a0,0x5
   110cc:	8ff50513          	addi	a0,a0,-1793 # 159c7 <end_signature+0x8e7>
   110d0:	731020ef          	jal	ra,14000 <FN_WriteStr>
   110d4:	00005517          	auipc	a0,0x5
   110d8:	8fb50513          	addi	a0,a0,-1797 # 159cf <end_signature+0x8ef>
   110dc:	725020ef          	jal	ra,14000 <FN_WriteStr>
   110e0:	00005517          	auipc	a0,0x5
   110e4:	8f350513          	addi	a0,a0,-1805 # 159d3 <end_signature+0x8f3>
   110e8:	719020ef          	jal	ra,14000 <FN_WriteStr>
   110ec:	00005517          	auipc	a0,0x5
   110f0:	8ea50513          	addi	a0,a0,-1814 # 159d6 <end_signature+0x8f6>
   110f4:	70d020ef          	jal	ra,14000 <FN_WriteStr>
   110f8:	00005517          	auipc	a0,0x5
   110fc:	8e250513          	addi	a0,a0,-1822 # 159da <end_signature+0x8fa>
   11100:	701020ef          	jal	ra,14000 <FN_WriteStr>
   11104:	000b0513          	mv	a0,s6
   11108:	715020ef          	jal	ra,1401c <FN_WriteA0>
   1110c:	00005517          	auipc	a0,0x5
   11110:	8d050513          	addi	a0,a0,-1840 # 159dc <end_signature+0x8fc>
   11114:	6ed020ef          	jal	ra,14000 <FN_WriteStr>
   11118:	00005517          	auipc	a0,0x5
   1111c:	8ca50513          	addi	a0,a0,-1846 # 159e2 <end_signature+0x902>
   11120:	6e1020ef          	jal	ra,14000 <FN_WriteStr>
   11124:	00005517          	auipc	a0,0x5
   11128:	8c950513          	addi	a0,a0,-1847 # 159ed <end_signature+0x90d>
   1112c:	6d5020ef          	jal	ra,14000 <FN_WriteStr>
   11130:	06400193          	li	gp,100
   11134:	0000100f          	fence.i
   11138:	00018063          	beqz	gp,11138 <reset_vector+0x10ec>
   1113c:	00119193          	slli	gp,gp,0x1
   11140:	0011e193          	ori	gp,gp,1
   11144:	00000073          	ecall
   11148:	fff00293          	li	t0,-1
   1114c:	085b8e63          	beq	s7,t0,111e8 <reset_vector+0x119c>
   11150:	00005517          	auipc	a0,0x5
   11154:	89f50513          	addi	a0,a0,-1889 # 159ef <end_signature+0x90f>
   11158:	6a9020ef          	jal	ra,14000 <FN_WriteStr>
   1115c:	00005517          	auipc	a0,0x5
   11160:	8ae50513          	addi	a0,a0,-1874 # 15a0a <end_signature+0x92a>
   11164:	69d020ef          	jal	ra,14000 <FN_WriteStr>
   11168:	00005517          	auipc	a0,0x5
   1116c:	8b050513          	addi	a0,a0,-1872 # 15a18 <end_signature+0x938>
   11170:	691020ef          	jal	ra,14000 <FN_WriteStr>
   11174:	00005517          	auipc	a0,0x5
   11178:	8ac50513          	addi	a0,a0,-1876 # 15a20 <end_signature+0x940>
   1117c:	685020ef          	jal	ra,14000 <FN_WriteStr>
   11180:	00005517          	auipc	a0,0x5
   11184:	8a450513          	addi	a0,a0,-1884 # 15a24 <end_signature+0x944>
   11188:	679020ef          	jal	ra,14000 <FN_WriteStr>
   1118c:	00005517          	auipc	a0,0x5
   11190:	89b50513          	addi	a0,a0,-1893 # 15a27 <end_signature+0x947>
   11194:	66d020ef          	jal	ra,14000 <FN_WriteStr>
   11198:	00005517          	auipc	a0,0x5
   1119c:	89350513          	addi	a0,a0,-1901 # 15a2b <end_signature+0x94b>
   111a0:	661020ef          	jal	ra,14000 <FN_WriteStr>
   111a4:	000b8513          	mv	a0,s7
   111a8:	675020ef          	jal	ra,1401c <FN_WriteA0>
   111ac:	00005517          	auipc	a0,0x5
   111b0:	88150513          	addi	a0,a0,-1919 # 15a2d <end_signature+0x94d>
   111b4:	64d020ef          	jal	ra,14000 <FN_WriteStr>
   111b8:	00005517          	auipc	a0,0x5
   111bc:	87b50513          	addi	a0,a0,-1925 # 15a33 <end_signature+0x953>
   111c0:	641020ef          	jal	ra,14000 <FN_WriteStr>
   111c4:	00005517          	auipc	a0,0x5
   111c8:	87a50513          	addi	a0,a0,-1926 # 15a3e <end_signature+0x95e>
   111cc:	635020ef          	jal	ra,14000 <FN_WriteStr>
   111d0:	06400193          	li	gp,100
   111d4:	0000100f          	fence.i
   111d8:	00018063          	beqz	gp,111d8 <reset_vector+0x118c>
   111dc:	00119193          	slli	gp,gp,0x1
   111e0:	0011e193          	ori	gp,gp,1
   111e4:	00000073          	ecall
   111e8:	00005517          	auipc	a0,0x5
   111ec:	85850513          	addi	a0,a0,-1960 # 15a40 <end_signature+0x960>
   111f0:	611020ef          	jal	ra,14000 <FN_WriteStr>
   111f4:	00005517          	auipc	a0,0x5
   111f8:	86850513          	addi	a0,a0,-1944 # 15a5c <end_signature+0x97c>
   111fc:	605020ef          	jal	ra,14000 <FN_WriteStr>
   11200:	00004097          	auipc	ra,0x4
   11204:	e1008093          	addi	ra,ra,-496 # 15010 <test_A5_data>
   11208:	00004117          	auipc	sp,0x4
   1120c:	e8810113          	addi	sp,sp,-376 # 15090 <test_A5_res>
   11210:	0000ab83          	lw	s7,0(ra)
   11214:	00000c13          	li	s8,0
   11218:	00100c93          	li	s9,1
   1121c:	fff00d13          	li	s10,-1
   11220:	80000db7          	lui	s11,0x80000
   11224:	fffd8d93          	addi	s11,s11,-1 # 7fffffff <_end+0x7ffe9dfb>
   11228:	80000e37          	lui	t3,0x80000
   1122c:	018bec33          	or	s8,s7,s8
   11230:	019becb3          	or	s9,s7,s9
   11234:	01abed33          	or	s10,s7,s10
   11238:	01bbedb3          	or	s11,s7,s11
   1123c:	01cbee33          	or	t3,s7,t3
   11240:	01712023          	sw	s7,0(sp)
   11244:	01812223          	sw	s8,4(sp)
   11248:	01912423          	sw	s9,8(sp)
   1124c:	01a12623          	sw	s10,12(sp)
   11250:	01b12823          	sw	s11,16(sp)
   11254:	01c12a23          	sw	t3,20(sp)
   11258:	800002b7          	lui	t0,0x80000
   1125c:	085b8e63          	beq	s7,t0,112f8 <reset_vector+0x12ac>
   11260:	00005517          	auipc	a0,0x5
   11264:	85750513          	addi	a0,a0,-1961 # 15ab7 <end_signature+0x9d7>
   11268:	599020ef          	jal	ra,14000 <FN_WriteStr>
   1126c:	00005517          	auipc	a0,0x5
   11270:	86650513          	addi	a0,a0,-1946 # 15ad2 <end_signature+0x9f2>
   11274:	58d020ef          	jal	ra,14000 <FN_WriteStr>
   11278:	00005517          	auipc	a0,0x5
   1127c:	86850513          	addi	a0,a0,-1944 # 15ae0 <end_signature+0xa00>
   11280:	581020ef          	jal	ra,14000 <FN_WriteStr>
   11284:	00005517          	auipc	a0,0x5
   11288:	86450513          	addi	a0,a0,-1948 # 15ae8 <end_signature+0xa08>
   1128c:	575020ef          	jal	ra,14000 <FN_WriteStr>
   11290:	00005517          	auipc	a0,0x5
   11294:	85c50513          	addi	a0,a0,-1956 # 15aec <end_signature+0xa0c>
   11298:	569020ef          	jal	ra,14000 <FN_WriteStr>
   1129c:	00005517          	auipc	a0,0x5
   112a0:	85350513          	addi	a0,a0,-1965 # 15aef <end_signature+0xa0f>
   112a4:	55d020ef          	jal	ra,14000 <FN_WriteStr>
   112a8:	00005517          	auipc	a0,0x5
   112ac:	84b50513          	addi	a0,a0,-1973 # 15af3 <end_signature+0xa13>
   112b0:	551020ef          	jal	ra,14000 <FN_WriteStr>
   112b4:	000b8513          	mv	a0,s7
   112b8:	565020ef          	jal	ra,1401c <FN_WriteA0>
   112bc:	00005517          	auipc	a0,0x5
   112c0:	83950513          	addi	a0,a0,-1991 # 15af5 <end_signature+0xa15>
   112c4:	53d020ef          	jal	ra,14000 <FN_WriteStr>
   112c8:	00005517          	auipc	a0,0x5
   112cc:	83350513          	addi	a0,a0,-1997 # 15afb <end_signature+0xa1b>
   112d0:	531020ef          	jal	ra,14000 <FN_WriteStr>
   112d4:	00005517          	auipc	a0,0x5
   112d8:	83250513          	addi	a0,a0,-1998 # 15b06 <end_signature+0xa26>
   112dc:	525020ef          	jal	ra,14000 <FN_WriteStr>
   112e0:	06400193          	li	gp,100
   112e4:	0000100f          	fence.i
   112e8:	00018063          	beqz	gp,112e8 <reset_vector+0x129c>
   112ec:	00119193          	slli	gp,gp,0x1
   112f0:	0011e193          	ori	gp,gp,1
   112f4:	00000073          	ecall
   112f8:	800002b7          	lui	t0,0x80000
   112fc:	085c0e63          	beq	s8,t0,11398 <reset_vector+0x134c>
   11300:	00005517          	auipc	a0,0x5
   11304:	80850513          	addi	a0,a0,-2040 # 15b08 <end_signature+0xa28>
   11308:	4f9020ef          	jal	ra,14000 <FN_WriteStr>
   1130c:	00005517          	auipc	a0,0x5
   11310:	81750513          	addi	a0,a0,-2025 # 15b23 <end_signature+0xa43>
   11314:	4ed020ef          	jal	ra,14000 <FN_WriteStr>
   11318:	00005517          	auipc	a0,0x5
   1131c:	81950513          	addi	a0,a0,-2023 # 15b31 <end_signature+0xa51>
   11320:	4e1020ef          	jal	ra,14000 <FN_WriteStr>
   11324:	00005517          	auipc	a0,0x5
   11328:	81550513          	addi	a0,a0,-2027 # 15b39 <end_signature+0xa59>
   1132c:	4d5020ef          	jal	ra,14000 <FN_WriteStr>
   11330:	00005517          	auipc	a0,0x5
   11334:	80d50513          	addi	a0,a0,-2035 # 15b3d <end_signature+0xa5d>
   11338:	4c9020ef          	jal	ra,14000 <FN_WriteStr>
   1133c:	00005517          	auipc	a0,0x5
   11340:	80450513          	addi	a0,a0,-2044 # 15b40 <end_signature+0xa60>
   11344:	4bd020ef          	jal	ra,14000 <FN_WriteStr>
   11348:	00004517          	auipc	a0,0x4
   1134c:	7fc50513          	addi	a0,a0,2044 # 15b44 <end_signature+0xa64>
   11350:	4b1020ef          	jal	ra,14000 <FN_WriteStr>
   11354:	000c0513          	mv	a0,s8
   11358:	4c5020ef          	jal	ra,1401c <FN_WriteA0>
   1135c:	00004517          	auipc	a0,0x4
   11360:	7ea50513          	addi	a0,a0,2026 # 15b46 <end_signature+0xa66>
   11364:	49d020ef          	jal	ra,14000 <FN_WriteStr>
   11368:	00004517          	auipc	a0,0x4
   1136c:	7e450513          	addi	a0,a0,2020 # 15b4c <end_signature+0xa6c>
   11370:	491020ef          	jal	ra,14000 <FN_WriteStr>
   11374:	00004517          	auipc	a0,0x4
   11378:	7e350513          	addi	a0,a0,2019 # 15b57 <end_signature+0xa77>
   1137c:	485020ef          	jal	ra,14000 <FN_WriteStr>
   11380:	06400193          	li	gp,100
   11384:	0000100f          	fence.i
   11388:	00018063          	beqz	gp,11388 <reset_vector+0x133c>
   1138c:	00119193          	slli	gp,gp,0x1
   11390:	0011e193          	ori	gp,gp,1
   11394:	00000073          	ecall
   11398:	800002b7          	lui	t0,0x80000
   1139c:	00128293          	addi	t0,t0,1 # 80000001 <_end+0x7ffe9dfd>
   113a0:	085c8e63          	beq	s9,t0,1143c <reset_vector+0x13f0>
   113a4:	00004517          	auipc	a0,0x4
   113a8:	7b550513          	addi	a0,a0,1973 # 15b59 <end_signature+0xa79>
   113ac:	455020ef          	jal	ra,14000 <FN_WriteStr>
   113b0:	00004517          	auipc	a0,0x4
   113b4:	7c450513          	addi	a0,a0,1988 # 15b74 <end_signature+0xa94>
   113b8:	449020ef          	jal	ra,14000 <FN_WriteStr>
   113bc:	00004517          	auipc	a0,0x4
   113c0:	7c650513          	addi	a0,a0,1990 # 15b82 <end_signature+0xaa2>
   113c4:	43d020ef          	jal	ra,14000 <FN_WriteStr>
   113c8:	00004517          	auipc	a0,0x4
   113cc:	7c250513          	addi	a0,a0,1986 # 15b8a <end_signature+0xaaa>
   113d0:	431020ef          	jal	ra,14000 <FN_WriteStr>
   113d4:	00004517          	auipc	a0,0x4
   113d8:	7ba50513          	addi	a0,a0,1978 # 15b8e <end_signature+0xaae>
   113dc:	425020ef          	jal	ra,14000 <FN_WriteStr>
   113e0:	00004517          	auipc	a0,0x4
   113e4:	7b150513          	addi	a0,a0,1969 # 15b91 <end_signature+0xab1>
   113e8:	419020ef          	jal	ra,14000 <FN_WriteStr>
   113ec:	00004517          	auipc	a0,0x4
   113f0:	7a950513          	addi	a0,a0,1961 # 15b95 <end_signature+0xab5>
   113f4:	40d020ef          	jal	ra,14000 <FN_WriteStr>
   113f8:	000c8513          	mv	a0,s9
   113fc:	421020ef          	jal	ra,1401c <FN_WriteA0>
   11400:	00004517          	auipc	a0,0x4
   11404:	79750513          	addi	a0,a0,1943 # 15b97 <end_signature+0xab7>
   11408:	3f9020ef          	jal	ra,14000 <FN_WriteStr>
   1140c:	00004517          	auipc	a0,0x4
   11410:	79150513          	addi	a0,a0,1937 # 15b9d <end_signature+0xabd>
   11414:	3ed020ef          	jal	ra,14000 <FN_WriteStr>
   11418:	00004517          	auipc	a0,0x4
   1141c:	79050513          	addi	a0,a0,1936 # 15ba8 <end_signature+0xac8>
   11420:	3e1020ef          	jal	ra,14000 <FN_WriteStr>
   11424:	06400193          	li	gp,100
   11428:	0000100f          	fence.i
   1142c:	00018063          	beqz	gp,1142c <reset_vector+0x13e0>
   11430:	00119193          	slli	gp,gp,0x1
   11434:	0011e193          	ori	gp,gp,1
   11438:	00000073          	ecall
   1143c:	fff00293          	li	t0,-1
   11440:	085d0e63          	beq	s10,t0,114dc <reset_vector+0x1490>
   11444:	00004517          	auipc	a0,0x4
   11448:	76650513          	addi	a0,a0,1894 # 15baa <end_signature+0xaca>
   1144c:	3b5020ef          	jal	ra,14000 <FN_WriteStr>
   11450:	00004517          	auipc	a0,0x4
   11454:	77550513          	addi	a0,a0,1909 # 15bc5 <end_signature+0xae5>
   11458:	3a9020ef          	jal	ra,14000 <FN_WriteStr>
   1145c:	00004517          	auipc	a0,0x4
   11460:	77750513          	addi	a0,a0,1911 # 15bd3 <end_signature+0xaf3>
   11464:	39d020ef          	jal	ra,14000 <FN_WriteStr>
   11468:	00004517          	auipc	a0,0x4
   1146c:	77350513          	addi	a0,a0,1907 # 15bdb <end_signature+0xafb>
   11470:	391020ef          	jal	ra,14000 <FN_WriteStr>
   11474:	00004517          	auipc	a0,0x4
   11478:	76b50513          	addi	a0,a0,1899 # 15bdf <end_signature+0xaff>
   1147c:	385020ef          	jal	ra,14000 <FN_WriteStr>
   11480:	00004517          	auipc	a0,0x4
   11484:	76250513          	addi	a0,a0,1890 # 15be2 <end_signature+0xb02>
   11488:	379020ef          	jal	ra,14000 <FN_WriteStr>
   1148c:	00004517          	auipc	a0,0x4
   11490:	75a50513          	addi	a0,a0,1882 # 15be6 <end_signature+0xb06>
   11494:	36d020ef          	jal	ra,14000 <FN_WriteStr>
   11498:	000d0513          	mv	a0,s10
   1149c:	381020ef          	jal	ra,1401c <FN_WriteA0>
   114a0:	00004517          	auipc	a0,0x4
   114a4:	74850513          	addi	a0,a0,1864 # 15be8 <end_signature+0xb08>
   114a8:	359020ef          	jal	ra,14000 <FN_WriteStr>
   114ac:	00004517          	auipc	a0,0x4
   114b0:	74250513          	addi	a0,a0,1858 # 15bee <end_signature+0xb0e>
   114b4:	34d020ef          	jal	ra,14000 <FN_WriteStr>
   114b8:	00004517          	auipc	a0,0x4
   114bc:	74150513          	addi	a0,a0,1857 # 15bf9 <end_signature+0xb19>
   114c0:	341020ef          	jal	ra,14000 <FN_WriteStr>
   114c4:	06400193          	li	gp,100
   114c8:	0000100f          	fence.i
   114cc:	00018063          	beqz	gp,114cc <reset_vector+0x1480>
   114d0:	00119193          	slli	gp,gp,0x1
   114d4:	0011e193          	ori	gp,gp,1
   114d8:	00000073          	ecall
   114dc:	fff00293          	li	t0,-1
   114e0:	085d8e63          	beq	s11,t0,1157c <reset_vector+0x1530>
   114e4:	00004517          	auipc	a0,0x4
   114e8:	71750513          	addi	a0,a0,1815 # 15bfb <end_signature+0xb1b>
   114ec:	315020ef          	jal	ra,14000 <FN_WriteStr>
   114f0:	00004517          	auipc	a0,0x4
   114f4:	72650513          	addi	a0,a0,1830 # 15c16 <end_signature+0xb36>
   114f8:	309020ef          	jal	ra,14000 <FN_WriteStr>
   114fc:	00004517          	auipc	a0,0x4
   11500:	72850513          	addi	a0,a0,1832 # 15c24 <end_signature+0xb44>
   11504:	2fd020ef          	jal	ra,14000 <FN_WriteStr>
   11508:	00004517          	auipc	a0,0x4
   1150c:	72450513          	addi	a0,a0,1828 # 15c2c <end_signature+0xb4c>
   11510:	2f1020ef          	jal	ra,14000 <FN_WriteStr>
   11514:	00004517          	auipc	a0,0x4
   11518:	71c50513          	addi	a0,a0,1820 # 15c30 <end_signature+0xb50>
   1151c:	2e5020ef          	jal	ra,14000 <FN_WriteStr>
   11520:	00004517          	auipc	a0,0x4
   11524:	71350513          	addi	a0,a0,1811 # 15c33 <end_signature+0xb53>
   11528:	2d9020ef          	jal	ra,14000 <FN_WriteStr>
   1152c:	00004517          	auipc	a0,0x4
   11530:	70b50513          	addi	a0,a0,1803 # 15c37 <end_signature+0xb57>
   11534:	2cd020ef          	jal	ra,14000 <FN_WriteStr>
   11538:	000d8513          	mv	a0,s11
   1153c:	2e1020ef          	jal	ra,1401c <FN_WriteA0>
   11540:	00004517          	auipc	a0,0x4
   11544:	6f950513          	addi	a0,a0,1785 # 15c39 <end_signature+0xb59>
   11548:	2b9020ef          	jal	ra,14000 <FN_WriteStr>
   1154c:	00004517          	auipc	a0,0x4
   11550:	6f350513          	addi	a0,a0,1779 # 15c3f <end_signature+0xb5f>
   11554:	2ad020ef          	jal	ra,14000 <FN_WriteStr>
   11558:	00004517          	auipc	a0,0x4
   1155c:	6f250513          	addi	a0,a0,1778 # 15c4a <end_signature+0xb6a>
   11560:	2a1020ef          	jal	ra,14000 <FN_WriteStr>
   11564:	06400193          	li	gp,100
   11568:	0000100f          	fence.i
   1156c:	00018063          	beqz	gp,1156c <reset_vector+0x1520>
   11570:	00119193          	slli	gp,gp,0x1
   11574:	0011e193          	ori	gp,gp,1
   11578:	00000073          	ecall
   1157c:	800002b7          	lui	t0,0x80000
   11580:	085e0e63          	beq	t3,t0,1161c <reset_vector+0x15d0>
   11584:	00004517          	auipc	a0,0x4
   11588:	6c850513          	addi	a0,a0,1736 # 15c4c <end_signature+0xb6c>
   1158c:	275020ef          	jal	ra,14000 <FN_WriteStr>
   11590:	00004517          	auipc	a0,0x4
   11594:	6d750513          	addi	a0,a0,1751 # 15c67 <end_signature+0xb87>
   11598:	269020ef          	jal	ra,14000 <FN_WriteStr>
   1159c:	00004517          	auipc	a0,0x4
   115a0:	6d950513          	addi	a0,a0,1753 # 15c75 <end_signature+0xb95>
   115a4:	25d020ef          	jal	ra,14000 <FN_WriteStr>
   115a8:	00004517          	auipc	a0,0x4
   115ac:	6d550513          	addi	a0,a0,1749 # 15c7d <end_signature+0xb9d>
   115b0:	251020ef          	jal	ra,14000 <FN_WriteStr>
   115b4:	00004517          	auipc	a0,0x4
   115b8:	6cd50513          	addi	a0,a0,1741 # 15c81 <end_signature+0xba1>
   115bc:	245020ef          	jal	ra,14000 <FN_WriteStr>
   115c0:	00004517          	auipc	a0,0x4
   115c4:	6c450513          	addi	a0,a0,1732 # 15c84 <end_signature+0xba4>
   115c8:	239020ef          	jal	ra,14000 <FN_WriteStr>
   115cc:	00004517          	auipc	a0,0x4
   115d0:	6bc50513          	addi	a0,a0,1724 # 15c88 <end_signature+0xba8>
   115d4:	22d020ef          	jal	ra,14000 <FN_WriteStr>
   115d8:	000e0513          	mv	a0,t3
   115dc:	241020ef          	jal	ra,1401c <FN_WriteA0>
   115e0:	00004517          	auipc	a0,0x4
   115e4:	6aa50513          	addi	a0,a0,1706 # 15c8a <end_signature+0xbaa>
   115e8:	219020ef          	jal	ra,14000 <FN_WriteStr>
   115ec:	00004517          	auipc	a0,0x4
   115f0:	6a450513          	addi	a0,a0,1700 # 15c90 <end_signature+0xbb0>
   115f4:	20d020ef          	jal	ra,14000 <FN_WriteStr>
   115f8:	00004517          	auipc	a0,0x4
   115fc:	6a350513          	addi	a0,a0,1699 # 15c9b <end_signature+0xbbb>
   11600:	201020ef          	jal	ra,14000 <FN_WriteStr>
   11604:	06400193          	li	gp,100
   11608:	0000100f          	fence.i
   1160c:	00018063          	beqz	gp,1160c <reset_vector+0x15c0>
   11610:	00119193          	slli	gp,gp,0x1
   11614:	0011e193          	ori	gp,gp,1
   11618:	00000073          	ecall
   1161c:	00004517          	auipc	a0,0x4
   11620:	68150513          	addi	a0,a0,1665 # 15c9d <end_signature+0xbbd>
   11624:	1dd020ef          	jal	ra,14000 <FN_WriteStr>
   11628:	00004517          	auipc	a0,0x4
   1162c:	69150513          	addi	a0,a0,1681 # 15cb9 <end_signature+0xbd9>
   11630:	1d1020ef          	jal	ra,14000 <FN_WriteStr>
   11634:	00004c97          	auipc	s9,0x4
   11638:	9e0c8c93          	addi	s9,s9,-1568 # 15014 <test_B_data>
   1163c:	00004d17          	auipc	s10,0x4
   11640:	a6cd0d13          	addi	s10,s10,-1428 # 150a8 <test_B_res>
   11644:	000cae03          	lw	t3,0(s9)
   11648:	01000213          	li	tp,16
   1164c:	02000293          	li	t0,32
   11650:	04000313          	li	t1,64
   11654:	08000393          	li	t2,128
   11658:	10000413          	li	s0,256
   1165c:	80000493          	li	s1,-2048
   11660:	004e6eb3          	or	t4,t3,tp
   11664:	005eef33          	or	t5,t4,t0
   11668:	006f6fb3          	or	t6,t5,t1
   1166c:	007fe0b3          	or	ra,t6,t2
   11670:	0080e133          	or	sp,ra,s0
   11674:	009161b3          	or	gp,sp,s1
   11678:	004d2023          	sw	tp,0(s10)
   1167c:	01cd2223          	sw	t3,4(s10)
   11680:	01dd2423          	sw	t4,8(s10)
   11684:	01ed2623          	sw	t5,12(s10)
   11688:	01fd2823          	sw	t6,16(s10)
   1168c:	001d2a23          	sw	ra,20(s10)
   11690:	002d2c23          	sw	sp,24(s10)
   11694:	003d2e23          	sw	gp,28(s10)
   11698:	01000293          	li	t0,16
   1169c:	08520e63          	beq	tp,t0,11738 <reset_vector+0x16ec>
   116a0:	00004517          	auipc	a0,0x4
   116a4:	65250513          	addi	a0,a0,1618 # 15cf2 <end_signature+0xc12>
   116a8:	159020ef          	jal	ra,14000 <FN_WriteStr>
   116ac:	00004517          	auipc	a0,0x4
   116b0:	66150513          	addi	a0,a0,1633 # 15d0d <end_signature+0xc2d>
   116b4:	14d020ef          	jal	ra,14000 <FN_WriteStr>
   116b8:	00004517          	auipc	a0,0x4
   116bc:	66350513          	addi	a0,a0,1635 # 15d1b <end_signature+0xc3b>
   116c0:	141020ef          	jal	ra,14000 <FN_WriteStr>
   116c4:	00004517          	auipc	a0,0x4
   116c8:	65f50513          	addi	a0,a0,1631 # 15d23 <end_signature+0xc43>
   116cc:	135020ef          	jal	ra,14000 <FN_WriteStr>
   116d0:	00004517          	auipc	a0,0x4
   116d4:	65750513          	addi	a0,a0,1623 # 15d27 <end_signature+0xc47>
   116d8:	129020ef          	jal	ra,14000 <FN_WriteStr>
   116dc:	00004517          	auipc	a0,0x4
   116e0:	64e50513          	addi	a0,a0,1614 # 15d2a <end_signature+0xc4a>
   116e4:	11d020ef          	jal	ra,14000 <FN_WriteStr>
   116e8:	00004517          	auipc	a0,0x4
   116ec:	64550513          	addi	a0,a0,1605 # 15d2d <end_signature+0xc4d>
   116f0:	111020ef          	jal	ra,14000 <FN_WriteStr>
   116f4:	00020513          	mv	a0,tp
   116f8:	125020ef          	jal	ra,1401c <FN_WriteA0>
   116fc:	00004517          	auipc	a0,0x4
   11700:	63350513          	addi	a0,a0,1587 # 15d2f <end_signature+0xc4f>
   11704:	0fd020ef          	jal	ra,14000 <FN_WriteStr>
   11708:	00004517          	auipc	a0,0x4
   1170c:	62d50513          	addi	a0,a0,1581 # 15d35 <end_signature+0xc55>
   11710:	0f1020ef          	jal	ra,14000 <FN_WriteStr>
   11714:	00004517          	auipc	a0,0x4
   11718:	62c50513          	addi	a0,a0,1580 # 15d40 <end_signature+0xc60>
   1171c:	0e5020ef          	jal	ra,14000 <FN_WriteStr>
   11720:	06400193          	li	gp,100
   11724:	0000100f          	fence.i
   11728:	00018063          	beqz	gp,11728 <reset_vector+0x16dc>
   1172c:	00119193          	slli	gp,gp,0x1
   11730:	0011e193          	ori	gp,gp,1
   11734:	00000073          	ecall
   11738:	00d00293          	li	t0,13
   1173c:	085e0e63          	beq	t3,t0,117d8 <reset_vector+0x178c>
   11740:	00004517          	auipc	a0,0x4
   11744:	60250513          	addi	a0,a0,1538 # 15d42 <end_signature+0xc62>
   11748:	0b9020ef          	jal	ra,14000 <FN_WriteStr>
   1174c:	00004517          	auipc	a0,0x4
   11750:	61150513          	addi	a0,a0,1553 # 15d5d <end_signature+0xc7d>
   11754:	0ad020ef          	jal	ra,14000 <FN_WriteStr>
   11758:	00004517          	auipc	a0,0x4
   1175c:	61350513          	addi	a0,a0,1555 # 15d6b <end_signature+0xc8b>
   11760:	0a1020ef          	jal	ra,14000 <FN_WriteStr>
   11764:	00004517          	auipc	a0,0x4
   11768:	60f50513          	addi	a0,a0,1551 # 15d73 <end_signature+0xc93>
   1176c:	095020ef          	jal	ra,14000 <FN_WriteStr>
   11770:	00004517          	auipc	a0,0x4
   11774:	60750513          	addi	a0,a0,1543 # 15d77 <end_signature+0xc97>
   11778:	089020ef          	jal	ra,14000 <FN_WriteStr>
   1177c:	00004517          	auipc	a0,0x4
   11780:	5fe50513          	addi	a0,a0,1534 # 15d7a <end_signature+0xc9a>
   11784:	07d020ef          	jal	ra,14000 <FN_WriteStr>
   11788:	00004517          	auipc	a0,0x4
   1178c:	5f650513          	addi	a0,a0,1526 # 15d7e <end_signature+0xc9e>
   11790:	071020ef          	jal	ra,14000 <FN_WriteStr>
   11794:	000e0513          	mv	a0,t3
   11798:	085020ef          	jal	ra,1401c <FN_WriteA0>
   1179c:	00004517          	auipc	a0,0x4
   117a0:	5e450513          	addi	a0,a0,1508 # 15d80 <end_signature+0xca0>
   117a4:	05d020ef          	jal	ra,14000 <FN_WriteStr>
   117a8:	00004517          	auipc	a0,0x4
   117ac:	5de50513          	addi	a0,a0,1502 # 15d86 <end_signature+0xca6>
   117b0:	051020ef          	jal	ra,14000 <FN_WriteStr>
   117b4:	00004517          	auipc	a0,0x4
   117b8:	5dd50513          	addi	a0,a0,1501 # 15d91 <end_signature+0xcb1>
   117bc:	045020ef          	jal	ra,14000 <FN_WriteStr>
   117c0:	06400193          	li	gp,100
   117c4:	0000100f          	fence.i
   117c8:	00018063          	beqz	gp,117c8 <reset_vector+0x177c>
   117cc:	00119193          	slli	gp,gp,0x1
   117d0:	0011e193          	ori	gp,gp,1
   117d4:	00000073          	ecall
   117d8:	01d00293          	li	t0,29
   117dc:	085e8e63          	beq	t4,t0,11878 <reset_vector+0x182c>
   117e0:	00004517          	auipc	a0,0x4
   117e4:	5b350513          	addi	a0,a0,1459 # 15d93 <end_signature+0xcb3>
   117e8:	019020ef          	jal	ra,14000 <FN_WriteStr>
   117ec:	00004517          	auipc	a0,0x4
   117f0:	5c250513          	addi	a0,a0,1474 # 15dae <end_signature+0xcce>
   117f4:	00d020ef          	jal	ra,14000 <FN_WriteStr>
   117f8:	00004517          	auipc	a0,0x4
   117fc:	5c450513          	addi	a0,a0,1476 # 15dbc <end_signature+0xcdc>
   11800:	001020ef          	jal	ra,14000 <FN_WriteStr>
   11804:	00004517          	auipc	a0,0x4
   11808:	5c050513          	addi	a0,a0,1472 # 15dc4 <end_signature+0xce4>
   1180c:	7f4020ef          	jal	ra,14000 <FN_WriteStr>
   11810:	00004517          	auipc	a0,0x4
   11814:	5b850513          	addi	a0,a0,1464 # 15dc8 <end_signature+0xce8>
   11818:	7e8020ef          	jal	ra,14000 <FN_WriteStr>
   1181c:	00004517          	auipc	a0,0x4
   11820:	5af50513          	addi	a0,a0,1455 # 15dcb <end_signature+0xceb>
   11824:	7dc020ef          	jal	ra,14000 <FN_WriteStr>
   11828:	00004517          	auipc	a0,0x4
   1182c:	5a750513          	addi	a0,a0,1447 # 15dcf <end_signature+0xcef>
   11830:	7d0020ef          	jal	ra,14000 <FN_WriteStr>
   11834:	000e8513          	mv	a0,t4
   11838:	7e4020ef          	jal	ra,1401c <FN_WriteA0>
   1183c:	00004517          	auipc	a0,0x4
   11840:	59550513          	addi	a0,a0,1429 # 15dd1 <end_signature+0xcf1>
   11844:	7bc020ef          	jal	ra,14000 <FN_WriteStr>
   11848:	00004517          	auipc	a0,0x4
   1184c:	58f50513          	addi	a0,a0,1423 # 15dd7 <end_signature+0xcf7>
   11850:	7b0020ef          	jal	ra,14000 <FN_WriteStr>
   11854:	00004517          	auipc	a0,0x4
   11858:	58e50513          	addi	a0,a0,1422 # 15de2 <end_signature+0xd02>
   1185c:	7a4020ef          	jal	ra,14000 <FN_WriteStr>
   11860:	06400193          	li	gp,100
   11864:	0000100f          	fence.i
   11868:	00018063          	beqz	gp,11868 <reset_vector+0x181c>
   1186c:	00119193          	slli	gp,gp,0x1
   11870:	0011e193          	ori	gp,gp,1
   11874:	00000073          	ecall
   11878:	03d00293          	li	t0,61
   1187c:	085f0e63          	beq	t5,t0,11918 <reset_vector+0x18cc>
   11880:	00004517          	auipc	a0,0x4
   11884:	56450513          	addi	a0,a0,1380 # 15de4 <end_signature+0xd04>
   11888:	778020ef          	jal	ra,14000 <FN_WriteStr>
   1188c:	00004517          	auipc	a0,0x4
   11890:	57350513          	addi	a0,a0,1395 # 15dff <end_signature+0xd1f>
   11894:	76c020ef          	jal	ra,14000 <FN_WriteStr>
   11898:	00004517          	auipc	a0,0x4
   1189c:	57550513          	addi	a0,a0,1397 # 15e0d <end_signature+0xd2d>
   118a0:	760020ef          	jal	ra,14000 <FN_WriteStr>
   118a4:	00004517          	auipc	a0,0x4
   118a8:	57150513          	addi	a0,a0,1393 # 15e15 <end_signature+0xd35>
   118ac:	754020ef          	jal	ra,14000 <FN_WriteStr>
   118b0:	00004517          	auipc	a0,0x4
   118b4:	56950513          	addi	a0,a0,1385 # 15e19 <end_signature+0xd39>
   118b8:	748020ef          	jal	ra,14000 <FN_WriteStr>
   118bc:	00004517          	auipc	a0,0x4
   118c0:	56050513          	addi	a0,a0,1376 # 15e1c <end_signature+0xd3c>
   118c4:	73c020ef          	jal	ra,14000 <FN_WriteStr>
   118c8:	00004517          	auipc	a0,0x4
   118cc:	55850513          	addi	a0,a0,1368 # 15e20 <end_signature+0xd40>
   118d0:	730020ef          	jal	ra,14000 <FN_WriteStr>
   118d4:	000f0513          	mv	a0,t5
   118d8:	744020ef          	jal	ra,1401c <FN_WriteA0>
   118dc:	00004517          	auipc	a0,0x4
   118e0:	54650513          	addi	a0,a0,1350 # 15e22 <end_signature+0xd42>
   118e4:	71c020ef          	jal	ra,14000 <FN_WriteStr>
   118e8:	00004517          	auipc	a0,0x4
   118ec:	54050513          	addi	a0,a0,1344 # 15e28 <end_signature+0xd48>
   118f0:	710020ef          	jal	ra,14000 <FN_WriteStr>
   118f4:	00004517          	auipc	a0,0x4
   118f8:	53f50513          	addi	a0,a0,1343 # 15e33 <end_signature+0xd53>
   118fc:	704020ef          	jal	ra,14000 <FN_WriteStr>
   11900:	06400193          	li	gp,100
   11904:	0000100f          	fence.i
   11908:	00018063          	beqz	gp,11908 <reset_vector+0x18bc>
   1190c:	00119193          	slli	gp,gp,0x1
   11910:	0011e193          	ori	gp,gp,1
   11914:	00000073          	ecall
   11918:	07d00293          	li	t0,125
   1191c:	085f8e63          	beq	t6,t0,119b8 <reset_vector+0x196c>
   11920:	00004517          	auipc	a0,0x4
   11924:	51550513          	addi	a0,a0,1301 # 15e35 <end_signature+0xd55>
   11928:	6d8020ef          	jal	ra,14000 <FN_WriteStr>
   1192c:	00004517          	auipc	a0,0x4
   11930:	52450513          	addi	a0,a0,1316 # 15e50 <end_signature+0xd70>
   11934:	6cc020ef          	jal	ra,14000 <FN_WriteStr>
   11938:	00004517          	auipc	a0,0x4
   1193c:	52650513          	addi	a0,a0,1318 # 15e5e <end_signature+0xd7e>
   11940:	6c0020ef          	jal	ra,14000 <FN_WriteStr>
   11944:	00004517          	auipc	a0,0x4
   11948:	52250513          	addi	a0,a0,1314 # 15e66 <end_signature+0xd86>
   1194c:	6b4020ef          	jal	ra,14000 <FN_WriteStr>
   11950:	00004517          	auipc	a0,0x4
   11954:	51a50513          	addi	a0,a0,1306 # 15e6a <end_signature+0xd8a>
   11958:	6a8020ef          	jal	ra,14000 <FN_WriteStr>
   1195c:	00004517          	auipc	a0,0x4
   11960:	51150513          	addi	a0,a0,1297 # 15e6d <end_signature+0xd8d>
   11964:	69c020ef          	jal	ra,14000 <FN_WriteStr>
   11968:	00004517          	auipc	a0,0x4
   1196c:	50950513          	addi	a0,a0,1289 # 15e71 <end_signature+0xd91>
   11970:	690020ef          	jal	ra,14000 <FN_WriteStr>
   11974:	000f8513          	mv	a0,t6
   11978:	6a4020ef          	jal	ra,1401c <FN_WriteA0>
   1197c:	00004517          	auipc	a0,0x4
   11980:	4f750513          	addi	a0,a0,1271 # 15e73 <end_signature+0xd93>
   11984:	67c020ef          	jal	ra,14000 <FN_WriteStr>
   11988:	00004517          	auipc	a0,0x4
   1198c:	4f150513          	addi	a0,a0,1265 # 15e79 <end_signature+0xd99>
   11990:	670020ef          	jal	ra,14000 <FN_WriteStr>
   11994:	00004517          	auipc	a0,0x4
   11998:	4f050513          	addi	a0,a0,1264 # 15e84 <end_signature+0xda4>
   1199c:	664020ef          	jal	ra,14000 <FN_WriteStr>
   119a0:	06400193          	li	gp,100
   119a4:	0000100f          	fence.i
   119a8:	00018063          	beqz	gp,119a8 <reset_vector+0x195c>
   119ac:	00119193          	slli	gp,gp,0x1
   119b0:	0011e193          	ori	gp,gp,1
   119b4:	00000073          	ecall
   119b8:	1fd00293          	li	t0,509
   119bc:	08510e63          	beq	sp,t0,11a58 <reset_vector+0x1a0c>
   119c0:	00004517          	auipc	a0,0x4
   119c4:	4c650513          	addi	a0,a0,1222 # 15e86 <end_signature+0xda6>
   119c8:	638020ef          	jal	ra,14000 <FN_WriteStr>
   119cc:	00004517          	auipc	a0,0x4
   119d0:	4d550513          	addi	a0,a0,1237 # 15ea1 <end_signature+0xdc1>
   119d4:	62c020ef          	jal	ra,14000 <FN_WriteStr>
   119d8:	00004517          	auipc	a0,0x4
   119dc:	4d750513          	addi	a0,a0,1239 # 15eaf <end_signature+0xdcf>
   119e0:	620020ef          	jal	ra,14000 <FN_WriteStr>
   119e4:	00004517          	auipc	a0,0x4
   119e8:	4d350513          	addi	a0,a0,1235 # 15eb7 <end_signature+0xdd7>
   119ec:	614020ef          	jal	ra,14000 <FN_WriteStr>
   119f0:	00004517          	auipc	a0,0x4
   119f4:	4cb50513          	addi	a0,a0,1227 # 15ebb <end_signature+0xddb>
   119f8:	608020ef          	jal	ra,14000 <FN_WriteStr>
   119fc:	00004517          	auipc	a0,0x4
   11a00:	4c250513          	addi	a0,a0,1218 # 15ebe <end_signature+0xdde>
   11a04:	5fc020ef          	jal	ra,14000 <FN_WriteStr>
   11a08:	00004517          	auipc	a0,0x4
   11a0c:	4b950513          	addi	a0,a0,1209 # 15ec1 <end_signature+0xde1>
   11a10:	5f0020ef          	jal	ra,14000 <FN_WriteStr>
   11a14:	00010513          	mv	a0,sp
   11a18:	604020ef          	jal	ra,1401c <FN_WriteA0>
   11a1c:	00004517          	auipc	a0,0x4
   11a20:	4a750513          	addi	a0,a0,1191 # 15ec3 <end_signature+0xde3>
   11a24:	5dc020ef          	jal	ra,14000 <FN_WriteStr>
   11a28:	00004517          	auipc	a0,0x4
   11a2c:	4a150513          	addi	a0,a0,1185 # 15ec9 <end_signature+0xde9>
   11a30:	5d0020ef          	jal	ra,14000 <FN_WriteStr>
   11a34:	00004517          	auipc	a0,0x4
   11a38:	4a050513          	addi	a0,a0,1184 # 15ed4 <end_signature+0xdf4>
   11a3c:	5c4020ef          	jal	ra,14000 <FN_WriteStr>
   11a40:	06400193          	li	gp,100
   11a44:	0000100f          	fence.i
   11a48:	00018063          	beqz	gp,11a48 <reset_vector+0x19fc>
   11a4c:	00119193          	slli	gp,gp,0x1
   11a50:	0011e193          	ori	gp,gp,1
   11a54:	00000073          	ecall
   11a58:	9fd00293          	li	t0,-1539
   11a5c:	08518e63          	beq	gp,t0,11af8 <reset_vector+0x1aac>
   11a60:	00004517          	auipc	a0,0x4
   11a64:	47650513          	addi	a0,a0,1142 # 15ed6 <end_signature+0xdf6>
   11a68:	598020ef          	jal	ra,14000 <FN_WriteStr>
   11a6c:	00004517          	auipc	a0,0x4
   11a70:	48550513          	addi	a0,a0,1157 # 15ef1 <end_signature+0xe11>
   11a74:	58c020ef          	jal	ra,14000 <FN_WriteStr>
   11a78:	00004517          	auipc	a0,0x4
   11a7c:	48750513          	addi	a0,a0,1159 # 15eff <end_signature+0xe1f>
   11a80:	580020ef          	jal	ra,14000 <FN_WriteStr>
   11a84:	00004517          	auipc	a0,0x4
   11a88:	48350513          	addi	a0,a0,1155 # 15f07 <end_signature+0xe27>
   11a8c:	574020ef          	jal	ra,14000 <FN_WriteStr>
   11a90:	00004517          	auipc	a0,0x4
   11a94:	47b50513          	addi	a0,a0,1147 # 15f0b <end_signature+0xe2b>
   11a98:	568020ef          	jal	ra,14000 <FN_WriteStr>
   11a9c:	00004517          	auipc	a0,0x4
   11aa0:	47250513          	addi	a0,a0,1138 # 15f0e <end_signature+0xe2e>
   11aa4:	55c020ef          	jal	ra,14000 <FN_WriteStr>
   11aa8:	00004517          	auipc	a0,0x4
   11aac:	46950513          	addi	a0,a0,1129 # 15f11 <end_signature+0xe31>
   11ab0:	550020ef          	jal	ra,14000 <FN_WriteStr>
   11ab4:	00018513          	mv	a0,gp
   11ab8:	564020ef          	jal	ra,1401c <FN_WriteA0>
   11abc:	00004517          	auipc	a0,0x4
   11ac0:	45750513          	addi	a0,a0,1111 # 15f13 <end_signature+0xe33>
   11ac4:	53c020ef          	jal	ra,14000 <FN_WriteStr>
   11ac8:	00004517          	auipc	a0,0x4
   11acc:	45150513          	addi	a0,a0,1105 # 15f19 <end_signature+0xe39>
   11ad0:	530020ef          	jal	ra,14000 <FN_WriteStr>
   11ad4:	00004517          	auipc	a0,0x4
   11ad8:	45050513          	addi	a0,a0,1104 # 15f24 <end_signature+0xe44>
   11adc:	524020ef          	jal	ra,14000 <FN_WriteStr>
   11ae0:	06400193          	li	gp,100
   11ae4:	0000100f          	fence.i
   11ae8:	00018063          	beqz	gp,11ae8 <reset_vector+0x1a9c>
   11aec:	00119193          	slli	gp,gp,0x1
   11af0:	0011e193          	ori	gp,gp,1
   11af4:	00000073          	ecall
   11af8:	00004517          	auipc	a0,0x4
   11afc:	42e50513          	addi	a0,a0,1070 # 15f26 <end_signature+0xe46>
   11b00:	500020ef          	jal	ra,14000 <FN_WriteStr>
   11b04:	00004517          	auipc	a0,0x4
   11b08:	43d50513          	addi	a0,a0,1085 # 15f41 <end_signature+0xe61>
   11b0c:	4f4020ef          	jal	ra,14000 <FN_WriteStr>
   11b10:	00003097          	auipc	ra,0x3
   11b14:	50808093          	addi	ra,ra,1288 # 15018 <test_C_data>
   11b18:	00003117          	auipc	sp,0x3
   11b1c:	5b010113          	addi	sp,sp,1456 # 150c8 <test_C_res>
   11b20:	0000ae03          	lw	t3,0(ra)
   11b24:	f7ff9db7          	lui	s11,0xf7ff9
   11b28:	818d8d93          	addi	s11,s11,-2024 # f7ff8818 <_end+0xf7fe2614>
   11b2c:	01be6033          	or	zero,t3,s11
   11b30:	00012023          	sw	zero,0(sp)
   11b34:	00000293          	li	t0,0
   11b38:	08500e63          	beq	zero,t0,11bd4 <reset_vector+0x1b88>
   11b3c:	00004517          	auipc	a0,0x4
   11b40:	42c50513          	addi	a0,a0,1068 # 15f68 <end_signature+0xe88>
   11b44:	4bc020ef          	jal	ra,14000 <FN_WriteStr>
   11b48:	00004517          	auipc	a0,0x4
   11b4c:	43b50513          	addi	a0,a0,1083 # 15f83 <end_signature+0xea3>
   11b50:	4b0020ef          	jal	ra,14000 <FN_WriteStr>
   11b54:	00004517          	auipc	a0,0x4
   11b58:	43d50513          	addi	a0,a0,1085 # 15f91 <end_signature+0xeb1>
   11b5c:	4a4020ef          	jal	ra,14000 <FN_WriteStr>
   11b60:	00004517          	auipc	a0,0x4
   11b64:	43950513          	addi	a0,a0,1081 # 15f99 <end_signature+0xeb9>
   11b68:	498020ef          	jal	ra,14000 <FN_WriteStr>
   11b6c:	00004517          	auipc	a0,0x4
   11b70:	43150513          	addi	a0,a0,1073 # 15f9d <end_signature+0xebd>
   11b74:	48c020ef          	jal	ra,14000 <FN_WriteStr>
   11b78:	00004517          	auipc	a0,0x4
   11b7c:	42850513          	addi	a0,a0,1064 # 15fa0 <end_signature+0xec0>
   11b80:	480020ef          	jal	ra,14000 <FN_WriteStr>
   11b84:	00004517          	auipc	a0,0x4
   11b88:	41f50513          	addi	a0,a0,1055 # 15fa3 <end_signature+0xec3>
   11b8c:	474020ef          	jal	ra,14000 <FN_WriteStr>
   11b90:	00000513          	li	a0,0
   11b94:	488020ef          	jal	ra,1401c <FN_WriteA0>
   11b98:	00004517          	auipc	a0,0x4
   11b9c:	40d50513          	addi	a0,a0,1037 # 15fa5 <end_signature+0xec5>
   11ba0:	460020ef          	jal	ra,14000 <FN_WriteStr>
   11ba4:	00004517          	auipc	a0,0x4
   11ba8:	40750513          	addi	a0,a0,1031 # 15fab <end_signature+0xecb>
   11bac:	454020ef          	jal	ra,14000 <FN_WriteStr>
   11bb0:	00004517          	auipc	a0,0x4
   11bb4:	40650513          	addi	a0,a0,1030 # 15fb6 <end_signature+0xed6>
   11bb8:	448020ef          	jal	ra,14000 <FN_WriteStr>
   11bbc:	06400193          	li	gp,100
   11bc0:	0000100f          	fence.i
   11bc4:	00018063          	beqz	gp,11bc4 <reset_vector+0x1b78>
   11bc8:	00119193          	slli	gp,gp,0x1
   11bcc:	0011e193          	ori	gp,gp,1
   11bd0:	00000073          	ecall
   11bd4:	00004517          	auipc	a0,0x4
   11bd8:	3e450513          	addi	a0,a0,996 # 15fb8 <end_signature+0xed8>
   11bdc:	424020ef          	jal	ra,14000 <FN_WriteStr>
   11be0:	00004517          	auipc	a0,0x4
   11be4:	3f350513          	addi	a0,a0,1011 # 15fd3 <end_signature+0xef3>
   11be8:	418020ef          	jal	ra,14000 <FN_WriteStr>
   11bec:	00003097          	auipc	ra,0x3
   11bf0:	43008093          	addi	ra,ra,1072 # 1501c <test_D_data>
   11bf4:	00003117          	auipc	sp,0x3
   11bf8:	4d810113          	addi	sp,sp,1240 # 150cc <test_D_res>
   11bfc:	0000ae03          	lw	t3,0(ra)
   11c00:	f7ff9db7          	lui	s11,0xf7ff9
   11c04:	818d8d93          	addi	s11,s11,-2024 # f7ff8818 <_end+0xf7fe2614>
   11c08:	01be6033          	or	zero,t3,s11
   11c0c:	000062b3          	or	t0,zero,zero
   11c10:	00012023          	sw	zero,0(sp)
   11c14:	00512223          	sw	t0,4(sp)
   11c18:	00000293          	li	t0,0
   11c1c:	08500e63          	beq	zero,t0,11cb8 <reset_vector+0x1c6c>
   11c20:	00004517          	auipc	a0,0x4
   11c24:	3e350513          	addi	a0,a0,995 # 16003 <end_signature+0xf23>
   11c28:	3d8020ef          	jal	ra,14000 <FN_WriteStr>
   11c2c:	00004517          	auipc	a0,0x4
   11c30:	3f250513          	addi	a0,a0,1010 # 1601e <end_signature+0xf3e>
   11c34:	3cc020ef          	jal	ra,14000 <FN_WriteStr>
   11c38:	00004517          	auipc	a0,0x4
   11c3c:	3f450513          	addi	a0,a0,1012 # 1602c <end_signature+0xf4c>
   11c40:	3c0020ef          	jal	ra,14000 <FN_WriteStr>
   11c44:	00004517          	auipc	a0,0x4
   11c48:	3f050513          	addi	a0,a0,1008 # 16034 <end_signature+0xf54>
   11c4c:	3b4020ef          	jal	ra,14000 <FN_WriteStr>
   11c50:	00004517          	auipc	a0,0x4
   11c54:	3e850513          	addi	a0,a0,1000 # 16038 <end_signature+0xf58>
   11c58:	3a8020ef          	jal	ra,14000 <FN_WriteStr>
   11c5c:	00004517          	auipc	a0,0x4
   11c60:	3df50513          	addi	a0,a0,991 # 1603b <end_signature+0xf5b>
   11c64:	39c020ef          	jal	ra,14000 <FN_WriteStr>
   11c68:	00004517          	auipc	a0,0x4
   11c6c:	3d650513          	addi	a0,a0,982 # 1603e <end_signature+0xf5e>
   11c70:	390020ef          	jal	ra,14000 <FN_WriteStr>
   11c74:	00000513          	li	a0,0
   11c78:	3a4020ef          	jal	ra,1401c <FN_WriteA0>
   11c7c:	00004517          	auipc	a0,0x4
   11c80:	3c450513          	addi	a0,a0,964 # 16040 <end_signature+0xf60>
   11c84:	37c020ef          	jal	ra,14000 <FN_WriteStr>
   11c88:	00004517          	auipc	a0,0x4
   11c8c:	3be50513          	addi	a0,a0,958 # 16046 <end_signature+0xf66>
   11c90:	370020ef          	jal	ra,14000 <FN_WriteStr>
   11c94:	00004517          	auipc	a0,0x4
   11c98:	3bd50513          	addi	a0,a0,957 # 16051 <end_signature+0xf71>
   11c9c:	364020ef          	jal	ra,14000 <FN_WriteStr>
   11ca0:	06400193          	li	gp,100
   11ca4:	0000100f          	fence.i
   11ca8:	00018063          	beqz	gp,11ca8 <reset_vector+0x1c5c>
   11cac:	00119193          	slli	gp,gp,0x1
   11cb0:	0011e193          	ori	gp,gp,1
   11cb4:	00000073          	ecall
   11cb8:	00000293          	li	t0,0
   11cbc:	08528e63          	beq	t0,t0,11d58 <reset_vector+0x1d0c>
   11cc0:	00004517          	auipc	a0,0x4
   11cc4:	39350513          	addi	a0,a0,915 # 16053 <end_signature+0xf73>
   11cc8:	338020ef          	jal	ra,14000 <FN_WriteStr>
   11ccc:	00004517          	auipc	a0,0x4
   11cd0:	3a250513          	addi	a0,a0,930 # 1606e <end_signature+0xf8e>
   11cd4:	32c020ef          	jal	ra,14000 <FN_WriteStr>
   11cd8:	00004517          	auipc	a0,0x4
   11cdc:	3a450513          	addi	a0,a0,932 # 1607c <end_signature+0xf9c>
   11ce0:	320020ef          	jal	ra,14000 <FN_WriteStr>
   11ce4:	00004517          	auipc	a0,0x4
   11ce8:	3a050513          	addi	a0,a0,928 # 16084 <end_signature+0xfa4>
   11cec:	314020ef          	jal	ra,14000 <FN_WriteStr>
   11cf0:	00004517          	auipc	a0,0x4
   11cf4:	39850513          	addi	a0,a0,920 # 16088 <end_signature+0xfa8>
   11cf8:	308020ef          	jal	ra,14000 <FN_WriteStr>
   11cfc:	00004517          	auipc	a0,0x4
   11d00:	38f50513          	addi	a0,a0,911 # 1608b <end_signature+0xfab>
   11d04:	2fc020ef          	jal	ra,14000 <FN_WriteStr>
   11d08:	00004517          	auipc	a0,0x4
   11d0c:	38650513          	addi	a0,a0,902 # 1608e <end_signature+0xfae>
   11d10:	2f0020ef          	jal	ra,14000 <FN_WriteStr>
   11d14:	00028513          	mv	a0,t0
   11d18:	304020ef          	jal	ra,1401c <FN_WriteA0>
   11d1c:	00004517          	auipc	a0,0x4
   11d20:	37450513          	addi	a0,a0,884 # 16090 <end_signature+0xfb0>
   11d24:	2dc020ef          	jal	ra,14000 <FN_WriteStr>
   11d28:	00004517          	auipc	a0,0x4
   11d2c:	36e50513          	addi	a0,a0,878 # 16096 <end_signature+0xfb6>
   11d30:	2d0020ef          	jal	ra,14000 <FN_WriteStr>
   11d34:	00004517          	auipc	a0,0x4
   11d38:	36d50513          	addi	a0,a0,877 # 160a1 <end_signature+0xfc1>
   11d3c:	2c4020ef          	jal	ra,14000 <FN_WriteStr>
   11d40:	06400193          	li	gp,100
   11d44:	0000100f          	fence.i
   11d48:	00018063          	beqz	gp,11d48 <reset_vector+0x1cfc>
   11d4c:	00119193          	slli	gp,gp,0x1
   11d50:	0011e193          	ori	gp,gp,1
   11d54:	00000073          	ecall
   11d58:	00004517          	auipc	a0,0x4
   11d5c:	34b50513          	addi	a0,a0,843 # 160a3 <end_signature+0xfc3>
   11d60:	2a0020ef          	jal	ra,14000 <FN_WriteStr>
   11d64:	00004517          	auipc	a0,0x4
   11d68:	35a50513          	addi	a0,a0,858 # 160be <end_signature+0xfde>
   11d6c:	294020ef          	jal	ra,14000 <FN_WriteStr>
   11d70:	00003097          	auipc	ra,0x3
   11d74:	2b008093          	addi	ra,ra,688 # 15020 <test_E_data>
   11d78:	00003117          	auipc	sp,0x3
   11d7c:	35c10113          	addi	sp,sp,860 # 150d4 <test_E_res>
   11d80:	0000a183          	lw	gp,0(ra)
   11d84:	0001e233          	or	tp,gp,zero
   11d88:	000262b3          	or	t0,tp,zero
   11d8c:	00506333          	or	t1,zero,t0
   11d90:	00036733          	or	a4,t1,zero
   11d94:	000767b3          	or	a5,a4,zero
   11d98:	0007e833          	or	a6,a5,zero
   11d9c:	01006cb3          	or	s9,zero,a6
   11da0:	01906d33          	or	s10,zero,s9
   11da4:	000d6db3          	or	s11,s10,zero
   11da8:	00412023          	sw	tp,0(sp)
   11dac:	01a12223          	sw	s10,4(sp)
   11db0:	01b12423          	sw	s11,8(sp)
   11db4:	369262b7          	lui	t0,0x36926
   11db8:	81428293          	addi	t0,t0,-2028 # 36925814 <_end+0x3690f610>
   11dbc:	08520e63          	beq	tp,t0,11e58 <reset_vector+0x1e0c>
   11dc0:	00004517          	auipc	a0,0x4
   11dc4:	32b50513          	addi	a0,a0,811 # 160eb <end_signature+0x100b>
   11dc8:	238020ef          	jal	ra,14000 <FN_WriteStr>
   11dcc:	00004517          	auipc	a0,0x4
   11dd0:	33a50513          	addi	a0,a0,826 # 16106 <end_signature+0x1026>
   11dd4:	22c020ef          	jal	ra,14000 <FN_WriteStr>
   11dd8:	00004517          	auipc	a0,0x4
   11ddc:	33c50513          	addi	a0,a0,828 # 16114 <end_signature+0x1034>
   11de0:	220020ef          	jal	ra,14000 <FN_WriteStr>
   11de4:	00004517          	auipc	a0,0x4
   11de8:	33850513          	addi	a0,a0,824 # 1611c <end_signature+0x103c>
   11dec:	214020ef          	jal	ra,14000 <FN_WriteStr>
   11df0:	00004517          	auipc	a0,0x4
   11df4:	33050513          	addi	a0,a0,816 # 16120 <end_signature+0x1040>
   11df8:	208020ef          	jal	ra,14000 <FN_WriteStr>
   11dfc:	00004517          	auipc	a0,0x4
   11e00:	32750513          	addi	a0,a0,807 # 16123 <end_signature+0x1043>
   11e04:	1fc020ef          	jal	ra,14000 <FN_WriteStr>
   11e08:	00004517          	auipc	a0,0x4
   11e0c:	31e50513          	addi	a0,a0,798 # 16126 <end_signature+0x1046>
   11e10:	1f0020ef          	jal	ra,14000 <FN_WriteStr>
   11e14:	00020513          	mv	a0,tp
   11e18:	204020ef          	jal	ra,1401c <FN_WriteA0>
   11e1c:	00004517          	auipc	a0,0x4
   11e20:	30c50513          	addi	a0,a0,780 # 16128 <end_signature+0x1048>
   11e24:	1dc020ef          	jal	ra,14000 <FN_WriteStr>
   11e28:	00004517          	auipc	a0,0x4
   11e2c:	30650513          	addi	a0,a0,774 # 1612e <end_signature+0x104e>
   11e30:	1d0020ef          	jal	ra,14000 <FN_WriteStr>
   11e34:	00004517          	auipc	a0,0x4
   11e38:	30550513          	addi	a0,a0,773 # 16139 <end_signature+0x1059>
   11e3c:	1c4020ef          	jal	ra,14000 <FN_WriteStr>
   11e40:	06400193          	li	gp,100
   11e44:	0000100f          	fence.i
   11e48:	00018063          	beqz	gp,11e48 <reset_vector+0x1dfc>
   11e4c:	00119193          	slli	gp,gp,0x1
   11e50:	0011e193          	ori	gp,gp,1
   11e54:	00000073          	ecall
   11e58:	369262b7          	lui	t0,0x36926
   11e5c:	81428293          	addi	t0,t0,-2028 # 36925814 <_end+0x3690f610>
   11e60:	085d0e63          	beq	s10,t0,11efc <reset_vector+0x1eb0>
   11e64:	00004517          	auipc	a0,0x4
   11e68:	2d750513          	addi	a0,a0,727 # 1613b <end_signature+0x105b>
   11e6c:	194020ef          	jal	ra,14000 <FN_WriteStr>
   11e70:	00004517          	auipc	a0,0x4
   11e74:	2e650513          	addi	a0,a0,742 # 16156 <end_signature+0x1076>
   11e78:	188020ef          	jal	ra,14000 <FN_WriteStr>
   11e7c:	00004517          	auipc	a0,0x4
   11e80:	2e850513          	addi	a0,a0,744 # 16164 <end_signature+0x1084>
   11e84:	17c020ef          	jal	ra,14000 <FN_WriteStr>
   11e88:	00004517          	auipc	a0,0x4
   11e8c:	2e450513          	addi	a0,a0,740 # 1616c <end_signature+0x108c>
   11e90:	170020ef          	jal	ra,14000 <FN_WriteStr>
   11e94:	00004517          	auipc	a0,0x4
   11e98:	2dc50513          	addi	a0,a0,732 # 16170 <end_signature+0x1090>
   11e9c:	164020ef          	jal	ra,14000 <FN_WriteStr>
   11ea0:	00004517          	auipc	a0,0x4
   11ea4:	2d350513          	addi	a0,a0,723 # 16173 <end_signature+0x1093>
   11ea8:	158020ef          	jal	ra,14000 <FN_WriteStr>
   11eac:	00004517          	auipc	a0,0x4
   11eb0:	2cb50513          	addi	a0,a0,715 # 16177 <end_signature+0x1097>
   11eb4:	14c020ef          	jal	ra,14000 <FN_WriteStr>
   11eb8:	000d0513          	mv	a0,s10
   11ebc:	160020ef          	jal	ra,1401c <FN_WriteA0>
   11ec0:	00004517          	auipc	a0,0x4
   11ec4:	2b950513          	addi	a0,a0,697 # 16179 <end_signature+0x1099>
   11ec8:	138020ef          	jal	ra,14000 <FN_WriteStr>
   11ecc:	00004517          	auipc	a0,0x4
   11ed0:	2b350513          	addi	a0,a0,691 # 1617f <end_signature+0x109f>
   11ed4:	12c020ef          	jal	ra,14000 <FN_WriteStr>
   11ed8:	00004517          	auipc	a0,0x4
   11edc:	2b250513          	addi	a0,a0,690 # 1618a <end_signature+0x10aa>
   11ee0:	120020ef          	jal	ra,14000 <FN_WriteStr>
   11ee4:	06400193          	li	gp,100
   11ee8:	0000100f          	fence.i
   11eec:	00018063          	beqz	gp,11eec <reset_vector+0x1ea0>
   11ef0:	00119193          	slli	gp,gp,0x1
   11ef4:	0011e193          	ori	gp,gp,1
   11ef8:	00000073          	ecall
   11efc:	369262b7          	lui	t0,0x36926
   11f00:	81428293          	addi	t0,t0,-2028 # 36925814 <_end+0x3690f610>
   11f04:	085d8e63          	beq	s11,t0,11fa0 <reset_vector+0x1f54>
   11f08:	00004517          	auipc	a0,0x4
   11f0c:	28450513          	addi	a0,a0,644 # 1618c <end_signature+0x10ac>
   11f10:	0f0020ef          	jal	ra,14000 <FN_WriteStr>
   11f14:	00004517          	auipc	a0,0x4
   11f18:	29350513          	addi	a0,a0,659 # 161a7 <end_signature+0x10c7>
   11f1c:	0e4020ef          	jal	ra,14000 <FN_WriteStr>
   11f20:	00004517          	auipc	a0,0x4
   11f24:	29550513          	addi	a0,a0,661 # 161b5 <end_signature+0x10d5>
   11f28:	0d8020ef          	jal	ra,14000 <FN_WriteStr>
   11f2c:	00004517          	auipc	a0,0x4
   11f30:	29150513          	addi	a0,a0,657 # 161bd <end_signature+0x10dd>
   11f34:	0cc020ef          	jal	ra,14000 <FN_WriteStr>
   11f38:	00004517          	auipc	a0,0x4
   11f3c:	28950513          	addi	a0,a0,649 # 161c1 <end_signature+0x10e1>
   11f40:	0c0020ef          	jal	ra,14000 <FN_WriteStr>
   11f44:	00004517          	auipc	a0,0x4
   11f48:	28050513          	addi	a0,a0,640 # 161c4 <end_signature+0x10e4>
   11f4c:	0b4020ef          	jal	ra,14000 <FN_WriteStr>
   11f50:	00004517          	auipc	a0,0x4
   11f54:	27850513          	addi	a0,a0,632 # 161c8 <end_signature+0x10e8>
   11f58:	0a8020ef          	jal	ra,14000 <FN_WriteStr>
   11f5c:	000d8513          	mv	a0,s11
   11f60:	0bc020ef          	jal	ra,1401c <FN_WriteA0>
   11f64:	00004517          	auipc	a0,0x4
   11f68:	26650513          	addi	a0,a0,614 # 161ca <end_signature+0x10ea>
   11f6c:	094020ef          	jal	ra,14000 <FN_WriteStr>
   11f70:	00004517          	auipc	a0,0x4
   11f74:	26050513          	addi	a0,a0,608 # 161d0 <end_signature+0x10f0>
   11f78:	088020ef          	jal	ra,14000 <FN_WriteStr>
   11f7c:	00004517          	auipc	a0,0x4
   11f80:	25f50513          	addi	a0,a0,607 # 161db <end_signature+0x10fb>
   11f84:	07c020ef          	jal	ra,14000 <FN_WriteStr>
   11f88:	06400193          	li	gp,100
   11f8c:	0000100f          	fence.i
   11f90:	00018063          	beqz	gp,11f90 <reset_vector+0x1f44>
   11f94:	00119193          	slli	gp,gp,0x1
   11f98:	0011e193          	ori	gp,gp,1
   11f9c:	00000073          	ecall
   11fa0:	00004517          	auipc	a0,0x4
   11fa4:	23d50513          	addi	a0,a0,573 # 161dd <end_signature+0x10fd>
   11fa8:	058020ef          	jal	ra,14000 <FN_WriteStr>
   11fac:	00004517          	auipc	a0,0x4
   11fb0:	24c50513          	addi	a0,a0,588 # 161f8 <end_signature+0x1118>
   11fb4:	04c020ef          	jal	ra,14000 <FN_WriteStr>
   11fb8:	0000100f          	fence.i
   11fbc:	00100193          	li	gp,1
   11fc0:	00000073          	ecall
   11fc4:	c0001073          	unimp
	...

Disassembly of section .tohost:

00013000 <tohost>:
	...

00013100 <fromhost>:
	...

Disassembly of section .text:

00014000 <FN_WriteStr>:
   14000:	00050293          	mv	t0,a0
   14004:	0002c503          	lbu	a0,0(t0)
   14008:	00128293          	addi	t0,t0,1
   1400c:	00050663          	beqz	a0,14018 <FN_WriteStr+0x18>
   14010:	0005200b          	0x5200b
   14014:	ff1ff06f          	j	14004 <FN_WriteStr+0x4>
   14018:	00008067          	ret

0001401c <FN_WriteA0>:
   1401c:	00050293          	mv	t0,a0
   14020:	fff00513          	li	a0,-1
   14024:	01f55513          	srli	a0,a0,0x1f
   14028:	00155513          	srli	a0,a0,0x1
   1402c:	02051463          	bnez	a0,14054 <FN_WriteA0_64>

00014030 <FN_WriteA0_32>:
   14030:	00800313          	li	t1,8
   14034:	00439393          	slli	t2,t2,0x4
   14038:	00f2f513          	andi	a0,t0,15
   1403c:	0042d293          	srli	t0,t0,0x4
   14040:	00a3e3b3          	or	t2,t2,a0
   14044:	fff30313          	addi	t1,t1,-1
   14048:	fe0316e3          	bnez	t1,14034 <FN_WriteA0_32+0x4>
   1404c:	00800313          	li	t1,8
   14050:	0240006f          	j	14074 <FN_WriteA0_common>

00014054 <FN_WriteA0_64>:
   14054:	01000313          	li	t1,16
   14058:	00439393          	slli	t2,t2,0x4
   1405c:	00f2f513          	andi	a0,t0,15
   14060:	0042d293          	srli	t0,t0,0x4
   14064:	00a3e3b3          	or	t2,t2,a0
   14068:	fff30313          	addi	t1,t1,-1
   1406c:	fe0316e3          	bnez	t1,14058 <FN_WriteA0_64+0x4>
   14070:	01000313          	li	t1,16

00014074 <FN_WriteA0_common>:
   14074:	00a00293          	li	t0,10
   14078:	00f3f513          	andi	a0,t2,15
   1407c:	00554663          	blt	a0,t0,14088 <FN_WriteA0_common+0x14>
   14080:	05750513          	addi	a0,a0,87
   14084:	0080006f          	j	1408c <FN_WriteA0_common+0x18>
   14088:	03050513          	addi	a0,a0,48
   1408c:	0005200b          	0x5200b
   14090:	0043d393          	srli	t2,t2,0x4
   14094:	fff30313          	addi	t1,t1,-1
   14098:	fe0310e3          	bnez	t1,14078 <FN_WriteA0_common+0x4>
   1409c:	00008067          	ret
