
/Users/benselfridge/RISCV/riscv-compliance/work//I-RF_size-01.elf:     file format elf32-littleriscv


Disassembly of section .text.init:

00010000 <_start>:
   10000:	04c0006f          	j	1004c <reset_vector>

00010004 <trap_vector>:
   10004:	34202f73          	csrr	t5,mcause
   10008:	00800f93          	li	t6,8
   1000c:	03ff0a63          	beq	t5,t6,10040 <write_tohost>
   10010:	00900f93          	li	t6,9
   10014:	03ff0663          	beq	t5,t6,10040 <write_tohost>
   10018:	00b00f93          	li	t6,11
   1001c:	03ff0263          	beq	t5,t6,10040 <write_tohost>
   10020:	ffff0f17          	auipc	t5,0xffff0
   10024:	fe0f0f13          	addi	t5,t5,-32 # 0 <_start-0x10000>
   10028:	000f0463          	beqz	t5,10030 <trap_vector+0x2c>
   1002c:	000f0067          	jr	t5
   10030:	34202f73          	csrr	t5,mcause
   10034:	000f5463          	bgez	t5,1003c <handle_exception>
   10038:	0040006f          	j	1003c <handle_exception>

0001003c <handle_exception>:
   1003c:	5391e193          	ori	gp,gp,1337

00010040 <write_tohost>:
   10040:	00001f17          	auipc	t5,0x1
   10044:	fc3f2023          	sw	gp,-64(t5) # 11000 <tohost>
   10048:	ff9ff06f          	j	10040 <write_tohost>

0001004c <reset_vector>:
   1004c:	f1402573          	csrr	a0,mhartid
   10050:	00051063          	bnez	a0,10050 <reset_vector+0x4>
   10054:	00000297          	auipc	t0,0x0
   10058:	01028293          	addi	t0,t0,16 # 10064 <reset_vector+0x18>
   1005c:	30529073          	csrw	mtvec,t0
   10060:	18005073          	csrwi	satp,0
   10064:	00000297          	auipc	t0,0x0
   10068:	01c28293          	addi	t0,t0,28 # 10080 <reset_vector+0x34>
   1006c:	30529073          	csrw	mtvec,t0
   10070:	fff00293          	li	t0,-1
   10074:	3b029073          	csrw	pmpaddr0,t0
   10078:	01f00293          	li	t0,31
   1007c:	3a029073          	csrw	pmpcfg0,t0
   10080:	00000297          	auipc	t0,0x0
   10084:	01828293          	addi	t0,t0,24 # 10098 <reset_vector+0x4c>
   10088:	30529073          	csrw	mtvec,t0
   1008c:	30205073          	csrwi	medeleg,0
   10090:	30305073          	csrwi	mideleg,0
   10094:	30405073          	csrwi	mie,0
   10098:	00000193          	li	gp,0
   1009c:	00000297          	auipc	t0,0x0
   100a0:	f6828293          	addi	t0,t0,-152 # 10004 <trap_vector>
   100a4:	30529073          	csrw	mtvec,t0
   100a8:	00100513          	li	a0,1
   100ac:	01f51513          	slli	a0,a0,0x1f
   100b0:	00054863          	bltz	a0,100c0 <reset_vector+0x74>
   100b4:	00000013          	nop
   100b8:	00100193          	li	gp,1
   100bc:	00000073          	ecall
   100c0:	ffff0297          	auipc	t0,0xffff0
   100c4:	f4028293          	addi	t0,t0,-192 # 0 <_start-0x10000>
   100c8:	00028e63          	beqz	t0,100e4 <reset_vector+0x98>
   100cc:	10529073          	csrw	stvec,t0
   100d0:	0000b2b7          	lui	t0,0xb
   100d4:	10928293          	addi	t0,t0,265 # b109 <_start-0x4ef7>
   100d8:	30229073          	csrw	medeleg,t0
   100dc:	30202373          	csrr	t1,medeleg
   100e0:	f4629ee3          	bne	t0,t1,1003c <handle_exception>
   100e4:	30005073          	csrwi	mstatus,0
   100e8:	00002537          	lui	a0,0x2
   100ec:	80050513          	addi	a0,a0,-2048 # 1800 <_start-0xe800>
   100f0:	30052073          	csrs	mstatus,a0
   100f4:	00000297          	auipc	t0,0x0
   100f8:	01428293          	addi	t0,t0,20 # 10108 <reset_vector+0xbc>
   100fc:	34129073          	csrw	mepc,t0
   10100:	f1402573          	csrr	a0,mhartid
   10104:	30200073          	mret
   10108:	00002817          	auipc	a6,0x2
   1010c:	ef880813          	addi	a6,a6,-264 # 12000 <begin_signature>
   10110:	42727037          	lui	zero,0x42727
   10114:	e6f00013          	li	zero,-401
   10118:	563330b7          	lui	ra,0x56333
   1011c:	24908093          	addi	ra,ra,585 # 56333249 <_end+0x563211b9>
   10120:	2d562137          	lui	sp,0x2d562
   10124:	05210113          	addi	sp,sp,82 # 2d562052 <_end+0x2d54ffc2>
   10128:	526971b7          	lui	gp,0x52697
   1012c:	36318193          	addi	gp,gp,867 # 52697363 <_end+0x526852d3>
   10130:	736b8237          	lui	tp,0x736b8
   10134:	92020213          	addi	tp,tp,-1760 # 736b7920 <_end+0x736a5890>
   10138:	737462b7          	lui	t0,0x73746
   1013c:	57228293          	addi	t0,t0,1394 # 73746572 <_end+0x737344e2>
   10140:	6e205337          	lui	t1,0x6e205
   10144:	e6f30313          	addi	t1,t1,-401 # 6e204e6f <_end+0x6e1f2ddf>
   10148:	4d6973b7          	lui	t2,0x4d697
   1014c:	c6138393          	addi	t2,t2,-927 # 4d696c61 <_end+0x4d684bd1>
   10150:	6f646437          	lui	s0,0x6f646
   10154:	17340413          	addi	s0,s0,371 # 6f646173 <_end+0x6f6340e3>
   10158:	6b7944b7          	lui	s1,0x6b794
   1015c:	06348493          	addi	s1,s1,99 # 6b794063 <_end+0x6b781fd3>
   10160:	74657537          	lui	a0,0x74657
   10164:	27350513          	addi	a0,a0,627 # 74657273 <_end+0x746451e3>
   10168:	286e75b7          	lui	a1,0x286e7
   1016c:	f7358593          	addi	a1,a1,-141 # 286e6f73 <_end+0x286d4ee3>
   10170:	656b2637          	lui	a2,0x656b2
   10174:	04860613          	addi	a2,a2,72 # 656b2048 <_end+0x6569ffb8>
   10178:	205266b7          	lui	a3,0x20526
   1017c:	16468693          	addi	a3,a3,356 # 20526164 <_end+0x205140d4>
   10180:	6f6d3737          	lui	a4,0x6f6d3
   10184:	92c70713          	addi	a4,a4,-1748 # 6f6d292c <_end+0x6f6c089c>
   10188:	697037b7          	lui	a5,0x69703
   1018c:	e6378793          	addi	a5,a5,-413 # 69702e63 <_end+0x696f0dd3>
   10190:	00082023          	sw	zero,0(a6)
   10194:	00182223          	sw	ra,4(a6)
   10198:	00282423          	sw	sp,8(a6)
   1019c:	00382623          	sw	gp,12(a6)
   101a0:	00482823          	sw	tp,16(a6)
   101a4:	00582a23          	sw	t0,20(a6)
   101a8:	00682c23          	sw	t1,24(a6)
   101ac:	00782e23          	sw	t2,28(a6)
   101b0:	02882023          	sw	s0,32(a6)
   101b4:	02982223          	sw	s1,36(a6)
   101b8:	02a82423          	sw	a0,40(a6)
   101bc:	02b82623          	sw	a1,44(a6)
   101c0:	02c82823          	sw	a2,48(a6)
   101c4:	02d82a23          	sw	a3,52(a6)
   101c8:	02e82c23          	sw	a4,56(a6)
   101cc:	02f82e23          	sw	a5,60(a6)
   101d0:	00002217          	auipc	tp,0x2
   101d4:	e7020213          	addi	tp,tp,-400 # 12040 <test_A2_res>
   101d8:	636f6837          	lui	a6,0x636f6
   101dc:	46180813          	addi	a6,a6,1121 # 636f6461 <_end+0x636e43d1>
   101e0:	6a6578b7          	lui	a7,0x6a657
   101e4:	b4088893          	addi	a7,a7,-1216 # 6a656b40 <_end+0x6a644ab0>
   101e8:	20287937          	lui	s2,0x20287
   101ec:	86190913          	addi	s2,s2,-1951 # 20286861 <_end+0x202747d1>
   101f0:	616a69b7          	lui	s3,0x616a6
   101f4:	56b98993          	addi	s3,s3,1387 # 616a656b <_end+0x616944db>
   101f8:	61766a37          	lui	s4,0x61766
   101fc:	520a0a13          	addi	s4,s4,1312 # 61766520 <_end+0x61754490>
   10200:	2e205ab7          	lui	s5,0x2e205
   10204:	c65a8a93          	addi	s5,s5,-923 # 2e204c65 <_end+0x2e1f2bd5>
   10208:	636f7b37          	lui	s6,0x636f7
   1020c:	d29b0b13          	addi	s6,s6,-727 # 636f6d29 <_end+0x636e4c99>
   10210:	73697bb7          	lui	s7,0x73697
   10214:	02eb8b93          	addi	s7,s7,46 # 7369702e <_end+0x73684f9e>
   10218:	66208c37          	lui	s8,0x66208
   1021c:	96fc0c13          	addi	s8,s8,-1681 # 6620796f <_end+0x661f58df>
   10220:	67652cb7          	lui	s9,0x67652
   10224:	069c8c93          	addi	s9,s9,105 # 67652069 <_end+0x6763ffd9>
   10228:	65737d37          	lui	s10,0x65737
   1022c:	361d0d13          	addi	s10,s10,865 # 65737361 <_end+0x657252d1>
   10230:	75732db7          	lui	s11,0x75732
   10234:	06dd8d93          	addi	s11,s11,109 # 7573206d <_end+0x7571ffdd>
   10238:	3a291e37          	lui	t3,0x3a291
   1023c:	d0ae0e13          	addi	t3,t3,-758 # 3a290d0a <_end+0x3a27ec7a>
   10240:	68697eb7          	lui	t4,0x68697
   10244:	320e8e93          	addi	t4,t4,800 # 68697320 <_end+0x68685290>
   10248:	61642f37          	lui	t5,0x61642
   1024c:	074f0f13          	addi	t5,t5,116 # 61642074 <_end+0x6162ffe4>
   10250:	75207fb7          	lui	t6,0x75207
   10254:	265f8f93          	addi	t6,t6,613 # 75207265 <_end+0x751f51d5>
   10258:	01022023          	sw	a6,0(tp) # 0 <_start-0x10000>
   1025c:	01122223          	sw	a7,4(tp) # 4 <_start-0xfffc>
   10260:	01222423          	sw	s2,8(tp) # 8 <_start-0xfff8>
   10264:	01322623          	sw	s3,12(tp) # c <_start-0xfff4>
   10268:	01422823          	sw	s4,16(tp) # 10 <_start-0xfff0>
   1026c:	01522a23          	sw	s5,20(tp) # 14 <_start-0xffec>
   10270:	01622c23          	sw	s6,24(tp) # 18 <_start-0xffe8>
   10274:	01722e23          	sw	s7,28(tp) # 1c <_start-0xffe4>
   10278:	03822023          	sw	s8,32(tp) # 20 <_start-0xffe0>
   1027c:	03922223          	sw	s9,36(tp) # 24 <_start-0xffdc>
   10280:	03a22423          	sw	s10,40(tp) # 28 <_start-0xffd8>
   10284:	03b22623          	sw	s11,44(tp) # 2c <_start-0xffd4>
   10288:	03c22823          	sw	t3,48(tp) # 30 <_start-0xffd0>
   1028c:	03d22a23          	sw	t4,52(tp) # 34 <_start-0xffcc>
   10290:	03e22c23          	sw	t5,56(tp) # 38 <_start-0xffc8>
   10294:	03f22e23          	sw	t6,60(tp) # 3c <_start-0xffc4>
   10298:	00002217          	auipc	tp,0x2
   1029c:	de820213          	addi	tp,tp,-536 # 12080 <test_A3_res>
   102a0:	00022023          	sw	zero,0(tp) # 0 <_start-0x10000>
   102a4:	00122223          	sw	ra,4(tp) # 4 <_start-0xfffc>
   102a8:	00222423          	sw	sp,8(tp) # 8 <_start-0xfff8>
   102ac:	00322623          	sw	gp,12(tp) # c <_start-0xfff4>
   102b0:	00000013          	nop
   102b4:	00100193          	li	gp,1
   102b8:	00000073          	ecall
   102bc:	c0001073          	unimp
   102c0:	0000                	unimp
	...

Disassembly of section .tohost:

00011000 <tohost>:
	...

00011100 <fromhost>:
	...
