
/home/benselfridge/riscv-compliance/work//I-RF_x0-01.elf:     file format elf32-littleriscv


Disassembly of section .text.init:

00010000 <_start>:
   10000:	04c0006f          	j	1004c <reset_vector>

00010004 <trap_vector>:
   10004:	34202f73          	csrr	t5,mcause
   10008:	00800f93          	li	t6,8
   1000c:	03ff0a63          	beq	t5,t6,10040 <write_tohost>
   10010:	00900f93          	li	t6,9
   10014:	03ff0663          	beq	t5,t6,10040 <write_tohost>
   10018:	00b00f93          	li	t6,11
   1001c:	03ff0263          	beq	t5,t6,10040 <write_tohost>
   10020:	ffff0f17          	auipc	t5,0xffff0
   10024:	fe0f0f13          	addi	t5,t5,-32 # 0 <_start-0x10000>
   10028:	000f0463          	beqz	t5,10030 <trap_vector+0x2c>
   1002c:	000f0067          	jr	t5
   10030:	34202f73          	csrr	t5,mcause
   10034:	000f5463          	bgez	t5,1003c <handle_exception>
   10038:	0040006f          	j	1003c <handle_exception>

0001003c <handle_exception>:
   1003c:	5391e193          	ori	gp,gp,1337

00010040 <write_tohost>:
   10040:	00001f17          	auipc	t5,0x1
   10044:	fc3f2023          	sw	gp,-64(t5) # 11000 <tohost>
   10048:	ff9ff06f          	j	10040 <write_tohost>

0001004c <reset_vector>:
   1004c:	f1402573          	csrr	a0,mhartid
   10050:	00051063          	bnez	a0,10050 <reset_vector+0x4>
   10054:	00000297          	auipc	t0,0x0
   10058:	01028293          	addi	t0,t0,16 # 10064 <reset_vector+0x18>
   1005c:	30529073          	csrw	mtvec,t0
   10060:	18005073          	csrwi	satp,0
   10064:	00000297          	auipc	t0,0x0
   10068:	01c28293          	addi	t0,t0,28 # 10080 <reset_vector+0x34>
   1006c:	30529073          	csrw	mtvec,t0
   10070:	fff00293          	li	t0,-1
   10074:	3b029073          	csrw	pmpaddr0,t0
   10078:	01f00293          	li	t0,31
   1007c:	3a029073          	csrw	pmpcfg0,t0
   10080:	00000297          	auipc	t0,0x0
   10084:	01828293          	addi	t0,t0,24 # 10098 <reset_vector+0x4c>
   10088:	30529073          	csrw	mtvec,t0
   1008c:	30205073          	csrwi	medeleg,0
   10090:	30305073          	csrwi	mideleg,0
   10094:	30405073          	csrwi	mie,0
   10098:	00000193          	li	gp,0
   1009c:	00000297          	auipc	t0,0x0
   100a0:	f6828293          	addi	t0,t0,-152 # 10004 <trap_vector>
   100a4:	30529073          	csrw	mtvec,t0
   100a8:	00100513          	li	a0,1
   100ac:	01f51513          	slli	a0,a0,0x1f
   100b0:	00054863          	bltz	a0,100c0 <reset_vector+0x74>
   100b4:	0000100f          	fence.i
   100b8:	00100193          	li	gp,1
   100bc:	00000073          	ecall
   100c0:	ffff0297          	auipc	t0,0xffff0
   100c4:	f4028293          	addi	t0,t0,-192 # 0 <_start-0x10000>
   100c8:	00028e63          	beqz	t0,100e4 <reset_vector+0x98>
   100cc:	10529073          	csrw	stvec,t0
   100d0:	0000b2b7          	lui	t0,0xb
   100d4:	10928293          	addi	t0,t0,265 # b109 <_start-0x4ef7>
   100d8:	30229073          	csrw	medeleg,t0
   100dc:	30202373          	csrr	t1,medeleg
   100e0:	f4629ee3          	bne	t0,t1,1003c <handle_exception>
   100e4:	30005073          	csrwi	mstatus,0
   100e8:	00002537          	lui	a0,0x2
   100ec:	80050513          	addi	a0,a0,-2048 # 1800 <_start-0xe800>
   100f0:	30052073          	csrs	mstatus,a0
   100f4:	00000297          	auipc	t0,0x0
   100f8:	01428293          	addi	t0,t0,20 # 10108 <reset_vector+0xbc>
   100fc:	34129073          	csrw	mepc,t0
   10100:	f1402573          	csrr	a0,mhartid
   10104:	30200073          	mret
   10108:	00000293          	li	t0,0
   1010c:	08500e63          	beq	zero,t0,101a8 <reset_vector+0x15c>
   10110:	00003517          	auipc	a0,0x3
   10114:	f3050513          	addi	a0,a0,-208 # 13040 <end_signature>
   10118:	6e9010ef          	jal	ra,12000 <FN_WriteStr>
   1011c:	00003517          	auipc	a0,0x3
   10120:	f3f50513          	addi	a0,a0,-193 # 1305b <end_signature+0x1b>
   10124:	6dd010ef          	jal	ra,12000 <FN_WriteStr>
   10128:	00003517          	auipc	a0,0x3
   1012c:	f4450513          	addi	a0,a0,-188 # 1306c <end_signature+0x2c>
   10130:	6d1010ef          	jal	ra,12000 <FN_WriteStr>
   10134:	00003517          	auipc	a0,0x3
   10138:	f4050513          	addi	a0,a0,-192 # 13074 <end_signature+0x34>
   1013c:	6c5010ef          	jal	ra,12000 <FN_WriteStr>
   10140:	00003517          	auipc	a0,0x3
   10144:	f3750513          	addi	a0,a0,-201 # 13077 <end_signature+0x37>
   10148:	6b9010ef          	jal	ra,12000 <FN_WriteStr>
   1014c:	00003517          	auipc	a0,0x3
   10150:	f2e50513          	addi	a0,a0,-210 # 1307a <end_signature+0x3a>
   10154:	6ad010ef          	jal	ra,12000 <FN_WriteStr>
   10158:	00003517          	auipc	a0,0x3
   1015c:	f2550513          	addi	a0,a0,-219 # 1307d <end_signature+0x3d>
   10160:	6a1010ef          	jal	ra,12000 <FN_WriteStr>
   10164:	00000513          	li	a0,0
   10168:	6b5010ef          	jal	ra,1201c <FN_WriteA0>
   1016c:	00003517          	auipc	a0,0x3
   10170:	f1350513          	addi	a0,a0,-237 # 1307f <end_signature+0x3f>
   10174:	68d010ef          	jal	ra,12000 <FN_WriteStr>
   10178:	00003517          	auipc	a0,0x3
   1017c:	f0d50513          	addi	a0,a0,-243 # 13085 <end_signature+0x45>
   10180:	681010ef          	jal	ra,12000 <FN_WriteStr>
   10184:	00003517          	auipc	a0,0x3
   10188:	f0c50513          	addi	a0,a0,-244 # 13090 <end_signature+0x50>
   1018c:	675010ef          	jal	ra,12000 <FN_WriteStr>
   10190:	06400193          	li	gp,100
   10194:	0000100f          	fence.i
   10198:	00018063          	beqz	gp,10198 <reset_vector+0x14c>
   1019c:	00119193          	slli	gp,gp,0x1
   101a0:	0011e193          	ori	gp,gp,1
   101a4:	00000073          	ecall
   101a8:	00003517          	auipc	a0,0x3
   101ac:	eea50513          	addi	a0,a0,-278 # 13092 <end_signature+0x52>
   101b0:	651010ef          	jal	ra,12000 <FN_WriteStr>
   101b4:	00003517          	auipc	a0,0x3
   101b8:	f1050513          	addi	a0,a0,-240 # 130c4 <end_signature+0x84>
   101bc:	645010ef          	jal	ra,12000 <FN_WriteStr>
   101c0:	00003f97          	auipc	t6,0x3
   101c4:	e50f8f93          	addi	t6,t6,-432 # 13010 <begin_signature>
   101c8:	abcde037          	lui	zero,0xabcde
   101cc:	00100013          	li	zero,1
   101d0:	7f006013          	ori	zero,zero,2032
   101d4:	53f07013          	andi	zero,zero,1343
   101d8:	80304013          	xori	zero,zero,-2045
   101dc:	00501013          	slli	zero,zero,0x5
   101e0:	40205013          	srai	zero,zero,0x2
   101e4:	00405013          	srli	zero,zero,0x4
   101e8:	000fa023          	sw	zero,0(t6)
   101ec:	fff00013          	li	zero,-1
   101f0:	00000293          	li	t0,0
   101f4:	08500e63          	beq	zero,t0,10290 <reset_vector+0x244>
   101f8:	00003517          	auipc	a0,0x3
   101fc:	f1350513          	addi	a0,a0,-237 # 1310b <end_signature+0xcb>
   10200:	601010ef          	jal	ra,12000 <FN_WriteStr>
   10204:	00003517          	auipc	a0,0x3
   10208:	f2250513          	addi	a0,a0,-222 # 13126 <end_signature+0xe6>
   1020c:	5f5010ef          	jal	ra,12000 <FN_WriteStr>
   10210:	00003517          	auipc	a0,0x3
   10214:	f2750513          	addi	a0,a0,-217 # 13137 <end_signature+0xf7>
   10218:	5e9010ef          	jal	ra,12000 <FN_WriteStr>
   1021c:	00003517          	auipc	a0,0x3
   10220:	f2350513          	addi	a0,a0,-221 # 1313f <end_signature+0xff>
   10224:	5dd010ef          	jal	ra,12000 <FN_WriteStr>
   10228:	00003517          	auipc	a0,0x3
   1022c:	f1a50513          	addi	a0,a0,-230 # 13142 <end_signature+0x102>
   10230:	5d1010ef          	jal	ra,12000 <FN_WriteStr>
   10234:	00003517          	auipc	a0,0x3
   10238:	f1150513          	addi	a0,a0,-239 # 13145 <end_signature+0x105>
   1023c:	5c5010ef          	jal	ra,12000 <FN_WriteStr>
   10240:	00003517          	auipc	a0,0x3
   10244:	f0850513          	addi	a0,a0,-248 # 13148 <end_signature+0x108>
   10248:	5b9010ef          	jal	ra,12000 <FN_WriteStr>
   1024c:	00000513          	li	a0,0
   10250:	5cd010ef          	jal	ra,1201c <FN_WriteA0>
   10254:	00003517          	auipc	a0,0x3
   10258:	ef650513          	addi	a0,a0,-266 # 1314a <end_signature+0x10a>
   1025c:	5a5010ef          	jal	ra,12000 <FN_WriteStr>
   10260:	00003517          	auipc	a0,0x3
   10264:	ef050513          	addi	a0,a0,-272 # 13150 <end_signature+0x110>
   10268:	599010ef          	jal	ra,12000 <FN_WriteStr>
   1026c:	00003517          	auipc	a0,0x3
   10270:	eef50513          	addi	a0,a0,-273 # 1315b <end_signature+0x11b>
   10274:	58d010ef          	jal	ra,12000 <FN_WriteStr>
   10278:	06400193          	li	gp,100
   1027c:	0000100f          	fence.i
   10280:	00018063          	beqz	gp,10280 <reset_vector+0x234>
   10284:	00119193          	slli	gp,gp,0x1
   10288:	0011e193          	ori	gp,gp,1
   1028c:	00000073          	ecall
   10290:	00003517          	auipc	a0,0x3
   10294:	ecd50513          	addi	a0,a0,-307 # 1315d <end_signature+0x11d>
   10298:	569010ef          	jal	ra,12000 <FN_WriteStr>
   1029c:	00003517          	auipc	a0,0x3
   102a0:	edd50513          	addi	a0,a0,-291 # 13179 <end_signature+0x139>
   102a4:	55d010ef          	jal	ra,12000 <FN_WriteStr>
   102a8:	00003f97          	auipc	t6,0x3
   102ac:	d6cf8f93          	addi	t6,t6,-660 # 13014 <test_A2_res>
   102b0:	00100093          	li	ra,1
   102b4:	7f000113          	li	sp,2032
   102b8:	53f00193          	li	gp,1343
   102bc:	80300213          	li	tp,-2045
   102c0:	00500293          	li	t0,5
   102c4:	00200313          	li	t1,2
   102c8:	00400393          	li	t2,4
   102cc:	01800413          	li	s0,24
   102d0:	abcde017          	auipc	zero,0xabcde
   102d4:	00100033          	add	zero,zero,ra
   102d8:	00206033          	or	zero,zero,sp
   102dc:	00307033          	and	zero,zero,gp
   102e0:	00404033          	xor	zero,zero,tp
   102e4:	00501033          	sll	zero,zero,t0
   102e8:	40605033          	sra	zero,zero,t1
   102ec:	00705033          	srl	zero,zero,t2
   102f0:	40800033          	neg	zero,s0
   102f4:	000fa023          	sw	zero,0(t6)
   102f8:	00000293          	li	t0,0
   102fc:	08500e63          	beq	zero,t0,10398 <reset_vector+0x34c>
   10300:	00003517          	auipc	a0,0x3
   10304:	ebf50513          	addi	a0,a0,-321 # 131bf <end_signature+0x17f>
   10308:	4f9010ef          	jal	ra,12000 <FN_WriteStr>
   1030c:	00003517          	auipc	a0,0x3
   10310:	ece50513          	addi	a0,a0,-306 # 131da <end_signature+0x19a>
   10314:	4ed010ef          	jal	ra,12000 <FN_WriteStr>
   10318:	00003517          	auipc	a0,0x3
   1031c:	ed350513          	addi	a0,a0,-301 # 131eb <end_signature+0x1ab>
   10320:	4e1010ef          	jal	ra,12000 <FN_WriteStr>
   10324:	00003517          	auipc	a0,0x3
   10328:	ecf50513          	addi	a0,a0,-305 # 131f3 <end_signature+0x1b3>
   1032c:	4d5010ef          	jal	ra,12000 <FN_WriteStr>
   10330:	00003517          	auipc	a0,0x3
   10334:	ec750513          	addi	a0,a0,-313 # 131f7 <end_signature+0x1b7>
   10338:	4c9010ef          	jal	ra,12000 <FN_WriteStr>
   1033c:	00003517          	auipc	a0,0x3
   10340:	ebe50513          	addi	a0,a0,-322 # 131fa <end_signature+0x1ba>
   10344:	4bd010ef          	jal	ra,12000 <FN_WriteStr>
   10348:	00003517          	auipc	a0,0x3
   1034c:	eb550513          	addi	a0,a0,-331 # 131fd <end_signature+0x1bd>
   10350:	4b1010ef          	jal	ra,12000 <FN_WriteStr>
   10354:	00000513          	li	a0,0
   10358:	4c5010ef          	jal	ra,1201c <FN_WriteA0>
   1035c:	00003517          	auipc	a0,0x3
   10360:	ea350513          	addi	a0,a0,-349 # 131ff <end_signature+0x1bf>
   10364:	49d010ef          	jal	ra,12000 <FN_WriteStr>
   10368:	00003517          	auipc	a0,0x3
   1036c:	e9d50513          	addi	a0,a0,-355 # 13205 <end_signature+0x1c5>
   10370:	491010ef          	jal	ra,12000 <FN_WriteStr>
   10374:	00003517          	auipc	a0,0x3
   10378:	e9c50513          	addi	a0,a0,-356 # 13210 <end_signature+0x1d0>
   1037c:	485010ef          	jal	ra,12000 <FN_WriteStr>
   10380:	06400193          	li	gp,100
   10384:	0000100f          	fence.i
   10388:	00018063          	beqz	gp,10388 <reset_vector+0x33c>
   1038c:	00119193          	slli	gp,gp,0x1
   10390:	0011e193          	ori	gp,gp,1
   10394:	00000073          	ecall
   10398:	00003517          	auipc	a0,0x3
   1039c:	e7a50513          	addi	a0,a0,-390 # 13212 <end_signature+0x1d2>
   103a0:	461010ef          	jal	ra,12000 <FN_WriteStr>
   103a4:	00003517          	auipc	a0,0x3
   103a8:	e8a50513          	addi	a0,a0,-374 # 1322e <end_signature+0x1ee>
   103ac:	455010ef          	jal	ra,12000 <FN_WriteStr>
   103b0:	00003f97          	auipc	t6,0x3
   103b4:	c68f8f93          	addi	t6,t6,-920 # 13018 <test_A3_res>
   103b8:	00100093          	li	ra,1
   103bc:	00200113          	li	sp,2
   103c0:	0020a033          	slt	zero,ra,sp
   103c4:	000fa023          	sw	zero,0(t6)
   103c8:	0020b033          	sltu	zero,ra,sp
   103cc:	000fa223          	sw	zero,4(t6)
   103d0:	0020a013          	slti	zero,ra,2
   103d4:	000fa423          	sw	zero,8(t6)
   103d8:	0020b013          	sltiu	zero,ra,2
   103dc:	000fa623          	sw	zero,12(t6)
   103e0:	00003517          	auipc	a0,0x3
   103e4:	e7a50513          	addi	a0,a0,-390 # 1325a <end_signature+0x21a>
   103e8:	419010ef          	jal	ra,12000 <FN_WriteStr>
   103ec:	00003517          	auipc	a0,0x3
   103f0:	e8a50513          	addi	a0,a0,-374 # 13276 <end_signature+0x236>
   103f4:	40d010ef          	jal	ra,12000 <FN_WriteStr>
   103f8:	00003f97          	auipc	t6,0x3
   103fc:	c30f8f93          	addi	t6,t6,-976 # 13028 <test_A4_res>
   10400:	0040006f          	j	10404 <reset_vector+0x3b8>
   10404:	000fa023          	sw	zero,0(t6)
   10408:	00000097          	auipc	ra,0x0
   1040c:	00c08093          	addi	ra,ra,12 # 10414 <reset_vector+0x3c8>
   10410:	00008067          	ret
   10414:	000fa223          	sw	zero,4(t6)
   10418:	00003517          	auipc	a0,0x3
   1041c:	e9050513          	addi	a0,a0,-368 # 132a8 <end_signature+0x268>
   10420:	3e1010ef          	jal	ra,12000 <FN_WriteStr>
   10424:	00003517          	auipc	a0,0x3
   10428:	ea050513          	addi	a0,a0,-352 # 132c4 <end_signature+0x284>
   1042c:	3d5010ef          	jal	ra,12000 <FN_WriteStr>
   10430:	00003097          	auipc	ra,0x3
   10434:	bd008093          	addi	ra,ra,-1072 # 13000 <test_A5_data>
   10438:	00003f97          	auipc	t6,0x3
   1043c:	bf8f8f93          	addi	t6,t6,-1032 # 13030 <test_A5_res>
   10440:	0000a003          	lw	zero,0(ra)
   10444:	000fa023          	sw	zero,0(t6)
   10448:	00009003          	lh	zero,0(ra)
   1044c:	000fa223          	sw	zero,4(t6)
   10450:	00008003          	lb	zero,0(ra)
   10454:	000fa423          	sw	zero,8(t6)
   10458:	0000c003          	lbu	zero,0(ra)
   1045c:	000fa623          	sw	zero,12(t6)
   10460:	00003517          	auipc	a0,0x3
   10464:	e8d50513          	addi	a0,a0,-371 # 132ed <end_signature+0x2ad>
   10468:	399010ef          	jal	ra,12000 <FN_WriteStr>
   1046c:	00003517          	auipc	a0,0x3
   10470:	e9d50513          	addi	a0,a0,-355 # 13309 <end_signature+0x2c9>
   10474:	38d010ef          	jal	ra,12000 <FN_WriteStr>
   10478:	0000100f          	fence.i
   1047c:	00100193          	li	gp,1
   10480:	00000073          	ecall
   10484:	c0001073          	unimp
	...

Disassembly of section .tohost:

00011000 <tohost>:
	...

00011100 <fromhost>:
	...

Disassembly of section .text:

00012000 <FN_WriteStr>:
   12000:	00050293          	mv	t0,a0
   12004:	0002c503          	lbu	a0,0(t0)
   12008:	00128293          	addi	t0,t0,1
   1200c:	00050663          	beqz	a0,12018 <FN_WriteStr+0x18>
   12010:	0005200b          	0x5200b
   12014:	ff1ff06f          	j	12004 <FN_WriteStr+0x4>
   12018:	00008067          	ret

0001201c <FN_WriteA0>:
   1201c:	00050293          	mv	t0,a0
   12020:	fff00513          	li	a0,-1
   12024:	01f55513          	srli	a0,a0,0x1f
   12028:	00155513          	srli	a0,a0,0x1
   1202c:	02051463          	bnez	a0,12054 <FN_WriteA0_64>

00012030 <FN_WriteA0_32>:
   12030:	00800313          	li	t1,8
   12034:	00439393          	slli	t2,t2,0x4
   12038:	00f2f513          	andi	a0,t0,15
   1203c:	0042d293          	srli	t0,t0,0x4
   12040:	00a3e3b3          	or	t2,t2,a0
   12044:	fff30313          	addi	t1,t1,-1
   12048:	fe0316e3          	bnez	t1,12034 <FN_WriteA0_32+0x4>
   1204c:	00800313          	li	t1,8
   12050:	0240006f          	j	12074 <FN_WriteA0_common>

00012054 <FN_WriteA0_64>:
   12054:	01000313          	li	t1,16
   12058:	00439393          	slli	t2,t2,0x4
   1205c:	00f2f513          	andi	a0,t0,15
   12060:	0042d293          	srli	t0,t0,0x4
   12064:	00a3e3b3          	or	t2,t2,a0
   12068:	fff30313          	addi	t1,t1,-1
   1206c:	fe0316e3          	bnez	t1,12058 <FN_WriteA0_64+0x4>
   12070:	01000313          	li	t1,16

00012074 <FN_WriteA0_common>:
   12074:	00a00293          	li	t0,10
   12078:	00f3f513          	andi	a0,t2,15
   1207c:	00554663          	blt	a0,t0,12088 <FN_WriteA0_common+0x14>
   12080:	05750513          	addi	a0,a0,87
   12084:	0080006f          	j	1208c <FN_WriteA0_common+0x18>
   12088:	03050513          	addi	a0,a0,48
   1208c:	0005200b          	0x5200b
   12090:	0043d393          	srli	t2,t2,0x4
   12094:	fff30313          	addi	t1,t1,-1
   12098:	fe0310e3          	bnez	t1,12078 <FN_WriteA0_common+0x4>
   1209c:	00008067          	ret
