
/home/benselfridge/riscv-compliance/work//I-RF_size-01.elf:     file format elf32-littleriscv


Disassembly of section .text.init:

00010000 <_start>:
   10000:	04c0006f          	j	1004c <reset_vector>

00010004 <trap_vector>:
   10004:	34202f73          	csrr	t5,mcause
   10008:	00800f93          	li	t6,8
   1000c:	03ff0a63          	beq	t5,t6,10040 <write_tohost>
   10010:	00900f93          	li	t6,9
   10014:	03ff0663          	beq	t5,t6,10040 <write_tohost>
   10018:	00b00f93          	li	t6,11
   1001c:	03ff0263          	beq	t5,t6,10040 <write_tohost>
   10020:	ffff0f17          	auipc	t5,0xffff0
   10024:	fe0f0f13          	addi	t5,t5,-32 # 0 <_start-0x10000>
   10028:	000f0463          	beqz	t5,10030 <trap_vector+0x2c>
   1002c:	000f0067          	jr	t5
   10030:	34202f73          	csrr	t5,mcause
   10034:	000f5463          	bgez	t5,1003c <handle_exception>
   10038:	0040006f          	j	1003c <handle_exception>

0001003c <handle_exception>:
   1003c:	5391e193          	ori	gp,gp,1337

00010040 <write_tohost>:
   10040:	00002f17          	auipc	t5,0x2
   10044:	fc3f2023          	sw	gp,-64(t5) # 12000 <tohost>
   10048:	ff9ff06f          	j	10040 <write_tohost>

0001004c <reset_vector>:
   1004c:	f1402573          	csrr	a0,mhartid
   10050:	00051063          	bnez	a0,10050 <reset_vector+0x4>
   10054:	00000297          	auipc	t0,0x0
   10058:	01028293          	addi	t0,t0,16 # 10064 <reset_vector+0x18>
   1005c:	30529073          	csrw	mtvec,t0
   10060:	18005073          	csrwi	satp,0
   10064:	00000297          	auipc	t0,0x0
   10068:	01c28293          	addi	t0,t0,28 # 10080 <reset_vector+0x34>
   1006c:	30529073          	csrw	mtvec,t0
   10070:	fff00293          	li	t0,-1
   10074:	3b029073          	csrw	pmpaddr0,t0
   10078:	01f00293          	li	t0,31
   1007c:	3a029073          	csrw	pmpcfg0,t0
   10080:	00000297          	auipc	t0,0x0
   10084:	01828293          	addi	t0,t0,24 # 10098 <reset_vector+0x4c>
   10088:	30529073          	csrw	mtvec,t0
   1008c:	30205073          	csrwi	medeleg,0
   10090:	30305073          	csrwi	mideleg,0
   10094:	30405073          	csrwi	mie,0
   10098:	00000193          	li	gp,0
   1009c:	00000297          	auipc	t0,0x0
   100a0:	f6828293          	addi	t0,t0,-152 # 10004 <trap_vector>
   100a4:	30529073          	csrw	mtvec,t0
   100a8:	00100513          	li	a0,1
   100ac:	01f51513          	slli	a0,a0,0x1f
   100b0:	00054863          	bltz	a0,100c0 <reset_vector+0x74>
   100b4:	0000100f          	fence.i
   100b8:	00100193          	li	gp,1
   100bc:	00000073          	ecall
   100c0:	ffff0297          	auipc	t0,0xffff0
   100c4:	f4028293          	addi	t0,t0,-192 # 0 <_start-0x10000>
   100c8:	00028e63          	beqz	t0,100e4 <reset_vector+0x98>
   100cc:	10529073          	csrw	stvec,t0
   100d0:	0000b2b7          	lui	t0,0xb
   100d4:	10928293          	addi	t0,t0,265 # b109 <_start-0x4ef7>
   100d8:	30229073          	csrw	medeleg,t0
   100dc:	30202373          	csrr	t1,medeleg
   100e0:	f4629ee3          	bne	t0,t1,1003c <handle_exception>
   100e4:	30005073          	csrwi	mstatus,0
   100e8:	00002537          	lui	a0,0x2
   100ec:	80050513          	addi	a0,a0,-2048 # 1800 <_start-0xe800>
   100f0:	30052073          	csrs	mstatus,a0
   100f4:	00000297          	auipc	t0,0x0
   100f8:	01428293          	addi	t0,t0,20 # 10108 <reset_vector+0xbc>
   100fc:	34129073          	csrw	mepc,t0
   10100:	f1402573          	csrr	a0,mhartid
   10104:	30200073          	mret
   10108:	00000293          	li	t0,0
   1010c:	08500e63          	beq	zero,t0,101a8 <reset_vector+0x15c>
   10110:	00004517          	auipc	a0,0x4
   10114:	f8050513          	addi	a0,a0,-128 # 14090 <end_signature>
   10118:	6e9020ef          	jal	ra,13000 <FN_WriteStr>
   1011c:	00004517          	auipc	a0,0x4
   10120:	f8f50513          	addi	a0,a0,-113 # 140ab <end_signature+0x1b>
   10124:	6dd020ef          	jal	ra,13000 <FN_WriteStr>
   10128:	00004517          	auipc	a0,0x4
   1012c:	f9650513          	addi	a0,a0,-106 # 140be <end_signature+0x2e>
   10130:	6d1020ef          	jal	ra,13000 <FN_WriteStr>
   10134:	00004517          	auipc	a0,0x4
   10138:	f9250513          	addi	a0,a0,-110 # 140c6 <end_signature+0x36>
   1013c:	6c5020ef          	jal	ra,13000 <FN_WriteStr>
   10140:	00004517          	auipc	a0,0x4
   10144:	f8950513          	addi	a0,a0,-119 # 140c9 <end_signature+0x39>
   10148:	6b9020ef          	jal	ra,13000 <FN_WriteStr>
   1014c:	00004517          	auipc	a0,0x4
   10150:	f8050513          	addi	a0,a0,-128 # 140cc <end_signature+0x3c>
   10154:	6ad020ef          	jal	ra,13000 <FN_WriteStr>
   10158:	00004517          	auipc	a0,0x4
   1015c:	f7750513          	addi	a0,a0,-137 # 140cf <end_signature+0x3f>
   10160:	6a1020ef          	jal	ra,13000 <FN_WriteStr>
   10164:	00000513          	li	a0,0
   10168:	6b5020ef          	jal	ra,1301c <FN_WriteA0>
   1016c:	00004517          	auipc	a0,0x4
   10170:	f6550513          	addi	a0,a0,-155 # 140d1 <end_signature+0x41>
   10174:	68d020ef          	jal	ra,13000 <FN_WriteStr>
   10178:	00004517          	auipc	a0,0x4
   1017c:	f5f50513          	addi	a0,a0,-161 # 140d7 <end_signature+0x47>
   10180:	681020ef          	jal	ra,13000 <FN_WriteStr>
   10184:	00004517          	auipc	a0,0x4
   10188:	f5e50513          	addi	a0,a0,-162 # 140e2 <end_signature+0x52>
   1018c:	675020ef          	jal	ra,13000 <FN_WriteStr>
   10190:	06400193          	li	gp,100
   10194:	0000100f          	fence.i
   10198:	00018063          	beqz	gp,10198 <reset_vector+0x14c>
   1019c:	00119193          	slli	gp,gp,0x1
   101a0:	0011e193          	ori	gp,gp,1
   101a4:	00000073          	ecall
   101a8:	00004817          	auipc	a6,0x4
   101ac:	e5880813          	addi	a6,a6,-424 # 14000 <begin_signature>
   101b0:	42727037          	lui	zero,0x42727
   101b4:	e6f00013          	li	zero,-401
   101b8:	563330b7          	lui	ra,0x56333
   101bc:	24908093          	addi	ra,ra,585 # 56333249 <_end+0x5631e763>
   101c0:	2d562137          	lui	sp,0x2d562
   101c4:	05210113          	addi	sp,sp,82 # 2d562052 <_end+0x2d54d56c>
   101c8:	526971b7          	lui	gp,0x52697
   101cc:	36318193          	addi	gp,gp,867 # 52697363 <_end+0x5268287d>
   101d0:	736b8237          	lui	tp,0x736b8
   101d4:	92020213          	addi	tp,tp,-1760 # 736b7920 <_end+0x736a2e3a>
   101d8:	737462b7          	lui	t0,0x73746
   101dc:	57228293          	addi	t0,t0,1394 # 73746572 <_end+0x73731a8c>
   101e0:	6e205337          	lui	t1,0x6e205
   101e4:	e6f30313          	addi	t1,t1,-401 # 6e204e6f <_end+0x6e1f0389>
   101e8:	4d6973b7          	lui	t2,0x4d697
   101ec:	c6138393          	addi	t2,t2,-927 # 4d696c61 <_end+0x4d68217b>
   101f0:	6f646437          	lui	s0,0x6f646
   101f4:	17340413          	addi	s0,s0,371 # 6f646173 <_end+0x6f63168d>
   101f8:	6b7944b7          	lui	s1,0x6b794
   101fc:	06348493          	addi	s1,s1,99 # 6b794063 <_end+0x6b77f57d>
   10200:	74657537          	lui	a0,0x74657
   10204:	27350513          	addi	a0,a0,627 # 74657273 <_end+0x7464278d>
   10208:	286e75b7          	lui	a1,0x286e7
   1020c:	f7358593          	addi	a1,a1,-141 # 286e6f73 <_end+0x286d248d>
   10210:	656b2637          	lui	a2,0x656b2
   10214:	04860613          	addi	a2,a2,72 # 656b2048 <_end+0x6569d562>
   10218:	205266b7          	lui	a3,0x20526
   1021c:	16468693          	addi	a3,a3,356 # 20526164 <_end+0x2051167e>
   10220:	6f6d3737          	lui	a4,0x6f6d3
   10224:	92c70713          	addi	a4,a4,-1748 # 6f6d292c <_end+0x6f6bde46>
   10228:	697037b7          	lui	a5,0x69703
   1022c:	e6378793          	addi	a5,a5,-413 # 69702e63 <_end+0x696ee37d>
   10230:	00082023          	sw	zero,0(a6)
   10234:	00182223          	sw	ra,4(a6)
   10238:	00282423          	sw	sp,8(a6)
   1023c:	00382623          	sw	gp,12(a6)
   10240:	00482823          	sw	tp,16(a6)
   10244:	00582a23          	sw	t0,20(a6)
   10248:	00682c23          	sw	t1,24(a6)
   1024c:	00782e23          	sw	t2,28(a6)
   10250:	02882023          	sw	s0,32(a6)
   10254:	02982223          	sw	s1,36(a6)
   10258:	02a82423          	sw	a0,40(a6)
   1025c:	02b82623          	sw	a1,44(a6)
   10260:	02c82823          	sw	a2,48(a6)
   10264:	02d82a23          	sw	a3,52(a6)
   10268:	02e82c23          	sw	a4,56(a6)
   1026c:	02f82e23          	sw	a5,60(a6)
   10270:	fff00013          	li	zero,-1
   10274:	00000293          	li	t0,0
   10278:	08500e63          	beq	zero,t0,10314 <reset_vector+0x2c8>
   1027c:	00004517          	auipc	a0,0x4
   10280:	e6850513          	addi	a0,a0,-408 # 140e4 <end_signature+0x54>
   10284:	57d020ef          	jal	ra,13000 <FN_WriteStr>
   10288:	00004517          	auipc	a0,0x4
   1028c:	e7750513          	addi	a0,a0,-393 # 140ff <end_signature+0x6f>
   10290:	571020ef          	jal	ra,13000 <FN_WriteStr>
   10294:	00004517          	auipc	a0,0x4
   10298:	e7e50513          	addi	a0,a0,-386 # 14112 <end_signature+0x82>
   1029c:	565020ef          	jal	ra,13000 <FN_WriteStr>
   102a0:	00004517          	auipc	a0,0x4
   102a4:	e7a50513          	addi	a0,a0,-390 # 1411a <end_signature+0x8a>
   102a8:	559020ef          	jal	ra,13000 <FN_WriteStr>
   102ac:	00004517          	auipc	a0,0x4
   102b0:	e7150513          	addi	a0,a0,-399 # 1411d <end_signature+0x8d>
   102b4:	54d020ef          	jal	ra,13000 <FN_WriteStr>
   102b8:	00004517          	auipc	a0,0x4
   102bc:	e6850513          	addi	a0,a0,-408 # 14120 <end_signature+0x90>
   102c0:	541020ef          	jal	ra,13000 <FN_WriteStr>
   102c4:	00004517          	auipc	a0,0x4
   102c8:	e5f50513          	addi	a0,a0,-417 # 14123 <end_signature+0x93>
   102cc:	535020ef          	jal	ra,13000 <FN_WriteStr>
   102d0:	00000513          	li	a0,0
   102d4:	549020ef          	jal	ra,1301c <FN_WriteA0>
   102d8:	00004517          	auipc	a0,0x4
   102dc:	e4d50513          	addi	a0,a0,-435 # 14125 <end_signature+0x95>
   102e0:	521020ef          	jal	ra,13000 <FN_WriteStr>
   102e4:	00004517          	auipc	a0,0x4
   102e8:	e4750513          	addi	a0,a0,-441 # 1412b <end_signature+0x9b>
   102ec:	515020ef          	jal	ra,13000 <FN_WriteStr>
   102f0:	00004517          	auipc	a0,0x4
   102f4:	e4650513          	addi	a0,a0,-442 # 14136 <end_signature+0xa6>
   102f8:	509020ef          	jal	ra,13000 <FN_WriteStr>
   102fc:	06400193          	li	gp,100
   10300:	0000100f          	fence.i
   10304:	00018063          	beqz	gp,10304 <reset_vector+0x2b8>
   10308:	00119193          	slli	gp,gp,0x1
   1030c:	0011e193          	ori	gp,gp,1
   10310:	00000073          	ecall
   10314:	2d5622b7          	lui	t0,0x2d562
   10318:	05228293          	addi	t0,t0,82 # 2d562052 <_end+0x2d54d56c>
   1031c:	08510e63          	beq	sp,t0,103b8 <reset_vector+0x36c>
   10320:	00004517          	auipc	a0,0x4
   10324:	e1850513          	addi	a0,a0,-488 # 14138 <end_signature+0xa8>
   10328:	4d9020ef          	jal	ra,13000 <FN_WriteStr>
   1032c:	00004517          	auipc	a0,0x4
   10330:	e2750513          	addi	a0,a0,-473 # 14153 <end_signature+0xc3>
   10334:	4cd020ef          	jal	ra,13000 <FN_WriteStr>
   10338:	00004517          	auipc	a0,0x4
   1033c:	e2e50513          	addi	a0,a0,-466 # 14166 <end_signature+0xd6>
   10340:	4c1020ef          	jal	ra,13000 <FN_WriteStr>
   10344:	00004517          	auipc	a0,0x4
   10348:	e2a50513          	addi	a0,a0,-470 # 1416e <end_signature+0xde>
   1034c:	4b5020ef          	jal	ra,13000 <FN_WriteStr>
   10350:	00004517          	auipc	a0,0x4
   10354:	e2150513          	addi	a0,a0,-479 # 14171 <end_signature+0xe1>
   10358:	4a9020ef          	jal	ra,13000 <FN_WriteStr>
   1035c:	00004517          	auipc	a0,0x4
   10360:	e1850513          	addi	a0,a0,-488 # 14174 <end_signature+0xe4>
   10364:	49d020ef          	jal	ra,13000 <FN_WriteStr>
   10368:	00004517          	auipc	a0,0x4
   1036c:	e0f50513          	addi	a0,a0,-497 # 14177 <end_signature+0xe7>
   10370:	491020ef          	jal	ra,13000 <FN_WriteStr>
   10374:	00010513          	mv	a0,sp
   10378:	4a5020ef          	jal	ra,1301c <FN_WriteA0>
   1037c:	00004517          	auipc	a0,0x4
   10380:	dfd50513          	addi	a0,a0,-515 # 14179 <end_signature+0xe9>
   10384:	47d020ef          	jal	ra,13000 <FN_WriteStr>
   10388:	00004517          	auipc	a0,0x4
   1038c:	df750513          	addi	a0,a0,-521 # 1417f <end_signature+0xef>
   10390:	471020ef          	jal	ra,13000 <FN_WriteStr>
   10394:	00004517          	auipc	a0,0x4
   10398:	df650513          	addi	a0,a0,-522 # 1418a <end_signature+0xfa>
   1039c:	465020ef          	jal	ra,13000 <FN_WriteStr>
   103a0:	06400193          	li	gp,100
   103a4:	0000100f          	fence.i
   103a8:	00018063          	beqz	gp,103a8 <reset_vector+0x35c>
   103ac:	00119193          	slli	gp,gp,0x1
   103b0:	0011e193          	ori	gp,gp,1
   103b4:	00000073          	ecall
   103b8:	526972b7          	lui	t0,0x52697
   103bc:	36328293          	addi	t0,t0,867 # 52697363 <_end+0x5268287d>
   103c0:	08518e63          	beq	gp,t0,1045c <reset_vector+0x410>
   103c4:	00004517          	auipc	a0,0x4
   103c8:	dc850513          	addi	a0,a0,-568 # 1418c <end_signature+0xfc>
   103cc:	435020ef          	jal	ra,13000 <FN_WriteStr>
   103d0:	00004517          	auipc	a0,0x4
   103d4:	dd750513          	addi	a0,a0,-553 # 141a7 <end_signature+0x117>
   103d8:	429020ef          	jal	ra,13000 <FN_WriteStr>
   103dc:	00004517          	auipc	a0,0x4
   103e0:	dde50513          	addi	a0,a0,-546 # 141ba <end_signature+0x12a>
   103e4:	41d020ef          	jal	ra,13000 <FN_WriteStr>
   103e8:	00004517          	auipc	a0,0x4
   103ec:	dda50513          	addi	a0,a0,-550 # 141c2 <end_signature+0x132>
   103f0:	411020ef          	jal	ra,13000 <FN_WriteStr>
   103f4:	00004517          	auipc	a0,0x4
   103f8:	dd150513          	addi	a0,a0,-559 # 141c5 <end_signature+0x135>
   103fc:	405020ef          	jal	ra,13000 <FN_WriteStr>
   10400:	00004517          	auipc	a0,0x4
   10404:	dc850513          	addi	a0,a0,-568 # 141c8 <end_signature+0x138>
   10408:	3f9020ef          	jal	ra,13000 <FN_WriteStr>
   1040c:	00004517          	auipc	a0,0x4
   10410:	dbf50513          	addi	a0,a0,-577 # 141cb <end_signature+0x13b>
   10414:	3ed020ef          	jal	ra,13000 <FN_WriteStr>
   10418:	00018513          	mv	a0,gp
   1041c:	401020ef          	jal	ra,1301c <FN_WriteA0>
   10420:	00004517          	auipc	a0,0x4
   10424:	dad50513          	addi	a0,a0,-595 # 141cd <end_signature+0x13d>
   10428:	3d9020ef          	jal	ra,13000 <FN_WriteStr>
   1042c:	00004517          	auipc	a0,0x4
   10430:	da750513          	addi	a0,a0,-601 # 141d3 <end_signature+0x143>
   10434:	3cd020ef          	jal	ra,13000 <FN_WriteStr>
   10438:	00004517          	auipc	a0,0x4
   1043c:	da650513          	addi	a0,a0,-602 # 141de <end_signature+0x14e>
   10440:	3c1020ef          	jal	ra,13000 <FN_WriteStr>
   10444:	06400193          	li	gp,100
   10448:	0000100f          	fence.i
   1044c:	00018063          	beqz	gp,1044c <reset_vector+0x400>
   10450:	00119193          	slli	gp,gp,0x1
   10454:	0011e193          	ori	gp,gp,1
   10458:	00000073          	ecall
   1045c:	736b82b7          	lui	t0,0x736b8
   10460:	92028293          	addi	t0,t0,-1760 # 736b7920 <_end+0x736a2e3a>
   10464:	08520e63          	beq	tp,t0,10500 <reset_vector+0x4b4>
   10468:	00004517          	auipc	a0,0x4
   1046c:	d7850513          	addi	a0,a0,-648 # 141e0 <end_signature+0x150>
   10470:	391020ef          	jal	ra,13000 <FN_WriteStr>
   10474:	00004517          	auipc	a0,0x4
   10478:	d8750513          	addi	a0,a0,-633 # 141fb <end_signature+0x16b>
   1047c:	385020ef          	jal	ra,13000 <FN_WriteStr>
   10480:	00004517          	auipc	a0,0x4
   10484:	d8e50513          	addi	a0,a0,-626 # 1420e <end_signature+0x17e>
   10488:	379020ef          	jal	ra,13000 <FN_WriteStr>
   1048c:	00004517          	auipc	a0,0x4
   10490:	d8a50513          	addi	a0,a0,-630 # 14216 <end_signature+0x186>
   10494:	36d020ef          	jal	ra,13000 <FN_WriteStr>
   10498:	00004517          	auipc	a0,0x4
   1049c:	d8150513          	addi	a0,a0,-639 # 14219 <end_signature+0x189>
   104a0:	361020ef          	jal	ra,13000 <FN_WriteStr>
   104a4:	00004517          	auipc	a0,0x4
   104a8:	d7850513          	addi	a0,a0,-648 # 1421c <end_signature+0x18c>
   104ac:	355020ef          	jal	ra,13000 <FN_WriteStr>
   104b0:	00004517          	auipc	a0,0x4
   104b4:	d6f50513          	addi	a0,a0,-657 # 1421f <end_signature+0x18f>
   104b8:	349020ef          	jal	ra,13000 <FN_WriteStr>
   104bc:	00020513          	mv	a0,tp
   104c0:	35d020ef          	jal	ra,1301c <FN_WriteA0>
   104c4:	00004517          	auipc	a0,0x4
   104c8:	d5d50513          	addi	a0,a0,-675 # 14221 <end_signature+0x191>
   104cc:	335020ef          	jal	ra,13000 <FN_WriteStr>
   104d0:	00004517          	auipc	a0,0x4
   104d4:	d5750513          	addi	a0,a0,-681 # 14227 <end_signature+0x197>
   104d8:	329020ef          	jal	ra,13000 <FN_WriteStr>
   104dc:	00004517          	auipc	a0,0x4
   104e0:	d5650513          	addi	a0,a0,-682 # 14232 <end_signature+0x1a2>
   104e4:	31d020ef          	jal	ra,13000 <FN_WriteStr>
   104e8:	06400193          	li	gp,100
   104ec:	0000100f          	fence.i
   104f0:	00018063          	beqz	gp,104f0 <reset_vector+0x4a4>
   104f4:	00119193          	slli	gp,gp,0x1
   104f8:	0011e193          	ori	gp,gp,1
   104fc:	00000073          	ecall
   10500:	6e2052b7          	lui	t0,0x6e205
   10504:	e6f28293          	addi	t0,t0,-401 # 6e204e6f <_end+0x6e1f0389>
   10508:	08528e63          	beq	t0,t0,105a4 <reset_vector+0x558>
   1050c:	00004517          	auipc	a0,0x4
   10510:	d2850513          	addi	a0,a0,-728 # 14234 <end_signature+0x1a4>
   10514:	2ed020ef          	jal	ra,13000 <FN_WriteStr>
   10518:	00004517          	auipc	a0,0x4
   1051c:	d3750513          	addi	a0,a0,-713 # 1424f <end_signature+0x1bf>
   10520:	2e1020ef          	jal	ra,13000 <FN_WriteStr>
   10524:	00004517          	auipc	a0,0x4
   10528:	d3e50513          	addi	a0,a0,-706 # 14262 <end_signature+0x1d2>
   1052c:	2d5020ef          	jal	ra,13000 <FN_WriteStr>
   10530:	00004517          	auipc	a0,0x4
   10534:	d3a50513          	addi	a0,a0,-710 # 1426a <end_signature+0x1da>
   10538:	2c9020ef          	jal	ra,13000 <FN_WriteStr>
   1053c:	00004517          	auipc	a0,0x4
   10540:	d3150513          	addi	a0,a0,-719 # 1426d <end_signature+0x1dd>
   10544:	2bd020ef          	jal	ra,13000 <FN_WriteStr>
   10548:	00004517          	auipc	a0,0x4
   1054c:	d2850513          	addi	a0,a0,-728 # 14270 <end_signature+0x1e0>
   10550:	2b1020ef          	jal	ra,13000 <FN_WriteStr>
   10554:	00004517          	auipc	a0,0x4
   10558:	d1f50513          	addi	a0,a0,-737 # 14273 <end_signature+0x1e3>
   1055c:	2a5020ef          	jal	ra,13000 <FN_WriteStr>
   10560:	00028513          	mv	a0,t0
   10564:	2b9020ef          	jal	ra,1301c <FN_WriteA0>
   10568:	00004517          	auipc	a0,0x4
   1056c:	d0d50513          	addi	a0,a0,-755 # 14275 <end_signature+0x1e5>
   10570:	291020ef          	jal	ra,13000 <FN_WriteStr>
   10574:	00004517          	auipc	a0,0x4
   10578:	d0750513          	addi	a0,a0,-761 # 1427b <end_signature+0x1eb>
   1057c:	285020ef          	jal	ra,13000 <FN_WriteStr>
   10580:	00004517          	auipc	a0,0x4
   10584:	d0650513          	addi	a0,a0,-762 # 14286 <end_signature+0x1f6>
   10588:	279020ef          	jal	ra,13000 <FN_WriteStr>
   1058c:	06400193          	li	gp,100
   10590:	0000100f          	fence.i
   10594:	00018063          	beqz	gp,10594 <reset_vector+0x548>
   10598:	00119193          	slli	gp,gp,0x1
   1059c:	0011e193          	ori	gp,gp,1
   105a0:	00000073          	ecall
   105a4:	6e2052b7          	lui	t0,0x6e205
   105a8:	e6f28293          	addi	t0,t0,-401 # 6e204e6f <_end+0x6e1f0389>
   105ac:	08530e63          	beq	t1,t0,10648 <reset_vector+0x5fc>
   105b0:	00004517          	auipc	a0,0x4
   105b4:	cd850513          	addi	a0,a0,-808 # 14288 <end_signature+0x1f8>
   105b8:	249020ef          	jal	ra,13000 <FN_WriteStr>
   105bc:	00004517          	auipc	a0,0x4
   105c0:	ce750513          	addi	a0,a0,-793 # 142a3 <end_signature+0x213>
   105c4:	23d020ef          	jal	ra,13000 <FN_WriteStr>
   105c8:	00004517          	auipc	a0,0x4
   105cc:	cee50513          	addi	a0,a0,-786 # 142b6 <end_signature+0x226>
   105d0:	231020ef          	jal	ra,13000 <FN_WriteStr>
   105d4:	00004517          	auipc	a0,0x4
   105d8:	cea50513          	addi	a0,a0,-790 # 142be <end_signature+0x22e>
   105dc:	225020ef          	jal	ra,13000 <FN_WriteStr>
   105e0:	00004517          	auipc	a0,0x4
   105e4:	ce150513          	addi	a0,a0,-799 # 142c1 <end_signature+0x231>
   105e8:	219020ef          	jal	ra,13000 <FN_WriteStr>
   105ec:	00004517          	auipc	a0,0x4
   105f0:	cd850513          	addi	a0,a0,-808 # 142c4 <end_signature+0x234>
   105f4:	20d020ef          	jal	ra,13000 <FN_WriteStr>
   105f8:	00004517          	auipc	a0,0x4
   105fc:	ccf50513          	addi	a0,a0,-817 # 142c7 <end_signature+0x237>
   10600:	201020ef          	jal	ra,13000 <FN_WriteStr>
   10604:	00030513          	mv	a0,t1
   10608:	215020ef          	jal	ra,1301c <FN_WriteA0>
   1060c:	00004517          	auipc	a0,0x4
   10610:	cbd50513          	addi	a0,a0,-835 # 142c9 <end_signature+0x239>
   10614:	1ed020ef          	jal	ra,13000 <FN_WriteStr>
   10618:	00004517          	auipc	a0,0x4
   1061c:	cb750513          	addi	a0,a0,-841 # 142cf <end_signature+0x23f>
   10620:	1e1020ef          	jal	ra,13000 <FN_WriteStr>
   10624:	00004517          	auipc	a0,0x4
   10628:	cb650513          	addi	a0,a0,-842 # 142da <end_signature+0x24a>
   1062c:	1d5020ef          	jal	ra,13000 <FN_WriteStr>
   10630:	06400193          	li	gp,100
   10634:	0000100f          	fence.i
   10638:	00018063          	beqz	gp,10638 <reset_vector+0x5ec>
   1063c:	00119193          	slli	gp,gp,0x1
   10640:	0011e193          	ori	gp,gp,1
   10644:	00000073          	ecall
   10648:	4d6972b7          	lui	t0,0x4d697
   1064c:	c6128293          	addi	t0,t0,-927 # 4d696c61 <_end+0x4d68217b>
   10650:	08538e63          	beq	t2,t0,106ec <reset_vector+0x6a0>
   10654:	00004517          	auipc	a0,0x4
   10658:	c8850513          	addi	a0,a0,-888 # 142dc <end_signature+0x24c>
   1065c:	1a5020ef          	jal	ra,13000 <FN_WriteStr>
   10660:	00004517          	auipc	a0,0x4
   10664:	c9750513          	addi	a0,a0,-873 # 142f7 <end_signature+0x267>
   10668:	199020ef          	jal	ra,13000 <FN_WriteStr>
   1066c:	00004517          	auipc	a0,0x4
   10670:	c9e50513          	addi	a0,a0,-866 # 1430a <end_signature+0x27a>
   10674:	18d020ef          	jal	ra,13000 <FN_WriteStr>
   10678:	00004517          	auipc	a0,0x4
   1067c:	c9a50513          	addi	a0,a0,-870 # 14312 <end_signature+0x282>
   10680:	181020ef          	jal	ra,13000 <FN_WriteStr>
   10684:	00004517          	auipc	a0,0x4
   10688:	c9150513          	addi	a0,a0,-879 # 14315 <end_signature+0x285>
   1068c:	175020ef          	jal	ra,13000 <FN_WriteStr>
   10690:	00004517          	auipc	a0,0x4
   10694:	c8850513          	addi	a0,a0,-888 # 14318 <end_signature+0x288>
   10698:	169020ef          	jal	ra,13000 <FN_WriteStr>
   1069c:	00004517          	auipc	a0,0x4
   106a0:	c7f50513          	addi	a0,a0,-897 # 1431b <end_signature+0x28b>
   106a4:	15d020ef          	jal	ra,13000 <FN_WriteStr>
   106a8:	00038513          	mv	a0,t2
   106ac:	171020ef          	jal	ra,1301c <FN_WriteA0>
   106b0:	00004517          	auipc	a0,0x4
   106b4:	c6d50513          	addi	a0,a0,-915 # 1431d <end_signature+0x28d>
   106b8:	149020ef          	jal	ra,13000 <FN_WriteStr>
   106bc:	00004517          	auipc	a0,0x4
   106c0:	c6750513          	addi	a0,a0,-921 # 14323 <end_signature+0x293>
   106c4:	13d020ef          	jal	ra,13000 <FN_WriteStr>
   106c8:	00004517          	auipc	a0,0x4
   106cc:	c6650513          	addi	a0,a0,-922 # 1432e <end_signature+0x29e>
   106d0:	131020ef          	jal	ra,13000 <FN_WriteStr>
   106d4:	06400193          	li	gp,100
   106d8:	0000100f          	fence.i
   106dc:	00018063          	beqz	gp,106dc <reset_vector+0x690>
   106e0:	00119193          	slli	gp,gp,0x1
   106e4:	0011e193          	ori	gp,gp,1
   106e8:	00000073          	ecall
   106ec:	6f6462b7          	lui	t0,0x6f646
   106f0:	17328293          	addi	t0,t0,371 # 6f646173 <_end+0x6f63168d>
   106f4:	08540e63          	beq	s0,t0,10790 <reset_vector+0x744>
   106f8:	00004517          	auipc	a0,0x4
   106fc:	c3850513          	addi	a0,a0,-968 # 14330 <end_signature+0x2a0>
   10700:	101020ef          	jal	ra,13000 <FN_WriteStr>
   10704:	00004517          	auipc	a0,0x4
   10708:	c4750513          	addi	a0,a0,-953 # 1434b <end_signature+0x2bb>
   1070c:	0f5020ef          	jal	ra,13000 <FN_WriteStr>
   10710:	00004517          	auipc	a0,0x4
   10714:	c4e50513          	addi	a0,a0,-946 # 1435e <end_signature+0x2ce>
   10718:	0e9020ef          	jal	ra,13000 <FN_WriteStr>
   1071c:	00004517          	auipc	a0,0x4
   10720:	c4a50513          	addi	a0,a0,-950 # 14366 <end_signature+0x2d6>
   10724:	0dd020ef          	jal	ra,13000 <FN_WriteStr>
   10728:	00004517          	auipc	a0,0x4
   1072c:	c4150513          	addi	a0,a0,-959 # 14369 <end_signature+0x2d9>
   10730:	0d1020ef          	jal	ra,13000 <FN_WriteStr>
   10734:	00004517          	auipc	a0,0x4
   10738:	c3850513          	addi	a0,a0,-968 # 1436c <end_signature+0x2dc>
   1073c:	0c5020ef          	jal	ra,13000 <FN_WriteStr>
   10740:	00004517          	auipc	a0,0x4
   10744:	c2f50513          	addi	a0,a0,-977 # 1436f <end_signature+0x2df>
   10748:	0b9020ef          	jal	ra,13000 <FN_WriteStr>
   1074c:	00040513          	mv	a0,s0
   10750:	0cd020ef          	jal	ra,1301c <FN_WriteA0>
   10754:	00004517          	auipc	a0,0x4
   10758:	c1d50513          	addi	a0,a0,-995 # 14371 <end_signature+0x2e1>
   1075c:	0a5020ef          	jal	ra,13000 <FN_WriteStr>
   10760:	00004517          	auipc	a0,0x4
   10764:	c1750513          	addi	a0,a0,-1001 # 14377 <end_signature+0x2e7>
   10768:	099020ef          	jal	ra,13000 <FN_WriteStr>
   1076c:	00004517          	auipc	a0,0x4
   10770:	c1650513          	addi	a0,a0,-1002 # 14382 <end_signature+0x2f2>
   10774:	08d020ef          	jal	ra,13000 <FN_WriteStr>
   10778:	06400193          	li	gp,100
   1077c:	0000100f          	fence.i
   10780:	00018063          	beqz	gp,10780 <reset_vector+0x734>
   10784:	00119193          	slli	gp,gp,0x1
   10788:	0011e193          	ori	gp,gp,1
   1078c:	00000073          	ecall
   10790:	6b7942b7          	lui	t0,0x6b794
   10794:	06328293          	addi	t0,t0,99 # 6b794063 <_end+0x6b77f57d>
   10798:	08548e63          	beq	s1,t0,10834 <reset_vector+0x7e8>
   1079c:	00004517          	auipc	a0,0x4
   107a0:	be850513          	addi	a0,a0,-1048 # 14384 <end_signature+0x2f4>
   107a4:	05d020ef          	jal	ra,13000 <FN_WriteStr>
   107a8:	00004517          	auipc	a0,0x4
   107ac:	bf750513          	addi	a0,a0,-1033 # 1439f <end_signature+0x30f>
   107b0:	051020ef          	jal	ra,13000 <FN_WriteStr>
   107b4:	00004517          	auipc	a0,0x4
   107b8:	bfe50513          	addi	a0,a0,-1026 # 143b2 <end_signature+0x322>
   107bc:	045020ef          	jal	ra,13000 <FN_WriteStr>
   107c0:	00004517          	auipc	a0,0x4
   107c4:	bfa50513          	addi	a0,a0,-1030 # 143ba <end_signature+0x32a>
   107c8:	039020ef          	jal	ra,13000 <FN_WriteStr>
   107cc:	00004517          	auipc	a0,0x4
   107d0:	bf150513          	addi	a0,a0,-1039 # 143bd <end_signature+0x32d>
   107d4:	02d020ef          	jal	ra,13000 <FN_WriteStr>
   107d8:	00004517          	auipc	a0,0x4
   107dc:	be850513          	addi	a0,a0,-1048 # 143c0 <end_signature+0x330>
   107e0:	021020ef          	jal	ra,13000 <FN_WriteStr>
   107e4:	00004517          	auipc	a0,0x4
   107e8:	bdf50513          	addi	a0,a0,-1057 # 143c3 <end_signature+0x333>
   107ec:	015020ef          	jal	ra,13000 <FN_WriteStr>
   107f0:	00048513          	mv	a0,s1
   107f4:	029020ef          	jal	ra,1301c <FN_WriteA0>
   107f8:	00004517          	auipc	a0,0x4
   107fc:	bcd50513          	addi	a0,a0,-1075 # 143c5 <end_signature+0x335>
   10800:	001020ef          	jal	ra,13000 <FN_WriteStr>
   10804:	00004517          	auipc	a0,0x4
   10808:	bc750513          	addi	a0,a0,-1081 # 143cb <end_signature+0x33b>
   1080c:	7f4020ef          	jal	ra,13000 <FN_WriteStr>
   10810:	00004517          	auipc	a0,0x4
   10814:	bc650513          	addi	a0,a0,-1082 # 143d6 <end_signature+0x346>
   10818:	7e8020ef          	jal	ra,13000 <FN_WriteStr>
   1081c:	06400193          	li	gp,100
   10820:	0000100f          	fence.i
   10824:	00018063          	beqz	gp,10824 <reset_vector+0x7d8>
   10828:	00119193          	slli	gp,gp,0x1
   1082c:	0011e193          	ori	gp,gp,1
   10830:	00000073          	ecall
   10834:	286e72b7          	lui	t0,0x286e7
   10838:	f7328293          	addi	t0,t0,-141 # 286e6f73 <_end+0x286d248d>
   1083c:	08558e63          	beq	a1,t0,108d8 <reset_vector+0x88c>
   10840:	00004517          	auipc	a0,0x4
   10844:	b9850513          	addi	a0,a0,-1128 # 143d8 <end_signature+0x348>
   10848:	7b8020ef          	jal	ra,13000 <FN_WriteStr>
   1084c:	00004517          	auipc	a0,0x4
   10850:	ba750513          	addi	a0,a0,-1113 # 143f3 <end_signature+0x363>
   10854:	7ac020ef          	jal	ra,13000 <FN_WriteStr>
   10858:	00004517          	auipc	a0,0x4
   1085c:	bae50513          	addi	a0,a0,-1106 # 14406 <end_signature+0x376>
   10860:	7a0020ef          	jal	ra,13000 <FN_WriteStr>
   10864:	00004517          	auipc	a0,0x4
   10868:	baa50513          	addi	a0,a0,-1110 # 1440e <end_signature+0x37e>
   1086c:	794020ef          	jal	ra,13000 <FN_WriteStr>
   10870:	00004517          	auipc	a0,0x4
   10874:	ba250513          	addi	a0,a0,-1118 # 14412 <end_signature+0x382>
   10878:	788020ef          	jal	ra,13000 <FN_WriteStr>
   1087c:	00004517          	auipc	a0,0x4
   10880:	b9950513          	addi	a0,a0,-1127 # 14415 <end_signature+0x385>
   10884:	77c020ef          	jal	ra,13000 <FN_WriteStr>
   10888:	00004517          	auipc	a0,0x4
   1088c:	b9150513          	addi	a0,a0,-1135 # 14419 <end_signature+0x389>
   10890:	770020ef          	jal	ra,13000 <FN_WriteStr>
   10894:	00058513          	mv	a0,a1
   10898:	784020ef          	jal	ra,1301c <FN_WriteA0>
   1089c:	00004517          	auipc	a0,0x4
   108a0:	b7f50513          	addi	a0,a0,-1153 # 1441b <end_signature+0x38b>
   108a4:	75c020ef          	jal	ra,13000 <FN_WriteStr>
   108a8:	00004517          	auipc	a0,0x4
   108ac:	b7950513          	addi	a0,a0,-1159 # 14421 <end_signature+0x391>
   108b0:	750020ef          	jal	ra,13000 <FN_WriteStr>
   108b4:	00004517          	auipc	a0,0x4
   108b8:	b7850513          	addi	a0,a0,-1160 # 1442c <end_signature+0x39c>
   108bc:	744020ef          	jal	ra,13000 <FN_WriteStr>
   108c0:	06400193          	li	gp,100
   108c4:	0000100f          	fence.i
   108c8:	00018063          	beqz	gp,108c8 <reset_vector+0x87c>
   108cc:	00119193          	slli	gp,gp,0x1
   108d0:	0011e193          	ori	gp,gp,1
   108d4:	00000073          	ecall
   108d8:	656b22b7          	lui	t0,0x656b2
   108dc:	04828293          	addi	t0,t0,72 # 656b2048 <_end+0x6569d562>
   108e0:	08560e63          	beq	a2,t0,1097c <reset_vector+0x930>
   108e4:	00004517          	auipc	a0,0x4
   108e8:	b4a50513          	addi	a0,a0,-1206 # 1442e <end_signature+0x39e>
   108ec:	714020ef          	jal	ra,13000 <FN_WriteStr>
   108f0:	00004517          	auipc	a0,0x4
   108f4:	b5950513          	addi	a0,a0,-1191 # 14449 <end_signature+0x3b9>
   108f8:	708020ef          	jal	ra,13000 <FN_WriteStr>
   108fc:	00004517          	auipc	a0,0x4
   10900:	b6050513          	addi	a0,a0,-1184 # 1445c <end_signature+0x3cc>
   10904:	6fc020ef          	jal	ra,13000 <FN_WriteStr>
   10908:	00004517          	auipc	a0,0x4
   1090c:	b5c50513          	addi	a0,a0,-1188 # 14464 <end_signature+0x3d4>
   10910:	6f0020ef          	jal	ra,13000 <FN_WriteStr>
   10914:	00004517          	auipc	a0,0x4
   10918:	b5450513          	addi	a0,a0,-1196 # 14468 <end_signature+0x3d8>
   1091c:	6e4020ef          	jal	ra,13000 <FN_WriteStr>
   10920:	00004517          	auipc	a0,0x4
   10924:	b4b50513          	addi	a0,a0,-1205 # 1446b <end_signature+0x3db>
   10928:	6d8020ef          	jal	ra,13000 <FN_WriteStr>
   1092c:	00004517          	auipc	a0,0x4
   10930:	b4350513          	addi	a0,a0,-1213 # 1446f <end_signature+0x3df>
   10934:	6cc020ef          	jal	ra,13000 <FN_WriteStr>
   10938:	00060513          	mv	a0,a2
   1093c:	6e0020ef          	jal	ra,1301c <FN_WriteA0>
   10940:	00004517          	auipc	a0,0x4
   10944:	b3150513          	addi	a0,a0,-1231 # 14471 <end_signature+0x3e1>
   10948:	6b8020ef          	jal	ra,13000 <FN_WriteStr>
   1094c:	00004517          	auipc	a0,0x4
   10950:	b2b50513          	addi	a0,a0,-1237 # 14477 <end_signature+0x3e7>
   10954:	6ac020ef          	jal	ra,13000 <FN_WriteStr>
   10958:	00004517          	auipc	a0,0x4
   1095c:	b2a50513          	addi	a0,a0,-1238 # 14482 <end_signature+0x3f2>
   10960:	6a0020ef          	jal	ra,13000 <FN_WriteStr>
   10964:	06400193          	li	gp,100
   10968:	0000100f          	fence.i
   1096c:	00018063          	beqz	gp,1096c <reset_vector+0x920>
   10970:	00119193          	slli	gp,gp,0x1
   10974:	0011e193          	ori	gp,gp,1
   10978:	00000073          	ecall
   1097c:	205262b7          	lui	t0,0x20526
   10980:	16428293          	addi	t0,t0,356 # 20526164 <_end+0x2051167e>
   10984:	08568e63          	beq	a3,t0,10a20 <reset_vector+0x9d4>
   10988:	00004517          	auipc	a0,0x4
   1098c:	afc50513          	addi	a0,a0,-1284 # 14484 <end_signature+0x3f4>
   10990:	670020ef          	jal	ra,13000 <FN_WriteStr>
   10994:	00004517          	auipc	a0,0x4
   10998:	b0b50513          	addi	a0,a0,-1269 # 1449f <end_signature+0x40f>
   1099c:	664020ef          	jal	ra,13000 <FN_WriteStr>
   109a0:	00004517          	auipc	a0,0x4
   109a4:	b1250513          	addi	a0,a0,-1262 # 144b2 <end_signature+0x422>
   109a8:	658020ef          	jal	ra,13000 <FN_WriteStr>
   109ac:	00004517          	auipc	a0,0x4
   109b0:	b0e50513          	addi	a0,a0,-1266 # 144ba <end_signature+0x42a>
   109b4:	64c020ef          	jal	ra,13000 <FN_WriteStr>
   109b8:	00004517          	auipc	a0,0x4
   109bc:	b0650513          	addi	a0,a0,-1274 # 144be <end_signature+0x42e>
   109c0:	640020ef          	jal	ra,13000 <FN_WriteStr>
   109c4:	00004517          	auipc	a0,0x4
   109c8:	afd50513          	addi	a0,a0,-1283 # 144c1 <end_signature+0x431>
   109cc:	634020ef          	jal	ra,13000 <FN_WriteStr>
   109d0:	00004517          	auipc	a0,0x4
   109d4:	af550513          	addi	a0,a0,-1291 # 144c5 <end_signature+0x435>
   109d8:	628020ef          	jal	ra,13000 <FN_WriteStr>
   109dc:	00068513          	mv	a0,a3
   109e0:	63c020ef          	jal	ra,1301c <FN_WriteA0>
   109e4:	00004517          	auipc	a0,0x4
   109e8:	ae350513          	addi	a0,a0,-1309 # 144c7 <end_signature+0x437>
   109ec:	614020ef          	jal	ra,13000 <FN_WriteStr>
   109f0:	00004517          	auipc	a0,0x4
   109f4:	add50513          	addi	a0,a0,-1315 # 144cd <end_signature+0x43d>
   109f8:	608020ef          	jal	ra,13000 <FN_WriteStr>
   109fc:	00004517          	auipc	a0,0x4
   10a00:	adc50513          	addi	a0,a0,-1316 # 144d8 <end_signature+0x448>
   10a04:	5fc020ef          	jal	ra,13000 <FN_WriteStr>
   10a08:	06400193          	li	gp,100
   10a0c:	0000100f          	fence.i
   10a10:	00018063          	beqz	gp,10a10 <reset_vector+0x9c4>
   10a14:	00119193          	slli	gp,gp,0x1
   10a18:	0011e193          	ori	gp,gp,1
   10a1c:	00000073          	ecall
   10a20:	6f6d32b7          	lui	t0,0x6f6d3
   10a24:	92c28293          	addi	t0,t0,-1748 # 6f6d292c <_end+0x6f6bde46>
   10a28:	08570e63          	beq	a4,t0,10ac4 <reset_vector+0xa78>
   10a2c:	00004517          	auipc	a0,0x4
   10a30:	aae50513          	addi	a0,a0,-1362 # 144da <end_signature+0x44a>
   10a34:	5cc020ef          	jal	ra,13000 <FN_WriteStr>
   10a38:	00004517          	auipc	a0,0x4
   10a3c:	abd50513          	addi	a0,a0,-1347 # 144f5 <end_signature+0x465>
   10a40:	5c0020ef          	jal	ra,13000 <FN_WriteStr>
   10a44:	00004517          	auipc	a0,0x4
   10a48:	ac450513          	addi	a0,a0,-1340 # 14508 <end_signature+0x478>
   10a4c:	5b4020ef          	jal	ra,13000 <FN_WriteStr>
   10a50:	00004517          	auipc	a0,0x4
   10a54:	ac050513          	addi	a0,a0,-1344 # 14510 <end_signature+0x480>
   10a58:	5a8020ef          	jal	ra,13000 <FN_WriteStr>
   10a5c:	00004517          	auipc	a0,0x4
   10a60:	ab850513          	addi	a0,a0,-1352 # 14514 <end_signature+0x484>
   10a64:	59c020ef          	jal	ra,13000 <FN_WriteStr>
   10a68:	00004517          	auipc	a0,0x4
   10a6c:	aaf50513          	addi	a0,a0,-1361 # 14517 <end_signature+0x487>
   10a70:	590020ef          	jal	ra,13000 <FN_WriteStr>
   10a74:	00004517          	auipc	a0,0x4
   10a78:	aa750513          	addi	a0,a0,-1369 # 1451b <end_signature+0x48b>
   10a7c:	584020ef          	jal	ra,13000 <FN_WriteStr>
   10a80:	00070513          	mv	a0,a4
   10a84:	598020ef          	jal	ra,1301c <FN_WriteA0>
   10a88:	00004517          	auipc	a0,0x4
   10a8c:	a9550513          	addi	a0,a0,-1387 # 1451d <end_signature+0x48d>
   10a90:	570020ef          	jal	ra,13000 <FN_WriteStr>
   10a94:	00004517          	auipc	a0,0x4
   10a98:	a8f50513          	addi	a0,a0,-1393 # 14523 <end_signature+0x493>
   10a9c:	564020ef          	jal	ra,13000 <FN_WriteStr>
   10aa0:	00004517          	auipc	a0,0x4
   10aa4:	a8e50513          	addi	a0,a0,-1394 # 1452e <end_signature+0x49e>
   10aa8:	558020ef          	jal	ra,13000 <FN_WriteStr>
   10aac:	06400193          	li	gp,100
   10ab0:	0000100f          	fence.i
   10ab4:	00018063          	beqz	gp,10ab4 <reset_vector+0xa68>
   10ab8:	00119193          	slli	gp,gp,0x1
   10abc:	0011e193          	ori	gp,gp,1
   10ac0:	00000073          	ecall
   10ac4:	697032b7          	lui	t0,0x69703
   10ac8:	e6328293          	addi	t0,t0,-413 # 69702e63 <_end+0x696ee37d>
   10acc:	08578e63          	beq	a5,t0,10b68 <reset_vector+0xb1c>
   10ad0:	00004517          	auipc	a0,0x4
   10ad4:	a6050513          	addi	a0,a0,-1440 # 14530 <end_signature+0x4a0>
   10ad8:	528020ef          	jal	ra,13000 <FN_WriteStr>
   10adc:	00004517          	auipc	a0,0x4
   10ae0:	a6f50513          	addi	a0,a0,-1425 # 1454b <end_signature+0x4bb>
   10ae4:	51c020ef          	jal	ra,13000 <FN_WriteStr>
   10ae8:	00004517          	auipc	a0,0x4
   10aec:	a7650513          	addi	a0,a0,-1418 # 1455e <end_signature+0x4ce>
   10af0:	510020ef          	jal	ra,13000 <FN_WriteStr>
   10af4:	00004517          	auipc	a0,0x4
   10af8:	a7250513          	addi	a0,a0,-1422 # 14566 <end_signature+0x4d6>
   10afc:	504020ef          	jal	ra,13000 <FN_WriteStr>
   10b00:	00004517          	auipc	a0,0x4
   10b04:	a6a50513          	addi	a0,a0,-1430 # 1456a <end_signature+0x4da>
   10b08:	4f8020ef          	jal	ra,13000 <FN_WriteStr>
   10b0c:	00004517          	auipc	a0,0x4
   10b10:	a6150513          	addi	a0,a0,-1439 # 1456d <end_signature+0x4dd>
   10b14:	4ec020ef          	jal	ra,13000 <FN_WriteStr>
   10b18:	00004517          	auipc	a0,0x4
   10b1c:	a5950513          	addi	a0,a0,-1447 # 14571 <end_signature+0x4e1>
   10b20:	4e0020ef          	jal	ra,13000 <FN_WriteStr>
   10b24:	00078513          	mv	a0,a5
   10b28:	4f4020ef          	jal	ra,1301c <FN_WriteA0>
   10b2c:	00004517          	auipc	a0,0x4
   10b30:	a4750513          	addi	a0,a0,-1465 # 14573 <end_signature+0x4e3>
   10b34:	4cc020ef          	jal	ra,13000 <FN_WriteStr>
   10b38:	00004517          	auipc	a0,0x4
   10b3c:	a4150513          	addi	a0,a0,-1471 # 14579 <end_signature+0x4e9>
   10b40:	4c0020ef          	jal	ra,13000 <FN_WriteStr>
   10b44:	00004517          	auipc	a0,0x4
   10b48:	a4050513          	addi	a0,a0,-1472 # 14584 <end_signature+0x4f4>
   10b4c:	4b4020ef          	jal	ra,13000 <FN_WriteStr>
   10b50:	06400193          	li	gp,100
   10b54:	0000100f          	fence.i
   10b58:	00018063          	beqz	gp,10b58 <reset_vector+0xb0c>
   10b5c:	00119193          	slli	gp,gp,0x1
   10b60:	0011e193          	ori	gp,gp,1
   10b64:	00000073          	ecall
   10b68:	00003217          	auipc	tp,0x3
   10b6c:	4d820213          	addi	tp,tp,1240 # 14040 <test_A2_res>
   10b70:	636f6837          	lui	a6,0x636f6
   10b74:	46180813          	addi	a6,a6,1121 # 636f6461 <_end+0x636e197b>
   10b78:	6a6578b7          	lui	a7,0x6a657
   10b7c:	b4088893          	addi	a7,a7,-1216 # 6a656b40 <_end+0x6a64205a>
   10b80:	20287937          	lui	s2,0x20287
   10b84:	86190913          	addi	s2,s2,-1951 # 20286861 <_end+0x20271d7b>
   10b88:	616a69b7          	lui	s3,0x616a6
   10b8c:	56b98993          	addi	s3,s3,1387 # 616a656b <_end+0x61691a85>
   10b90:	61766a37          	lui	s4,0x61766
   10b94:	520a0a13          	addi	s4,s4,1312 # 61766520 <_end+0x61751a3a>
   10b98:	2e205ab7          	lui	s5,0x2e205
   10b9c:	c65a8a93          	addi	s5,s5,-923 # 2e204c65 <_end+0x2e1f017f>
   10ba0:	636f7b37          	lui	s6,0x636f7
   10ba4:	d29b0b13          	addi	s6,s6,-727 # 636f6d29 <_end+0x636e2243>
   10ba8:	73697bb7          	lui	s7,0x73697
   10bac:	02eb8b93          	addi	s7,s7,46 # 7369702e <_end+0x73682548>
   10bb0:	66208c37          	lui	s8,0x66208
   10bb4:	96fc0c13          	addi	s8,s8,-1681 # 6620796f <_end+0x661f2e89>
   10bb8:	67652cb7          	lui	s9,0x67652
   10bbc:	069c8c93          	addi	s9,s9,105 # 67652069 <_end+0x6763d583>
   10bc0:	65737d37          	lui	s10,0x65737
   10bc4:	361d0d13          	addi	s10,s10,865 # 65737361 <_end+0x6572287b>
   10bc8:	75732db7          	lui	s11,0x75732
   10bcc:	06dd8d93          	addi	s11,s11,109 # 7573206d <_end+0x7571d587>
   10bd0:	3a291e37          	lui	t3,0x3a291
   10bd4:	d0ae0e13          	addi	t3,t3,-758 # 3a290d0a <_end+0x3a27c224>
   10bd8:	68697eb7          	lui	t4,0x68697
   10bdc:	320e8e93          	addi	t4,t4,800 # 68697320 <_end+0x6868283a>
   10be0:	61642f37          	lui	t5,0x61642
   10be4:	074f0f13          	addi	t5,t5,116 # 61642074 <_end+0x6162d58e>
   10be8:	75207fb7          	lui	t6,0x75207
   10bec:	265f8f93          	addi	t6,t6,613 # 75207265 <_end+0x751f277f>
   10bf0:	01022023          	sw	a6,0(tp) # 0 <_start-0x10000>
   10bf4:	01122223          	sw	a7,4(tp) # 4 <_start-0xfffc>
   10bf8:	01222423          	sw	s2,8(tp) # 8 <_start-0xfff8>
   10bfc:	01322623          	sw	s3,12(tp) # c <_start-0xfff4>
   10c00:	01422823          	sw	s4,16(tp) # 10 <_start-0xfff0>
   10c04:	01522a23          	sw	s5,20(tp) # 14 <_start-0xffec>
   10c08:	01622c23          	sw	s6,24(tp) # 18 <_start-0xffe8>
   10c0c:	01722e23          	sw	s7,28(tp) # 1c <_start-0xffe4>
   10c10:	03822023          	sw	s8,32(tp) # 20 <_start-0xffe0>
   10c14:	03922223          	sw	s9,36(tp) # 24 <_start-0xffdc>
   10c18:	03a22423          	sw	s10,40(tp) # 28 <_start-0xffd8>
   10c1c:	03b22623          	sw	s11,44(tp) # 2c <_start-0xffd4>
   10c20:	03c22823          	sw	t3,48(tp) # 30 <_start-0xffd0>
   10c24:	03d22a23          	sw	t4,52(tp) # 34 <_start-0xffcc>
   10c28:	03e22c23          	sw	t5,56(tp) # 38 <_start-0xffc8>
   10c2c:	03f22e23          	sw	t6,60(tp) # 3c <_start-0xffc4>
   10c30:	636f62b7          	lui	t0,0x636f6
   10c34:	46128293          	addi	t0,t0,1121 # 636f6461 <_end+0x636e197b>
   10c38:	08580e63          	beq	a6,t0,10cd4 <reset_vector+0xc88>
   10c3c:	00004517          	auipc	a0,0x4
   10c40:	94a50513          	addi	a0,a0,-1718 # 14586 <end_signature+0x4f6>
   10c44:	3bc020ef          	jal	ra,13000 <FN_WriteStr>
   10c48:	00004517          	auipc	a0,0x4
   10c4c:	95950513          	addi	a0,a0,-1703 # 145a1 <end_signature+0x511>
   10c50:	3b0020ef          	jal	ra,13000 <FN_WriteStr>
   10c54:	00004517          	auipc	a0,0x4
   10c58:	96050513          	addi	a0,a0,-1696 # 145b4 <end_signature+0x524>
   10c5c:	3a4020ef          	jal	ra,13000 <FN_WriteStr>
   10c60:	00004517          	auipc	a0,0x4
   10c64:	95c50513          	addi	a0,a0,-1700 # 145bc <end_signature+0x52c>
   10c68:	398020ef          	jal	ra,13000 <FN_WriteStr>
   10c6c:	00004517          	auipc	a0,0x4
   10c70:	95450513          	addi	a0,a0,-1708 # 145c0 <end_signature+0x530>
   10c74:	38c020ef          	jal	ra,13000 <FN_WriteStr>
   10c78:	00004517          	auipc	a0,0x4
   10c7c:	94b50513          	addi	a0,a0,-1717 # 145c3 <end_signature+0x533>
   10c80:	380020ef          	jal	ra,13000 <FN_WriteStr>
   10c84:	00004517          	auipc	a0,0x4
   10c88:	94350513          	addi	a0,a0,-1725 # 145c7 <end_signature+0x537>
   10c8c:	374020ef          	jal	ra,13000 <FN_WriteStr>
   10c90:	00080513          	mv	a0,a6
   10c94:	388020ef          	jal	ra,1301c <FN_WriteA0>
   10c98:	00004517          	auipc	a0,0x4
   10c9c:	93150513          	addi	a0,a0,-1743 # 145c9 <end_signature+0x539>
   10ca0:	360020ef          	jal	ra,13000 <FN_WriteStr>
   10ca4:	00004517          	auipc	a0,0x4
   10ca8:	92b50513          	addi	a0,a0,-1749 # 145cf <end_signature+0x53f>
   10cac:	354020ef          	jal	ra,13000 <FN_WriteStr>
   10cb0:	00004517          	auipc	a0,0x4
   10cb4:	92a50513          	addi	a0,a0,-1750 # 145da <end_signature+0x54a>
   10cb8:	348020ef          	jal	ra,13000 <FN_WriteStr>
   10cbc:	06400193          	li	gp,100
   10cc0:	0000100f          	fence.i
   10cc4:	00018063          	beqz	gp,10cc4 <reset_vector+0xc78>
   10cc8:	00119193          	slli	gp,gp,0x1
   10ccc:	0011e193          	ori	gp,gp,1
   10cd0:	00000073          	ecall
   10cd4:	6a6572b7          	lui	t0,0x6a657
   10cd8:	b4028293          	addi	t0,t0,-1216 # 6a656b40 <_end+0x6a64205a>
   10cdc:	08588e63          	beq	a7,t0,10d78 <reset_vector+0xd2c>
   10ce0:	00004517          	auipc	a0,0x4
   10ce4:	8fc50513          	addi	a0,a0,-1796 # 145dc <end_signature+0x54c>
   10ce8:	318020ef          	jal	ra,13000 <FN_WriteStr>
   10cec:	00004517          	auipc	a0,0x4
   10cf0:	90b50513          	addi	a0,a0,-1781 # 145f7 <end_signature+0x567>
   10cf4:	30c020ef          	jal	ra,13000 <FN_WriteStr>
   10cf8:	00004517          	auipc	a0,0x4
   10cfc:	91250513          	addi	a0,a0,-1774 # 1460a <end_signature+0x57a>
   10d00:	300020ef          	jal	ra,13000 <FN_WriteStr>
   10d04:	00004517          	auipc	a0,0x4
   10d08:	90e50513          	addi	a0,a0,-1778 # 14612 <end_signature+0x582>
   10d0c:	2f4020ef          	jal	ra,13000 <FN_WriteStr>
   10d10:	00004517          	auipc	a0,0x4
   10d14:	90650513          	addi	a0,a0,-1786 # 14616 <end_signature+0x586>
   10d18:	2e8020ef          	jal	ra,13000 <FN_WriteStr>
   10d1c:	00004517          	auipc	a0,0x4
   10d20:	8fd50513          	addi	a0,a0,-1795 # 14619 <end_signature+0x589>
   10d24:	2dc020ef          	jal	ra,13000 <FN_WriteStr>
   10d28:	00004517          	auipc	a0,0x4
   10d2c:	8f550513          	addi	a0,a0,-1803 # 1461d <end_signature+0x58d>
   10d30:	2d0020ef          	jal	ra,13000 <FN_WriteStr>
   10d34:	00088513          	mv	a0,a7
   10d38:	2e4020ef          	jal	ra,1301c <FN_WriteA0>
   10d3c:	00004517          	auipc	a0,0x4
   10d40:	8e350513          	addi	a0,a0,-1821 # 1461f <end_signature+0x58f>
   10d44:	2bc020ef          	jal	ra,13000 <FN_WriteStr>
   10d48:	00004517          	auipc	a0,0x4
   10d4c:	8dd50513          	addi	a0,a0,-1827 # 14625 <end_signature+0x595>
   10d50:	2b0020ef          	jal	ra,13000 <FN_WriteStr>
   10d54:	00004517          	auipc	a0,0x4
   10d58:	8dc50513          	addi	a0,a0,-1828 # 14630 <end_signature+0x5a0>
   10d5c:	2a4020ef          	jal	ra,13000 <FN_WriteStr>
   10d60:	06400193          	li	gp,100
   10d64:	0000100f          	fence.i
   10d68:	00018063          	beqz	gp,10d68 <reset_vector+0xd1c>
   10d6c:	00119193          	slli	gp,gp,0x1
   10d70:	0011e193          	ori	gp,gp,1
   10d74:	00000073          	ecall
   10d78:	202872b7          	lui	t0,0x20287
   10d7c:	86128293          	addi	t0,t0,-1951 # 20286861 <_end+0x20271d7b>
   10d80:	08590e63          	beq	s2,t0,10e1c <reset_vector+0xdd0>
   10d84:	00004517          	auipc	a0,0x4
   10d88:	8ae50513          	addi	a0,a0,-1874 # 14632 <end_signature+0x5a2>
   10d8c:	274020ef          	jal	ra,13000 <FN_WriteStr>
   10d90:	00004517          	auipc	a0,0x4
   10d94:	8bd50513          	addi	a0,a0,-1859 # 1464d <end_signature+0x5bd>
   10d98:	268020ef          	jal	ra,13000 <FN_WriteStr>
   10d9c:	00004517          	auipc	a0,0x4
   10da0:	8c450513          	addi	a0,a0,-1852 # 14660 <end_signature+0x5d0>
   10da4:	25c020ef          	jal	ra,13000 <FN_WriteStr>
   10da8:	00004517          	auipc	a0,0x4
   10dac:	8c050513          	addi	a0,a0,-1856 # 14668 <end_signature+0x5d8>
   10db0:	250020ef          	jal	ra,13000 <FN_WriteStr>
   10db4:	00004517          	auipc	a0,0x4
   10db8:	8b850513          	addi	a0,a0,-1864 # 1466c <end_signature+0x5dc>
   10dbc:	244020ef          	jal	ra,13000 <FN_WriteStr>
   10dc0:	00004517          	auipc	a0,0x4
   10dc4:	8af50513          	addi	a0,a0,-1873 # 1466f <end_signature+0x5df>
   10dc8:	238020ef          	jal	ra,13000 <FN_WriteStr>
   10dcc:	00004517          	auipc	a0,0x4
   10dd0:	8a750513          	addi	a0,a0,-1881 # 14673 <end_signature+0x5e3>
   10dd4:	22c020ef          	jal	ra,13000 <FN_WriteStr>
   10dd8:	00090513          	mv	a0,s2
   10ddc:	240020ef          	jal	ra,1301c <FN_WriteA0>
   10de0:	00004517          	auipc	a0,0x4
   10de4:	89550513          	addi	a0,a0,-1899 # 14675 <end_signature+0x5e5>
   10de8:	218020ef          	jal	ra,13000 <FN_WriteStr>
   10dec:	00004517          	auipc	a0,0x4
   10df0:	88f50513          	addi	a0,a0,-1905 # 1467b <end_signature+0x5eb>
   10df4:	20c020ef          	jal	ra,13000 <FN_WriteStr>
   10df8:	00004517          	auipc	a0,0x4
   10dfc:	88e50513          	addi	a0,a0,-1906 # 14686 <end_signature+0x5f6>
   10e00:	200020ef          	jal	ra,13000 <FN_WriteStr>
   10e04:	06400193          	li	gp,100
   10e08:	0000100f          	fence.i
   10e0c:	00018063          	beqz	gp,10e0c <reset_vector+0xdc0>
   10e10:	00119193          	slli	gp,gp,0x1
   10e14:	0011e193          	ori	gp,gp,1
   10e18:	00000073          	ecall
   10e1c:	616a62b7          	lui	t0,0x616a6
   10e20:	56b28293          	addi	t0,t0,1387 # 616a656b <_end+0x61691a85>
   10e24:	08598e63          	beq	s3,t0,10ec0 <reset_vector+0xe74>
   10e28:	00004517          	auipc	a0,0x4
   10e2c:	86050513          	addi	a0,a0,-1952 # 14688 <end_signature+0x5f8>
   10e30:	1d0020ef          	jal	ra,13000 <FN_WriteStr>
   10e34:	00004517          	auipc	a0,0x4
   10e38:	86f50513          	addi	a0,a0,-1937 # 146a3 <end_signature+0x613>
   10e3c:	1c4020ef          	jal	ra,13000 <FN_WriteStr>
   10e40:	00004517          	auipc	a0,0x4
   10e44:	87650513          	addi	a0,a0,-1930 # 146b6 <end_signature+0x626>
   10e48:	1b8020ef          	jal	ra,13000 <FN_WriteStr>
   10e4c:	00004517          	auipc	a0,0x4
   10e50:	87250513          	addi	a0,a0,-1934 # 146be <end_signature+0x62e>
   10e54:	1ac020ef          	jal	ra,13000 <FN_WriteStr>
   10e58:	00004517          	auipc	a0,0x4
   10e5c:	86a50513          	addi	a0,a0,-1942 # 146c2 <end_signature+0x632>
   10e60:	1a0020ef          	jal	ra,13000 <FN_WriteStr>
   10e64:	00004517          	auipc	a0,0x4
   10e68:	86150513          	addi	a0,a0,-1951 # 146c5 <end_signature+0x635>
   10e6c:	194020ef          	jal	ra,13000 <FN_WriteStr>
   10e70:	00004517          	auipc	a0,0x4
   10e74:	85950513          	addi	a0,a0,-1959 # 146c9 <end_signature+0x639>
   10e78:	188020ef          	jal	ra,13000 <FN_WriteStr>
   10e7c:	00098513          	mv	a0,s3
   10e80:	19c020ef          	jal	ra,1301c <FN_WriteA0>
   10e84:	00004517          	auipc	a0,0x4
   10e88:	84750513          	addi	a0,a0,-1977 # 146cb <end_signature+0x63b>
   10e8c:	174020ef          	jal	ra,13000 <FN_WriteStr>
   10e90:	00004517          	auipc	a0,0x4
   10e94:	84150513          	addi	a0,a0,-1983 # 146d1 <end_signature+0x641>
   10e98:	168020ef          	jal	ra,13000 <FN_WriteStr>
   10e9c:	00004517          	auipc	a0,0x4
   10ea0:	84050513          	addi	a0,a0,-1984 # 146dc <end_signature+0x64c>
   10ea4:	15c020ef          	jal	ra,13000 <FN_WriteStr>
   10ea8:	06400193          	li	gp,100
   10eac:	0000100f          	fence.i
   10eb0:	00018063          	beqz	gp,10eb0 <reset_vector+0xe64>
   10eb4:	00119193          	slli	gp,gp,0x1
   10eb8:	0011e193          	ori	gp,gp,1
   10ebc:	00000073          	ecall
   10ec0:	617662b7          	lui	t0,0x61766
   10ec4:	52028293          	addi	t0,t0,1312 # 61766520 <_end+0x61751a3a>
   10ec8:	085a0e63          	beq	s4,t0,10f64 <reset_vector+0xf18>
   10ecc:	00004517          	auipc	a0,0x4
   10ed0:	81250513          	addi	a0,a0,-2030 # 146de <end_signature+0x64e>
   10ed4:	12c020ef          	jal	ra,13000 <FN_WriteStr>
   10ed8:	00004517          	auipc	a0,0x4
   10edc:	82150513          	addi	a0,a0,-2015 # 146f9 <end_signature+0x669>
   10ee0:	120020ef          	jal	ra,13000 <FN_WriteStr>
   10ee4:	00004517          	auipc	a0,0x4
   10ee8:	82850513          	addi	a0,a0,-2008 # 1470c <end_signature+0x67c>
   10eec:	114020ef          	jal	ra,13000 <FN_WriteStr>
   10ef0:	00004517          	auipc	a0,0x4
   10ef4:	82450513          	addi	a0,a0,-2012 # 14714 <end_signature+0x684>
   10ef8:	108020ef          	jal	ra,13000 <FN_WriteStr>
   10efc:	00004517          	auipc	a0,0x4
   10f00:	81c50513          	addi	a0,a0,-2020 # 14718 <end_signature+0x688>
   10f04:	0fc020ef          	jal	ra,13000 <FN_WriteStr>
   10f08:	00004517          	auipc	a0,0x4
   10f0c:	81350513          	addi	a0,a0,-2029 # 1471b <end_signature+0x68b>
   10f10:	0f0020ef          	jal	ra,13000 <FN_WriteStr>
   10f14:	00004517          	auipc	a0,0x4
   10f18:	80b50513          	addi	a0,a0,-2037 # 1471f <end_signature+0x68f>
   10f1c:	0e4020ef          	jal	ra,13000 <FN_WriteStr>
   10f20:	000a0513          	mv	a0,s4
   10f24:	0f8020ef          	jal	ra,1301c <FN_WriteA0>
   10f28:	00003517          	auipc	a0,0x3
   10f2c:	7f950513          	addi	a0,a0,2041 # 14721 <end_signature+0x691>
   10f30:	0d0020ef          	jal	ra,13000 <FN_WriteStr>
   10f34:	00003517          	auipc	a0,0x3
   10f38:	7f350513          	addi	a0,a0,2035 # 14727 <end_signature+0x697>
   10f3c:	0c4020ef          	jal	ra,13000 <FN_WriteStr>
   10f40:	00003517          	auipc	a0,0x3
   10f44:	7f250513          	addi	a0,a0,2034 # 14732 <end_signature+0x6a2>
   10f48:	0b8020ef          	jal	ra,13000 <FN_WriteStr>
   10f4c:	06400193          	li	gp,100
   10f50:	0000100f          	fence.i
   10f54:	00018063          	beqz	gp,10f54 <reset_vector+0xf08>
   10f58:	00119193          	slli	gp,gp,0x1
   10f5c:	0011e193          	ori	gp,gp,1
   10f60:	00000073          	ecall
   10f64:	2e2052b7          	lui	t0,0x2e205
   10f68:	c6528293          	addi	t0,t0,-923 # 2e204c65 <_end+0x2e1f017f>
   10f6c:	085a8e63          	beq	s5,t0,11008 <reset_vector+0xfbc>
   10f70:	00003517          	auipc	a0,0x3
   10f74:	7c450513          	addi	a0,a0,1988 # 14734 <end_signature+0x6a4>
   10f78:	088020ef          	jal	ra,13000 <FN_WriteStr>
   10f7c:	00003517          	auipc	a0,0x3
   10f80:	7d350513          	addi	a0,a0,2003 # 1474f <end_signature+0x6bf>
   10f84:	07c020ef          	jal	ra,13000 <FN_WriteStr>
   10f88:	00003517          	auipc	a0,0x3
   10f8c:	7da50513          	addi	a0,a0,2010 # 14762 <end_signature+0x6d2>
   10f90:	070020ef          	jal	ra,13000 <FN_WriteStr>
   10f94:	00003517          	auipc	a0,0x3
   10f98:	7d650513          	addi	a0,a0,2006 # 1476a <end_signature+0x6da>
   10f9c:	064020ef          	jal	ra,13000 <FN_WriteStr>
   10fa0:	00003517          	auipc	a0,0x3
   10fa4:	7ce50513          	addi	a0,a0,1998 # 1476e <end_signature+0x6de>
   10fa8:	058020ef          	jal	ra,13000 <FN_WriteStr>
   10fac:	00003517          	auipc	a0,0x3
   10fb0:	7c550513          	addi	a0,a0,1989 # 14771 <end_signature+0x6e1>
   10fb4:	04c020ef          	jal	ra,13000 <FN_WriteStr>
   10fb8:	00003517          	auipc	a0,0x3
   10fbc:	7bd50513          	addi	a0,a0,1981 # 14775 <end_signature+0x6e5>
   10fc0:	040020ef          	jal	ra,13000 <FN_WriteStr>
   10fc4:	000a8513          	mv	a0,s5
   10fc8:	054020ef          	jal	ra,1301c <FN_WriteA0>
   10fcc:	00003517          	auipc	a0,0x3
   10fd0:	7ab50513          	addi	a0,a0,1963 # 14777 <end_signature+0x6e7>
   10fd4:	02c020ef          	jal	ra,13000 <FN_WriteStr>
   10fd8:	00003517          	auipc	a0,0x3
   10fdc:	7a550513          	addi	a0,a0,1957 # 1477d <end_signature+0x6ed>
   10fe0:	020020ef          	jal	ra,13000 <FN_WriteStr>
   10fe4:	00003517          	auipc	a0,0x3
   10fe8:	7a450513          	addi	a0,a0,1956 # 14788 <end_signature+0x6f8>
   10fec:	014020ef          	jal	ra,13000 <FN_WriteStr>
   10ff0:	06400193          	li	gp,100
   10ff4:	0000100f          	fence.i
   10ff8:	00018063          	beqz	gp,10ff8 <reset_vector+0xfac>
   10ffc:	00119193          	slli	gp,gp,0x1
   11000:	0011e193          	ori	gp,gp,1
   11004:	00000073          	ecall
   11008:	636f72b7          	lui	t0,0x636f7
   1100c:	d2928293          	addi	t0,t0,-727 # 636f6d29 <_end+0x636e2243>
   11010:	085b0e63          	beq	s6,t0,110ac <reset_vector+0x1060>
   11014:	00003517          	auipc	a0,0x3
   11018:	77650513          	addi	a0,a0,1910 # 1478a <end_signature+0x6fa>
   1101c:	7e5010ef          	jal	ra,13000 <FN_WriteStr>
   11020:	00003517          	auipc	a0,0x3
   11024:	78550513          	addi	a0,a0,1925 # 147a5 <end_signature+0x715>
   11028:	7d9010ef          	jal	ra,13000 <FN_WriteStr>
   1102c:	00003517          	auipc	a0,0x3
   11030:	78c50513          	addi	a0,a0,1932 # 147b8 <end_signature+0x728>
   11034:	7cd010ef          	jal	ra,13000 <FN_WriteStr>
   11038:	00003517          	auipc	a0,0x3
   1103c:	78850513          	addi	a0,a0,1928 # 147c0 <end_signature+0x730>
   11040:	7c1010ef          	jal	ra,13000 <FN_WriteStr>
   11044:	00003517          	auipc	a0,0x3
   11048:	78050513          	addi	a0,a0,1920 # 147c4 <end_signature+0x734>
   1104c:	7b5010ef          	jal	ra,13000 <FN_WriteStr>
   11050:	00003517          	auipc	a0,0x3
   11054:	77750513          	addi	a0,a0,1911 # 147c7 <end_signature+0x737>
   11058:	7a9010ef          	jal	ra,13000 <FN_WriteStr>
   1105c:	00003517          	auipc	a0,0x3
   11060:	76f50513          	addi	a0,a0,1903 # 147cb <end_signature+0x73b>
   11064:	79d010ef          	jal	ra,13000 <FN_WriteStr>
   11068:	000b0513          	mv	a0,s6
   1106c:	7b1010ef          	jal	ra,1301c <FN_WriteA0>
   11070:	00003517          	auipc	a0,0x3
   11074:	75d50513          	addi	a0,a0,1885 # 147cd <end_signature+0x73d>
   11078:	789010ef          	jal	ra,13000 <FN_WriteStr>
   1107c:	00003517          	auipc	a0,0x3
   11080:	75750513          	addi	a0,a0,1879 # 147d3 <end_signature+0x743>
   11084:	77d010ef          	jal	ra,13000 <FN_WriteStr>
   11088:	00003517          	auipc	a0,0x3
   1108c:	75650513          	addi	a0,a0,1878 # 147de <end_signature+0x74e>
   11090:	771010ef          	jal	ra,13000 <FN_WriteStr>
   11094:	06400193          	li	gp,100
   11098:	0000100f          	fence.i
   1109c:	00018063          	beqz	gp,1109c <reset_vector+0x1050>
   110a0:	00119193          	slli	gp,gp,0x1
   110a4:	0011e193          	ori	gp,gp,1
   110a8:	00000073          	ecall
   110ac:	736972b7          	lui	t0,0x73697
   110b0:	02e28293          	addi	t0,t0,46 # 7369702e <_end+0x73682548>
   110b4:	085b8e63          	beq	s7,t0,11150 <reset_vector+0x1104>
   110b8:	00003517          	auipc	a0,0x3
   110bc:	72850513          	addi	a0,a0,1832 # 147e0 <end_signature+0x750>
   110c0:	741010ef          	jal	ra,13000 <FN_WriteStr>
   110c4:	00003517          	auipc	a0,0x3
   110c8:	73750513          	addi	a0,a0,1847 # 147fb <end_signature+0x76b>
   110cc:	735010ef          	jal	ra,13000 <FN_WriteStr>
   110d0:	00003517          	auipc	a0,0x3
   110d4:	73e50513          	addi	a0,a0,1854 # 1480e <end_signature+0x77e>
   110d8:	729010ef          	jal	ra,13000 <FN_WriteStr>
   110dc:	00003517          	auipc	a0,0x3
   110e0:	73a50513          	addi	a0,a0,1850 # 14816 <end_signature+0x786>
   110e4:	71d010ef          	jal	ra,13000 <FN_WriteStr>
   110e8:	00003517          	auipc	a0,0x3
   110ec:	73250513          	addi	a0,a0,1842 # 1481a <end_signature+0x78a>
   110f0:	711010ef          	jal	ra,13000 <FN_WriteStr>
   110f4:	00003517          	auipc	a0,0x3
   110f8:	72950513          	addi	a0,a0,1833 # 1481d <end_signature+0x78d>
   110fc:	705010ef          	jal	ra,13000 <FN_WriteStr>
   11100:	00003517          	auipc	a0,0x3
   11104:	72150513          	addi	a0,a0,1825 # 14821 <end_signature+0x791>
   11108:	6f9010ef          	jal	ra,13000 <FN_WriteStr>
   1110c:	000b8513          	mv	a0,s7
   11110:	70d010ef          	jal	ra,1301c <FN_WriteA0>
   11114:	00003517          	auipc	a0,0x3
   11118:	70f50513          	addi	a0,a0,1807 # 14823 <end_signature+0x793>
   1111c:	6e5010ef          	jal	ra,13000 <FN_WriteStr>
   11120:	00003517          	auipc	a0,0x3
   11124:	70950513          	addi	a0,a0,1801 # 14829 <end_signature+0x799>
   11128:	6d9010ef          	jal	ra,13000 <FN_WriteStr>
   1112c:	00003517          	auipc	a0,0x3
   11130:	70850513          	addi	a0,a0,1800 # 14834 <end_signature+0x7a4>
   11134:	6cd010ef          	jal	ra,13000 <FN_WriteStr>
   11138:	06400193          	li	gp,100
   1113c:	0000100f          	fence.i
   11140:	00018063          	beqz	gp,11140 <reset_vector+0x10f4>
   11144:	00119193          	slli	gp,gp,0x1
   11148:	0011e193          	ori	gp,gp,1
   1114c:	00000073          	ecall
   11150:	662082b7          	lui	t0,0x66208
   11154:	96f28293          	addi	t0,t0,-1681 # 6620796f <_end+0x661f2e89>
   11158:	085c0e63          	beq	s8,t0,111f4 <reset_vector+0x11a8>
   1115c:	00003517          	auipc	a0,0x3
   11160:	6da50513          	addi	a0,a0,1754 # 14836 <end_signature+0x7a6>
   11164:	69d010ef          	jal	ra,13000 <FN_WriteStr>
   11168:	00003517          	auipc	a0,0x3
   1116c:	6e950513          	addi	a0,a0,1769 # 14851 <end_signature+0x7c1>
   11170:	691010ef          	jal	ra,13000 <FN_WriteStr>
   11174:	00003517          	auipc	a0,0x3
   11178:	6f050513          	addi	a0,a0,1776 # 14864 <end_signature+0x7d4>
   1117c:	685010ef          	jal	ra,13000 <FN_WriteStr>
   11180:	00003517          	auipc	a0,0x3
   11184:	6ec50513          	addi	a0,a0,1772 # 1486c <end_signature+0x7dc>
   11188:	679010ef          	jal	ra,13000 <FN_WriteStr>
   1118c:	00003517          	auipc	a0,0x3
   11190:	6e450513          	addi	a0,a0,1764 # 14870 <end_signature+0x7e0>
   11194:	66d010ef          	jal	ra,13000 <FN_WriteStr>
   11198:	00003517          	auipc	a0,0x3
   1119c:	6db50513          	addi	a0,a0,1755 # 14873 <end_signature+0x7e3>
   111a0:	661010ef          	jal	ra,13000 <FN_WriteStr>
   111a4:	00003517          	auipc	a0,0x3
   111a8:	6d350513          	addi	a0,a0,1747 # 14877 <end_signature+0x7e7>
   111ac:	655010ef          	jal	ra,13000 <FN_WriteStr>
   111b0:	000c0513          	mv	a0,s8
   111b4:	669010ef          	jal	ra,1301c <FN_WriteA0>
   111b8:	00003517          	auipc	a0,0x3
   111bc:	6c150513          	addi	a0,a0,1729 # 14879 <end_signature+0x7e9>
   111c0:	641010ef          	jal	ra,13000 <FN_WriteStr>
   111c4:	00003517          	auipc	a0,0x3
   111c8:	6bb50513          	addi	a0,a0,1723 # 1487f <end_signature+0x7ef>
   111cc:	635010ef          	jal	ra,13000 <FN_WriteStr>
   111d0:	00003517          	auipc	a0,0x3
   111d4:	6ba50513          	addi	a0,a0,1722 # 1488a <end_signature+0x7fa>
   111d8:	629010ef          	jal	ra,13000 <FN_WriteStr>
   111dc:	06400193          	li	gp,100
   111e0:	0000100f          	fence.i
   111e4:	00018063          	beqz	gp,111e4 <reset_vector+0x1198>
   111e8:	00119193          	slli	gp,gp,0x1
   111ec:	0011e193          	ori	gp,gp,1
   111f0:	00000073          	ecall
   111f4:	676522b7          	lui	t0,0x67652
   111f8:	06928293          	addi	t0,t0,105 # 67652069 <_end+0x6763d583>
   111fc:	085c8e63          	beq	s9,t0,11298 <reset_vector+0x124c>
   11200:	00003517          	auipc	a0,0x3
   11204:	68c50513          	addi	a0,a0,1676 # 1488c <end_signature+0x7fc>
   11208:	5f9010ef          	jal	ra,13000 <FN_WriteStr>
   1120c:	00003517          	auipc	a0,0x3
   11210:	69b50513          	addi	a0,a0,1691 # 148a7 <end_signature+0x817>
   11214:	5ed010ef          	jal	ra,13000 <FN_WriteStr>
   11218:	00003517          	auipc	a0,0x3
   1121c:	6a250513          	addi	a0,a0,1698 # 148ba <end_signature+0x82a>
   11220:	5e1010ef          	jal	ra,13000 <FN_WriteStr>
   11224:	00003517          	auipc	a0,0x3
   11228:	69e50513          	addi	a0,a0,1694 # 148c2 <end_signature+0x832>
   1122c:	5d5010ef          	jal	ra,13000 <FN_WriteStr>
   11230:	00003517          	auipc	a0,0x3
   11234:	69650513          	addi	a0,a0,1686 # 148c6 <end_signature+0x836>
   11238:	5c9010ef          	jal	ra,13000 <FN_WriteStr>
   1123c:	00003517          	auipc	a0,0x3
   11240:	68d50513          	addi	a0,a0,1677 # 148c9 <end_signature+0x839>
   11244:	5bd010ef          	jal	ra,13000 <FN_WriteStr>
   11248:	00003517          	auipc	a0,0x3
   1124c:	68550513          	addi	a0,a0,1669 # 148cd <end_signature+0x83d>
   11250:	5b1010ef          	jal	ra,13000 <FN_WriteStr>
   11254:	000c8513          	mv	a0,s9
   11258:	5c5010ef          	jal	ra,1301c <FN_WriteA0>
   1125c:	00003517          	auipc	a0,0x3
   11260:	67350513          	addi	a0,a0,1651 # 148cf <end_signature+0x83f>
   11264:	59d010ef          	jal	ra,13000 <FN_WriteStr>
   11268:	00003517          	auipc	a0,0x3
   1126c:	66d50513          	addi	a0,a0,1645 # 148d5 <end_signature+0x845>
   11270:	591010ef          	jal	ra,13000 <FN_WriteStr>
   11274:	00003517          	auipc	a0,0x3
   11278:	66c50513          	addi	a0,a0,1644 # 148e0 <end_signature+0x850>
   1127c:	585010ef          	jal	ra,13000 <FN_WriteStr>
   11280:	06400193          	li	gp,100
   11284:	0000100f          	fence.i
   11288:	00018063          	beqz	gp,11288 <reset_vector+0x123c>
   1128c:	00119193          	slli	gp,gp,0x1
   11290:	0011e193          	ori	gp,gp,1
   11294:	00000073          	ecall
   11298:	657372b7          	lui	t0,0x65737
   1129c:	36128293          	addi	t0,t0,865 # 65737361 <_end+0x6572287b>
   112a0:	085d0e63          	beq	s10,t0,1133c <reset_vector+0x12f0>
   112a4:	00003517          	auipc	a0,0x3
   112a8:	63e50513          	addi	a0,a0,1598 # 148e2 <end_signature+0x852>
   112ac:	555010ef          	jal	ra,13000 <FN_WriteStr>
   112b0:	00003517          	auipc	a0,0x3
   112b4:	64d50513          	addi	a0,a0,1613 # 148fd <end_signature+0x86d>
   112b8:	549010ef          	jal	ra,13000 <FN_WriteStr>
   112bc:	00003517          	auipc	a0,0x3
   112c0:	65450513          	addi	a0,a0,1620 # 14910 <end_signature+0x880>
   112c4:	53d010ef          	jal	ra,13000 <FN_WriteStr>
   112c8:	00003517          	auipc	a0,0x3
   112cc:	65050513          	addi	a0,a0,1616 # 14918 <end_signature+0x888>
   112d0:	531010ef          	jal	ra,13000 <FN_WriteStr>
   112d4:	00003517          	auipc	a0,0x3
   112d8:	64850513          	addi	a0,a0,1608 # 1491c <end_signature+0x88c>
   112dc:	525010ef          	jal	ra,13000 <FN_WriteStr>
   112e0:	00003517          	auipc	a0,0x3
   112e4:	63f50513          	addi	a0,a0,1599 # 1491f <end_signature+0x88f>
   112e8:	519010ef          	jal	ra,13000 <FN_WriteStr>
   112ec:	00003517          	auipc	a0,0x3
   112f0:	63750513          	addi	a0,a0,1591 # 14923 <end_signature+0x893>
   112f4:	50d010ef          	jal	ra,13000 <FN_WriteStr>
   112f8:	000d0513          	mv	a0,s10
   112fc:	521010ef          	jal	ra,1301c <FN_WriteA0>
   11300:	00003517          	auipc	a0,0x3
   11304:	62550513          	addi	a0,a0,1573 # 14925 <end_signature+0x895>
   11308:	4f9010ef          	jal	ra,13000 <FN_WriteStr>
   1130c:	00003517          	auipc	a0,0x3
   11310:	61f50513          	addi	a0,a0,1567 # 1492b <end_signature+0x89b>
   11314:	4ed010ef          	jal	ra,13000 <FN_WriteStr>
   11318:	00003517          	auipc	a0,0x3
   1131c:	61e50513          	addi	a0,a0,1566 # 14936 <end_signature+0x8a6>
   11320:	4e1010ef          	jal	ra,13000 <FN_WriteStr>
   11324:	06400193          	li	gp,100
   11328:	0000100f          	fence.i
   1132c:	00018063          	beqz	gp,1132c <reset_vector+0x12e0>
   11330:	00119193          	slli	gp,gp,0x1
   11334:	0011e193          	ori	gp,gp,1
   11338:	00000073          	ecall
   1133c:	757322b7          	lui	t0,0x75732
   11340:	06d28293          	addi	t0,t0,109 # 7573206d <_end+0x7571d587>
   11344:	085d8e63          	beq	s11,t0,113e0 <reset_vector+0x1394>
   11348:	00003517          	auipc	a0,0x3
   1134c:	5f050513          	addi	a0,a0,1520 # 14938 <end_signature+0x8a8>
   11350:	4b1010ef          	jal	ra,13000 <FN_WriteStr>
   11354:	00003517          	auipc	a0,0x3
   11358:	5ff50513          	addi	a0,a0,1535 # 14953 <end_signature+0x8c3>
   1135c:	4a5010ef          	jal	ra,13000 <FN_WriteStr>
   11360:	00003517          	auipc	a0,0x3
   11364:	60650513          	addi	a0,a0,1542 # 14966 <end_signature+0x8d6>
   11368:	499010ef          	jal	ra,13000 <FN_WriteStr>
   1136c:	00003517          	auipc	a0,0x3
   11370:	60250513          	addi	a0,a0,1538 # 1496e <end_signature+0x8de>
   11374:	48d010ef          	jal	ra,13000 <FN_WriteStr>
   11378:	00003517          	auipc	a0,0x3
   1137c:	5fa50513          	addi	a0,a0,1530 # 14972 <end_signature+0x8e2>
   11380:	481010ef          	jal	ra,13000 <FN_WriteStr>
   11384:	00003517          	auipc	a0,0x3
   11388:	5f150513          	addi	a0,a0,1521 # 14975 <end_signature+0x8e5>
   1138c:	475010ef          	jal	ra,13000 <FN_WriteStr>
   11390:	00003517          	auipc	a0,0x3
   11394:	5e950513          	addi	a0,a0,1513 # 14979 <end_signature+0x8e9>
   11398:	469010ef          	jal	ra,13000 <FN_WriteStr>
   1139c:	000d8513          	mv	a0,s11
   113a0:	47d010ef          	jal	ra,1301c <FN_WriteA0>
   113a4:	00003517          	auipc	a0,0x3
   113a8:	5d750513          	addi	a0,a0,1495 # 1497b <end_signature+0x8eb>
   113ac:	455010ef          	jal	ra,13000 <FN_WriteStr>
   113b0:	00003517          	auipc	a0,0x3
   113b4:	5d150513          	addi	a0,a0,1489 # 14981 <end_signature+0x8f1>
   113b8:	449010ef          	jal	ra,13000 <FN_WriteStr>
   113bc:	00003517          	auipc	a0,0x3
   113c0:	5d050513          	addi	a0,a0,1488 # 1498c <end_signature+0x8fc>
   113c4:	43d010ef          	jal	ra,13000 <FN_WriteStr>
   113c8:	06400193          	li	gp,100
   113cc:	0000100f          	fence.i
   113d0:	00018063          	beqz	gp,113d0 <reset_vector+0x1384>
   113d4:	00119193          	slli	gp,gp,0x1
   113d8:	0011e193          	ori	gp,gp,1
   113dc:	00000073          	ecall
   113e0:	3a2912b7          	lui	t0,0x3a291
   113e4:	d0a28293          	addi	t0,t0,-758 # 3a290d0a <_end+0x3a27c224>
   113e8:	085e0e63          	beq	t3,t0,11484 <reset_vector+0x1438>
   113ec:	00003517          	auipc	a0,0x3
   113f0:	5a250513          	addi	a0,a0,1442 # 1498e <end_signature+0x8fe>
   113f4:	40d010ef          	jal	ra,13000 <FN_WriteStr>
   113f8:	00003517          	auipc	a0,0x3
   113fc:	5b150513          	addi	a0,a0,1457 # 149a9 <end_signature+0x919>
   11400:	401010ef          	jal	ra,13000 <FN_WriteStr>
   11404:	00003517          	auipc	a0,0x3
   11408:	5b850513          	addi	a0,a0,1464 # 149bc <end_signature+0x92c>
   1140c:	3f5010ef          	jal	ra,13000 <FN_WriteStr>
   11410:	00003517          	auipc	a0,0x3
   11414:	5b450513          	addi	a0,a0,1460 # 149c4 <end_signature+0x934>
   11418:	3e9010ef          	jal	ra,13000 <FN_WriteStr>
   1141c:	00003517          	auipc	a0,0x3
   11420:	5ac50513          	addi	a0,a0,1452 # 149c8 <end_signature+0x938>
   11424:	3dd010ef          	jal	ra,13000 <FN_WriteStr>
   11428:	00003517          	auipc	a0,0x3
   1142c:	5a350513          	addi	a0,a0,1443 # 149cb <end_signature+0x93b>
   11430:	3d1010ef          	jal	ra,13000 <FN_WriteStr>
   11434:	00003517          	auipc	a0,0x3
   11438:	59b50513          	addi	a0,a0,1435 # 149cf <end_signature+0x93f>
   1143c:	3c5010ef          	jal	ra,13000 <FN_WriteStr>
   11440:	000e0513          	mv	a0,t3
   11444:	3d9010ef          	jal	ra,1301c <FN_WriteA0>
   11448:	00003517          	auipc	a0,0x3
   1144c:	58950513          	addi	a0,a0,1417 # 149d1 <end_signature+0x941>
   11450:	3b1010ef          	jal	ra,13000 <FN_WriteStr>
   11454:	00003517          	auipc	a0,0x3
   11458:	58350513          	addi	a0,a0,1411 # 149d7 <end_signature+0x947>
   1145c:	3a5010ef          	jal	ra,13000 <FN_WriteStr>
   11460:	00003517          	auipc	a0,0x3
   11464:	58250513          	addi	a0,a0,1410 # 149e2 <end_signature+0x952>
   11468:	399010ef          	jal	ra,13000 <FN_WriteStr>
   1146c:	06400193          	li	gp,100
   11470:	0000100f          	fence.i
   11474:	00018063          	beqz	gp,11474 <reset_vector+0x1428>
   11478:	00119193          	slli	gp,gp,0x1
   1147c:	0011e193          	ori	gp,gp,1
   11480:	00000073          	ecall
   11484:	686972b7          	lui	t0,0x68697
   11488:	32028293          	addi	t0,t0,800 # 68697320 <_end+0x6868283a>
   1148c:	085e8e63          	beq	t4,t0,11528 <reset_vector+0x14dc>
   11490:	00003517          	auipc	a0,0x3
   11494:	55450513          	addi	a0,a0,1364 # 149e4 <end_signature+0x954>
   11498:	369010ef          	jal	ra,13000 <FN_WriteStr>
   1149c:	00003517          	auipc	a0,0x3
   114a0:	56350513          	addi	a0,a0,1379 # 149ff <end_signature+0x96f>
   114a4:	35d010ef          	jal	ra,13000 <FN_WriteStr>
   114a8:	00003517          	auipc	a0,0x3
   114ac:	56a50513          	addi	a0,a0,1386 # 14a12 <end_signature+0x982>
   114b0:	351010ef          	jal	ra,13000 <FN_WriteStr>
   114b4:	00003517          	auipc	a0,0x3
   114b8:	56650513          	addi	a0,a0,1382 # 14a1a <end_signature+0x98a>
   114bc:	345010ef          	jal	ra,13000 <FN_WriteStr>
   114c0:	00003517          	auipc	a0,0x3
   114c4:	55e50513          	addi	a0,a0,1374 # 14a1e <end_signature+0x98e>
   114c8:	339010ef          	jal	ra,13000 <FN_WriteStr>
   114cc:	00003517          	auipc	a0,0x3
   114d0:	55550513          	addi	a0,a0,1365 # 14a21 <end_signature+0x991>
   114d4:	32d010ef          	jal	ra,13000 <FN_WriteStr>
   114d8:	00003517          	auipc	a0,0x3
   114dc:	54d50513          	addi	a0,a0,1357 # 14a25 <end_signature+0x995>
   114e0:	321010ef          	jal	ra,13000 <FN_WriteStr>
   114e4:	000e8513          	mv	a0,t4
   114e8:	335010ef          	jal	ra,1301c <FN_WriteA0>
   114ec:	00003517          	auipc	a0,0x3
   114f0:	53b50513          	addi	a0,a0,1339 # 14a27 <end_signature+0x997>
   114f4:	30d010ef          	jal	ra,13000 <FN_WriteStr>
   114f8:	00003517          	auipc	a0,0x3
   114fc:	53550513          	addi	a0,a0,1333 # 14a2d <end_signature+0x99d>
   11500:	301010ef          	jal	ra,13000 <FN_WriteStr>
   11504:	00003517          	auipc	a0,0x3
   11508:	53450513          	addi	a0,a0,1332 # 14a38 <end_signature+0x9a8>
   1150c:	2f5010ef          	jal	ra,13000 <FN_WriteStr>
   11510:	06400193          	li	gp,100
   11514:	0000100f          	fence.i
   11518:	00018063          	beqz	gp,11518 <reset_vector+0x14cc>
   1151c:	00119193          	slli	gp,gp,0x1
   11520:	0011e193          	ori	gp,gp,1
   11524:	00000073          	ecall
   11528:	616422b7          	lui	t0,0x61642
   1152c:	07428293          	addi	t0,t0,116 # 61642074 <_end+0x6162d58e>
   11530:	085f0e63          	beq	t5,t0,115cc <reset_vector+0x1580>
   11534:	00003517          	auipc	a0,0x3
   11538:	50650513          	addi	a0,a0,1286 # 14a3a <end_signature+0x9aa>
   1153c:	2c5010ef          	jal	ra,13000 <FN_WriteStr>
   11540:	00003517          	auipc	a0,0x3
   11544:	51550513          	addi	a0,a0,1301 # 14a55 <end_signature+0x9c5>
   11548:	2b9010ef          	jal	ra,13000 <FN_WriteStr>
   1154c:	00003517          	auipc	a0,0x3
   11550:	51c50513          	addi	a0,a0,1308 # 14a68 <end_signature+0x9d8>
   11554:	2ad010ef          	jal	ra,13000 <FN_WriteStr>
   11558:	00003517          	auipc	a0,0x3
   1155c:	51850513          	addi	a0,a0,1304 # 14a70 <end_signature+0x9e0>
   11560:	2a1010ef          	jal	ra,13000 <FN_WriteStr>
   11564:	00003517          	auipc	a0,0x3
   11568:	51050513          	addi	a0,a0,1296 # 14a74 <end_signature+0x9e4>
   1156c:	295010ef          	jal	ra,13000 <FN_WriteStr>
   11570:	00003517          	auipc	a0,0x3
   11574:	50750513          	addi	a0,a0,1287 # 14a77 <end_signature+0x9e7>
   11578:	289010ef          	jal	ra,13000 <FN_WriteStr>
   1157c:	00003517          	auipc	a0,0x3
   11580:	4ff50513          	addi	a0,a0,1279 # 14a7b <end_signature+0x9eb>
   11584:	27d010ef          	jal	ra,13000 <FN_WriteStr>
   11588:	000f0513          	mv	a0,t5
   1158c:	291010ef          	jal	ra,1301c <FN_WriteA0>
   11590:	00003517          	auipc	a0,0x3
   11594:	4ed50513          	addi	a0,a0,1261 # 14a7d <end_signature+0x9ed>
   11598:	269010ef          	jal	ra,13000 <FN_WriteStr>
   1159c:	00003517          	auipc	a0,0x3
   115a0:	4e750513          	addi	a0,a0,1255 # 14a83 <end_signature+0x9f3>
   115a4:	25d010ef          	jal	ra,13000 <FN_WriteStr>
   115a8:	00003517          	auipc	a0,0x3
   115ac:	4e650513          	addi	a0,a0,1254 # 14a8e <end_signature+0x9fe>
   115b0:	251010ef          	jal	ra,13000 <FN_WriteStr>
   115b4:	06400193          	li	gp,100
   115b8:	0000100f          	fence.i
   115bc:	00018063          	beqz	gp,115bc <reset_vector+0x1570>
   115c0:	00119193          	slli	gp,gp,0x1
   115c4:	0011e193          	ori	gp,gp,1
   115c8:	00000073          	ecall
   115cc:	752072b7          	lui	t0,0x75207
   115d0:	26528293          	addi	t0,t0,613 # 75207265 <_end+0x751f277f>
   115d4:	085f8e63          	beq	t6,t0,11670 <reset_vector+0x1624>
   115d8:	00003517          	auipc	a0,0x3
   115dc:	4b850513          	addi	a0,a0,1208 # 14a90 <end_signature+0xa00>
   115e0:	221010ef          	jal	ra,13000 <FN_WriteStr>
   115e4:	00003517          	auipc	a0,0x3
   115e8:	4c750513          	addi	a0,a0,1223 # 14aab <end_signature+0xa1b>
   115ec:	215010ef          	jal	ra,13000 <FN_WriteStr>
   115f0:	00003517          	auipc	a0,0x3
   115f4:	4ce50513          	addi	a0,a0,1230 # 14abe <end_signature+0xa2e>
   115f8:	209010ef          	jal	ra,13000 <FN_WriteStr>
   115fc:	00003517          	auipc	a0,0x3
   11600:	4ca50513          	addi	a0,a0,1226 # 14ac6 <end_signature+0xa36>
   11604:	1fd010ef          	jal	ra,13000 <FN_WriteStr>
   11608:	00003517          	auipc	a0,0x3
   1160c:	4c250513          	addi	a0,a0,1218 # 14aca <end_signature+0xa3a>
   11610:	1f1010ef          	jal	ra,13000 <FN_WriteStr>
   11614:	00003517          	auipc	a0,0x3
   11618:	4b950513          	addi	a0,a0,1209 # 14acd <end_signature+0xa3d>
   1161c:	1e5010ef          	jal	ra,13000 <FN_WriteStr>
   11620:	00003517          	auipc	a0,0x3
   11624:	4b150513          	addi	a0,a0,1201 # 14ad1 <end_signature+0xa41>
   11628:	1d9010ef          	jal	ra,13000 <FN_WriteStr>
   1162c:	000f8513          	mv	a0,t6
   11630:	1ed010ef          	jal	ra,1301c <FN_WriteA0>
   11634:	00003517          	auipc	a0,0x3
   11638:	49f50513          	addi	a0,a0,1183 # 14ad3 <end_signature+0xa43>
   1163c:	1c5010ef          	jal	ra,13000 <FN_WriteStr>
   11640:	00003517          	auipc	a0,0x3
   11644:	49950513          	addi	a0,a0,1177 # 14ad9 <end_signature+0xa49>
   11648:	1b9010ef          	jal	ra,13000 <FN_WriteStr>
   1164c:	00003517          	auipc	a0,0x3
   11650:	49850513          	addi	a0,a0,1176 # 14ae4 <end_signature+0xa54>
   11654:	1ad010ef          	jal	ra,13000 <FN_WriteStr>
   11658:	06400193          	li	gp,100
   1165c:	0000100f          	fence.i
   11660:	00018063          	beqz	gp,11660 <reset_vector+0x1614>
   11664:	00119193          	slli	gp,gp,0x1
   11668:	0011e193          	ori	gp,gp,1
   1166c:	00000073          	ecall
   11670:	00003217          	auipc	tp,0x3
   11674:	a1020213          	addi	tp,tp,-1520 # 14080 <test_A3_res>
   11678:	00022023          	sw	zero,0(tp) # 0 <_start-0x10000>
   1167c:	00122223          	sw	ra,4(tp) # 4 <_start-0xfffc>
   11680:	00222423          	sw	sp,8(tp) # 8 <_start-0xfff8>
   11684:	00322623          	sw	gp,12(tp) # c <_start-0xfff4>
   11688:	0000100f          	fence.i
   1168c:	00100193          	li	gp,1
   11690:	00000073          	ecall
   11694:	c0001073          	unimp
	...

Disassembly of section .tohost:

00012000 <tohost>:
	...

00012100 <fromhost>:
	...

Disassembly of section .text:

00013000 <FN_WriteStr>:
   13000:	00050293          	mv	t0,a0
   13004:	0002c503          	lbu	a0,0(t0)
   13008:	00128293          	addi	t0,t0,1
   1300c:	00050663          	beqz	a0,13018 <FN_WriteStr+0x18>
   13010:	0005200b          	0x5200b
   13014:	ff1ff06f          	j	13004 <FN_WriteStr+0x4>
   13018:	00008067          	ret

0001301c <FN_WriteA0>:
   1301c:	00050293          	mv	t0,a0
   13020:	fff00513          	li	a0,-1
   13024:	01f55513          	srli	a0,a0,0x1f
   13028:	00155513          	srli	a0,a0,0x1
   1302c:	02051463          	bnez	a0,13054 <FN_WriteA0_64>

00013030 <FN_WriteA0_32>:
   13030:	00800313          	li	t1,8
   13034:	00439393          	slli	t2,t2,0x4
   13038:	00f2f513          	andi	a0,t0,15
   1303c:	0042d293          	srli	t0,t0,0x4
   13040:	00a3e3b3          	or	t2,t2,a0
   13044:	fff30313          	addi	t1,t1,-1
   13048:	fe0316e3          	bnez	t1,13034 <FN_WriteA0_32+0x4>
   1304c:	00800313          	li	t1,8
   13050:	0240006f          	j	13074 <FN_WriteA0_common>

00013054 <FN_WriteA0_64>:
   13054:	01000313          	li	t1,16
   13058:	00439393          	slli	t2,t2,0x4
   1305c:	00f2f513          	andi	a0,t0,15
   13060:	0042d293          	srli	t0,t0,0x4
   13064:	00a3e3b3          	or	t2,t2,a0
   13068:	fff30313          	addi	t1,t1,-1
   1306c:	fe0316e3          	bnez	t1,13058 <FN_WriteA0_64+0x4>
   13070:	01000313          	li	t1,16

00013074 <FN_WriteA0_common>:
   13074:	00a00293          	li	t0,10
   13078:	00f3f513          	andi	a0,t2,15
   1307c:	00554663          	blt	a0,t0,13088 <FN_WriteA0_common+0x14>
   13080:	05750513          	addi	a0,a0,87
   13084:	0080006f          	j	1308c <FN_WriteA0_common+0x18>
   13088:	03050513          	addi	a0,a0,48
   1308c:	0005200b          	0x5200b
   13090:	0043d393          	srli	t2,t2,0x4
   13094:	fff30313          	addi	t1,t1,-1
   13098:	fe0310e3          	bnez	t1,13078 <FN_WriteA0_common+0x4>
   1309c:	00008067          	ret

Disassembly of section .data:

00014000 <begin_signature>:
   14000:	ffff                	0xffff
   14002:	ffff                	0xffff
   14004:	ffff                	0xffff
   14006:	ffff                	0xffff
   14008:	ffff                	0xffff
   1400a:	ffff                	0xffff
   1400c:	ffff                	0xffff
   1400e:	ffff                	0xffff
   14010:	ffff                	0xffff
   14012:	ffff                	0xffff
   14014:	ffff                	0xffff
   14016:	ffff                	0xffff
   14018:	ffff                	0xffff
   1401a:	ffff                	0xffff
   1401c:	ffff                	0xffff
   1401e:	ffff                	0xffff
   14020:	ffff                	0xffff
   14022:	ffff                	0xffff
   14024:	ffff                	0xffff
   14026:	ffff                	0xffff
   14028:	ffff                	0xffff
   1402a:	ffff                	0xffff
   1402c:	ffff                	0xffff
   1402e:	ffff                	0xffff
   14030:	ffff                	0xffff
   14032:	ffff                	0xffff
   14034:	ffff                	0xffff
   14036:	ffff                	0xffff
   14038:	ffff                	0xffff
   1403a:	ffff                	0xffff
   1403c:	ffff                	0xffff
   1403e:	ffff                	0xffff

00014040 <test_A2_res>:
   14040:	ffff                	0xffff
   14042:	ffff                	0xffff
   14044:	ffff                	0xffff
   14046:	ffff                	0xffff
   14048:	ffff                	0xffff
   1404a:	ffff                	0xffff
   1404c:	ffff                	0xffff
   1404e:	ffff                	0xffff
   14050:	ffff                	0xffff
   14052:	ffff                	0xffff
   14054:	ffff                	0xffff
   14056:	ffff                	0xffff
   14058:	ffff                	0xffff
   1405a:	ffff                	0xffff
   1405c:	ffff                	0xffff
   1405e:	ffff                	0xffff
   14060:	ffff                	0xffff
   14062:	ffff                	0xffff
   14064:	ffff                	0xffff
   14066:	ffff                	0xffff
   14068:	ffff                	0xffff
   1406a:	ffff                	0xffff
   1406c:	ffff                	0xffff
   1406e:	ffff                	0xffff
   14070:	ffff                	0xffff
   14072:	ffff                	0xffff
   14074:	ffff                	0xffff
   14076:	ffff                	0xffff
   14078:	ffff                	0xffff
   1407a:	ffff                	0xffff
   1407c:	ffff                	0xffff
   1407e:	ffff                	0xffff

00014080 <test_A3_res>:
   14080:	ffff                	0xffff
   14082:	ffff                	0xffff
   14084:	ffff                	0xffff
   14086:	ffff                	0xffff
   14088:	ffff                	0xffff
   1408a:	ffff                	0xffff
   1408c:	ffff                	0xffff
   1408e:	ffff                	0xffff

Disassembly of section .data.string:

00014090 <_end-0xa56>:
   14090:	7341                	lui	t1,0xffff0
   14092:	74726573          	csrrsi	a0,0x747,4
   14096:	6f69                	lui	t5,0x1a
   14098:	206e                	fld	ft0,216(sp)
   1409a:	6976                	flw	fs2,92(sp)
   1409c:	74616c6f          	jal	s8,2a7e2 <_end+0x15cfc>
   140a0:	6f69                	lui	t5,0x1a
   140a2:	3a6e                	fld	fs4,248(sp)
   140a4:	6620                	flw	fs0,72(a2)
   140a6:	6c69                	lui	s8,0x1a
   140a8:	2065                	jal	14150 <end_signature+0xc0>
   140aa:	7300                	flw	fs0,32(a4)
   140ac:	6372                	flw	ft6,28(sp)
   140ae:	522d492f          	0x522d492f
   140b2:	5f46                	lw	t5,112(sp)
   140b4:	657a6973          	csrrsi	s2,0x657,20
   140b8:	302d                	jal	138e2 <FN_WriteA0_common+0x86e>
   140ba:	2e31                	jal	143d6 <end_signature+0x346>
   140bc:	202c0053          	fsgnj.s	ft0,fs8,ft2
   140c0:	696c                	flw	fa1,84(a0)
   140c2:	656e                	flw	fa0,216(sp)
   140c4:	0020                	addi	s0,sp,8
   140c6:	3134                	fld	fa3,96(a0)
   140c8:	3a00                	fld	fs0,48(a2)
   140ca:	0020                	addi	s0,sp,8
   140cc:	3078                	fld	fa4,224(s0)
   140ce:	2800                	fld	fs0,16(s0)
   140d0:	2900                	fld	fs0,16(a0)
   140d2:	2120                	fld	fs0,64(a0)
   140d4:	203d                	jal	14102 <end_signature+0x72>
   140d6:	3000                	fld	fs0,32(s0)
   140d8:	3078                	fld	fa4,224(s0)
   140da:	3030                	fld	fa2,96(s0)
   140dc:	3030                	fld	fa2,96(s0)
   140de:	3030                	fld	fa2,96(s0)
   140e0:	0030                	addi	a2,sp,8
   140e2:	000a                	c.slli	zero,0x2
   140e4:	7341                	lui	t1,0xffff0
   140e6:	74726573          	csrrsi	a0,0x747,4
   140ea:	6f69                	lui	t5,0x1a
   140ec:	206e                	fld	ft0,216(sp)
   140ee:	6976                	flw	fs2,92(sp)
   140f0:	74616c6f          	jal	s8,2a836 <_end+0x15d50>
   140f4:	6f69                	lui	t5,0x1a
   140f6:	3a6e                	fld	fs4,248(sp)
   140f8:	6620                	flw	fs0,72(a2)
   140fa:	6c69                	lui	s8,0x1a
   140fc:	2065                	jal	141a4 <end_signature+0x114>
   140fe:	7300                	flw	fs0,32(a4)
   14100:	6372                	flw	ft6,28(sp)
   14102:	522d492f          	0x522d492f
   14106:	5f46                	lw	t5,112(sp)
   14108:	657a6973          	csrrsi	s2,0x657,20
   1410c:	302d                	jal	13936 <FN_WriteA0_common+0x8c2>
   1410e:	2e31                	jal	1442a <end_signature+0x39a>
   14110:	202c0053          	fsgnj.s	ft0,fs8,ft2
   14114:	696c                	flw	fa1,84(a0)
   14116:	656e                	flw	fa0,216(sp)
   14118:	0020                	addi	s0,sp,8
   1411a:	3039                	jal	13928 <FN_WriteA0_common+0x8b4>
   1411c:	3a00                	fld	fs0,48(a2)
   1411e:	0020                	addi	s0,sp,8
   14120:	3078                	fld	fa4,224(s0)
   14122:	2800                	fld	fs0,16(s0)
   14124:	2900                	fld	fs0,16(a0)
   14126:	2120                	fld	fs0,64(a0)
   14128:	203d                	jal	14156 <end_signature+0xc6>
   1412a:	3000                	fld	fs0,32(s0)
   1412c:	3078                	fld	fa4,224(s0)
   1412e:	3030                	fld	fa2,96(s0)
   14130:	3030                	fld	fa2,96(s0)
   14132:	3030                	fld	fa2,96(s0)
   14134:	0030                	addi	a2,sp,8
   14136:	000a                	c.slli	zero,0x2
   14138:	7341                	lui	t1,0xffff0
   1413a:	74726573          	csrrsi	a0,0x747,4
   1413e:	6f69                	lui	t5,0x1a
   14140:	206e                	fld	ft0,216(sp)
   14142:	6976                	flw	fs2,92(sp)
   14144:	74616c6f          	jal	s8,2a88a <_end+0x15da4>
   14148:	6f69                	lui	t5,0x1a
   1414a:	3a6e                	fld	fs4,248(sp)
   1414c:	6620                	flw	fs0,72(a2)
   1414e:	6c69                	lui	s8,0x1a
   14150:	2065                	jal	141f8 <end_signature+0x168>
   14152:	7300                	flw	fs0,32(a4)
   14154:	6372                	flw	ft6,28(sp)
   14156:	522d492f          	0x522d492f
   1415a:	5f46                	lw	t5,112(sp)
   1415c:	657a6973          	csrrsi	s2,0x657,20
   14160:	302d                	jal	1398a <FN_WriteA0_common+0x916>
   14162:	2e31                	jal	1447e <end_signature+0x3ee>
   14164:	202c0053          	fsgnj.s	ft0,fs8,ft2
   14168:	696c                	flw	fa1,84(a0)
   1416a:	656e                	flw	fa0,216(sp)
   1416c:	0020                	addi	s0,sp,8
   1416e:	3239                	jal	13a7c <FN_WriteA0_common+0xa08>
   14170:	3a00                	fld	fs0,48(a2)
   14172:	0020                	addi	s0,sp,8
   14174:	3278                	fld	fa4,224(a2)
   14176:	2800                	fld	fs0,16(s0)
   14178:	2900                	fld	fs0,16(a0)
   1417a:	2120                	fld	fs0,64(a0)
   1417c:	203d                	jal	141aa <end_signature+0x11a>
   1417e:	3000                	fld	fs0,32(s0)
   14180:	3278                	fld	fa4,224(a2)
   14182:	3544                	fld	fs1,168(a0)
   14184:	3236                	fld	ft4,360(sp)
   14186:	3530                	fld	fa2,104(a0)
   14188:	0032                	c.slli	zero,0xc
   1418a:	000a                	c.slli	zero,0x2
   1418c:	7341                	lui	t1,0xffff0
   1418e:	74726573          	csrrsi	a0,0x747,4
   14192:	6f69                	lui	t5,0x1a
   14194:	206e                	fld	ft0,216(sp)
   14196:	6976                	flw	fs2,92(sp)
   14198:	74616c6f          	jal	s8,2a8de <_end+0x15df8>
   1419c:	6f69                	lui	t5,0x1a
   1419e:	3a6e                	fld	fs4,248(sp)
   141a0:	6620                	flw	fs0,72(a2)
   141a2:	6c69                	lui	s8,0x1a
   141a4:	2065                	jal	1424c <end_signature+0x1bc>
   141a6:	7300                	flw	fs0,32(a4)
   141a8:	6372                	flw	ft6,28(sp)
   141aa:	522d492f          	0x522d492f
   141ae:	5f46                	lw	t5,112(sp)
   141b0:	657a6973          	csrrsi	s2,0x657,20
   141b4:	302d                	jal	139de <FN_WriteA0_common+0x96a>
   141b6:	2e31                	jal	144d2 <end_signature+0x442>
   141b8:	202c0053          	fsgnj.s	ft0,fs8,ft2
   141bc:	696c                	flw	fa1,84(a0)
   141be:	656e                	flw	fa0,216(sp)
   141c0:	0020                	addi	s0,sp,8
   141c2:	3339                	jal	13ed0 <FN_WriteA0_common+0xe5c>
   141c4:	3a00                	fld	fs0,48(a2)
   141c6:	0020                	addi	s0,sp,8
   141c8:	3378                	fld	fa4,224(a4)
   141ca:	2800                	fld	fs0,16(s0)
   141cc:	2900                	fld	fs0,16(a0)
   141ce:	2120                	fld	fs0,64(a0)
   141d0:	203d                	jal	141fe <end_signature+0x16e>
   141d2:	3000                	fld	fs0,32(s0)
   141d4:	3578                	fld	fa4,232(a0)
   141d6:	3632                	fld	fa2,296(sp)
   141d8:	3739                	jal	140e6 <end_signature+0x56>
   141da:	00333633          	sltu	a2,t1,gp
   141de:	000a                	c.slli	zero,0x2
   141e0:	7341                	lui	t1,0xffff0
   141e2:	74726573          	csrrsi	a0,0x747,4
   141e6:	6f69                	lui	t5,0x1a
   141e8:	206e                	fld	ft0,216(sp)
   141ea:	6976                	flw	fs2,92(sp)
   141ec:	74616c6f          	jal	s8,2a932 <_end+0x15e4c>
   141f0:	6f69                	lui	t5,0x1a
   141f2:	3a6e                	fld	fs4,248(sp)
   141f4:	6620                	flw	fs0,72(a2)
   141f6:	6c69                	lui	s8,0x1a
   141f8:	2065                	jal	142a0 <end_signature+0x210>
   141fa:	7300                	flw	fs0,32(a4)
   141fc:	6372                	flw	ft6,28(sp)
   141fe:	522d492f          	0x522d492f
   14202:	5f46                	lw	t5,112(sp)
   14204:	657a6973          	csrrsi	s2,0x657,20
   14208:	302d                	jal	13a32 <FN_WriteA0_common+0x9be>
   1420a:	2e31                	jal	14526 <end_signature+0x496>
   1420c:	202c0053          	fsgnj.s	ft0,fs8,ft2
   14210:	696c                	flw	fa1,84(a0)
   14212:	656e                	flw	fa0,216(sp)
   14214:	0020                	addi	s0,sp,8
   14216:	3439                	jal	13c24 <FN_WriteA0_common+0xbb0>
   14218:	3a00                	fld	fs0,48(a2)
   1421a:	0020                	addi	s0,sp,8
   1421c:	3478                	fld	fa4,232(s0)
   1421e:	2800                	fld	fs0,16(s0)
   14220:	2900                	fld	fs0,16(a0)
   14222:	2120                	fld	fs0,64(a0)
   14224:	203d                	jal	14252 <end_signature+0x1c2>
   14226:	3000                	fld	fs0,32(s0)
   14228:	3778                	fld	fa4,232(a4)
   1422a:	37423633          	0x37423633
   1422e:	3239                	jal	13b3c <FN_WriteA0_common+0xac8>
   14230:	0030                	addi	a2,sp,8
   14232:	000a                	c.slli	zero,0x2
   14234:	7341                	lui	t1,0xffff0
   14236:	74726573          	csrrsi	a0,0x747,4
   1423a:	6f69                	lui	t5,0x1a
   1423c:	206e                	fld	ft0,216(sp)
   1423e:	6976                	flw	fs2,92(sp)
   14240:	74616c6f          	jal	s8,2a986 <_end+0x15ea0>
   14244:	6f69                	lui	t5,0x1a
   14246:	3a6e                	fld	fs4,248(sp)
   14248:	6620                	flw	fs0,72(a2)
   1424a:	6c69                	lui	s8,0x1a
   1424c:	2065                	jal	142f4 <end_signature+0x264>
   1424e:	7300                	flw	fs0,32(a4)
   14250:	6372                	flw	ft6,28(sp)
   14252:	522d492f          	0x522d492f
   14256:	5f46                	lw	t5,112(sp)
   14258:	657a6973          	csrrsi	s2,0x657,20
   1425c:	302d                	jal	13a86 <FN_WriteA0_common+0xa12>
   1425e:	2e31                	jal	1457a <end_signature+0x4ea>
   14260:	202c0053          	fsgnj.s	ft0,fs8,ft2
   14264:	696c                	flw	fa1,84(a0)
   14266:	656e                	flw	fa0,216(sp)
   14268:	0020                	addi	s0,sp,8
   1426a:	3539                	jal	14078 <test_A2_res+0x38>
   1426c:	3a00                	fld	fs0,48(a2)
   1426e:	0020                	addi	s0,sp,8
   14270:	3578                	fld	fa4,232(a0)
   14272:	2800                	fld	fs0,16(s0)
   14274:	2900                	fld	fs0,16(a0)
   14276:	2120                	fld	fs0,64(a0)
   14278:	203d                	jal	142a6 <end_signature+0x216>
   1427a:	3000                	fld	fs0,32(s0)
   1427c:	3678                	fld	fa4,232(a2)
   1427e:	3245                	jal	13c1e <FN_WriteA0_common+0xbaa>
   14280:	3430                	fld	fa2,104(s0)
   14282:	3645                	jal	13e22 <FN_WriteA0_common+0xdae>
   14284:	0046                	c.slli	zero,0x11
   14286:	000a                	c.slli	zero,0x2
   14288:	7341                	lui	t1,0xffff0
   1428a:	74726573          	csrrsi	a0,0x747,4
   1428e:	6f69                	lui	t5,0x1a
   14290:	206e                	fld	ft0,216(sp)
   14292:	6976                	flw	fs2,92(sp)
   14294:	74616c6f          	jal	s8,2a9da <_end+0x15ef4>
   14298:	6f69                	lui	t5,0x1a
   1429a:	3a6e                	fld	fs4,248(sp)
   1429c:	6620                	flw	fs0,72(a2)
   1429e:	6c69                	lui	s8,0x1a
   142a0:	2065                	jal	14348 <end_signature+0x2b8>
   142a2:	7300                	flw	fs0,32(a4)
   142a4:	6372                	flw	ft6,28(sp)
   142a6:	522d492f          	0x522d492f
   142aa:	5f46                	lw	t5,112(sp)
   142ac:	657a6973          	csrrsi	s2,0x657,20
   142b0:	302d                	jal	13ada <FN_WriteA0_common+0xa66>
   142b2:	2e31                	jal	145ce <end_signature+0x53e>
   142b4:	202c0053          	fsgnj.s	ft0,fs8,ft2
   142b8:	696c                	flw	fa1,84(a0)
   142ba:	656e                	flw	fa0,216(sp)
   142bc:	0020                	addi	s0,sp,8
   142be:	3639                	jal	13dcc <FN_WriteA0_common+0xd58>
   142c0:	3a00                	fld	fs0,48(a2)
   142c2:	0020                	addi	s0,sp,8
   142c4:	3678                	fld	fa4,232(a2)
   142c6:	2800                	fld	fs0,16(s0)
   142c8:	2900                	fld	fs0,16(a0)
   142ca:	2120                	fld	fs0,64(a0)
   142cc:	203d                	jal	142fa <end_signature+0x26a>
   142ce:	3000                	fld	fs0,32(s0)
   142d0:	3678                	fld	fa4,232(a2)
   142d2:	3245                	jal	13c72 <FN_WriteA0_common+0xbfe>
   142d4:	3430                	fld	fa2,104(s0)
   142d6:	3645                	jal	13e76 <FN_WriteA0_common+0xe02>
   142d8:	0046                	c.slli	zero,0x11
   142da:	000a                	c.slli	zero,0x2
   142dc:	7341                	lui	t1,0xffff0
   142de:	74726573          	csrrsi	a0,0x747,4
   142e2:	6f69                	lui	t5,0x1a
   142e4:	206e                	fld	ft0,216(sp)
   142e6:	6976                	flw	fs2,92(sp)
   142e8:	74616c6f          	jal	s8,2aa2e <_end+0x15f48>
   142ec:	6f69                	lui	t5,0x1a
   142ee:	3a6e                	fld	fs4,248(sp)
   142f0:	6620                	flw	fs0,72(a2)
   142f2:	6c69                	lui	s8,0x1a
   142f4:	2065                	jal	1439c <end_signature+0x30c>
   142f6:	7300                	flw	fs0,32(a4)
   142f8:	6372                	flw	ft6,28(sp)
   142fa:	522d492f          	0x522d492f
   142fe:	5f46                	lw	t5,112(sp)
   14300:	657a6973          	csrrsi	s2,0x657,20
   14304:	302d                	jal	13b2e <FN_WriteA0_common+0xaba>
   14306:	2e31                	jal	14622 <end_signature+0x592>
   14308:	202c0053          	fsgnj.s	ft0,fs8,ft2
   1430c:	696c                	flw	fa1,84(a0)
   1430e:	656e                	flw	fa0,216(sp)
   14310:	0020                	addi	s0,sp,8
   14312:	3739                	jal	14220 <end_signature+0x190>
   14314:	3a00                	fld	fs0,48(a2)
   14316:	0020                	addi	s0,sp,8
   14318:	3778                	fld	fa4,232(a4)
   1431a:	2800                	fld	fs0,16(s0)
   1431c:	2900                	fld	fs0,16(a0)
   1431e:	2120                	fld	fs0,64(a0)
   14320:	203d                	jal	1434e <end_signature+0x2be>
   14322:	3000                	fld	fs0,32(s0)
   14324:	3478                	fld	fa4,232(s0)
   14326:	3644                	fld	fs1,168(a2)
   14328:	3639                	jal	13e36 <FN_WriteA0_common+0xdc2>
   1432a:	00313643          	fmadd.s	fa2,ft2,ft3,ft0,rup
   1432e:	000a                	c.slli	zero,0x2
   14330:	7341                	lui	t1,0xffff0
   14332:	74726573          	csrrsi	a0,0x747,4
   14336:	6f69                	lui	t5,0x1a
   14338:	206e                	fld	ft0,216(sp)
   1433a:	6976                	flw	fs2,92(sp)
   1433c:	74616c6f          	jal	s8,2aa82 <_end+0x15f9c>
   14340:	6f69                	lui	t5,0x1a
   14342:	3a6e                	fld	fs4,248(sp)
   14344:	6620                	flw	fs0,72(a2)
   14346:	6c69                	lui	s8,0x1a
   14348:	2065                	jal	143f0 <end_signature+0x360>
   1434a:	7300                	flw	fs0,32(a4)
   1434c:	6372                	flw	ft6,28(sp)
   1434e:	522d492f          	0x522d492f
   14352:	5f46                	lw	t5,112(sp)
   14354:	657a6973          	csrrsi	s2,0x657,20
   14358:	302d                	jal	13b82 <FN_WriteA0_common+0xb0e>
   1435a:	2e31                	jal	14676 <end_signature+0x5e6>
   1435c:	202c0053          	fsgnj.s	ft0,fs8,ft2
   14360:	696c                	flw	fa1,84(a0)
   14362:	656e                	flw	fa0,216(sp)
   14364:	0020                	addi	s0,sp,8
   14366:	3839                	jal	13b84 <FN_WriteA0_common+0xb10>
   14368:	3a00                	fld	fs0,48(a2)
   1436a:	0020                	addi	s0,sp,8
   1436c:	3878                	fld	fa4,240(s0)
   1436e:	2800                	fld	fs0,16(s0)
   14370:	2900                	fld	fs0,16(a0)
   14372:	2120                	fld	fs0,64(a0)
   14374:	203d                	jal	143a2 <end_signature+0x312>
   14376:	3000                	fld	fs0,32(s0)
   14378:	3678                	fld	fa4,232(a2)
   1437a:	3646                	fld	fa2,112(sp)
   1437c:	3634                	fld	fa3,104(a2)
   1437e:	3731                	jal	1428a <end_signature+0x1fa>
   14380:	000a0033          	add	zero,s4,zero
   14384:	7341                	lui	t1,0xffff0
   14386:	74726573          	csrrsi	a0,0x747,4
   1438a:	6f69                	lui	t5,0x1a
   1438c:	206e                	fld	ft0,216(sp)
   1438e:	6976                	flw	fs2,92(sp)
   14390:	74616c6f          	jal	s8,2aad6 <_end+0x15ff0>
   14394:	6f69                	lui	t5,0x1a
   14396:	3a6e                	fld	fs4,248(sp)
   14398:	6620                	flw	fs0,72(a2)
   1439a:	6c69                	lui	s8,0x1a
   1439c:	2065                	jal	14444 <end_signature+0x3b4>
   1439e:	7300                	flw	fs0,32(a4)
   143a0:	6372                	flw	ft6,28(sp)
   143a2:	522d492f          	0x522d492f
   143a6:	5f46                	lw	t5,112(sp)
   143a8:	657a6973          	csrrsi	s2,0x657,20
   143ac:	302d                	jal	13bd6 <FN_WriteA0_common+0xb62>
   143ae:	2e31                	jal	146ca <end_signature+0x63a>
   143b0:	202c0053          	fsgnj.s	ft0,fs8,ft2
   143b4:	696c                	flw	fa1,84(a0)
   143b6:	656e                	flw	fa0,216(sp)
   143b8:	0020                	addi	s0,sp,8
   143ba:	3939                	jal	13fd8 <FN_WriteA0_common+0xf64>
   143bc:	3a00                	fld	fs0,48(a2)
   143be:	0020                	addi	s0,sp,8
   143c0:	3978                	fld	fa4,240(a0)
   143c2:	2800                	fld	fs0,16(s0)
   143c4:	2900                	fld	fs0,16(a0)
   143c6:	2120                	fld	fs0,64(a0)
   143c8:	203d                	jal	143f6 <end_signature+0x366>
   143ca:	3000                	fld	fs0,32(s0)
   143cc:	3678                	fld	fa4,232(a2)
   143ce:	3742                	fld	fa4,48(sp)
   143d0:	3439                	jal	13dde <FN_WriteA0_common+0xd6a>
   143d2:	3630                	fld	fa2,104(a2)
   143d4:	000a0033          	add	zero,s4,zero
   143d8:	7341                	lui	t1,0xffff0
   143da:	74726573          	csrrsi	a0,0x747,4
   143de:	6f69                	lui	t5,0x1a
   143e0:	206e                	fld	ft0,216(sp)
   143e2:	6976                	flw	fs2,92(sp)
   143e4:	74616c6f          	jal	s8,2ab2a <_end+0x16044>
   143e8:	6f69                	lui	t5,0x1a
   143ea:	3a6e                	fld	fs4,248(sp)
   143ec:	6620                	flw	fs0,72(a2)
   143ee:	6c69                	lui	s8,0x1a
   143f0:	2065                	jal	14498 <end_signature+0x408>
   143f2:	7300                	flw	fs0,32(a4)
   143f4:	6372                	flw	ft6,28(sp)
   143f6:	522d492f          	0x522d492f
   143fa:	5f46                	lw	t5,112(sp)
   143fc:	657a6973          	csrrsi	s2,0x657,20
   14400:	302d                	jal	13c2a <FN_WriteA0_common+0xbb6>
   14402:	2e31                	jal	1471e <end_signature+0x68e>
   14404:	202c0053          	fsgnj.s	ft0,fs8,ft2
   14408:	696c                	flw	fa1,84(a0)
   1440a:	656e                	flw	fa0,216(sp)
   1440c:	0020                	addi	s0,sp,8
   1440e:	3031                	jal	13c1a <FN_WriteA0_common+0xba6>
   14410:	0031                	c.nop	12
   14412:	203a                	fld	ft0,392(sp)
   14414:	7800                	flw	fs0,48(s0)
   14416:	3131                	jal	14022 <begin_signature+0x22>
   14418:	2800                	fld	fs0,16(s0)
   1441a:	2900                	fld	fs0,16(a0)
   1441c:	2120                	fld	fs0,64(a0)
   1441e:	203d                	jal	1444c <end_signature+0x3bc>
   14420:	3000                	fld	fs0,32(s0)
   14422:	3278                	fld	fa4,224(a2)
   14424:	3638                	fld	fa4,104(a2)
   14426:	3645                	jal	13fc6 <FN_WriteA0_common+0xf52>
   14428:	3746                	fld	fa4,112(sp)
   1442a:	000a0033          	add	zero,s4,zero
   1442e:	7341                	lui	t1,0xffff0
   14430:	74726573          	csrrsi	a0,0x747,4
   14434:	6f69                	lui	t5,0x1a
   14436:	206e                	fld	ft0,216(sp)
   14438:	6976                	flw	fs2,92(sp)
   1443a:	74616c6f          	jal	s8,2ab80 <_end+0x1609a>
   1443e:	6f69                	lui	t5,0x1a
   14440:	3a6e                	fld	fs4,248(sp)
   14442:	6620                	flw	fs0,72(a2)
   14444:	6c69                	lui	s8,0x1a
   14446:	2065                	jal	144ee <end_signature+0x45e>
   14448:	7300                	flw	fs0,32(a4)
   1444a:	6372                	flw	ft6,28(sp)
   1444c:	522d492f          	0x522d492f
   14450:	5f46                	lw	t5,112(sp)
   14452:	657a6973          	csrrsi	s2,0x657,20
   14456:	302d                	jal	13c80 <FN_WriteA0_common+0xc0c>
   14458:	2e31                	jal	14774 <end_signature+0x6e4>
   1445a:	202c0053          	fsgnj.s	ft0,fs8,ft2
   1445e:	696c                	flw	fa1,84(a0)
   14460:	656e                	flw	fa0,216(sp)
   14462:	0020                	addi	s0,sp,8
   14464:	3031                	jal	13c70 <FN_WriteA0_common+0xbfc>
   14466:	0032                	c.slli	zero,0xc
   14468:	203a                	fld	ft0,392(sp)
   1446a:	7800                	flw	fs0,48(s0)
   1446c:	3231                	jal	13d78 <FN_WriteA0_common+0xd04>
   1446e:	2800                	fld	fs0,16(s0)
   14470:	2900                	fld	fs0,16(a0)
   14472:	2120                	fld	fs0,64(a0)
   14474:	203d                	jal	144a2 <end_signature+0x412>
   14476:	3000                	fld	fs0,32(s0)
   14478:	3678                	fld	fa4,232(a2)
   1447a:	3635                	jal	13fa6 <FN_WriteA0_common+0xf32>
   1447c:	3242                	fld	ft4,48(sp)
   1447e:	3430                	fld	fa2,104(s0)
   14480:	0038                	addi	a4,sp,8
   14482:	000a                	c.slli	zero,0x2
   14484:	7341                	lui	t1,0xffff0
   14486:	74726573          	csrrsi	a0,0x747,4
   1448a:	6f69                	lui	t5,0x1a
   1448c:	206e                	fld	ft0,216(sp)
   1448e:	6976                	flw	fs2,92(sp)
   14490:	74616c6f          	jal	s8,2abd6 <_end+0x160f0>
   14494:	6f69                	lui	t5,0x1a
   14496:	3a6e                	fld	fs4,248(sp)
   14498:	6620                	flw	fs0,72(a2)
   1449a:	6c69                	lui	s8,0x1a
   1449c:	2065                	jal	14544 <end_signature+0x4b4>
   1449e:	7300                	flw	fs0,32(a4)
   144a0:	6372                	flw	ft6,28(sp)
   144a2:	522d492f          	0x522d492f
   144a6:	5f46                	lw	t5,112(sp)
   144a8:	657a6973          	csrrsi	s2,0x657,20
   144ac:	302d                	jal	13cd6 <FN_WriteA0_common+0xc62>
   144ae:	2e31                	jal	147ca <end_signature+0x73a>
   144b0:	202c0053          	fsgnj.s	ft0,fs8,ft2
   144b4:	696c                	flw	fa1,84(a0)
   144b6:	656e                	flw	fa0,216(sp)
   144b8:	0020                	addi	s0,sp,8
   144ba:	3031                	jal	13cc6 <FN_WriteA0_common+0xc52>
   144bc:	203a0033          	0x203a0033
   144c0:	7800                	flw	fs0,48(s0)
   144c2:	3331                	jal	141ce <end_signature+0x13e>
   144c4:	2800                	fld	fs0,16(s0)
   144c6:	2900                	fld	fs0,16(a0)
   144c8:	2120                	fld	fs0,64(a0)
   144ca:	203d                	jal	144f8 <end_signature+0x468>
   144cc:	3000                	fld	fs0,32(s0)
   144ce:	3278                	fld	fa4,224(a2)
   144d0:	3530                	fld	fa2,104(a0)
   144d2:	3632                	fld	fa2,296(sp)
   144d4:	3631                	jal	13fe0 <FN_WriteA0_common+0xf6c>
   144d6:	0034                	addi	a3,sp,8
   144d8:	000a                	c.slli	zero,0x2
   144da:	7341                	lui	t1,0xffff0
   144dc:	74726573          	csrrsi	a0,0x747,4
   144e0:	6f69                	lui	t5,0x1a
   144e2:	206e                	fld	ft0,216(sp)
   144e4:	6976                	flw	fs2,92(sp)
   144e6:	74616c6f          	jal	s8,2ac2c <_end+0x16146>
   144ea:	6f69                	lui	t5,0x1a
   144ec:	3a6e                	fld	fs4,248(sp)
   144ee:	6620                	flw	fs0,72(a2)
   144f0:	6c69                	lui	s8,0x1a
   144f2:	2065                	jal	1459a <end_signature+0x50a>
   144f4:	7300                	flw	fs0,32(a4)
   144f6:	6372                	flw	ft6,28(sp)
   144f8:	522d492f          	0x522d492f
   144fc:	5f46                	lw	t5,112(sp)
   144fe:	657a6973          	csrrsi	s2,0x657,20
   14502:	302d                	jal	13d2c <FN_WriteA0_common+0xcb8>
   14504:	2e31                	jal	14820 <end_signature+0x790>
   14506:	202c0053          	fsgnj.s	ft0,fs8,ft2
   1450a:	696c                	flw	fa1,84(a0)
   1450c:	656e                	flw	fa0,216(sp)
   1450e:	0020                	addi	s0,sp,8
   14510:	3031                	jal	13d1c <FN_WriteA0_common+0xca8>
   14512:	0034                	addi	a3,sp,8
   14514:	203a                	fld	ft0,392(sp)
   14516:	7800                	flw	fs0,48(s0)
   14518:	3431                	jal	13f24 <FN_WriteA0_common+0xeb0>
   1451a:	2800                	fld	fs0,16(s0)
   1451c:	2900                	fld	fs0,16(a0)
   1451e:	2120                	fld	fs0,64(a0)
   14520:	203d                	jal	1454e <end_signature+0x4be>
   14522:	3000                	fld	fs0,32(s0)
   14524:	3678                	fld	fa4,232(a2)
   14526:	3646                	fld	fa2,112(sp)
   14528:	3244                	fld	fs1,160(a2)
   1452a:	3239                	jal	13e38 <FN_WriteA0_common+0xdc4>
   1452c:	000a0043          	fmadd.s	ft0,fs4,ft0,ft0,rne
   14530:	7341                	lui	t1,0xffff0
   14532:	74726573          	csrrsi	a0,0x747,4
   14536:	6f69                	lui	t5,0x1a
   14538:	206e                	fld	ft0,216(sp)
   1453a:	6976                	flw	fs2,92(sp)
   1453c:	74616c6f          	jal	s8,2ac82 <_end+0x1619c>
   14540:	6f69                	lui	t5,0x1a
   14542:	3a6e                	fld	fs4,248(sp)
   14544:	6620                	flw	fs0,72(a2)
   14546:	6c69                	lui	s8,0x1a
   14548:	2065                	jal	145f0 <end_signature+0x560>
   1454a:	7300                	flw	fs0,32(a4)
   1454c:	6372                	flw	ft6,28(sp)
   1454e:	522d492f          	0x522d492f
   14552:	5f46                	lw	t5,112(sp)
   14554:	657a6973          	csrrsi	s2,0x657,20
   14558:	302d                	jal	13d82 <FN_WriteA0_common+0xd0e>
   1455a:	2e31                	jal	14876 <end_signature+0x7e6>
   1455c:	202c0053          	fsgnj.s	ft0,fs8,ft2
   14560:	696c                	flw	fa1,84(a0)
   14562:	656e                	flw	fa0,216(sp)
   14564:	0020                	addi	s0,sp,8
   14566:	3031                	jal	13d72 <FN_WriteA0_common+0xcfe>
   14568:	0035                	c.nop	13
   1456a:	203a                	fld	ft0,392(sp)
   1456c:	7800                	flw	fs0,48(s0)
   1456e:	3531                	jal	1437a <end_signature+0x2ea>
   14570:	2800                	fld	fs0,16(s0)
   14572:	2900                	fld	fs0,16(a0)
   14574:	2120                	fld	fs0,64(a0)
   14576:	203d                	jal	145a4 <end_signature+0x514>
   14578:	3000                	fld	fs0,32(s0)
   1457a:	3678                	fld	fa4,232(a2)
   1457c:	3739                	jal	1448a <end_signature+0x3fa>
   1457e:	3230                	fld	fa2,96(a2)
   14580:	3645                	jal	14120 <end_signature+0x90>
   14582:	000a0033          	add	zero,s4,zero
   14586:	7341                	lui	t1,0xffff0
   14588:	74726573          	csrrsi	a0,0x747,4
   1458c:	6f69                	lui	t5,0x1a
   1458e:	206e                	fld	ft0,216(sp)
   14590:	6976                	flw	fs2,92(sp)
   14592:	74616c6f          	jal	s8,2acd8 <_end+0x161f2>
   14596:	6f69                	lui	t5,0x1a
   14598:	3a6e                	fld	fs4,248(sp)
   1459a:	6620                	flw	fs0,72(a2)
   1459c:	6c69                	lui	s8,0x1a
   1459e:	2065                	jal	14646 <end_signature+0x5b6>
   145a0:	7300                	flw	fs0,32(a4)
   145a2:	6372                	flw	ft6,28(sp)
   145a4:	522d492f          	0x522d492f
   145a8:	5f46                	lw	t5,112(sp)
   145aa:	657a6973          	csrrsi	s2,0x657,20
   145ae:	302d                	jal	13dd8 <FN_WriteA0_common+0xd64>
   145b0:	2e31                	jal	148cc <end_signature+0x83c>
   145b2:	202c0053          	fsgnj.s	ft0,fs8,ft2
   145b6:	696c                	flw	fa1,84(a0)
   145b8:	656e                	flw	fa0,216(sp)
   145ba:	0020                	addi	s0,sp,8
   145bc:	3531                	jal	143c8 <end_signature+0x338>
   145be:	0031                	c.nop	12
   145c0:	203a                	fld	ft0,392(sp)
   145c2:	7800                	flw	fs0,48(s0)
   145c4:	3631                	jal	140d0 <end_signature+0x40>
   145c6:	2800                	fld	fs0,16(s0)
   145c8:	2900                	fld	fs0,16(a0)
   145ca:	2120                	fld	fs0,64(a0)
   145cc:	203d                	jal	145fa <end_signature+0x56a>
   145ce:	3000                	fld	fs0,32(s0)
   145d0:	3678                	fld	fa4,232(a2)
   145d2:	36463633          	0x36463633
   145d6:	3634                	fld	fa3,104(a2)
   145d8:	0031                	c.nop	12
   145da:	000a                	c.slli	zero,0x2
   145dc:	7341                	lui	t1,0xffff0
   145de:	74726573          	csrrsi	a0,0x747,4
   145e2:	6f69                	lui	t5,0x1a
   145e4:	206e                	fld	ft0,216(sp)
   145e6:	6976                	flw	fs2,92(sp)
   145e8:	74616c6f          	jal	s8,2ad2e <_end+0x16248>
   145ec:	6f69                	lui	t5,0x1a
   145ee:	3a6e                	fld	fs4,248(sp)
   145f0:	6620                	flw	fs0,72(a2)
   145f2:	6c69                	lui	s8,0x1a
   145f4:	2065                	jal	1469c <end_signature+0x60c>
   145f6:	7300                	flw	fs0,32(a4)
   145f8:	6372                	flw	ft6,28(sp)
   145fa:	522d492f          	0x522d492f
   145fe:	5f46                	lw	t5,112(sp)
   14600:	657a6973          	csrrsi	s2,0x657,20
   14604:	302d                	jal	13e2e <FN_WriteA0_common+0xdba>
   14606:	2e31                	jal	14922 <end_signature+0x892>
   14608:	202c0053          	fsgnj.s	ft0,fs8,ft2
   1460c:	696c                	flw	fa1,84(a0)
   1460e:	656e                	flw	fa0,216(sp)
   14610:	0020                	addi	s0,sp,8
   14612:	3531                	jal	1441e <end_signature+0x38e>
   14614:	0032                	c.slli	zero,0xc
   14616:	203a                	fld	ft0,392(sp)
   14618:	7800                	flw	fs0,48(s0)
   1461a:	3731                	jal	14526 <end_signature+0x496>
   1461c:	2800                	fld	fs0,16(s0)
   1461e:	2900                	fld	fs0,16(a0)
   14620:	2120                	fld	fs0,64(a0)
   14622:	203d                	jal	14650 <end_signature+0x5c0>
   14624:	3000                	fld	fs0,32(s0)
   14626:	3678                	fld	fa4,232(a2)
   14628:	3641                	jal	141a8 <end_signature+0x118>
   1462a:	3635                	jal	14156 <end_signature+0xc6>
   1462c:	3442                	fld	fs0,48(sp)
   1462e:	0030                	addi	a2,sp,8
   14630:	000a                	c.slli	zero,0x2
   14632:	7341                	lui	t1,0xffff0
   14634:	74726573          	csrrsi	a0,0x747,4
   14638:	6f69                	lui	t5,0x1a
   1463a:	206e                	fld	ft0,216(sp)
   1463c:	6976                	flw	fs2,92(sp)
   1463e:	74616c6f          	jal	s8,2ad84 <_end+0x1629e>
   14642:	6f69                	lui	t5,0x1a
   14644:	3a6e                	fld	fs4,248(sp)
   14646:	6620                	flw	fs0,72(a2)
   14648:	6c69                	lui	s8,0x1a
   1464a:	2065                	jal	146f2 <end_signature+0x662>
   1464c:	7300                	flw	fs0,32(a4)
   1464e:	6372                	flw	ft6,28(sp)
   14650:	522d492f          	0x522d492f
   14654:	5f46                	lw	t5,112(sp)
   14656:	657a6973          	csrrsi	s2,0x657,20
   1465a:	302d                	jal	13e84 <FN_WriteA0_common+0xe10>
   1465c:	2e31                	jal	14978 <end_signature+0x8e8>
   1465e:	202c0053          	fsgnj.s	ft0,fs8,ft2
   14662:	696c                	flw	fa1,84(a0)
   14664:	656e                	flw	fa0,216(sp)
   14666:	0020                	addi	s0,sp,8
   14668:	3531                	jal	14474 <end_signature+0x3e4>
   1466a:	203a0033          	0x203a0033
   1466e:	7800                	flw	fs0,48(s0)
   14670:	3831                	jal	13e8c <FN_WriteA0_common+0xe18>
   14672:	2800                	fld	fs0,16(s0)
   14674:	2900                	fld	fs0,16(a0)
   14676:	2120                	fld	fs0,64(a0)
   14678:	203d                	jal	146a6 <end_signature+0x616>
   1467a:	3000                	fld	fs0,32(s0)
   1467c:	3278                	fld	fa4,224(a2)
   1467e:	3230                	fld	fa2,96(a2)
   14680:	3638                	fld	fa4,104(a2)
   14682:	3638                	fld	fa4,104(a2)
   14684:	0031                	c.nop	12
   14686:	000a                	c.slli	zero,0x2
   14688:	7341                	lui	t1,0xffff0
   1468a:	74726573          	csrrsi	a0,0x747,4
   1468e:	6f69                	lui	t5,0x1a
   14690:	206e                	fld	ft0,216(sp)
   14692:	6976                	flw	fs2,92(sp)
   14694:	74616c6f          	jal	s8,2adda <_end+0x162f4>
   14698:	6f69                	lui	t5,0x1a
   1469a:	3a6e                	fld	fs4,248(sp)
   1469c:	6620                	flw	fs0,72(a2)
   1469e:	6c69                	lui	s8,0x1a
   146a0:	2065                	jal	14748 <end_signature+0x6b8>
   146a2:	7300                	flw	fs0,32(a4)
   146a4:	6372                	flw	ft6,28(sp)
   146a6:	522d492f          	0x522d492f
   146aa:	5f46                	lw	t5,112(sp)
   146ac:	657a6973          	csrrsi	s2,0x657,20
   146b0:	302d                	jal	13eda <FN_WriteA0_common+0xe66>
   146b2:	2e31                	jal	149ce <end_signature+0x93e>
   146b4:	202c0053          	fsgnj.s	ft0,fs8,ft2
   146b8:	696c                	flw	fa1,84(a0)
   146ba:	656e                	flw	fa0,216(sp)
   146bc:	0020                	addi	s0,sp,8
   146be:	3531                	jal	144ca <end_signature+0x43a>
   146c0:	0034                	addi	a3,sp,8
   146c2:	203a                	fld	ft0,392(sp)
   146c4:	7800                	flw	fs0,48(s0)
   146c6:	3931                	jal	142e2 <end_signature+0x252>
   146c8:	2800                	fld	fs0,16(s0)
   146ca:	2900                	fld	fs0,16(a0)
   146cc:	2120                	fld	fs0,64(a0)
   146ce:	203d                	jal	146fc <end_signature+0x66c>
   146d0:	3000                	fld	fs0,32(s0)
   146d2:	3678                	fld	fa4,232(a2)
   146d4:	3631                	jal	141e0 <end_signature+0x150>
   146d6:	3641                	jal	14256 <end_signature+0x1c6>
   146d8:	3635                	jal	14204 <end_signature+0x174>
   146da:	0042                	c.slli	zero,0x10
   146dc:	000a                	c.slli	zero,0x2
   146de:	7341                	lui	t1,0xffff0
   146e0:	74726573          	csrrsi	a0,0x747,4
   146e4:	6f69                	lui	t5,0x1a
   146e6:	206e                	fld	ft0,216(sp)
   146e8:	6976                	flw	fs2,92(sp)
   146ea:	74616c6f          	jal	s8,2ae30 <_end+0x1634a>
   146ee:	6f69                	lui	t5,0x1a
   146f0:	3a6e                	fld	fs4,248(sp)
   146f2:	6620                	flw	fs0,72(a2)
   146f4:	6c69                	lui	s8,0x1a
   146f6:	2065                	jal	1479e <end_signature+0x70e>
   146f8:	7300                	flw	fs0,32(a4)
   146fa:	6372                	flw	ft6,28(sp)
   146fc:	522d492f          	0x522d492f
   14700:	5f46                	lw	t5,112(sp)
   14702:	657a6973          	csrrsi	s2,0x657,20
   14706:	302d                	jal	13f30 <FN_WriteA0_common+0xebc>
   14708:	2e31                	jal	14a24 <end_signature+0x994>
   1470a:	202c0053          	fsgnj.s	ft0,fs8,ft2
   1470e:	696c                	flw	fa1,84(a0)
   14710:	656e                	flw	fa0,216(sp)
   14712:	0020                	addi	s0,sp,8
   14714:	3531                	jal	14520 <end_signature+0x490>
   14716:	0035                	c.nop	13
   14718:	203a                	fld	ft0,392(sp)
   1471a:	7800                	flw	fs0,48(s0)
   1471c:	3032                	fld	ft0,296(sp)
   1471e:	2800                	fld	fs0,16(s0)
   14720:	2900                	fld	fs0,16(a0)
   14722:	2120                	fld	fs0,64(a0)
   14724:	203d                	jal	14752 <end_signature+0x6c2>
   14726:	3000                	fld	fs0,32(s0)
   14728:	3678                	fld	fa4,232(a2)
   1472a:	3731                	jal	14636 <end_signature+0x5a6>
   1472c:	3636                	fld	fa2,360(sp)
   1472e:	3235                	jal	1405a <test_A2_res+0x1a>
   14730:	0030                	addi	a2,sp,8
   14732:	000a                	c.slli	zero,0x2
   14734:	7341                	lui	t1,0xffff0
   14736:	74726573          	csrrsi	a0,0x747,4
   1473a:	6f69                	lui	t5,0x1a
   1473c:	206e                	fld	ft0,216(sp)
   1473e:	6976                	flw	fs2,92(sp)
   14740:	74616c6f          	jal	s8,2ae86 <_end+0x163a0>
   14744:	6f69                	lui	t5,0x1a
   14746:	3a6e                	fld	fs4,248(sp)
   14748:	6620                	flw	fs0,72(a2)
   1474a:	6c69                	lui	s8,0x1a
   1474c:	2065                	jal	147f4 <end_signature+0x764>
   1474e:	7300                	flw	fs0,32(a4)
   14750:	6372                	flw	ft6,28(sp)
   14752:	522d492f          	0x522d492f
   14756:	5f46                	lw	t5,112(sp)
   14758:	657a6973          	csrrsi	s2,0x657,20
   1475c:	302d                	jal	13f86 <FN_WriteA0_common+0xf12>
   1475e:	2e31                	jal	14a7a <end_signature+0x9ea>
   14760:	202c0053          	fsgnj.s	ft0,fs8,ft2
   14764:	696c                	flw	fa1,84(a0)
   14766:	656e                	flw	fa0,216(sp)
   14768:	0020                	addi	s0,sp,8
   1476a:	3531                	jal	14576 <end_signature+0x4e6>
   1476c:	0036                	c.slli	zero,0xd
   1476e:	203a                	fld	ft0,392(sp)
   14770:	7800                	flw	fs0,48(s0)
   14772:	3132                	fld	ft2,296(sp)
   14774:	2800                	fld	fs0,16(s0)
   14776:	2900                	fld	fs0,16(a0)
   14778:	2120                	fld	fs0,64(a0)
   1477a:	203d                	jal	147a8 <end_signature+0x718>
   1477c:	3000                	fld	fs0,32(s0)
   1477e:	3278                	fld	fa4,224(a2)
   14780:	3245                	jal	14120 <end_signature+0x90>
   14782:	3430                	fld	fa2,104(s0)
   14784:	00353643          	fmadd.s	fa2,fa0,ft3,ft0,rup
   14788:	000a                	c.slli	zero,0x2
   1478a:	7341                	lui	t1,0xffff0
   1478c:	74726573          	csrrsi	a0,0x747,4
   14790:	6f69                	lui	t5,0x1a
   14792:	206e                	fld	ft0,216(sp)
   14794:	6976                	flw	fs2,92(sp)
   14796:	74616c6f          	jal	s8,2aedc <_end+0x163f6>
   1479a:	6f69                	lui	t5,0x1a
   1479c:	3a6e                	fld	fs4,248(sp)
   1479e:	6620                	flw	fs0,72(a2)
   147a0:	6c69                	lui	s8,0x1a
   147a2:	2065                	jal	1484a <end_signature+0x7ba>
   147a4:	7300                	flw	fs0,32(a4)
   147a6:	6372                	flw	ft6,28(sp)
   147a8:	522d492f          	0x522d492f
   147ac:	5f46                	lw	t5,112(sp)
   147ae:	657a6973          	csrrsi	s2,0x657,20
   147b2:	302d                	jal	13fdc <FN_WriteA0_common+0xf68>
   147b4:	2e31                	jal	14ad0 <end_signature+0xa40>
   147b6:	202c0053          	fsgnj.s	ft0,fs8,ft2
   147ba:	696c                	flw	fa1,84(a0)
   147bc:	656e                	flw	fa0,216(sp)
   147be:	0020                	addi	s0,sp,8
   147c0:	3531                	jal	145cc <end_signature+0x53c>
   147c2:	203a0037          	lui	zero,0x203a0
   147c6:	7800                	flw	fs0,48(s0)
   147c8:	3232                	fld	ft4,296(sp)
   147ca:	2800                	fld	fs0,16(s0)
   147cc:	2900                	fld	fs0,16(a0)
   147ce:	2120                	fld	fs0,64(a0)
   147d0:	203d                	jal	147fe <end_signature+0x76e>
   147d2:	3000                	fld	fs0,32(s0)
   147d4:	3678                	fld	fa4,232(a2)
   147d6:	36463633          	0x36463633
   147da:	3244                	fld	fs1,160(a2)
   147dc:	0039                	c.nop	14
   147de:	000a                	c.slli	zero,0x2
   147e0:	7341                	lui	t1,0xffff0
   147e2:	74726573          	csrrsi	a0,0x747,4
   147e6:	6f69                	lui	t5,0x1a
   147e8:	206e                	fld	ft0,216(sp)
   147ea:	6976                	flw	fs2,92(sp)
   147ec:	74616c6f          	jal	s8,2af32 <_end+0x1644c>
   147f0:	6f69                	lui	t5,0x1a
   147f2:	3a6e                	fld	fs4,248(sp)
   147f4:	6620                	flw	fs0,72(a2)
   147f6:	6c69                	lui	s8,0x1a
   147f8:	2065                	jal	148a0 <end_signature+0x810>
   147fa:	7300                	flw	fs0,32(a4)
   147fc:	6372                	flw	ft6,28(sp)
   147fe:	522d492f          	0x522d492f
   14802:	5f46                	lw	t5,112(sp)
   14804:	657a6973          	csrrsi	s2,0x657,20
   14808:	302d                	jal	14032 <begin_signature+0x32>
   1480a:	2e31                	jal	14b26 <_end+0x40>
   1480c:	202c0053          	fsgnj.s	ft0,fs8,ft2
   14810:	696c                	flw	fa1,84(a0)
   14812:	656e                	flw	fa0,216(sp)
   14814:	0020                	addi	s0,sp,8
   14816:	3531                	jal	14622 <end_signature+0x592>
   14818:	0038                	addi	a4,sp,8
   1481a:	203a                	fld	ft0,392(sp)
   1481c:	7800                	flw	fs0,48(s0)
   1481e:	3332                	fld	ft6,296(sp)
   14820:	2800                	fld	fs0,16(s0)
   14822:	2900                	fld	fs0,16(a0)
   14824:	2120                	fld	fs0,64(a0)
   14826:	203d                	jal	14854 <end_signature+0x7c4>
   14828:	3000                	fld	fs0,32(s0)
   1482a:	3778                	fld	fa4,232(a4)
   1482c:	37393633          	0x37393633
   14830:	3230                	fld	fa2,96(a2)
   14832:	0045                	c.nop	17
   14834:	000a                	c.slli	zero,0x2
   14836:	7341                	lui	t1,0xffff0
   14838:	74726573          	csrrsi	a0,0x747,4
   1483c:	6f69                	lui	t5,0x1a
   1483e:	206e                	fld	ft0,216(sp)
   14840:	6976                	flw	fs2,92(sp)
   14842:	74616c6f          	jal	s8,2af88 <_end+0x164a2>
   14846:	6f69                	lui	t5,0x1a
   14848:	3a6e                	fld	fs4,248(sp)
   1484a:	6620                	flw	fs0,72(a2)
   1484c:	6c69                	lui	s8,0x1a
   1484e:	2065                	jal	148f6 <end_signature+0x866>
   14850:	7300                	flw	fs0,32(a4)
   14852:	6372                	flw	ft6,28(sp)
   14854:	522d492f          	0x522d492f
   14858:	5f46                	lw	t5,112(sp)
   1485a:	657a6973          	csrrsi	s2,0x657,20
   1485e:	302d                	jal	14088 <test_A3_res+0x8>
   14860:	2e31                	jal	14b7c <_end+0x96>
   14862:	202c0053          	fsgnj.s	ft0,fs8,ft2
   14866:	696c                	flw	fa1,84(a0)
   14868:	656e                	flw	fa0,216(sp)
   1486a:	0020                	addi	s0,sp,8
   1486c:	3531                	jal	14678 <end_signature+0x5e8>
   1486e:	0039                	c.nop	14
   14870:	203a                	fld	ft0,392(sp)
   14872:	7800                	flw	fs0,48(s0)
   14874:	3432                	fld	fs0,296(sp)
   14876:	2800                	fld	fs0,16(s0)
   14878:	2900                	fld	fs0,16(a0)
   1487a:	2120                	fld	fs0,64(a0)
   1487c:	203d                	jal	148aa <end_signature+0x81a>
   1487e:	3000                	fld	fs0,32(s0)
   14880:	3678                	fld	fa4,232(a2)
   14882:	3236                	fld	ft4,360(sp)
   14884:	3730                	fld	fa2,104(a4)
   14886:	3639                	jal	14394 <end_signature+0x304>
   14888:	0046                	c.slli	zero,0x11
   1488a:	000a                	c.slli	zero,0x2
   1488c:	7341                	lui	t1,0xffff0
   1488e:	74726573          	csrrsi	a0,0x747,4
   14892:	6f69                	lui	t5,0x1a
   14894:	206e                	fld	ft0,216(sp)
   14896:	6976                	flw	fs2,92(sp)
   14898:	74616c6f          	jal	s8,2afde <_end+0x164f8>
   1489c:	6f69                	lui	t5,0x1a
   1489e:	3a6e                	fld	fs4,248(sp)
   148a0:	6620                	flw	fs0,72(a2)
   148a2:	6c69                	lui	s8,0x1a
   148a4:	2065                	jal	1494c <end_signature+0x8bc>
   148a6:	7300                	flw	fs0,32(a4)
   148a8:	6372                	flw	ft6,28(sp)
   148aa:	522d492f          	0x522d492f
   148ae:	5f46                	lw	t5,112(sp)
   148b0:	657a6973          	csrrsi	s2,0x657,20
   148b4:	302d                	jal	140de <end_signature+0x4e>
   148b6:	2e31                	jal	14bd2 <_end+0xec>
   148b8:	202c0053          	fsgnj.s	ft0,fs8,ft2
   148bc:	696c                	flw	fa1,84(a0)
   148be:	656e                	flw	fa0,216(sp)
   148c0:	0020                	addi	s0,sp,8
   148c2:	3631                	jal	143ce <end_signature+0x33e>
   148c4:	0030                	addi	a2,sp,8
   148c6:	203a                	fld	ft0,392(sp)
   148c8:	7800                	flw	fs0,48(s0)
   148ca:	3532                	fld	fa0,296(sp)
   148cc:	2800                	fld	fs0,16(s0)
   148ce:	2900                	fld	fs0,16(a0)
   148d0:	2120                	fld	fs0,64(a0)
   148d2:	203d                	jal	14900 <end_signature+0x870>
   148d4:	3000                	fld	fs0,32(s0)
   148d6:	3678                	fld	fa4,232(a2)
   148d8:	32353637          	lui	a2,0x32353
   148dc:	3630                	fld	fa2,104(a2)
   148de:	0039                	c.nop	14
   148e0:	000a                	c.slli	zero,0x2
   148e2:	7341                	lui	t1,0xffff0
   148e4:	74726573          	csrrsi	a0,0x747,4
   148e8:	6f69                	lui	t5,0x1a
   148ea:	206e                	fld	ft0,216(sp)
   148ec:	6976                	flw	fs2,92(sp)
   148ee:	74616c6f          	jal	s8,2b034 <_end+0x1654e>
   148f2:	6f69                	lui	t5,0x1a
   148f4:	3a6e                	fld	fs4,248(sp)
   148f6:	6620                	flw	fs0,72(a2)
   148f8:	6c69                	lui	s8,0x1a
   148fa:	2065                	jal	149a2 <end_signature+0x912>
   148fc:	7300                	flw	fs0,32(a4)
   148fe:	6372                	flw	ft6,28(sp)
   14900:	522d492f          	0x522d492f
   14904:	5f46                	lw	t5,112(sp)
   14906:	657a6973          	csrrsi	s2,0x657,20
   1490a:	302d                	jal	14134 <end_signature+0xa4>
   1490c:	2e31                	jal	14c28 <_end+0x142>
   1490e:	202c0053          	fsgnj.s	ft0,fs8,ft2
   14912:	696c                	flw	fa1,84(a0)
   14914:	656e                	flw	fa0,216(sp)
   14916:	0020                	addi	s0,sp,8
   14918:	3631                	jal	14424 <end_signature+0x394>
   1491a:	0031                	c.nop	12
   1491c:	203a                	fld	ft0,392(sp)
   1491e:	7800                	flw	fs0,48(s0)
   14920:	3632                	fld	fa2,296(sp)
   14922:	2800                	fld	fs0,16(s0)
   14924:	2900                	fld	fs0,16(a0)
   14926:	2120                	fld	fs0,64(a0)
   14928:	203d                	jal	14956 <end_signature+0x8c6>
   1492a:	3000                	fld	fs0,32(s0)
   1492c:	3678                	fld	fa4,232(a2)
   1492e:	3735                	jal	1485a <end_signature+0x7ca>
   14930:	36333733          	0x36333733
   14934:	0031                	c.nop	12
   14936:	000a                	c.slli	zero,0x2
   14938:	7341                	lui	t1,0xffff0
   1493a:	74726573          	csrrsi	a0,0x747,4
   1493e:	6f69                	lui	t5,0x1a
   14940:	206e                	fld	ft0,216(sp)
   14942:	6976                	flw	fs2,92(sp)
   14944:	74616c6f          	jal	s8,2b08a <_end+0x165a4>
   14948:	6f69                	lui	t5,0x1a
   1494a:	3a6e                	fld	fs4,248(sp)
   1494c:	6620                	flw	fs0,72(a2)
   1494e:	6c69                	lui	s8,0x1a
   14950:	2065                	jal	149f8 <end_signature+0x968>
   14952:	7300                	flw	fs0,32(a4)
   14954:	6372                	flw	ft6,28(sp)
   14956:	522d492f          	0x522d492f
   1495a:	5f46                	lw	t5,112(sp)
   1495c:	657a6973          	csrrsi	s2,0x657,20
   14960:	302d                	jal	1418a <end_signature+0xfa>
   14962:	2e31                	jal	14c7e <_end+0x198>
   14964:	202c0053          	fsgnj.s	ft0,fs8,ft2
   14968:	696c                	flw	fa1,84(a0)
   1496a:	656e                	flw	fa0,216(sp)
   1496c:	0020                	addi	s0,sp,8
   1496e:	3631                	jal	1447a <end_signature+0x3ea>
   14970:	0032                	c.slli	zero,0xc
   14972:	203a                	fld	ft0,392(sp)
   14974:	7800                	flw	fs0,48(s0)
   14976:	3732                	fld	fa4,296(sp)
   14978:	2800                	fld	fs0,16(s0)
   1497a:	2900                	fld	fs0,16(a0)
   1497c:	2120                	fld	fs0,64(a0)
   1497e:	203d                	jal	149ac <end_signature+0x91c>
   14980:	3000                	fld	fs0,32(s0)
   14982:	3778                	fld	fa4,232(a4)
   14984:	3735                	jal	148b0 <end_signature+0x820>
   14986:	36303233          	0x36303233
   1498a:	0044                	addi	s1,sp,4
   1498c:	000a                	c.slli	zero,0x2
   1498e:	7341                	lui	t1,0xffff0
   14990:	74726573          	csrrsi	a0,0x747,4
   14994:	6f69                	lui	t5,0x1a
   14996:	206e                	fld	ft0,216(sp)
   14998:	6976                	flw	fs2,92(sp)
   1499a:	74616c6f          	jal	s8,2b0e0 <_end+0x165fa>
   1499e:	6f69                	lui	t5,0x1a
   149a0:	3a6e                	fld	fs4,248(sp)
   149a2:	6620                	flw	fs0,72(a2)
   149a4:	6c69                	lui	s8,0x1a
   149a6:	2065                	jal	14a4e <end_signature+0x9be>
   149a8:	7300                	flw	fs0,32(a4)
   149aa:	6372                	flw	ft6,28(sp)
   149ac:	522d492f          	0x522d492f
   149b0:	5f46                	lw	t5,112(sp)
   149b2:	657a6973          	csrrsi	s2,0x657,20
   149b6:	302d                	jal	141e0 <end_signature+0x150>
   149b8:	2e31                	jal	14cd4 <_end+0x1ee>
   149ba:	202c0053          	fsgnj.s	ft0,fs8,ft2
   149be:	696c                	flw	fa1,84(a0)
   149c0:	656e                	flw	fa0,216(sp)
   149c2:	0020                	addi	s0,sp,8
   149c4:	3631                	jal	144d0 <end_signature+0x440>
   149c6:	203a0033          	0x203a0033
   149ca:	7800                	flw	fs0,48(s0)
   149cc:	3832                	fld	fa6,296(sp)
   149ce:	2800                	fld	fs0,16(s0)
   149d0:	2900                	fld	fs0,16(a0)
   149d2:	2120                	fld	fs0,64(a0)
   149d4:	203d                	jal	14a02 <end_signature+0x972>
   149d6:	3000                	fld	fs0,32(s0)
   149d8:	3378                	fld	fa4,224(a4)
   149da:	3241                	jal	1435a <end_signature+0x2ca>
   149dc:	3039                	jal	141ea <end_signature+0x15a>
   149de:	3044                	fld	fs1,160(s0)
   149e0:	0041                	c.nop	16
   149e2:	000a                	c.slli	zero,0x2
   149e4:	7341                	lui	t1,0xffff0
   149e6:	74726573          	csrrsi	a0,0x747,4
   149ea:	6f69                	lui	t5,0x1a
   149ec:	206e                	fld	ft0,216(sp)
   149ee:	6976                	flw	fs2,92(sp)
   149f0:	74616c6f          	jal	s8,2b136 <_end+0x16650>
   149f4:	6f69                	lui	t5,0x1a
   149f6:	3a6e                	fld	fs4,248(sp)
   149f8:	6620                	flw	fs0,72(a2)
   149fa:	6c69                	lui	s8,0x1a
   149fc:	2065                	jal	14aa4 <end_signature+0xa14>
   149fe:	7300                	flw	fs0,32(a4)
   14a00:	6372                	flw	ft6,28(sp)
   14a02:	522d492f          	0x522d492f
   14a06:	5f46                	lw	t5,112(sp)
   14a08:	657a6973          	csrrsi	s2,0x657,20
   14a0c:	302d                	jal	14236 <end_signature+0x1a6>
   14a0e:	2e31                	jal	14d2a <_end+0x244>
   14a10:	202c0053          	fsgnj.s	ft0,fs8,ft2
   14a14:	696c                	flw	fa1,84(a0)
   14a16:	656e                	flw	fa0,216(sp)
   14a18:	0020                	addi	s0,sp,8
   14a1a:	3631                	jal	14526 <end_signature+0x496>
   14a1c:	0034                	addi	a3,sp,8
   14a1e:	203a                	fld	ft0,392(sp)
   14a20:	7800                	flw	fs0,48(s0)
   14a22:	3932                	fld	fs2,296(sp)
   14a24:	2800                	fld	fs0,16(s0)
   14a26:	2900                	fld	fs0,16(a0)
   14a28:	2120                	fld	fs0,64(a0)
   14a2a:	203d                	jal	14a58 <end_signature+0x9c8>
   14a2c:	3000                	fld	fs0,32(s0)
   14a2e:	3678                	fld	fa4,232(a2)
   14a30:	3638                	fld	fa4,104(a2)
   14a32:	3739                	jal	14940 <end_signature+0x8b0>
   14a34:	00303233          	snez	tp,gp
   14a38:	000a                	c.slli	zero,0x2
   14a3a:	7341                	lui	t1,0xffff0
   14a3c:	74726573          	csrrsi	a0,0x747,4
   14a40:	6f69                	lui	t5,0x1a
   14a42:	206e                	fld	ft0,216(sp)
   14a44:	6976                	flw	fs2,92(sp)
   14a46:	74616c6f          	jal	s8,2b18c <_end+0x166a6>
   14a4a:	6f69                	lui	t5,0x1a
   14a4c:	3a6e                	fld	fs4,248(sp)
   14a4e:	6620                	flw	fs0,72(a2)
   14a50:	6c69                	lui	s8,0x1a
   14a52:	2065                	jal	14afa <_end+0x14>
   14a54:	7300                	flw	fs0,32(a4)
   14a56:	6372                	flw	ft6,28(sp)
   14a58:	522d492f          	0x522d492f
   14a5c:	5f46                	lw	t5,112(sp)
   14a5e:	657a6973          	csrrsi	s2,0x657,20
   14a62:	302d                	jal	1428c <end_signature+0x1fc>
   14a64:	2e31                	jal	14d80 <_end+0x29a>
   14a66:	202c0053          	fsgnj.s	ft0,fs8,ft2
   14a6a:	696c                	flw	fa1,84(a0)
   14a6c:	656e                	flw	fa0,216(sp)
   14a6e:	0020                	addi	s0,sp,8
   14a70:	3631                	jal	1457c <end_signature+0x4ec>
   14a72:	0035                	c.nop	13
   14a74:	203a                	fld	ft0,392(sp)
   14a76:	7800                	flw	fs0,48(s0)
   14a78:	28003033          	0x28003033
   14a7c:	2900                	fld	fs0,16(a0)
   14a7e:	2120                	fld	fs0,64(a0)
   14a80:	203d                	jal	14aae <end_signature+0xa1e>
   14a82:	3000                	fld	fs0,32(s0)
   14a84:	3678                	fld	fa4,232(a2)
   14a86:	3631                	jal	14592 <end_signature+0x502>
   14a88:	3234                	fld	fa3,96(a2)
   14a8a:	3730                	fld	fa2,104(a4)
   14a8c:	0034                	addi	a3,sp,8
   14a8e:	000a                	c.slli	zero,0x2
   14a90:	7341                	lui	t1,0xffff0
   14a92:	74726573          	csrrsi	a0,0x747,4
   14a96:	6f69                	lui	t5,0x1a
   14a98:	206e                	fld	ft0,216(sp)
   14a9a:	6976                	flw	fs2,92(sp)
   14a9c:	74616c6f          	jal	s8,2b1e2 <_end+0x166fc>
   14aa0:	6f69                	lui	t5,0x1a
   14aa2:	3a6e                	fld	fs4,248(sp)
   14aa4:	6620                	flw	fs0,72(a2)
   14aa6:	6c69                	lui	s8,0x1a
   14aa8:	2065                	jal	14b50 <_end+0x6a>
   14aaa:	7300                	flw	fs0,32(a4)
   14aac:	6372                	flw	ft6,28(sp)
   14aae:	522d492f          	0x522d492f
   14ab2:	5f46                	lw	t5,112(sp)
   14ab4:	657a6973          	csrrsi	s2,0x657,20
   14ab8:	302d                	jal	142e2 <end_signature+0x252>
   14aba:	2e31                	jal	14dd6 <_end+0x2f0>
   14abc:	202c0053          	fsgnj.s	ft0,fs8,ft2
   14ac0:	696c                	flw	fa1,84(a0)
   14ac2:	656e                	flw	fa0,216(sp)
   14ac4:	0020                	addi	s0,sp,8
   14ac6:	3631                	jal	145d2 <end_signature+0x542>
   14ac8:	0036                	c.slli	zero,0xd
   14aca:	203a                	fld	ft0,392(sp)
   14acc:	7800                	flw	fs0,48(s0)
   14ace:	28003133          	0x28003133
   14ad2:	2900                	fld	fs0,16(a0)
   14ad4:	2120                	fld	fs0,64(a0)
   14ad6:	203d                	jal	14b04 <_end+0x1e>
   14ad8:	3000                	fld	fs0,32(s0)
   14ada:	3778                	fld	fa4,232(a4)
   14adc:	3235                	jal	14408 <end_signature+0x378>
   14ade:	3730                	fld	fa2,104(a4)
   14ae0:	3632                	fld	fa2,296(sp)
   14ae2:	0035                	c.nop	13
   14ae4:	000a                	c.slli	zero,0x2
