
/home/benselfridge/riscv-compliance/work//I-SH-01.elf:     file format elf32-littleriscv


Disassembly of section .text.init:

00010000 <_start>:
   10000:	04c0006f          	j	1004c <reset_vector>

00010004 <trap_vector>:
   10004:	34202f73          	csrr	t5,mcause
   10008:	00800f93          	li	t6,8
   1000c:	03ff0a63          	beq	t5,t6,10040 <write_tohost>
   10010:	00900f93          	li	t6,9
   10014:	03ff0663          	beq	t5,t6,10040 <write_tohost>
   10018:	00b00f93          	li	t6,11
   1001c:	03ff0263          	beq	t5,t6,10040 <write_tohost>
   10020:	ffff0f17          	auipc	t5,0xffff0
   10024:	fe0f0f13          	addi	t5,t5,-32 # 0 <_start-0x10000>
   10028:	000f0463          	beqz	t5,10030 <trap_vector+0x2c>
   1002c:	000f0067          	jr	t5
   10030:	34202f73          	csrr	t5,mcause
   10034:	000f5463          	bgez	t5,1003c <handle_exception>
   10038:	0040006f          	j	1003c <handle_exception>

0001003c <handle_exception>:
   1003c:	5391e193          	ori	gp,gp,1337

00010040 <write_tohost>:
   10040:	00002f17          	auipc	t5,0x2
   10044:	fc3f2023          	sw	gp,-64(t5) # 12000 <tohost>
   10048:	ff9ff06f          	j	10040 <write_tohost>

0001004c <reset_vector>:
   1004c:	f1402573          	csrr	a0,mhartid
   10050:	00051063          	bnez	a0,10050 <reset_vector+0x4>
   10054:	00000297          	auipc	t0,0x0
   10058:	01028293          	addi	t0,t0,16 # 10064 <reset_vector+0x18>
   1005c:	30529073          	csrw	mtvec,t0
   10060:	18005073          	csrwi	satp,0
   10064:	00000297          	auipc	t0,0x0
   10068:	01c28293          	addi	t0,t0,28 # 10080 <reset_vector+0x34>
   1006c:	30529073          	csrw	mtvec,t0
   10070:	fff00293          	li	t0,-1
   10074:	3b029073          	csrw	pmpaddr0,t0
   10078:	01f00293          	li	t0,31
   1007c:	3a029073          	csrw	pmpcfg0,t0
   10080:	00000297          	auipc	t0,0x0
   10084:	01828293          	addi	t0,t0,24 # 10098 <reset_vector+0x4c>
   10088:	30529073          	csrw	mtvec,t0
   1008c:	30205073          	csrwi	medeleg,0
   10090:	30305073          	csrwi	mideleg,0
   10094:	30405073          	csrwi	mie,0
   10098:	00000193          	li	gp,0
   1009c:	00000297          	auipc	t0,0x0
   100a0:	f6828293          	addi	t0,t0,-152 # 10004 <trap_vector>
   100a4:	30529073          	csrw	mtvec,t0
   100a8:	00100513          	li	a0,1
   100ac:	01f51513          	slli	a0,a0,0x1f
   100b0:	00054863          	bltz	a0,100c0 <reset_vector+0x74>
   100b4:	0000100f          	fence.i
   100b8:	00100193          	li	gp,1
   100bc:	00000073          	ecall
   100c0:	ffff0297          	auipc	t0,0xffff0
   100c4:	f4028293          	addi	t0,t0,-192 # 0 <_start-0x10000>
   100c8:	00028e63          	beqz	t0,100e4 <reset_vector+0x98>
   100cc:	10529073          	csrw	stvec,t0
   100d0:	0000b2b7          	lui	t0,0xb
   100d4:	10928293          	addi	t0,t0,265 # b109 <_start-0x4ef7>
   100d8:	30229073          	csrw	medeleg,t0
   100dc:	30202373          	csrr	t1,medeleg
   100e0:	f4629ee3          	bne	t0,t1,1003c <handle_exception>
   100e4:	30005073          	csrwi	mstatus,0
   100e8:	00002537          	lui	a0,0x2
   100ec:	80050513          	addi	a0,a0,-2048 # 1800 <_start-0xe800>
   100f0:	30052073          	csrs	mstatus,a0
   100f4:	00000297          	auipc	t0,0x0
   100f8:	01428293          	addi	t0,t0,20 # 10108 <reset_vector+0xbc>
   100fc:	34129073          	csrw	mepc,t0
   10100:	f1402573          	csrr	a0,mhartid
   10104:	30200073          	mret
   10108:	00000293          	li	t0,0
   1010c:	08500e63          	beq	zero,t0,101a8 <reset_vector+0x15c>
   10110:	00004517          	auipc	a0,0x4
   10114:	f4050513          	addi	a0,a0,-192 # 14050 <end_signature>
   10118:	6e9020ef          	jal	ra,13000 <FN_WriteStr>
   1011c:	00004517          	auipc	a0,0x4
   10120:	f4f50513          	addi	a0,a0,-177 # 1406b <end_signature+0x1b>
   10124:	6dd020ef          	jal	ra,13000 <FN_WriteStr>
   10128:	00004517          	auipc	a0,0x4
   1012c:	f5150513          	addi	a0,a0,-175 # 14079 <end_signature+0x29>
   10130:	6d1020ef          	jal	ra,13000 <FN_WriteStr>
   10134:	00004517          	auipc	a0,0x4
   10138:	f4d50513          	addi	a0,a0,-179 # 14081 <end_signature+0x31>
   1013c:	6c5020ef          	jal	ra,13000 <FN_WriteStr>
   10140:	00004517          	auipc	a0,0x4
   10144:	f4450513          	addi	a0,a0,-188 # 14084 <end_signature+0x34>
   10148:	6b9020ef          	jal	ra,13000 <FN_WriteStr>
   1014c:	00004517          	auipc	a0,0x4
   10150:	f3b50513          	addi	a0,a0,-197 # 14087 <end_signature+0x37>
   10154:	6ad020ef          	jal	ra,13000 <FN_WriteStr>
   10158:	00004517          	auipc	a0,0x4
   1015c:	f3250513          	addi	a0,a0,-206 # 1408a <end_signature+0x3a>
   10160:	6a1020ef          	jal	ra,13000 <FN_WriteStr>
   10164:	00000513          	li	a0,0
   10168:	6b5020ef          	jal	ra,1301c <FN_WriteA0>
   1016c:	00004517          	auipc	a0,0x4
   10170:	f2050513          	addi	a0,a0,-224 # 1408c <end_signature+0x3c>
   10174:	68d020ef          	jal	ra,13000 <FN_WriteStr>
   10178:	00004517          	auipc	a0,0x4
   1017c:	f1a50513          	addi	a0,a0,-230 # 14092 <end_signature+0x42>
   10180:	681020ef          	jal	ra,13000 <FN_WriteStr>
   10184:	00004517          	auipc	a0,0x4
   10188:	f1950513          	addi	a0,a0,-231 # 1409d <end_signature+0x4d>
   1018c:	675020ef          	jal	ra,13000 <FN_WriteStr>
   10190:	06400193          	li	gp,100
   10194:	0000100f          	fence.i
   10198:	00018063          	beqz	gp,10198 <reset_vector+0x14c>
   1019c:	00119193          	slli	gp,gp,0x1
   101a0:	0011e193          	ori	gp,gp,1
   101a4:	00000073          	ecall
   101a8:	00004517          	auipc	a0,0x4
   101ac:	ef750513          	addi	a0,a0,-265 # 1409f <end_signature+0x4f>
   101b0:	651020ef          	jal	ra,13000 <FN_WriteStr>
   101b4:	00004517          	auipc	a0,0x4
   101b8:	f1d50513          	addi	a0,a0,-227 # 140d1 <end_signature+0x81>
   101bc:	645020ef          	jal	ra,13000 <FN_WriteStr>
   101c0:	00004097          	auipc	ra,0x4
   101c4:	e5008093          	addi	ra,ra,-432 # 14010 <begin_signature>
   101c8:	aaaacfb7          	lui	t6,0xaaaac
   101cc:	bbbf8f93          	addi	t6,t6,-1093 # aaaabbbb <_end+0xaaa96ea6>
   101d0:	01f0a023          	sw	t6,0(ra)
   101d4:	11f1f137          	lui	sp,0x11f1f
   101d8:	22210113          	addi	sp,sp,546 # 11f1f222 <_end+0x11f0a50d>
   101dc:	00209023          	sh	sp,0(ra)
   101e0:	fff00013          	li	zero,-1
   101e4:	11f1f2b7          	lui	t0,0x11f1f
   101e8:	22228293          	addi	t0,t0,546 # 11f1f222 <_end+0x11f0a50d>
   101ec:	08510e63          	beq	sp,t0,10288 <reset_vector+0x23c>
   101f0:	00004517          	auipc	a0,0x4
   101f4:	f0950513          	addi	a0,a0,-247 # 140f9 <end_signature+0xa9>
   101f8:	609020ef          	jal	ra,13000 <FN_WriteStr>
   101fc:	00004517          	auipc	a0,0x4
   10200:	f1850513          	addi	a0,a0,-232 # 14114 <end_signature+0xc4>
   10204:	5fd020ef          	jal	ra,13000 <FN_WriteStr>
   10208:	00004517          	auipc	a0,0x4
   1020c:	f1a50513          	addi	a0,a0,-230 # 14122 <end_signature+0xd2>
   10210:	5f1020ef          	jal	ra,13000 <FN_WriteStr>
   10214:	00004517          	auipc	a0,0x4
   10218:	f1650513          	addi	a0,a0,-234 # 1412a <end_signature+0xda>
   1021c:	5e5020ef          	jal	ra,13000 <FN_WriteStr>
   10220:	00004517          	auipc	a0,0x4
   10224:	f0d50513          	addi	a0,a0,-243 # 1412d <end_signature+0xdd>
   10228:	5d9020ef          	jal	ra,13000 <FN_WriteStr>
   1022c:	00004517          	auipc	a0,0x4
   10230:	f0450513          	addi	a0,a0,-252 # 14130 <end_signature+0xe0>
   10234:	5cd020ef          	jal	ra,13000 <FN_WriteStr>
   10238:	00004517          	auipc	a0,0x4
   1023c:	efb50513          	addi	a0,a0,-261 # 14133 <end_signature+0xe3>
   10240:	5c1020ef          	jal	ra,13000 <FN_WriteStr>
   10244:	00010513          	mv	a0,sp
   10248:	5d5020ef          	jal	ra,1301c <FN_WriteA0>
   1024c:	00004517          	auipc	a0,0x4
   10250:	ee950513          	addi	a0,a0,-279 # 14135 <end_signature+0xe5>
   10254:	5ad020ef          	jal	ra,13000 <FN_WriteStr>
   10258:	00004517          	auipc	a0,0x4
   1025c:	ee350513          	addi	a0,a0,-285 # 1413b <end_signature+0xeb>
   10260:	5a1020ef          	jal	ra,13000 <FN_WriteStr>
   10264:	00004517          	auipc	a0,0x4
   10268:	ee250513          	addi	a0,a0,-286 # 14146 <end_signature+0xf6>
   1026c:	595020ef          	jal	ra,13000 <FN_WriteStr>
   10270:	06400193          	li	gp,100
   10274:	0000100f          	fence.i
   10278:	00018063          	beqz	gp,10278 <reset_vector+0x22c>
   1027c:	00119193          	slli	gp,gp,0x1
   10280:	0011e193          	ori	gp,gp,1
   10284:	00000073          	ecall
   10288:	aaaac2b7          	lui	t0,0xaaaac
   1028c:	bbb28293          	addi	t0,t0,-1093 # aaaabbbb <_end+0xaaa96ea6>
   10290:	085f8e63          	beq	t6,t0,1032c <reset_vector+0x2e0>
   10294:	00004517          	auipc	a0,0x4
   10298:	eb450513          	addi	a0,a0,-332 # 14148 <end_signature+0xf8>
   1029c:	565020ef          	jal	ra,13000 <FN_WriteStr>
   102a0:	00004517          	auipc	a0,0x4
   102a4:	ec350513          	addi	a0,a0,-317 # 14163 <end_signature+0x113>
   102a8:	559020ef          	jal	ra,13000 <FN_WriteStr>
   102ac:	00004517          	auipc	a0,0x4
   102b0:	ec550513          	addi	a0,a0,-315 # 14171 <end_signature+0x121>
   102b4:	54d020ef          	jal	ra,13000 <FN_WriteStr>
   102b8:	00004517          	auipc	a0,0x4
   102bc:	ec150513          	addi	a0,a0,-319 # 14179 <end_signature+0x129>
   102c0:	541020ef          	jal	ra,13000 <FN_WriteStr>
   102c4:	00004517          	auipc	a0,0x4
   102c8:	eb850513          	addi	a0,a0,-328 # 1417c <end_signature+0x12c>
   102cc:	535020ef          	jal	ra,13000 <FN_WriteStr>
   102d0:	00004517          	auipc	a0,0x4
   102d4:	eaf50513          	addi	a0,a0,-337 # 1417f <end_signature+0x12f>
   102d8:	529020ef          	jal	ra,13000 <FN_WriteStr>
   102dc:	00004517          	auipc	a0,0x4
   102e0:	ea750513          	addi	a0,a0,-345 # 14183 <end_signature+0x133>
   102e4:	51d020ef          	jal	ra,13000 <FN_WriteStr>
   102e8:	000f8513          	mv	a0,t6
   102ec:	531020ef          	jal	ra,1301c <FN_WriteA0>
   102f0:	00004517          	auipc	a0,0x4
   102f4:	e9550513          	addi	a0,a0,-363 # 14185 <end_signature+0x135>
   102f8:	509020ef          	jal	ra,13000 <FN_WriteStr>
   102fc:	00004517          	auipc	a0,0x4
   10300:	e8f50513          	addi	a0,a0,-369 # 1418b <end_signature+0x13b>
   10304:	4fd020ef          	jal	ra,13000 <FN_WriteStr>
   10308:	00004517          	auipc	a0,0x4
   1030c:	e8e50513          	addi	a0,a0,-370 # 14196 <end_signature+0x146>
   10310:	4f1020ef          	jal	ra,13000 <FN_WriteStr>
   10314:	06400193          	li	gp,100
   10318:	0000100f          	fence.i
   1031c:	00018063          	beqz	gp,1031c <reset_vector+0x2d0>
   10320:	00119193          	slli	gp,gp,0x1
   10324:	0011e193          	ori	gp,gp,1
   10328:	00000073          	ecall
   1032c:	00004517          	auipc	a0,0x4
   10330:	e6c50513          	addi	a0,a0,-404 # 14198 <end_signature+0x148>
   10334:	4cd020ef          	jal	ra,13000 <FN_WriteStr>
   10338:	00004517          	auipc	a0,0x4
   1033c:	e7c50513          	addi	a0,a0,-388 # 141b4 <end_signature+0x164>
   10340:	4c1020ef          	jal	ra,13000 <FN_WriteStr>
   10344:	00004297          	auipc	t0,0x4
   10348:	cd128293          	addi	t0,t0,-815 # 14015 <test_A2_res+0x1>
   1034c:	fe02afa3          	sw	zero,-1(t0)
   10350:	f3334cb7          	lui	s9,0xf3334
   10354:	4f4c8c93          	addi	s9,s9,1268 # f33344f4 <_end+0xf331f7df>
   10358:	ff929fa3          	sh	s9,-1(t0)
   1035c:	00000293          	li	t0,0
   10360:	08500e63          	beq	zero,t0,103fc <reset_vector+0x3b0>
   10364:	00004517          	auipc	a0,0x4
   10368:	e7850513          	addi	a0,a0,-392 # 141dc <end_signature+0x18c>
   1036c:	495020ef          	jal	ra,13000 <FN_WriteStr>
   10370:	00004517          	auipc	a0,0x4
   10374:	e8750513          	addi	a0,a0,-377 # 141f7 <end_signature+0x1a7>
   10378:	489020ef          	jal	ra,13000 <FN_WriteStr>
   1037c:	00004517          	auipc	a0,0x4
   10380:	e8950513          	addi	a0,a0,-375 # 14205 <end_signature+0x1b5>
   10384:	47d020ef          	jal	ra,13000 <FN_WriteStr>
   10388:	00004517          	auipc	a0,0x4
   1038c:	e8550513          	addi	a0,a0,-379 # 1420d <end_signature+0x1bd>
   10390:	471020ef          	jal	ra,13000 <FN_WriteStr>
   10394:	00004517          	auipc	a0,0x4
   10398:	e7c50513          	addi	a0,a0,-388 # 14210 <end_signature+0x1c0>
   1039c:	465020ef          	jal	ra,13000 <FN_WriteStr>
   103a0:	00004517          	auipc	a0,0x4
   103a4:	e7350513          	addi	a0,a0,-397 # 14213 <end_signature+0x1c3>
   103a8:	459020ef          	jal	ra,13000 <FN_WriteStr>
   103ac:	00004517          	auipc	a0,0x4
   103b0:	e6a50513          	addi	a0,a0,-406 # 14216 <end_signature+0x1c6>
   103b4:	44d020ef          	jal	ra,13000 <FN_WriteStr>
   103b8:	00000513          	li	a0,0
   103bc:	461020ef          	jal	ra,1301c <FN_WriteA0>
   103c0:	00004517          	auipc	a0,0x4
   103c4:	e5850513          	addi	a0,a0,-424 # 14218 <end_signature+0x1c8>
   103c8:	439020ef          	jal	ra,13000 <FN_WriteStr>
   103cc:	00004517          	auipc	a0,0x4
   103d0:	e5250513          	addi	a0,a0,-430 # 1421e <end_signature+0x1ce>
   103d4:	42d020ef          	jal	ra,13000 <FN_WriteStr>
   103d8:	00004517          	auipc	a0,0x4
   103dc:	e5150513          	addi	a0,a0,-431 # 14229 <end_signature+0x1d9>
   103e0:	421020ef          	jal	ra,13000 <FN_WriteStr>
   103e4:	06400193          	li	gp,100
   103e8:	0000100f          	fence.i
   103ec:	00018063          	beqz	gp,103ec <reset_vector+0x3a0>
   103f0:	00119193          	slli	gp,gp,0x1
   103f4:	0011e193          	ori	gp,gp,1
   103f8:	00000073          	ecall
   103fc:	f33342b7          	lui	t0,0xf3334
   10400:	4f428293          	addi	t0,t0,1268 # f33344f4 <_end+0xf331f7df>
   10404:	085c8e63          	beq	s9,t0,104a0 <reset_vector+0x454>
   10408:	00004517          	auipc	a0,0x4
   1040c:	e2350513          	addi	a0,a0,-477 # 1422b <end_signature+0x1db>
   10410:	3f1020ef          	jal	ra,13000 <FN_WriteStr>
   10414:	00004517          	auipc	a0,0x4
   10418:	e3250513          	addi	a0,a0,-462 # 14246 <end_signature+0x1f6>
   1041c:	3e5020ef          	jal	ra,13000 <FN_WriteStr>
   10420:	00004517          	auipc	a0,0x4
   10424:	e3450513          	addi	a0,a0,-460 # 14254 <end_signature+0x204>
   10428:	3d9020ef          	jal	ra,13000 <FN_WriteStr>
   1042c:	00004517          	auipc	a0,0x4
   10430:	e3050513          	addi	a0,a0,-464 # 1425c <end_signature+0x20c>
   10434:	3cd020ef          	jal	ra,13000 <FN_WriteStr>
   10438:	00004517          	auipc	a0,0x4
   1043c:	e2750513          	addi	a0,a0,-473 # 1425f <end_signature+0x20f>
   10440:	3c1020ef          	jal	ra,13000 <FN_WriteStr>
   10444:	00004517          	auipc	a0,0x4
   10448:	e1e50513          	addi	a0,a0,-482 # 14262 <end_signature+0x212>
   1044c:	3b5020ef          	jal	ra,13000 <FN_WriteStr>
   10450:	00004517          	auipc	a0,0x4
   10454:	e1650513          	addi	a0,a0,-490 # 14266 <end_signature+0x216>
   10458:	3a9020ef          	jal	ra,13000 <FN_WriteStr>
   1045c:	000c8513          	mv	a0,s9
   10460:	3bd020ef          	jal	ra,1301c <FN_WriteA0>
   10464:	00004517          	auipc	a0,0x4
   10468:	e0450513          	addi	a0,a0,-508 # 14268 <end_signature+0x218>
   1046c:	395020ef          	jal	ra,13000 <FN_WriteStr>
   10470:	00004517          	auipc	a0,0x4
   10474:	dfe50513          	addi	a0,a0,-514 # 1426e <end_signature+0x21e>
   10478:	389020ef          	jal	ra,13000 <FN_WriteStr>
   1047c:	00004517          	auipc	a0,0x4
   10480:	dfd50513          	addi	a0,a0,-515 # 14279 <end_signature+0x229>
   10484:	37d020ef          	jal	ra,13000 <FN_WriteStr>
   10488:	06400193          	li	gp,100
   1048c:	0000100f          	fence.i
   10490:	00018063          	beqz	gp,10490 <reset_vector+0x444>
   10494:	00119193          	slli	gp,gp,0x1
   10498:	0011e193          	ori	gp,gp,1
   1049c:	00000073          	ecall
   104a0:	00004517          	auipc	a0,0x4
   104a4:	ddb50513          	addi	a0,a0,-549 # 1427b <end_signature+0x22b>
   104a8:	359020ef          	jal	ra,13000 <FN_WriteStr>
   104ac:	00004517          	auipc	a0,0x4
   104b0:	deb50513          	addi	a0,a0,-533 # 14297 <end_signature+0x247>
   104b4:	34d020ef          	jal	ra,13000 <FN_WriteStr>
   104b8:	00004417          	auipc	s0,0x4
   104bc:	b5f40413          	addi	s0,s0,-1185 # 14017 <test_A2_res+0x3>
   104c0:	000420a3          	sw	zero,1(s0)
   104c4:	55f5ffb7          	lui	t6,0x55f5f
   104c8:	666f8f93          	addi	t6,t6,1638 # 55f5f666 <_end+0x55f4a951>
   104cc:	01f410a3          	sh	t6,1(s0)
   104d0:	00000293          	li	t0,0
   104d4:	08500e63          	beq	zero,t0,10570 <reset_vector+0x524>
   104d8:	00004517          	auipc	a0,0x4
   104dc:	de750513          	addi	a0,a0,-537 # 142bf <end_signature+0x26f>
   104e0:	321020ef          	jal	ra,13000 <FN_WriteStr>
   104e4:	00004517          	auipc	a0,0x4
   104e8:	df650513          	addi	a0,a0,-522 # 142da <end_signature+0x28a>
   104ec:	315020ef          	jal	ra,13000 <FN_WriteStr>
   104f0:	00004517          	auipc	a0,0x4
   104f4:	df850513          	addi	a0,a0,-520 # 142e8 <end_signature+0x298>
   104f8:	309020ef          	jal	ra,13000 <FN_WriteStr>
   104fc:	00004517          	auipc	a0,0x4
   10500:	df450513          	addi	a0,a0,-524 # 142f0 <end_signature+0x2a0>
   10504:	2fd020ef          	jal	ra,13000 <FN_WriteStr>
   10508:	00004517          	auipc	a0,0x4
   1050c:	deb50513          	addi	a0,a0,-533 # 142f3 <end_signature+0x2a3>
   10510:	2f1020ef          	jal	ra,13000 <FN_WriteStr>
   10514:	00004517          	auipc	a0,0x4
   10518:	de250513          	addi	a0,a0,-542 # 142f6 <end_signature+0x2a6>
   1051c:	2e5020ef          	jal	ra,13000 <FN_WriteStr>
   10520:	00004517          	auipc	a0,0x4
   10524:	dd950513          	addi	a0,a0,-551 # 142f9 <end_signature+0x2a9>
   10528:	2d9020ef          	jal	ra,13000 <FN_WriteStr>
   1052c:	00000513          	li	a0,0
   10530:	2ed020ef          	jal	ra,1301c <FN_WriteA0>
   10534:	00004517          	auipc	a0,0x4
   10538:	dc750513          	addi	a0,a0,-569 # 142fb <end_signature+0x2ab>
   1053c:	2c5020ef          	jal	ra,13000 <FN_WriteStr>
   10540:	00004517          	auipc	a0,0x4
   10544:	dc150513          	addi	a0,a0,-575 # 14301 <end_signature+0x2b1>
   10548:	2b9020ef          	jal	ra,13000 <FN_WriteStr>
   1054c:	00004517          	auipc	a0,0x4
   10550:	dc050513          	addi	a0,a0,-576 # 1430c <end_signature+0x2bc>
   10554:	2ad020ef          	jal	ra,13000 <FN_WriteStr>
   10558:	06400193          	li	gp,100
   1055c:	0000100f          	fence.i
   10560:	00018063          	beqz	gp,10560 <reset_vector+0x514>
   10564:	00119193          	slli	gp,gp,0x1
   10568:	0011e193          	ori	gp,gp,1
   1056c:	00000073          	ecall
   10570:	55f5f2b7          	lui	t0,0x55f5f
   10574:	66628293          	addi	t0,t0,1638 # 55f5f666 <_end+0x55f4a951>
   10578:	085f8e63          	beq	t6,t0,10614 <reset_vector+0x5c8>
   1057c:	00004517          	auipc	a0,0x4
   10580:	d9250513          	addi	a0,a0,-622 # 1430e <end_signature+0x2be>
   10584:	27d020ef          	jal	ra,13000 <FN_WriteStr>
   10588:	00004517          	auipc	a0,0x4
   1058c:	da150513          	addi	a0,a0,-607 # 14329 <end_signature+0x2d9>
   10590:	271020ef          	jal	ra,13000 <FN_WriteStr>
   10594:	00004517          	auipc	a0,0x4
   10598:	da350513          	addi	a0,a0,-605 # 14337 <end_signature+0x2e7>
   1059c:	265020ef          	jal	ra,13000 <FN_WriteStr>
   105a0:	00004517          	auipc	a0,0x4
   105a4:	d9f50513          	addi	a0,a0,-609 # 1433f <end_signature+0x2ef>
   105a8:	259020ef          	jal	ra,13000 <FN_WriteStr>
   105ac:	00004517          	auipc	a0,0x4
   105b0:	d9650513          	addi	a0,a0,-618 # 14342 <end_signature+0x2f2>
   105b4:	24d020ef          	jal	ra,13000 <FN_WriteStr>
   105b8:	00004517          	auipc	a0,0x4
   105bc:	d8d50513          	addi	a0,a0,-627 # 14345 <end_signature+0x2f5>
   105c0:	241020ef          	jal	ra,13000 <FN_WriteStr>
   105c4:	00004517          	auipc	a0,0x4
   105c8:	d8550513          	addi	a0,a0,-635 # 14349 <end_signature+0x2f9>
   105cc:	235020ef          	jal	ra,13000 <FN_WriteStr>
   105d0:	000f8513          	mv	a0,t6
   105d4:	249020ef          	jal	ra,1301c <FN_WriteA0>
   105d8:	00004517          	auipc	a0,0x4
   105dc:	d7350513          	addi	a0,a0,-653 # 1434b <end_signature+0x2fb>
   105e0:	221020ef          	jal	ra,13000 <FN_WriteStr>
   105e4:	00004517          	auipc	a0,0x4
   105e8:	d6d50513          	addi	a0,a0,-659 # 14351 <end_signature+0x301>
   105ec:	215020ef          	jal	ra,13000 <FN_WriteStr>
   105f0:	00004517          	auipc	a0,0x4
   105f4:	d6c50513          	addi	a0,a0,-660 # 1435c <end_signature+0x30c>
   105f8:	209020ef          	jal	ra,13000 <FN_WriteStr>
   105fc:	06400193          	li	gp,100
   10600:	0000100f          	fence.i
   10604:	00018063          	beqz	gp,10604 <reset_vector+0x5b8>
   10608:	00119193          	slli	gp,gp,0x1
   1060c:	0011e193          	ori	gp,gp,1
   10610:	00000073          	ecall
   10614:	00004517          	auipc	a0,0x4
   10618:	d4a50513          	addi	a0,a0,-694 # 1435e <end_signature+0x30e>
   1061c:	1e5020ef          	jal	ra,13000 <FN_WriteStr>
   10620:	00004517          	auipc	a0,0x4
   10624:	d5a50513          	addi	a0,a0,-678 # 1437a <end_signature+0x32a>
   10628:	1d9020ef          	jal	ra,13000 <FN_WriteStr>
   1062c:	00004597          	auipc	a1,0x4
   10630:	1f058593          	addi	a1,a1,496 # 1481c <end_signature+0x7cc>
   10634:	8005a023          	sw	zero,-2048(a1)
   10638:	f7779637          	lui	a2,0xf7779
   1063c:	8f860613          	addi	a2,a2,-1800 # f77788f8 <_end+0xf7763be3>
   10640:	80c59023          	sh	a2,-2048(a1)
   10644:	00000293          	li	t0,0
   10648:	08500e63          	beq	zero,t0,106e4 <reset_vector+0x698>
   1064c:	00004517          	auipc	a0,0x4
   10650:	d5950513          	addi	a0,a0,-679 # 143a5 <end_signature+0x355>
   10654:	1ad020ef          	jal	ra,13000 <FN_WriteStr>
   10658:	00004517          	auipc	a0,0x4
   1065c:	d6850513          	addi	a0,a0,-664 # 143c0 <end_signature+0x370>
   10660:	1a1020ef          	jal	ra,13000 <FN_WriteStr>
   10664:	00004517          	auipc	a0,0x4
   10668:	d6a50513          	addi	a0,a0,-662 # 143ce <end_signature+0x37e>
   1066c:	195020ef          	jal	ra,13000 <FN_WriteStr>
   10670:	00004517          	auipc	a0,0x4
   10674:	d6650513          	addi	a0,a0,-666 # 143d6 <end_signature+0x386>
   10678:	189020ef          	jal	ra,13000 <FN_WriteStr>
   1067c:	00004517          	auipc	a0,0x4
   10680:	d5e50513          	addi	a0,a0,-674 # 143da <end_signature+0x38a>
   10684:	17d020ef          	jal	ra,13000 <FN_WriteStr>
   10688:	00004517          	auipc	a0,0x4
   1068c:	d5550513          	addi	a0,a0,-683 # 143dd <end_signature+0x38d>
   10690:	171020ef          	jal	ra,13000 <FN_WriteStr>
   10694:	00004517          	auipc	a0,0x4
   10698:	d4c50513          	addi	a0,a0,-692 # 143e0 <end_signature+0x390>
   1069c:	165020ef          	jal	ra,13000 <FN_WriteStr>
   106a0:	00000513          	li	a0,0
   106a4:	179020ef          	jal	ra,1301c <FN_WriteA0>
   106a8:	00004517          	auipc	a0,0x4
   106ac:	d3a50513          	addi	a0,a0,-710 # 143e2 <end_signature+0x392>
   106b0:	151020ef          	jal	ra,13000 <FN_WriteStr>
   106b4:	00004517          	auipc	a0,0x4
   106b8:	d3450513          	addi	a0,a0,-716 # 143e8 <end_signature+0x398>
   106bc:	145020ef          	jal	ra,13000 <FN_WriteStr>
   106c0:	00004517          	auipc	a0,0x4
   106c4:	d3350513          	addi	a0,a0,-717 # 143f3 <end_signature+0x3a3>
   106c8:	139020ef          	jal	ra,13000 <FN_WriteStr>
   106cc:	06400193          	li	gp,100
   106d0:	0000100f          	fence.i
   106d4:	00018063          	beqz	gp,106d4 <reset_vector+0x688>
   106d8:	00119193          	slli	gp,gp,0x1
   106dc:	0011e193          	ori	gp,gp,1
   106e0:	00000073          	ecall
   106e4:	f77792b7          	lui	t0,0xf7779
   106e8:	8f828293          	addi	t0,t0,-1800 # f77788f8 <_end+0xf7763be3>
   106ec:	08560e63          	beq	a2,t0,10788 <reset_vector+0x73c>
   106f0:	00004517          	auipc	a0,0x4
   106f4:	d0550513          	addi	a0,a0,-763 # 143f5 <end_signature+0x3a5>
   106f8:	109020ef          	jal	ra,13000 <FN_WriteStr>
   106fc:	00004517          	auipc	a0,0x4
   10700:	d1450513          	addi	a0,a0,-748 # 14410 <end_signature+0x3c0>
   10704:	0fd020ef          	jal	ra,13000 <FN_WriteStr>
   10708:	00004517          	auipc	a0,0x4
   1070c:	d1650513          	addi	a0,a0,-746 # 1441e <end_signature+0x3ce>
   10710:	0f1020ef          	jal	ra,13000 <FN_WriteStr>
   10714:	00004517          	auipc	a0,0x4
   10718:	d1250513          	addi	a0,a0,-750 # 14426 <end_signature+0x3d6>
   1071c:	0e5020ef          	jal	ra,13000 <FN_WriteStr>
   10720:	00004517          	auipc	a0,0x4
   10724:	d0a50513          	addi	a0,a0,-758 # 1442a <end_signature+0x3da>
   10728:	0d9020ef          	jal	ra,13000 <FN_WriteStr>
   1072c:	00004517          	auipc	a0,0x4
   10730:	d0150513          	addi	a0,a0,-767 # 1442d <end_signature+0x3dd>
   10734:	0cd020ef          	jal	ra,13000 <FN_WriteStr>
   10738:	00004517          	auipc	a0,0x4
   1073c:	cf950513          	addi	a0,a0,-775 # 14431 <end_signature+0x3e1>
   10740:	0c1020ef          	jal	ra,13000 <FN_WriteStr>
   10744:	00060513          	mv	a0,a2
   10748:	0d5020ef          	jal	ra,1301c <FN_WriteA0>
   1074c:	00004517          	auipc	a0,0x4
   10750:	ce750513          	addi	a0,a0,-793 # 14433 <end_signature+0x3e3>
   10754:	0ad020ef          	jal	ra,13000 <FN_WriteStr>
   10758:	00004517          	auipc	a0,0x4
   1075c:	ce150513          	addi	a0,a0,-799 # 14439 <end_signature+0x3e9>
   10760:	0a1020ef          	jal	ra,13000 <FN_WriteStr>
   10764:	00004517          	auipc	a0,0x4
   10768:	ce050513          	addi	a0,a0,-800 # 14444 <end_signature+0x3f4>
   1076c:	095020ef          	jal	ra,13000 <FN_WriteStr>
   10770:	06400193          	li	gp,100
   10774:	0000100f          	fence.i
   10778:	00018063          	beqz	gp,10778 <reset_vector+0x72c>
   1077c:	00119193          	slli	gp,gp,0x1
   10780:	0011e193          	ori	gp,gp,1
   10784:	00000073          	ecall
   10788:	00004517          	auipc	a0,0x4
   1078c:	cbe50513          	addi	a0,a0,-834 # 14446 <end_signature+0x3f6>
   10790:	071020ef          	jal	ra,13000 <FN_WriteStr>
   10794:	00004517          	auipc	a0,0x4
   10798:	cce50513          	addi	a0,a0,-818 # 14462 <end_signature+0x412>
   1079c:	065020ef          	jal	ra,13000 <FN_WriteStr>
   107a0:	00003717          	auipc	a4,0x3
   107a4:	08170713          	addi	a4,a4,129 # 13821 <FN_WriteA0_common+0x7ad>
   107a8:	7e072fa3          	sw	zero,2047(a4)
   107ac:	990917b7          	lui	a5,0x99091
   107b0:	aaa78793          	addi	a5,a5,-1366 # 99090aaa <_end+0x9907bd95>
   107b4:	7ef71fa3          	sh	a5,2047(a4)
   107b8:	00000293          	li	t0,0
   107bc:	08500e63          	beq	zero,t0,10858 <reset_vector+0x80c>
   107c0:	00004517          	auipc	a0,0x4
   107c4:	ccd50513          	addi	a0,a0,-819 # 1448d <end_signature+0x43d>
   107c8:	039020ef          	jal	ra,13000 <FN_WriteStr>
   107cc:	00004517          	auipc	a0,0x4
   107d0:	cdc50513          	addi	a0,a0,-804 # 144a8 <end_signature+0x458>
   107d4:	02d020ef          	jal	ra,13000 <FN_WriteStr>
   107d8:	00004517          	auipc	a0,0x4
   107dc:	cde50513          	addi	a0,a0,-802 # 144b6 <end_signature+0x466>
   107e0:	021020ef          	jal	ra,13000 <FN_WriteStr>
   107e4:	00004517          	auipc	a0,0x4
   107e8:	cda50513          	addi	a0,a0,-806 # 144be <end_signature+0x46e>
   107ec:	015020ef          	jal	ra,13000 <FN_WriteStr>
   107f0:	00004517          	auipc	a0,0x4
   107f4:	cd250513          	addi	a0,a0,-814 # 144c2 <end_signature+0x472>
   107f8:	009020ef          	jal	ra,13000 <FN_WriteStr>
   107fc:	00004517          	auipc	a0,0x4
   10800:	cc950513          	addi	a0,a0,-823 # 144c5 <end_signature+0x475>
   10804:	7fc020ef          	jal	ra,13000 <FN_WriteStr>
   10808:	00004517          	auipc	a0,0x4
   1080c:	cc050513          	addi	a0,a0,-832 # 144c8 <end_signature+0x478>
   10810:	7f0020ef          	jal	ra,13000 <FN_WriteStr>
   10814:	00000513          	li	a0,0
   10818:	005020ef          	jal	ra,1301c <FN_WriteA0>
   1081c:	00004517          	auipc	a0,0x4
   10820:	cae50513          	addi	a0,a0,-850 # 144ca <end_signature+0x47a>
   10824:	7dc020ef          	jal	ra,13000 <FN_WriteStr>
   10828:	00004517          	auipc	a0,0x4
   1082c:	ca850513          	addi	a0,a0,-856 # 144d0 <end_signature+0x480>
   10830:	7d0020ef          	jal	ra,13000 <FN_WriteStr>
   10834:	00004517          	auipc	a0,0x4
   10838:	ca750513          	addi	a0,a0,-857 # 144db <end_signature+0x48b>
   1083c:	7c4020ef          	jal	ra,13000 <FN_WriteStr>
   10840:	06400193          	li	gp,100
   10844:	0000100f          	fence.i
   10848:	00018063          	beqz	gp,10848 <reset_vector+0x7fc>
   1084c:	00119193          	slli	gp,gp,0x1
   10850:	0011e193          	ori	gp,gp,1
   10854:	00000073          	ecall
   10858:	990912b7          	lui	t0,0x99091
   1085c:	aaa28293          	addi	t0,t0,-1366 # 99090aaa <_end+0x9907bd95>
   10860:	08578e63          	beq	a5,t0,108fc <reset_vector+0x8b0>
   10864:	00004517          	auipc	a0,0x4
   10868:	c7950513          	addi	a0,a0,-903 # 144dd <end_signature+0x48d>
   1086c:	794020ef          	jal	ra,13000 <FN_WriteStr>
   10870:	00004517          	auipc	a0,0x4
   10874:	c8850513          	addi	a0,a0,-888 # 144f8 <end_signature+0x4a8>
   10878:	788020ef          	jal	ra,13000 <FN_WriteStr>
   1087c:	00004517          	auipc	a0,0x4
   10880:	c8a50513          	addi	a0,a0,-886 # 14506 <end_signature+0x4b6>
   10884:	77c020ef          	jal	ra,13000 <FN_WriteStr>
   10888:	00004517          	auipc	a0,0x4
   1088c:	c8650513          	addi	a0,a0,-890 # 1450e <end_signature+0x4be>
   10890:	770020ef          	jal	ra,13000 <FN_WriteStr>
   10894:	00004517          	auipc	a0,0x4
   10898:	c7e50513          	addi	a0,a0,-898 # 14512 <end_signature+0x4c2>
   1089c:	764020ef          	jal	ra,13000 <FN_WriteStr>
   108a0:	00004517          	auipc	a0,0x4
   108a4:	c7550513          	addi	a0,a0,-907 # 14515 <end_signature+0x4c5>
   108a8:	758020ef          	jal	ra,13000 <FN_WriteStr>
   108ac:	00004517          	auipc	a0,0x4
   108b0:	c6d50513          	addi	a0,a0,-915 # 14519 <end_signature+0x4c9>
   108b4:	74c020ef          	jal	ra,13000 <FN_WriteStr>
   108b8:	00078513          	mv	a0,a5
   108bc:	760020ef          	jal	ra,1301c <FN_WriteA0>
   108c0:	00004517          	auipc	a0,0x4
   108c4:	c5b50513          	addi	a0,a0,-933 # 1451b <end_signature+0x4cb>
   108c8:	738020ef          	jal	ra,13000 <FN_WriteStr>
   108cc:	00004517          	auipc	a0,0x4
   108d0:	c5550513          	addi	a0,a0,-939 # 14521 <end_signature+0x4d1>
   108d4:	72c020ef          	jal	ra,13000 <FN_WriteStr>
   108d8:	00004517          	auipc	a0,0x4
   108dc:	c5450513          	addi	a0,a0,-940 # 1452c <end_signature+0x4dc>
   108e0:	720020ef          	jal	ra,13000 <FN_WriteStr>
   108e4:	06400193          	li	gp,100
   108e8:	0000100f          	fence.i
   108ec:	00018063          	beqz	gp,108ec <reset_vector+0x8a0>
   108f0:	00119193          	slli	gp,gp,0x1
   108f4:	0011e193          	ori	gp,gp,1
   108f8:	00000073          	ecall
   108fc:	00004517          	auipc	a0,0x4
   10900:	c3250513          	addi	a0,a0,-974 # 1452e <end_signature+0x4de>
   10904:	6fc020ef          	jal	ra,13000 <FN_WriteStr>
   10908:	00004517          	auipc	a0,0x4
   1090c:	c4250513          	addi	a0,a0,-958 # 1454a <end_signature+0x4fa>
   10910:	6f0020ef          	jal	ra,13000 <FN_WriteStr>
   10914:	00003897          	auipc	a7,0x3
   10918:	71488893          	addi	a7,a7,1812 # 14028 <test_B_res>
   1091c:	1111d937          	lui	s2,0x1111d
   10920:	c0c90913          	addi	s2,s2,-1012 # 1111cc0c <_end+0x11107ef7>
   10924:	222219b7          	lui	s3,0x22221
   10928:	bbb98993          	addi	s3,s3,-1093 # 22220bbb <_end+0x2220bea6>
   1092c:	33331a37          	lui	s4,0x33331
   10930:	eeea0a13          	addi	s4,s4,-274 # 33330eee <_end+0x3331c1d9>
   10934:	4444eab7          	lui	s5,0x4444e
   10938:	d0da8a93          	addi	s5,s5,-755 # 4444dd0d <_end+0x44438ff8>
   1093c:	77770b37          	lui	s6,0x77770
   10940:	0f0b0b13          	addi	s6,s6,240 # 777700f0 <_end+0x7775b3db>
   10944:	66661bb7          	lui	s7,0x66661
   10948:	fffb8b93          	addi	s7,s7,-1 # 66660fff <_end+0x6664c2ea>
   1094c:	ff289e23          	sh	s2,-4(a7)
   10950:	ff389f23          	sh	s3,-2(a7)
   10954:	01489023          	sh	s4,0(a7)
   10958:	01589123          	sh	s5,2(a7)
   1095c:	01689223          	sh	s6,4(a7)
   10960:	01789323          	sh	s7,6(a7)
   10964:	1111d2b7          	lui	t0,0x1111d
   10968:	c0c28293          	addi	t0,t0,-1012 # 1111cc0c <_end+0x11107ef7>
   1096c:	08590e63          	beq	s2,t0,10a08 <reset_vector+0x9bc>
   10970:	00004517          	auipc	a0,0x4
   10974:	c0f50513          	addi	a0,a0,-1009 # 1457f <end_signature+0x52f>
   10978:	688020ef          	jal	ra,13000 <FN_WriteStr>
   1097c:	00004517          	auipc	a0,0x4
   10980:	c1e50513          	addi	a0,a0,-994 # 1459a <end_signature+0x54a>
   10984:	67c020ef          	jal	ra,13000 <FN_WriteStr>
   10988:	00004517          	auipc	a0,0x4
   1098c:	c2050513          	addi	a0,a0,-992 # 145a8 <end_signature+0x558>
   10990:	670020ef          	jal	ra,13000 <FN_WriteStr>
   10994:	00004517          	auipc	a0,0x4
   10998:	c1c50513          	addi	a0,a0,-996 # 145b0 <end_signature+0x560>
   1099c:	664020ef          	jal	ra,13000 <FN_WriteStr>
   109a0:	00004517          	auipc	a0,0x4
   109a4:	c1450513          	addi	a0,a0,-1004 # 145b4 <end_signature+0x564>
   109a8:	658020ef          	jal	ra,13000 <FN_WriteStr>
   109ac:	00004517          	auipc	a0,0x4
   109b0:	c0b50513          	addi	a0,a0,-1013 # 145b7 <end_signature+0x567>
   109b4:	64c020ef          	jal	ra,13000 <FN_WriteStr>
   109b8:	00004517          	auipc	a0,0x4
   109bc:	c0350513          	addi	a0,a0,-1021 # 145bb <end_signature+0x56b>
   109c0:	640020ef          	jal	ra,13000 <FN_WriteStr>
   109c4:	00090513          	mv	a0,s2
   109c8:	654020ef          	jal	ra,1301c <FN_WriteA0>
   109cc:	00004517          	auipc	a0,0x4
   109d0:	bf150513          	addi	a0,a0,-1039 # 145bd <end_signature+0x56d>
   109d4:	62c020ef          	jal	ra,13000 <FN_WriteStr>
   109d8:	00004517          	auipc	a0,0x4
   109dc:	beb50513          	addi	a0,a0,-1045 # 145c3 <end_signature+0x573>
   109e0:	620020ef          	jal	ra,13000 <FN_WriteStr>
   109e4:	00004517          	auipc	a0,0x4
   109e8:	bea50513          	addi	a0,a0,-1046 # 145ce <end_signature+0x57e>
   109ec:	614020ef          	jal	ra,13000 <FN_WriteStr>
   109f0:	06400193          	li	gp,100
   109f4:	0000100f          	fence.i
   109f8:	00018063          	beqz	gp,109f8 <reset_vector+0x9ac>
   109fc:	00119193          	slli	gp,gp,0x1
   10a00:	0011e193          	ori	gp,gp,1
   10a04:	00000073          	ecall
   10a08:	222212b7          	lui	t0,0x22221
   10a0c:	bbb28293          	addi	t0,t0,-1093 # 22220bbb <_end+0x2220bea6>
   10a10:	08598e63          	beq	s3,t0,10aac <reset_vector+0xa60>
   10a14:	00004517          	auipc	a0,0x4
   10a18:	bbc50513          	addi	a0,a0,-1092 # 145d0 <end_signature+0x580>
   10a1c:	5e4020ef          	jal	ra,13000 <FN_WriteStr>
   10a20:	00004517          	auipc	a0,0x4
   10a24:	bcb50513          	addi	a0,a0,-1077 # 145eb <end_signature+0x59b>
   10a28:	5d8020ef          	jal	ra,13000 <FN_WriteStr>
   10a2c:	00004517          	auipc	a0,0x4
   10a30:	bcd50513          	addi	a0,a0,-1075 # 145f9 <end_signature+0x5a9>
   10a34:	5cc020ef          	jal	ra,13000 <FN_WriteStr>
   10a38:	00004517          	auipc	a0,0x4
   10a3c:	bc950513          	addi	a0,a0,-1079 # 14601 <end_signature+0x5b1>
   10a40:	5c0020ef          	jal	ra,13000 <FN_WriteStr>
   10a44:	00004517          	auipc	a0,0x4
   10a48:	bc150513          	addi	a0,a0,-1087 # 14605 <end_signature+0x5b5>
   10a4c:	5b4020ef          	jal	ra,13000 <FN_WriteStr>
   10a50:	00004517          	auipc	a0,0x4
   10a54:	bb850513          	addi	a0,a0,-1096 # 14608 <end_signature+0x5b8>
   10a58:	5a8020ef          	jal	ra,13000 <FN_WriteStr>
   10a5c:	00004517          	auipc	a0,0x4
   10a60:	bb050513          	addi	a0,a0,-1104 # 1460c <end_signature+0x5bc>
   10a64:	59c020ef          	jal	ra,13000 <FN_WriteStr>
   10a68:	00098513          	mv	a0,s3
   10a6c:	5b0020ef          	jal	ra,1301c <FN_WriteA0>
   10a70:	00004517          	auipc	a0,0x4
   10a74:	b9e50513          	addi	a0,a0,-1122 # 1460e <end_signature+0x5be>
   10a78:	588020ef          	jal	ra,13000 <FN_WriteStr>
   10a7c:	00004517          	auipc	a0,0x4
   10a80:	b9850513          	addi	a0,a0,-1128 # 14614 <end_signature+0x5c4>
   10a84:	57c020ef          	jal	ra,13000 <FN_WriteStr>
   10a88:	00004517          	auipc	a0,0x4
   10a8c:	b9750513          	addi	a0,a0,-1129 # 1461f <end_signature+0x5cf>
   10a90:	570020ef          	jal	ra,13000 <FN_WriteStr>
   10a94:	06400193          	li	gp,100
   10a98:	0000100f          	fence.i
   10a9c:	00018063          	beqz	gp,10a9c <reset_vector+0xa50>
   10aa0:	00119193          	slli	gp,gp,0x1
   10aa4:	0011e193          	ori	gp,gp,1
   10aa8:	00000073          	ecall
   10aac:	333312b7          	lui	t0,0x33331
   10ab0:	eee28293          	addi	t0,t0,-274 # 33330eee <_end+0x3331c1d9>
   10ab4:	085a0e63          	beq	s4,t0,10b50 <reset_vector+0xb04>
   10ab8:	00004517          	auipc	a0,0x4
   10abc:	b6950513          	addi	a0,a0,-1175 # 14621 <end_signature+0x5d1>
   10ac0:	540020ef          	jal	ra,13000 <FN_WriteStr>
   10ac4:	00004517          	auipc	a0,0x4
   10ac8:	b7850513          	addi	a0,a0,-1160 # 1463c <end_signature+0x5ec>
   10acc:	534020ef          	jal	ra,13000 <FN_WriteStr>
   10ad0:	00004517          	auipc	a0,0x4
   10ad4:	b7a50513          	addi	a0,a0,-1158 # 1464a <end_signature+0x5fa>
   10ad8:	528020ef          	jal	ra,13000 <FN_WriteStr>
   10adc:	00004517          	auipc	a0,0x4
   10ae0:	b7650513          	addi	a0,a0,-1162 # 14652 <end_signature+0x602>
   10ae4:	51c020ef          	jal	ra,13000 <FN_WriteStr>
   10ae8:	00004517          	auipc	a0,0x4
   10aec:	b6e50513          	addi	a0,a0,-1170 # 14656 <end_signature+0x606>
   10af0:	510020ef          	jal	ra,13000 <FN_WriteStr>
   10af4:	00004517          	auipc	a0,0x4
   10af8:	b6550513          	addi	a0,a0,-1179 # 14659 <end_signature+0x609>
   10afc:	504020ef          	jal	ra,13000 <FN_WriteStr>
   10b00:	00004517          	auipc	a0,0x4
   10b04:	b5d50513          	addi	a0,a0,-1187 # 1465d <end_signature+0x60d>
   10b08:	4f8020ef          	jal	ra,13000 <FN_WriteStr>
   10b0c:	000a0513          	mv	a0,s4
   10b10:	50c020ef          	jal	ra,1301c <FN_WriteA0>
   10b14:	00004517          	auipc	a0,0x4
   10b18:	b4b50513          	addi	a0,a0,-1205 # 1465f <end_signature+0x60f>
   10b1c:	4e4020ef          	jal	ra,13000 <FN_WriteStr>
   10b20:	00004517          	auipc	a0,0x4
   10b24:	b4550513          	addi	a0,a0,-1211 # 14665 <end_signature+0x615>
   10b28:	4d8020ef          	jal	ra,13000 <FN_WriteStr>
   10b2c:	00004517          	auipc	a0,0x4
   10b30:	b4450513          	addi	a0,a0,-1212 # 14670 <end_signature+0x620>
   10b34:	4cc020ef          	jal	ra,13000 <FN_WriteStr>
   10b38:	06400193          	li	gp,100
   10b3c:	0000100f          	fence.i
   10b40:	00018063          	beqz	gp,10b40 <reset_vector+0xaf4>
   10b44:	00119193          	slli	gp,gp,0x1
   10b48:	0011e193          	ori	gp,gp,1
   10b4c:	00000073          	ecall
   10b50:	4444e2b7          	lui	t0,0x4444e
   10b54:	d0d28293          	addi	t0,t0,-755 # 4444dd0d <_end+0x44438ff8>
   10b58:	085a8e63          	beq	s5,t0,10bf4 <reset_vector+0xba8>
   10b5c:	00004517          	auipc	a0,0x4
   10b60:	b1650513          	addi	a0,a0,-1258 # 14672 <end_signature+0x622>
   10b64:	49c020ef          	jal	ra,13000 <FN_WriteStr>
   10b68:	00004517          	auipc	a0,0x4
   10b6c:	b2550513          	addi	a0,a0,-1243 # 1468d <end_signature+0x63d>
   10b70:	490020ef          	jal	ra,13000 <FN_WriteStr>
   10b74:	00004517          	auipc	a0,0x4
   10b78:	b2750513          	addi	a0,a0,-1241 # 1469b <end_signature+0x64b>
   10b7c:	484020ef          	jal	ra,13000 <FN_WriteStr>
   10b80:	00004517          	auipc	a0,0x4
   10b84:	b2350513          	addi	a0,a0,-1245 # 146a3 <end_signature+0x653>
   10b88:	478020ef          	jal	ra,13000 <FN_WriteStr>
   10b8c:	00004517          	auipc	a0,0x4
   10b90:	b1b50513          	addi	a0,a0,-1253 # 146a7 <end_signature+0x657>
   10b94:	46c020ef          	jal	ra,13000 <FN_WriteStr>
   10b98:	00004517          	auipc	a0,0x4
   10b9c:	b1250513          	addi	a0,a0,-1262 # 146aa <end_signature+0x65a>
   10ba0:	460020ef          	jal	ra,13000 <FN_WriteStr>
   10ba4:	00004517          	auipc	a0,0x4
   10ba8:	b0a50513          	addi	a0,a0,-1270 # 146ae <end_signature+0x65e>
   10bac:	454020ef          	jal	ra,13000 <FN_WriteStr>
   10bb0:	000a8513          	mv	a0,s5
   10bb4:	468020ef          	jal	ra,1301c <FN_WriteA0>
   10bb8:	00004517          	auipc	a0,0x4
   10bbc:	af850513          	addi	a0,a0,-1288 # 146b0 <end_signature+0x660>
   10bc0:	440020ef          	jal	ra,13000 <FN_WriteStr>
   10bc4:	00004517          	auipc	a0,0x4
   10bc8:	af250513          	addi	a0,a0,-1294 # 146b6 <end_signature+0x666>
   10bcc:	434020ef          	jal	ra,13000 <FN_WriteStr>
   10bd0:	00004517          	auipc	a0,0x4
   10bd4:	af150513          	addi	a0,a0,-1295 # 146c1 <end_signature+0x671>
   10bd8:	428020ef          	jal	ra,13000 <FN_WriteStr>
   10bdc:	06400193          	li	gp,100
   10be0:	0000100f          	fence.i
   10be4:	00018063          	beqz	gp,10be4 <reset_vector+0xb98>
   10be8:	00119193          	slli	gp,gp,0x1
   10bec:	0011e193          	ori	gp,gp,1
   10bf0:	00000073          	ecall
   10bf4:	777702b7          	lui	t0,0x77770
   10bf8:	0f028293          	addi	t0,t0,240 # 777700f0 <_end+0x7775b3db>
   10bfc:	085b0e63          	beq	s6,t0,10c98 <reset_vector+0xc4c>
   10c00:	00004517          	auipc	a0,0x4
   10c04:	ac350513          	addi	a0,a0,-1341 # 146c3 <end_signature+0x673>
   10c08:	3f8020ef          	jal	ra,13000 <FN_WriteStr>
   10c0c:	00004517          	auipc	a0,0x4
   10c10:	ad250513          	addi	a0,a0,-1326 # 146de <end_signature+0x68e>
   10c14:	3ec020ef          	jal	ra,13000 <FN_WriteStr>
   10c18:	00004517          	auipc	a0,0x4
   10c1c:	ad450513          	addi	a0,a0,-1324 # 146ec <end_signature+0x69c>
   10c20:	3e0020ef          	jal	ra,13000 <FN_WriteStr>
   10c24:	00004517          	auipc	a0,0x4
   10c28:	ad050513          	addi	a0,a0,-1328 # 146f4 <end_signature+0x6a4>
   10c2c:	3d4020ef          	jal	ra,13000 <FN_WriteStr>
   10c30:	00004517          	auipc	a0,0x4
   10c34:	ac850513          	addi	a0,a0,-1336 # 146f8 <end_signature+0x6a8>
   10c38:	3c8020ef          	jal	ra,13000 <FN_WriteStr>
   10c3c:	00004517          	auipc	a0,0x4
   10c40:	abf50513          	addi	a0,a0,-1345 # 146fb <end_signature+0x6ab>
   10c44:	3bc020ef          	jal	ra,13000 <FN_WriteStr>
   10c48:	00004517          	auipc	a0,0x4
   10c4c:	ab750513          	addi	a0,a0,-1353 # 146ff <end_signature+0x6af>
   10c50:	3b0020ef          	jal	ra,13000 <FN_WriteStr>
   10c54:	000b0513          	mv	a0,s6
   10c58:	3c4020ef          	jal	ra,1301c <FN_WriteA0>
   10c5c:	00004517          	auipc	a0,0x4
   10c60:	aa550513          	addi	a0,a0,-1371 # 14701 <end_signature+0x6b1>
   10c64:	39c020ef          	jal	ra,13000 <FN_WriteStr>
   10c68:	00004517          	auipc	a0,0x4
   10c6c:	a9f50513          	addi	a0,a0,-1377 # 14707 <end_signature+0x6b7>
   10c70:	390020ef          	jal	ra,13000 <FN_WriteStr>
   10c74:	00004517          	auipc	a0,0x4
   10c78:	a9e50513          	addi	a0,a0,-1378 # 14712 <end_signature+0x6c2>
   10c7c:	384020ef          	jal	ra,13000 <FN_WriteStr>
   10c80:	06400193          	li	gp,100
   10c84:	0000100f          	fence.i
   10c88:	00018063          	beqz	gp,10c88 <reset_vector+0xc3c>
   10c8c:	00119193          	slli	gp,gp,0x1
   10c90:	0011e193          	ori	gp,gp,1
   10c94:	00000073          	ecall
   10c98:	666612b7          	lui	t0,0x66661
   10c9c:	fff28293          	addi	t0,t0,-1 # 66660fff <_end+0x6664c2ea>
   10ca0:	085b8e63          	beq	s7,t0,10d3c <reset_vector+0xcf0>
   10ca4:	00004517          	auipc	a0,0x4
   10ca8:	a7050513          	addi	a0,a0,-1424 # 14714 <end_signature+0x6c4>
   10cac:	354020ef          	jal	ra,13000 <FN_WriteStr>
   10cb0:	00004517          	auipc	a0,0x4
   10cb4:	a7f50513          	addi	a0,a0,-1409 # 1472f <end_signature+0x6df>
   10cb8:	348020ef          	jal	ra,13000 <FN_WriteStr>
   10cbc:	00004517          	auipc	a0,0x4
   10cc0:	a8150513          	addi	a0,a0,-1407 # 1473d <end_signature+0x6ed>
   10cc4:	33c020ef          	jal	ra,13000 <FN_WriteStr>
   10cc8:	00004517          	auipc	a0,0x4
   10ccc:	a7d50513          	addi	a0,a0,-1411 # 14745 <end_signature+0x6f5>
   10cd0:	330020ef          	jal	ra,13000 <FN_WriteStr>
   10cd4:	00004517          	auipc	a0,0x4
   10cd8:	a7550513          	addi	a0,a0,-1419 # 14749 <end_signature+0x6f9>
   10cdc:	324020ef          	jal	ra,13000 <FN_WriteStr>
   10ce0:	00004517          	auipc	a0,0x4
   10ce4:	a6c50513          	addi	a0,a0,-1428 # 1474c <end_signature+0x6fc>
   10ce8:	318020ef          	jal	ra,13000 <FN_WriteStr>
   10cec:	00004517          	auipc	a0,0x4
   10cf0:	a6450513          	addi	a0,a0,-1436 # 14750 <end_signature+0x700>
   10cf4:	30c020ef          	jal	ra,13000 <FN_WriteStr>
   10cf8:	000b8513          	mv	a0,s7
   10cfc:	320020ef          	jal	ra,1301c <FN_WriteA0>
   10d00:	00004517          	auipc	a0,0x4
   10d04:	a5250513          	addi	a0,a0,-1454 # 14752 <end_signature+0x702>
   10d08:	2f8020ef          	jal	ra,13000 <FN_WriteStr>
   10d0c:	00004517          	auipc	a0,0x4
   10d10:	a4c50513          	addi	a0,a0,-1460 # 14758 <end_signature+0x708>
   10d14:	2ec020ef          	jal	ra,13000 <FN_WriteStr>
   10d18:	00004517          	auipc	a0,0x4
   10d1c:	a4b50513          	addi	a0,a0,-1461 # 14763 <end_signature+0x713>
   10d20:	2e0020ef          	jal	ra,13000 <FN_WriteStr>
   10d24:	06400193          	li	gp,100
   10d28:	0000100f          	fence.i
   10d2c:	00018063          	beqz	gp,10d2c <reset_vector+0xce0>
   10d30:	00119193          	slli	gp,gp,0x1
   10d34:	0011e193          	ori	gp,gp,1
   10d38:	00000073          	ecall
   10d3c:	00004517          	auipc	a0,0x4
   10d40:	a2950513          	addi	a0,a0,-1495 # 14765 <end_signature+0x715>
   10d44:	2bc020ef          	jal	ra,13000 <FN_WriteStr>
   10d48:	00004517          	auipc	a0,0x4
   10d4c:	a3850513          	addi	a0,a0,-1480 # 14780 <end_signature+0x730>
   10d50:	2b0020ef          	jal	ra,13000 <FN_WriteStr>
   10d54:	00003b17          	auipc	s6,0x3
   10d58:	2dcb0b13          	addi	s6,s6,732 # 14030 <test_C_res>
   10d5c:	876540b7          	lui	ra,0x87654
   10d60:	32108093          	addi	ra,ra,801 # 87654321 <_end+0x8763f60c>
   10d64:	001b2023          	sw	ra,0(s6)
   10d68:	12345037          	lui	zero,0x12345
   10d6c:	67800013          	li	zero,1656
   10d70:	000b1023          	sh	zero,0(s6)
   10d74:	00000293          	li	t0,0
   10d78:	08500e63          	beq	zero,t0,10e14 <reset_vector+0xdc8>
   10d7c:	00004517          	auipc	a0,0x4
   10d80:	a2350513          	addi	a0,a0,-1501 # 1479f <end_signature+0x74f>
   10d84:	27c020ef          	jal	ra,13000 <FN_WriteStr>
   10d88:	00004517          	auipc	a0,0x4
   10d8c:	a3250513          	addi	a0,a0,-1486 # 147ba <end_signature+0x76a>
   10d90:	270020ef          	jal	ra,13000 <FN_WriteStr>
   10d94:	00004517          	auipc	a0,0x4
   10d98:	a3450513          	addi	a0,a0,-1484 # 147c8 <end_signature+0x778>
   10d9c:	264020ef          	jal	ra,13000 <FN_WriteStr>
   10da0:	00004517          	auipc	a0,0x4
   10da4:	a3050513          	addi	a0,a0,-1488 # 147d0 <end_signature+0x780>
   10da8:	258020ef          	jal	ra,13000 <FN_WriteStr>
   10dac:	00004517          	auipc	a0,0x4
   10db0:	a2850513          	addi	a0,a0,-1496 # 147d4 <end_signature+0x784>
   10db4:	24c020ef          	jal	ra,13000 <FN_WriteStr>
   10db8:	00004517          	auipc	a0,0x4
   10dbc:	a1f50513          	addi	a0,a0,-1505 # 147d7 <end_signature+0x787>
   10dc0:	240020ef          	jal	ra,13000 <FN_WriteStr>
   10dc4:	00004517          	auipc	a0,0x4
   10dc8:	a1650513          	addi	a0,a0,-1514 # 147da <end_signature+0x78a>
   10dcc:	234020ef          	jal	ra,13000 <FN_WriteStr>
   10dd0:	00000513          	li	a0,0
   10dd4:	248020ef          	jal	ra,1301c <FN_WriteA0>
   10dd8:	00004517          	auipc	a0,0x4
   10ddc:	a0450513          	addi	a0,a0,-1532 # 147dc <end_signature+0x78c>
   10de0:	220020ef          	jal	ra,13000 <FN_WriteStr>
   10de4:	00004517          	auipc	a0,0x4
   10de8:	9fe50513          	addi	a0,a0,-1538 # 147e2 <end_signature+0x792>
   10dec:	214020ef          	jal	ra,13000 <FN_WriteStr>
   10df0:	00004517          	auipc	a0,0x4
   10df4:	9fd50513          	addi	a0,a0,-1539 # 147ed <end_signature+0x79d>
   10df8:	208020ef          	jal	ra,13000 <FN_WriteStr>
   10dfc:	06400193          	li	gp,100
   10e00:	0000100f          	fence.i
   10e04:	00018063          	beqz	gp,10e04 <reset_vector+0xdb8>
   10e08:	00119193          	slli	gp,gp,0x1
   10e0c:	0011e193          	ori	gp,gp,1
   10e10:	00000073          	ecall
   10e14:	876542b7          	lui	t0,0x87654
   10e18:	32128293          	addi	t0,t0,801 # 87654321 <_end+0x8763f60c>
   10e1c:	08508e63          	beq	ra,t0,10eb8 <reset_vector+0xe6c>
   10e20:	00004517          	auipc	a0,0x4
   10e24:	9cf50513          	addi	a0,a0,-1585 # 147ef <end_signature+0x79f>
   10e28:	1d8020ef          	jal	ra,13000 <FN_WriteStr>
   10e2c:	00004517          	auipc	a0,0x4
   10e30:	9de50513          	addi	a0,a0,-1570 # 1480a <end_signature+0x7ba>
   10e34:	1cc020ef          	jal	ra,13000 <FN_WriteStr>
   10e38:	00004517          	auipc	a0,0x4
   10e3c:	9e050513          	addi	a0,a0,-1568 # 14818 <end_signature+0x7c8>
   10e40:	1c0020ef          	jal	ra,13000 <FN_WriteStr>
   10e44:	00004517          	auipc	a0,0x4
   10e48:	9dc50513          	addi	a0,a0,-1572 # 14820 <end_signature+0x7d0>
   10e4c:	1b4020ef          	jal	ra,13000 <FN_WriteStr>
   10e50:	00004517          	auipc	a0,0x4
   10e54:	9d450513          	addi	a0,a0,-1580 # 14824 <end_signature+0x7d4>
   10e58:	1a8020ef          	jal	ra,13000 <FN_WriteStr>
   10e5c:	00004517          	auipc	a0,0x4
   10e60:	9cb50513          	addi	a0,a0,-1589 # 14827 <end_signature+0x7d7>
   10e64:	19c020ef          	jal	ra,13000 <FN_WriteStr>
   10e68:	00004517          	auipc	a0,0x4
   10e6c:	9c250513          	addi	a0,a0,-1598 # 1482a <end_signature+0x7da>
   10e70:	190020ef          	jal	ra,13000 <FN_WriteStr>
   10e74:	00008513          	mv	a0,ra
   10e78:	1a4020ef          	jal	ra,1301c <FN_WriteA0>
   10e7c:	00004517          	auipc	a0,0x4
   10e80:	9b050513          	addi	a0,a0,-1616 # 1482c <end_signature+0x7dc>
   10e84:	17c020ef          	jal	ra,13000 <FN_WriteStr>
   10e88:	00004517          	auipc	a0,0x4
   10e8c:	9aa50513          	addi	a0,a0,-1622 # 14832 <end_signature+0x7e2>
   10e90:	170020ef          	jal	ra,13000 <FN_WriteStr>
   10e94:	00004517          	auipc	a0,0x4
   10e98:	9a950513          	addi	a0,a0,-1623 # 1483d <end_signature+0x7ed>
   10e9c:	164020ef          	jal	ra,13000 <FN_WriteStr>
   10ea0:	06400193          	li	gp,100
   10ea4:	0000100f          	fence.i
   10ea8:	00018063          	beqz	gp,10ea8 <reset_vector+0xe5c>
   10eac:	00119193          	slli	gp,gp,0x1
   10eb0:	0011e193          	ori	gp,gp,1
   10eb4:	00000073          	ecall
   10eb8:	00004517          	auipc	a0,0x4
   10ebc:	98750513          	addi	a0,a0,-1657 # 1483f <end_signature+0x7ef>
   10ec0:	140020ef          	jal	ra,13000 <FN_WriteStr>
   10ec4:	00004517          	auipc	a0,0x4
   10ec8:	99650513          	addi	a0,a0,-1642 # 1485a <end_signature+0x80a>
   10ecc:	134020ef          	jal	ra,13000 <FN_WriteStr>
   10ed0:	00003a97          	auipc	s5,0x3
   10ed4:	130a8a93          	addi	s5,s5,304 # 14000 <test_D1_data>
   10ed8:	000aa083          	lw	ra,0(s5)
   10edc:	0000a023          	sw	zero,0(ra)
   10ee0:	112239b7          	lui	s3,0x11223
   10ee4:	34498993          	addi	s3,s3,836 # 11223344 <_end+0x1120e62f>
   10ee8:	000aab83          	lw	s7,0(s5)
   10eec:	013b9023          	sh	s3,0(s7)
   10ef0:	112232b7          	lui	t0,0x11223
   10ef4:	34428293          	addi	t0,t0,836 # 11223344 <_end+0x1120e62f>
   10ef8:	08598e63          	beq	s3,t0,10f94 <reset_vector+0xf48>
   10efc:	00004517          	auipc	a0,0x4
   10f00:	99a50513          	addi	a0,a0,-1638 # 14896 <end_signature+0x846>
   10f04:	0fc020ef          	jal	ra,13000 <FN_WriteStr>
   10f08:	00004517          	auipc	a0,0x4
   10f0c:	9a950513          	addi	a0,a0,-1623 # 148b1 <end_signature+0x861>
   10f10:	0f0020ef          	jal	ra,13000 <FN_WriteStr>
   10f14:	00004517          	auipc	a0,0x4
   10f18:	9ab50513          	addi	a0,a0,-1621 # 148bf <end_signature+0x86f>
   10f1c:	0e4020ef          	jal	ra,13000 <FN_WriteStr>
   10f20:	00004517          	auipc	a0,0x4
   10f24:	9a750513          	addi	a0,a0,-1625 # 148c7 <end_signature+0x877>
   10f28:	0d8020ef          	jal	ra,13000 <FN_WriteStr>
   10f2c:	00004517          	auipc	a0,0x4
   10f30:	99f50513          	addi	a0,a0,-1633 # 148cb <end_signature+0x87b>
   10f34:	0cc020ef          	jal	ra,13000 <FN_WriteStr>
   10f38:	00004517          	auipc	a0,0x4
   10f3c:	99650513          	addi	a0,a0,-1642 # 148ce <end_signature+0x87e>
   10f40:	0c0020ef          	jal	ra,13000 <FN_WriteStr>
   10f44:	00004517          	auipc	a0,0x4
   10f48:	98e50513          	addi	a0,a0,-1650 # 148d2 <end_signature+0x882>
   10f4c:	0b4020ef          	jal	ra,13000 <FN_WriteStr>
   10f50:	00098513          	mv	a0,s3
   10f54:	0c8020ef          	jal	ra,1301c <FN_WriteA0>
   10f58:	00004517          	auipc	a0,0x4
   10f5c:	97c50513          	addi	a0,a0,-1668 # 148d4 <end_signature+0x884>
   10f60:	0a0020ef          	jal	ra,13000 <FN_WriteStr>
   10f64:	00004517          	auipc	a0,0x4
   10f68:	97650513          	addi	a0,a0,-1674 # 148da <end_signature+0x88a>
   10f6c:	094020ef          	jal	ra,13000 <FN_WriteStr>
   10f70:	00004517          	auipc	a0,0x4
   10f74:	97550513          	addi	a0,a0,-1675 # 148e5 <end_signature+0x895>
   10f78:	088020ef          	jal	ra,13000 <FN_WriteStr>
   10f7c:	06400193          	li	gp,100
   10f80:	0000100f          	fence.i
   10f84:	00018063          	beqz	gp,10f84 <reset_vector+0xf38>
   10f88:	00119193          	slli	gp,gp,0x1
   10f8c:	0011e193          	ori	gp,gp,1
   10f90:	00000073          	ecall
   10f94:	00004517          	auipc	a0,0x4
   10f98:	95350513          	addi	a0,a0,-1709 # 148e7 <end_signature+0x897>
   10f9c:	064020ef          	jal	ra,13000 <FN_WriteStr>
   10fa0:	00004517          	auipc	a0,0x4
   10fa4:	96250513          	addi	a0,a0,-1694 # 14902 <end_signature+0x8b2>
   10fa8:	058020ef          	jal	ra,13000 <FN_WriteStr>
   10fac:	00003b97          	auipc	s7,0x3
   10fb0:	058b8b93          	addi	s7,s7,88 # 14004 <test_D2_data>
   10fb4:	00003c17          	auipc	s8,0x3
   10fb8:	084c0c13          	addi	s8,s8,132 # 14038 <test_D2_res>
   10fbc:	000c2023          	sw	zero,0(s8)
   10fc0:	000bac83          	lw	s9,0(s7)
   10fc4:	019c1023          	sh	s9,0(s8)
   10fc8:	9abce2b7          	lui	t0,0x9abce
   10fcc:	ef028293          	addi	t0,t0,-272 # 9abcdef0 <_end+0x9abb91db>
   10fd0:	085c8e63          	beq	s9,t0,1106c <reset_vector+0x1020>
   10fd4:	00004517          	auipc	a0,0x4
   10fd8:	96750513          	addi	a0,a0,-1689 # 1493b <end_signature+0x8eb>
   10fdc:	024020ef          	jal	ra,13000 <FN_WriteStr>
   10fe0:	00004517          	auipc	a0,0x4
   10fe4:	97650513          	addi	a0,a0,-1674 # 14956 <end_signature+0x906>
   10fe8:	018020ef          	jal	ra,13000 <FN_WriteStr>
   10fec:	00004517          	auipc	a0,0x4
   10ff0:	97850513          	addi	a0,a0,-1672 # 14964 <end_signature+0x914>
   10ff4:	00c020ef          	jal	ra,13000 <FN_WriteStr>
   10ff8:	00004517          	auipc	a0,0x4
   10ffc:	97450513          	addi	a0,a0,-1676 # 1496c <end_signature+0x91c>
   11000:	000020ef          	jal	ra,13000 <FN_WriteStr>
   11004:	00004517          	auipc	a0,0x4
   11008:	96c50513          	addi	a0,a0,-1684 # 14970 <end_signature+0x920>
   1100c:	7f5010ef          	jal	ra,13000 <FN_WriteStr>
   11010:	00004517          	auipc	a0,0x4
   11014:	96350513          	addi	a0,a0,-1693 # 14973 <end_signature+0x923>
   11018:	7e9010ef          	jal	ra,13000 <FN_WriteStr>
   1101c:	00004517          	auipc	a0,0x4
   11020:	95b50513          	addi	a0,a0,-1701 # 14977 <end_signature+0x927>
   11024:	7dd010ef          	jal	ra,13000 <FN_WriteStr>
   11028:	000c8513          	mv	a0,s9
   1102c:	7f1010ef          	jal	ra,1301c <FN_WriteA0>
   11030:	00004517          	auipc	a0,0x4
   11034:	94950513          	addi	a0,a0,-1719 # 14979 <end_signature+0x929>
   11038:	7c9010ef          	jal	ra,13000 <FN_WriteStr>
   1103c:	00004517          	auipc	a0,0x4
   11040:	94350513          	addi	a0,a0,-1725 # 1497f <end_signature+0x92f>
   11044:	7bd010ef          	jal	ra,13000 <FN_WriteStr>
   11048:	00004517          	auipc	a0,0x4
   1104c:	94250513          	addi	a0,a0,-1726 # 1498a <end_signature+0x93a>
   11050:	7b1010ef          	jal	ra,13000 <FN_WriteStr>
   11054:	06400193          	li	gp,100
   11058:	0000100f          	fence.i
   1105c:	00018063          	beqz	gp,1105c <reset_vector+0x1010>
   11060:	00119193          	slli	gp,gp,0x1
   11064:	0011e193          	ori	gp,gp,1
   11068:	00000073          	ecall
   1106c:	00004517          	auipc	a0,0x4
   11070:	92050513          	addi	a0,a0,-1760 # 1498c <end_signature+0x93c>
   11074:	78d010ef          	jal	ra,13000 <FN_WriteStr>
   11078:	00004517          	auipc	a0,0x4
   1107c:	92f50513          	addi	a0,a0,-1745 # 149a7 <end_signature+0x957>
   11080:	781010ef          	jal	ra,13000 <FN_WriteStr>
   11084:	00003d17          	auipc	s10,0x3
   11088:	fb8d0d13          	addi	s10,s10,-72 # 1403c <test_E1_res>
   1108c:	000d2023          	sw	zero,0(s10)
   11090:	76543cb7          	lui	s9,0x76543
   11094:	210c8c93          	addi	s9,s9,528 # 76543210 <_end+0x7652e4fb>
   11098:	019d1023          	sh	s9,0(s10)
   1109c:	00000c93          	li	s9,0
   110a0:	00000293          	li	t0,0
   110a4:	085c8e63          	beq	s9,t0,11140 <reset_vector+0x10f4>
   110a8:	00004517          	auipc	a0,0x4
   110ac:	93150513          	addi	a0,a0,-1743 # 149d9 <end_signature+0x989>
   110b0:	751010ef          	jal	ra,13000 <FN_WriteStr>
   110b4:	00004517          	auipc	a0,0x4
   110b8:	94050513          	addi	a0,a0,-1728 # 149f4 <end_signature+0x9a4>
   110bc:	745010ef          	jal	ra,13000 <FN_WriteStr>
   110c0:	00004517          	auipc	a0,0x4
   110c4:	94250513          	addi	a0,a0,-1726 # 14a02 <end_signature+0x9b2>
   110c8:	739010ef          	jal	ra,13000 <FN_WriteStr>
   110cc:	00004517          	auipc	a0,0x4
   110d0:	93e50513          	addi	a0,a0,-1730 # 14a0a <end_signature+0x9ba>
   110d4:	72d010ef          	jal	ra,13000 <FN_WriteStr>
   110d8:	00004517          	auipc	a0,0x4
   110dc:	93650513          	addi	a0,a0,-1738 # 14a0e <end_signature+0x9be>
   110e0:	721010ef          	jal	ra,13000 <FN_WriteStr>
   110e4:	00004517          	auipc	a0,0x4
   110e8:	92d50513          	addi	a0,a0,-1747 # 14a11 <end_signature+0x9c1>
   110ec:	715010ef          	jal	ra,13000 <FN_WriteStr>
   110f0:	00004517          	auipc	a0,0x4
   110f4:	92550513          	addi	a0,a0,-1755 # 14a15 <end_signature+0x9c5>
   110f8:	709010ef          	jal	ra,13000 <FN_WriteStr>
   110fc:	000c8513          	mv	a0,s9
   11100:	71d010ef          	jal	ra,1301c <FN_WriteA0>
   11104:	00004517          	auipc	a0,0x4
   11108:	91350513          	addi	a0,a0,-1773 # 14a17 <end_signature+0x9c7>
   1110c:	6f5010ef          	jal	ra,13000 <FN_WriteStr>
   11110:	00004517          	auipc	a0,0x4
   11114:	90d50513          	addi	a0,a0,-1779 # 14a1d <end_signature+0x9cd>
   11118:	6e9010ef          	jal	ra,13000 <FN_WriteStr>
   1111c:	00004517          	auipc	a0,0x4
   11120:	90c50513          	addi	a0,a0,-1780 # 14a28 <end_signature+0x9d8>
   11124:	6dd010ef          	jal	ra,13000 <FN_WriteStr>
   11128:	06400193          	li	gp,100
   1112c:	0000100f          	fence.i
   11130:	00018063          	beqz	gp,11130 <reset_vector+0x10e4>
   11134:	00119193          	slli	gp,gp,0x1
   11138:	0011e193          	ori	gp,gp,1
   1113c:	00000073          	ecall
   11140:	00004517          	auipc	a0,0x4
   11144:	8ea50513          	addi	a0,a0,-1814 # 14a2a <end_signature+0x9da>
   11148:	6b9010ef          	jal	ra,13000 <FN_WriteStr>
   1114c:	00004517          	auipc	a0,0x4
   11150:	8fa50513          	addi	a0,a0,-1798 # 14a46 <end_signature+0x9f6>
   11154:	6ad010ef          	jal	ra,13000 <FN_WriteStr>
   11158:	00003e17          	auipc	t3,0x3
   1115c:	ee8e0e13          	addi	t3,t3,-280 # 14040 <test_E2_res>
   11160:	000e2023          	sw	zero,0(t3)
   11164:	89abddb7          	lui	s11,0x89abd
   11168:	defd8d93          	addi	s11,s11,-529 # 89abcdef <_end+0x89aa80da>
   1116c:	01be1023          	sh	s11,0(t3)
   11170:	ffce0e13          	addi	t3,t3,-4
   11174:	89abd2b7          	lui	t0,0x89abd
   11178:	def28293          	addi	t0,t0,-529 # 89abcdef <_end+0x89aa80da>
   1117c:	085d8e63          	beq	s11,t0,11218 <reset_vector+0x11cc>
   11180:	00004517          	auipc	a0,0x4
   11184:	8fb50513          	addi	a0,a0,-1797 # 14a7b <end_signature+0xa2b>
   11188:	679010ef          	jal	ra,13000 <FN_WriteStr>
   1118c:	00004517          	auipc	a0,0x4
   11190:	90a50513          	addi	a0,a0,-1782 # 14a96 <end_signature+0xa46>
   11194:	66d010ef          	jal	ra,13000 <FN_WriteStr>
   11198:	00004517          	auipc	a0,0x4
   1119c:	90c50513          	addi	a0,a0,-1780 # 14aa4 <end_signature+0xa54>
   111a0:	661010ef          	jal	ra,13000 <FN_WriteStr>
   111a4:	00004517          	auipc	a0,0x4
   111a8:	90850513          	addi	a0,a0,-1784 # 14aac <end_signature+0xa5c>
   111ac:	655010ef          	jal	ra,13000 <FN_WriteStr>
   111b0:	00004517          	auipc	a0,0x4
   111b4:	90050513          	addi	a0,a0,-1792 # 14ab0 <end_signature+0xa60>
   111b8:	649010ef          	jal	ra,13000 <FN_WriteStr>
   111bc:	00004517          	auipc	a0,0x4
   111c0:	8f750513          	addi	a0,a0,-1801 # 14ab3 <end_signature+0xa63>
   111c4:	63d010ef          	jal	ra,13000 <FN_WriteStr>
   111c8:	00004517          	auipc	a0,0x4
   111cc:	8ef50513          	addi	a0,a0,-1809 # 14ab7 <end_signature+0xa67>
   111d0:	631010ef          	jal	ra,13000 <FN_WriteStr>
   111d4:	000d8513          	mv	a0,s11
   111d8:	645010ef          	jal	ra,1301c <FN_WriteA0>
   111dc:	00004517          	auipc	a0,0x4
   111e0:	8dd50513          	addi	a0,a0,-1827 # 14ab9 <end_signature+0xa69>
   111e4:	61d010ef          	jal	ra,13000 <FN_WriteStr>
   111e8:	00004517          	auipc	a0,0x4
   111ec:	8d750513          	addi	a0,a0,-1833 # 14abf <end_signature+0xa6f>
   111f0:	611010ef          	jal	ra,13000 <FN_WriteStr>
   111f4:	00004517          	auipc	a0,0x4
   111f8:	8d650513          	addi	a0,a0,-1834 # 14aca <end_signature+0xa7a>
   111fc:	605010ef          	jal	ra,13000 <FN_WriteStr>
   11200:	06400193          	li	gp,100
   11204:	0000100f          	fence.i
   11208:	00018063          	beqz	gp,11208 <reset_vector+0x11bc>
   1120c:	00119193          	slli	gp,gp,0x1
   11210:	0011e193          	ori	gp,gp,1
   11214:	00000073          	ecall
   11218:	800042b7          	lui	t0,0x80004
   1121c:	03c28293          	addi	t0,t0,60 # 8000403c <_end+0x7ffef327>
   11220:	085e0e63          	beq	t3,t0,112bc <reset_vector+0x1270>
   11224:	00004517          	auipc	a0,0x4
   11228:	8a850513          	addi	a0,a0,-1880 # 14acc <end_signature+0xa7c>
   1122c:	5d5010ef          	jal	ra,13000 <FN_WriteStr>
   11230:	00004517          	auipc	a0,0x4
   11234:	8b750513          	addi	a0,a0,-1865 # 14ae7 <end_signature+0xa97>
   11238:	5c9010ef          	jal	ra,13000 <FN_WriteStr>
   1123c:	00004517          	auipc	a0,0x4
   11240:	8b950513          	addi	a0,a0,-1863 # 14af5 <end_signature+0xaa5>
   11244:	5bd010ef          	jal	ra,13000 <FN_WriteStr>
   11248:	00004517          	auipc	a0,0x4
   1124c:	8b550513          	addi	a0,a0,-1867 # 14afd <end_signature+0xaad>
   11250:	5b1010ef          	jal	ra,13000 <FN_WriteStr>
   11254:	00004517          	auipc	a0,0x4
   11258:	8ad50513          	addi	a0,a0,-1875 # 14b01 <end_signature+0xab1>
   1125c:	5a5010ef          	jal	ra,13000 <FN_WriteStr>
   11260:	00004517          	auipc	a0,0x4
   11264:	8a450513          	addi	a0,a0,-1884 # 14b04 <end_signature+0xab4>
   11268:	599010ef          	jal	ra,13000 <FN_WriteStr>
   1126c:	00004517          	auipc	a0,0x4
   11270:	89c50513          	addi	a0,a0,-1892 # 14b08 <end_signature+0xab8>
   11274:	58d010ef          	jal	ra,13000 <FN_WriteStr>
   11278:	000e0513          	mv	a0,t3
   1127c:	5a1010ef          	jal	ra,1301c <FN_WriteA0>
   11280:	00004517          	auipc	a0,0x4
   11284:	88a50513          	addi	a0,a0,-1910 # 14b0a <end_signature+0xaba>
   11288:	579010ef          	jal	ra,13000 <FN_WriteStr>
   1128c:	00004517          	auipc	a0,0x4
   11290:	88450513          	addi	a0,a0,-1916 # 14b10 <end_signature+0xac0>
   11294:	56d010ef          	jal	ra,13000 <FN_WriteStr>
   11298:	00004517          	auipc	a0,0x4
   1129c:	88350513          	addi	a0,a0,-1917 # 14b1b <end_signature+0xacb>
   112a0:	561010ef          	jal	ra,13000 <FN_WriteStr>
   112a4:	06400193          	li	gp,100
   112a8:	0000100f          	fence.i
   112ac:	00018063          	beqz	gp,112ac <reset_vector+0x1260>
   112b0:	00119193          	slli	gp,gp,0x1
   112b4:	0011e193          	ori	gp,gp,1
   112b8:	00000073          	ecall
   112bc:	00004517          	auipc	a0,0x4
   112c0:	86150513          	addi	a0,a0,-1951 # 14b1d <end_signature+0xacd>
   112c4:	53d010ef          	jal	ra,13000 <FN_WriteStr>
   112c8:	00004517          	auipc	a0,0x4
   112cc:	87150513          	addi	a0,a0,-1935 # 14b39 <end_signature+0xae9>
   112d0:	531010ef          	jal	ra,13000 <FN_WriteStr>
   112d4:	00003e97          	auipc	t4,0x3
   112d8:	d70e8e93          	addi	t4,t4,-656 # 14044 <test_F_res>
   112dc:	000ea023          	sw	zero,0(t4)
   112e0:	000ea223          	sw	zero,4(t4)
   112e4:	14726db7          	lui	s11,0x14726
   112e8:	836d8d93          	addi	s11,s11,-1994 # 14725836 <_end+0x14710b21>
   112ec:	01be9023          	sh	s11,0(t4)
   112f0:	000eaf03          	lw	t5,0(t4)
   112f4:	01ee9223          	sh	t5,4(t4)
   112f8:	147262b7          	lui	t0,0x14726
   112fc:	83628293          	addi	t0,t0,-1994 # 14725836 <_end+0x14710b21>
   11300:	085d8e63          	beq	s11,t0,1139c <reset_vector+0x1350>
   11304:	00004517          	auipc	a0,0x4
   11308:	86050513          	addi	a0,a0,-1952 # 14b64 <end_signature+0xb14>
   1130c:	4f5010ef          	jal	ra,13000 <FN_WriteStr>
   11310:	00004517          	auipc	a0,0x4
   11314:	86f50513          	addi	a0,a0,-1937 # 14b7f <end_signature+0xb2f>
   11318:	4e9010ef          	jal	ra,13000 <FN_WriteStr>
   1131c:	00004517          	auipc	a0,0x4
   11320:	87150513          	addi	a0,a0,-1935 # 14b8d <end_signature+0xb3d>
   11324:	4dd010ef          	jal	ra,13000 <FN_WriteStr>
   11328:	00004517          	auipc	a0,0x4
   1132c:	86d50513          	addi	a0,a0,-1939 # 14b95 <end_signature+0xb45>
   11330:	4d1010ef          	jal	ra,13000 <FN_WriteStr>
   11334:	00004517          	auipc	a0,0x4
   11338:	86550513          	addi	a0,a0,-1947 # 14b99 <end_signature+0xb49>
   1133c:	4c5010ef          	jal	ra,13000 <FN_WriteStr>
   11340:	00004517          	auipc	a0,0x4
   11344:	85c50513          	addi	a0,a0,-1956 # 14b9c <end_signature+0xb4c>
   11348:	4b9010ef          	jal	ra,13000 <FN_WriteStr>
   1134c:	00004517          	auipc	a0,0x4
   11350:	85450513          	addi	a0,a0,-1964 # 14ba0 <end_signature+0xb50>
   11354:	4ad010ef          	jal	ra,13000 <FN_WriteStr>
   11358:	000d8513          	mv	a0,s11
   1135c:	4c1010ef          	jal	ra,1301c <FN_WriteA0>
   11360:	00004517          	auipc	a0,0x4
   11364:	84250513          	addi	a0,a0,-1982 # 14ba2 <end_signature+0xb52>
   11368:	499010ef          	jal	ra,13000 <FN_WriteStr>
   1136c:	00004517          	auipc	a0,0x4
   11370:	83c50513          	addi	a0,a0,-1988 # 14ba8 <end_signature+0xb58>
   11374:	48d010ef          	jal	ra,13000 <FN_WriteStr>
   11378:	00004517          	auipc	a0,0x4
   1137c:	83b50513          	addi	a0,a0,-1989 # 14bb3 <end_signature+0xb63>
   11380:	481010ef          	jal	ra,13000 <FN_WriteStr>
   11384:	06400193          	li	gp,100
   11388:	0000100f          	fence.i
   1138c:	00018063          	beqz	gp,1138c <reset_vector+0x1340>
   11390:	00119193          	slli	gp,gp,0x1
   11394:	0011e193          	ori	gp,gp,1
   11398:	00000073          	ecall
   1139c:	000062b7          	lui	t0,0x6
   113a0:	83628293          	addi	t0,t0,-1994 # 5836 <_start-0xa7ca>
   113a4:	085f0e63          	beq	t5,t0,11440 <reset_vector+0x13f4>
   113a8:	00004517          	auipc	a0,0x4
   113ac:	80d50513          	addi	a0,a0,-2035 # 14bb5 <end_signature+0xb65>
   113b0:	451010ef          	jal	ra,13000 <FN_WriteStr>
   113b4:	00004517          	auipc	a0,0x4
   113b8:	81c50513          	addi	a0,a0,-2020 # 14bd0 <end_signature+0xb80>
   113bc:	445010ef          	jal	ra,13000 <FN_WriteStr>
   113c0:	00004517          	auipc	a0,0x4
   113c4:	81e50513          	addi	a0,a0,-2018 # 14bde <end_signature+0xb8e>
   113c8:	439010ef          	jal	ra,13000 <FN_WriteStr>
   113cc:	00004517          	auipc	a0,0x4
   113d0:	81a50513          	addi	a0,a0,-2022 # 14be6 <end_signature+0xb96>
   113d4:	42d010ef          	jal	ra,13000 <FN_WriteStr>
   113d8:	00004517          	auipc	a0,0x4
   113dc:	81250513          	addi	a0,a0,-2030 # 14bea <end_signature+0xb9a>
   113e0:	421010ef          	jal	ra,13000 <FN_WriteStr>
   113e4:	00004517          	auipc	a0,0x4
   113e8:	80950513          	addi	a0,a0,-2039 # 14bed <end_signature+0xb9d>
   113ec:	415010ef          	jal	ra,13000 <FN_WriteStr>
   113f0:	00004517          	auipc	a0,0x4
   113f4:	80150513          	addi	a0,a0,-2047 # 14bf1 <end_signature+0xba1>
   113f8:	409010ef          	jal	ra,13000 <FN_WriteStr>
   113fc:	000f0513          	mv	a0,t5
   11400:	41d010ef          	jal	ra,1301c <FN_WriteA0>
   11404:	00003517          	auipc	a0,0x3
   11408:	7ef50513          	addi	a0,a0,2031 # 14bf3 <end_signature+0xba3>
   1140c:	3f5010ef          	jal	ra,13000 <FN_WriteStr>
   11410:	00003517          	auipc	a0,0x3
   11414:	7e950513          	addi	a0,a0,2025 # 14bf9 <end_signature+0xba9>
   11418:	3e9010ef          	jal	ra,13000 <FN_WriteStr>
   1141c:	00003517          	auipc	a0,0x3
   11420:	7e850513          	addi	a0,a0,2024 # 14c04 <end_signature+0xbb4>
   11424:	3dd010ef          	jal	ra,13000 <FN_WriteStr>
   11428:	06400193          	li	gp,100
   1142c:	0000100f          	fence.i
   11430:	00018063          	beqz	gp,11430 <reset_vector+0x13e4>
   11434:	00119193          	slli	gp,gp,0x1
   11438:	0011e193          	ori	gp,gp,1
   1143c:	00000073          	ecall
   11440:	00003517          	auipc	a0,0x3
   11444:	7c650513          	addi	a0,a0,1990 # 14c06 <end_signature+0xbb6>
   11448:	3b9010ef          	jal	ra,13000 <FN_WriteStr>
   1144c:	00003517          	auipc	a0,0x3
   11450:	7d650513          	addi	a0,a0,2006 # 14c22 <end_signature+0xbd2>
   11454:	3ad010ef          	jal	ra,13000 <FN_WriteStr>
   11458:	00003097          	auipc	ra,0x3
   1145c:	bf408093          	addi	ra,ra,-1036 # 1404c <test_G_res>
   11460:	0000a023          	sw	zero,0(ra)
   11464:	96385137          	lui	sp,0x96385
   11468:	20110113          	addi	sp,sp,513 # 96385201 <_end+0x963704ec>
   1146c:	258151b7          	lui	gp,0x25815
   11470:	96318193          	addi	gp,gp,-1693 # 25814963 <_end+0x257ffc4e>
   11474:	00209023          	sh	sp,0(ra)
   11478:	00309023          	sh	gp,0(ra)
   1147c:	963852b7          	lui	t0,0x96385
   11480:	20128293          	addi	t0,t0,513 # 96385201 <_end+0x963704ec>
   11484:	08510e63          	beq	sp,t0,11520 <reset_vector+0x14d4>
   11488:	00003517          	auipc	a0,0x3
   1148c:	7c550513          	addi	a0,a0,1989 # 14c4d <end_signature+0xbfd>
   11490:	371010ef          	jal	ra,13000 <FN_WriteStr>
   11494:	00003517          	auipc	a0,0x3
   11498:	7d450513          	addi	a0,a0,2004 # 14c68 <end_signature+0xc18>
   1149c:	365010ef          	jal	ra,13000 <FN_WriteStr>
   114a0:	00003517          	auipc	a0,0x3
   114a4:	7d650513          	addi	a0,a0,2006 # 14c76 <end_signature+0xc26>
   114a8:	359010ef          	jal	ra,13000 <FN_WriteStr>
   114ac:	00003517          	auipc	a0,0x3
   114b0:	7d250513          	addi	a0,a0,2002 # 14c7e <end_signature+0xc2e>
   114b4:	34d010ef          	jal	ra,13000 <FN_WriteStr>
   114b8:	00003517          	auipc	a0,0x3
   114bc:	7ca50513          	addi	a0,a0,1994 # 14c82 <end_signature+0xc32>
   114c0:	341010ef          	jal	ra,13000 <FN_WriteStr>
   114c4:	00003517          	auipc	a0,0x3
   114c8:	7c150513          	addi	a0,a0,1985 # 14c85 <end_signature+0xc35>
   114cc:	335010ef          	jal	ra,13000 <FN_WriteStr>
   114d0:	00003517          	auipc	a0,0x3
   114d4:	7b850513          	addi	a0,a0,1976 # 14c88 <end_signature+0xc38>
   114d8:	329010ef          	jal	ra,13000 <FN_WriteStr>
   114dc:	00010513          	mv	a0,sp
   114e0:	33d010ef          	jal	ra,1301c <FN_WriteA0>
   114e4:	00003517          	auipc	a0,0x3
   114e8:	7a650513          	addi	a0,a0,1958 # 14c8a <end_signature+0xc3a>
   114ec:	315010ef          	jal	ra,13000 <FN_WriteStr>
   114f0:	00003517          	auipc	a0,0x3
   114f4:	7a050513          	addi	a0,a0,1952 # 14c90 <end_signature+0xc40>
   114f8:	309010ef          	jal	ra,13000 <FN_WriteStr>
   114fc:	00003517          	auipc	a0,0x3
   11500:	79f50513          	addi	a0,a0,1951 # 14c9b <end_signature+0xc4b>
   11504:	2fd010ef          	jal	ra,13000 <FN_WriteStr>
   11508:	06400193          	li	gp,100
   1150c:	0000100f          	fence.i
   11510:	00018063          	beqz	gp,11510 <reset_vector+0x14c4>
   11514:	00119193          	slli	gp,gp,0x1
   11518:	0011e193          	ori	gp,gp,1
   1151c:	00000073          	ecall
   11520:	258152b7          	lui	t0,0x25815
   11524:	96328293          	addi	t0,t0,-1693 # 25814963 <_end+0x257ffc4e>
   11528:	08518e63          	beq	gp,t0,115c4 <reset_vector+0x1578>
   1152c:	00003517          	auipc	a0,0x3
   11530:	77150513          	addi	a0,a0,1905 # 14c9d <end_signature+0xc4d>
   11534:	2cd010ef          	jal	ra,13000 <FN_WriteStr>
   11538:	00003517          	auipc	a0,0x3
   1153c:	78050513          	addi	a0,a0,1920 # 14cb8 <end_signature+0xc68>
   11540:	2c1010ef          	jal	ra,13000 <FN_WriteStr>
   11544:	00003517          	auipc	a0,0x3
   11548:	78250513          	addi	a0,a0,1922 # 14cc6 <end_signature+0xc76>
   1154c:	2b5010ef          	jal	ra,13000 <FN_WriteStr>
   11550:	00003517          	auipc	a0,0x3
   11554:	77e50513          	addi	a0,a0,1918 # 14cce <end_signature+0xc7e>
   11558:	2a9010ef          	jal	ra,13000 <FN_WriteStr>
   1155c:	00003517          	auipc	a0,0x3
   11560:	77650513          	addi	a0,a0,1910 # 14cd2 <end_signature+0xc82>
   11564:	29d010ef          	jal	ra,13000 <FN_WriteStr>
   11568:	00003517          	auipc	a0,0x3
   1156c:	76d50513          	addi	a0,a0,1901 # 14cd5 <end_signature+0xc85>
   11570:	291010ef          	jal	ra,13000 <FN_WriteStr>
   11574:	00003517          	auipc	a0,0x3
   11578:	76450513          	addi	a0,a0,1892 # 14cd8 <end_signature+0xc88>
   1157c:	285010ef          	jal	ra,13000 <FN_WriteStr>
   11580:	00018513          	mv	a0,gp
   11584:	299010ef          	jal	ra,1301c <FN_WriteA0>
   11588:	00003517          	auipc	a0,0x3
   1158c:	75250513          	addi	a0,a0,1874 # 14cda <end_signature+0xc8a>
   11590:	271010ef          	jal	ra,13000 <FN_WriteStr>
   11594:	00003517          	auipc	a0,0x3
   11598:	74c50513          	addi	a0,a0,1868 # 14ce0 <end_signature+0xc90>
   1159c:	265010ef          	jal	ra,13000 <FN_WriteStr>
   115a0:	00003517          	auipc	a0,0x3
   115a4:	74b50513          	addi	a0,a0,1867 # 14ceb <end_signature+0xc9b>
   115a8:	259010ef          	jal	ra,13000 <FN_WriteStr>
   115ac:	06400193          	li	gp,100
   115b0:	0000100f          	fence.i
   115b4:	00018063          	beqz	gp,115b4 <reset_vector+0x1568>
   115b8:	00119193          	slli	gp,gp,0x1
   115bc:	0011e193          	ori	gp,gp,1
   115c0:	00000073          	ecall
   115c4:	00003517          	auipc	a0,0x3
   115c8:	72950513          	addi	a0,a0,1833 # 14ced <end_signature+0xc9d>
   115cc:	235010ef          	jal	ra,13000 <FN_WriteStr>
   115d0:	00003517          	auipc	a0,0x3
   115d4:	73950513          	addi	a0,a0,1849 # 14d09 <end_signature+0xcb9>
   115d8:	229010ef          	jal	ra,13000 <FN_WriteStr>
   115dc:	0000100f          	fence.i
   115e0:	00100193          	li	gp,1
   115e4:	00000073          	ecall
   115e8:	c0001073          	unimp
	...

Disassembly of section .tohost:

00012000 <tohost>:
	...

00012100 <fromhost>:
	...

Disassembly of section .text:

00013000 <FN_WriteStr>:
   13000:	00050293          	mv	t0,a0
   13004:	0002c503          	lbu	a0,0(t0)
   13008:	00128293          	addi	t0,t0,1
   1300c:	00050663          	beqz	a0,13018 <FN_WriteStr+0x18>
   13010:	0005200b          	0x5200b
   13014:	ff1ff06f          	j	13004 <FN_WriteStr+0x4>
   13018:	00008067          	ret

0001301c <FN_WriteA0>:
   1301c:	00050293          	mv	t0,a0
   13020:	fff00513          	li	a0,-1
   13024:	01f55513          	srli	a0,a0,0x1f
   13028:	00155513          	srli	a0,a0,0x1
   1302c:	02051463          	bnez	a0,13054 <FN_WriteA0_64>

00013030 <FN_WriteA0_32>:
   13030:	00800313          	li	t1,8
   13034:	00439393          	slli	t2,t2,0x4
   13038:	00f2f513          	andi	a0,t0,15
   1303c:	0042d293          	srli	t0,t0,0x4
   13040:	00a3e3b3          	or	t2,t2,a0
   13044:	fff30313          	addi	t1,t1,-1
   13048:	fe0316e3          	bnez	t1,13034 <FN_WriteA0_32+0x4>
   1304c:	00800313          	li	t1,8
   13050:	0240006f          	j	13074 <FN_WriteA0_common>

00013054 <FN_WriteA0_64>:
   13054:	01000313          	li	t1,16
   13058:	00439393          	slli	t2,t2,0x4
   1305c:	00f2f513          	andi	a0,t0,15
   13060:	0042d293          	srli	t0,t0,0x4
   13064:	00a3e3b3          	or	t2,t2,a0
   13068:	fff30313          	addi	t1,t1,-1
   1306c:	fe0316e3          	bnez	t1,13058 <FN_WriteA0_64+0x4>
   13070:	01000313          	li	t1,16

00013074 <FN_WriteA0_common>:
   13074:	00a00293          	li	t0,10
   13078:	00f3f513          	andi	a0,t2,15
   1307c:	00554663          	blt	a0,t0,13088 <FN_WriteA0_common+0x14>
   13080:	05750513          	addi	a0,a0,87
   13084:	0080006f          	j	1308c <FN_WriteA0_common+0x18>
   13088:	03050513          	addi	a0,a0,48
   1308c:	0005200b          	0x5200b
   13090:	0043d393          	srli	t2,t2,0x4
   13094:	fff30313          	addi	t1,t1,-1
   13098:	fe0310e3          	bnez	t1,13078 <FN_WriteA0_common+0x4>
   1309c:	00008067          	ret
