
/home/benselfridge/riscv-compliance/work//I-SLT-01.elf:     file format elf32-littleriscv


Disassembly of section .text.init:

00010000 <_start>:
   10000:	04c0006f          	j	1004c <reset_vector>

00010004 <trap_vector>:
   10004:	34202f73          	csrr	t5,mcause
   10008:	00800f93          	li	t6,8
   1000c:	03ff0a63          	beq	t5,t6,10040 <write_tohost>
   10010:	00900f93          	li	t6,9
   10014:	03ff0663          	beq	t5,t6,10040 <write_tohost>
   10018:	00b00f93          	li	t6,11
   1001c:	03ff0263          	beq	t5,t6,10040 <write_tohost>
   10020:	ffff0f17          	auipc	t5,0xffff0
   10024:	fe0f0f13          	addi	t5,t5,-32 # 0 <_start-0x10000>
   10028:	000f0463          	beqz	t5,10030 <trap_vector+0x2c>
   1002c:	000f0067          	jr	t5
   10030:	34202f73          	csrr	t5,mcause
   10034:	000f5463          	bgez	t5,1003c <handle_exception>
   10038:	0040006f          	j	1003c <handle_exception>

0001003c <handle_exception>:
   1003c:	5391e193          	ori	gp,gp,1337

00010040 <write_tohost>:
   10040:	00003f17          	auipc	t5,0x3
   10044:	fc3f2023          	sw	gp,-64(t5) # 13000 <tohost>
   10048:	ff9ff06f          	j	10040 <write_tohost>

0001004c <reset_vector>:
   1004c:	f1402573          	csrr	a0,mhartid
   10050:	00051063          	bnez	a0,10050 <reset_vector+0x4>
   10054:	00000297          	auipc	t0,0x0
   10058:	01028293          	addi	t0,t0,16 # 10064 <reset_vector+0x18>
   1005c:	30529073          	csrw	mtvec,t0
   10060:	18005073          	csrwi	satp,0
   10064:	00000297          	auipc	t0,0x0
   10068:	01c28293          	addi	t0,t0,28 # 10080 <reset_vector+0x34>
   1006c:	30529073          	csrw	mtvec,t0
   10070:	fff00293          	li	t0,-1
   10074:	3b029073          	csrw	pmpaddr0,t0
   10078:	01f00293          	li	t0,31
   1007c:	3a029073          	csrw	pmpcfg0,t0
   10080:	00000297          	auipc	t0,0x0
   10084:	01828293          	addi	t0,t0,24 # 10098 <reset_vector+0x4c>
   10088:	30529073          	csrw	mtvec,t0
   1008c:	30205073          	csrwi	medeleg,0
   10090:	30305073          	csrwi	mideleg,0
   10094:	30405073          	csrwi	mie,0
   10098:	00000193          	li	gp,0
   1009c:	00000297          	auipc	t0,0x0
   100a0:	f6828293          	addi	t0,t0,-152 # 10004 <trap_vector>
   100a4:	30529073          	csrw	mtvec,t0
   100a8:	00100513          	li	a0,1
   100ac:	01f51513          	slli	a0,a0,0x1f
   100b0:	00054863          	bltz	a0,100c0 <reset_vector+0x74>
   100b4:	0000100f          	fence.i
   100b8:	00100193          	li	gp,1
   100bc:	00000073          	ecall
   100c0:	ffff0297          	auipc	t0,0xffff0
   100c4:	f4028293          	addi	t0,t0,-192 # 0 <_start-0x10000>
   100c8:	00028e63          	beqz	t0,100e4 <reset_vector+0x98>
   100cc:	10529073          	csrw	stvec,t0
   100d0:	0000b2b7          	lui	t0,0xb
   100d4:	10928293          	addi	t0,t0,265 # b109 <_start-0x4ef7>
   100d8:	30229073          	csrw	medeleg,t0
   100dc:	30202373          	csrr	t1,medeleg
   100e0:	f4629ee3          	bne	t0,t1,1003c <handle_exception>
   100e4:	30005073          	csrwi	mstatus,0
   100e8:	00002537          	lui	a0,0x2
   100ec:	80050513          	addi	a0,a0,-2048 # 1800 <_start-0xe800>
   100f0:	30052073          	csrs	mstatus,a0
   100f4:	00000297          	auipc	t0,0x0
   100f8:	01428293          	addi	t0,t0,20 # 10108 <reset_vector+0xbc>
   100fc:	34129073          	csrw	mepc,t0
   10100:	f1402573          	csrr	a0,mhartid
   10104:	30200073          	mret
   10108:	00000293          	li	t0,0
   1010c:	08500e63          	beq	zero,t0,101a8 <reset_vector+0x15c>
   10110:	00005517          	auipc	a0,0x5
   10114:	fd050513          	addi	a0,a0,-48 # 150e0 <end_signature>
   10118:	6e9030ef          	jal	ra,14000 <FN_WriteStr>
   1011c:	00005517          	auipc	a0,0x5
   10120:	fdf50513          	addi	a0,a0,-33 # 150fb <end_signature+0x1b>
   10124:	6dd030ef          	jal	ra,14000 <FN_WriteStr>
   10128:	00005517          	auipc	a0,0x5
   1012c:	fe250513          	addi	a0,a0,-30 # 1510a <end_signature+0x2a>
   10130:	6d1030ef          	jal	ra,14000 <FN_WriteStr>
   10134:	00005517          	auipc	a0,0x5
   10138:	fde50513          	addi	a0,a0,-34 # 15112 <end_signature+0x32>
   1013c:	6c5030ef          	jal	ra,14000 <FN_WriteStr>
   10140:	00005517          	auipc	a0,0x5
   10144:	fd550513          	addi	a0,a0,-43 # 15115 <end_signature+0x35>
   10148:	6b9030ef          	jal	ra,14000 <FN_WriteStr>
   1014c:	00005517          	auipc	a0,0x5
   10150:	fcc50513          	addi	a0,a0,-52 # 15118 <end_signature+0x38>
   10154:	6ad030ef          	jal	ra,14000 <FN_WriteStr>
   10158:	00005517          	auipc	a0,0x5
   1015c:	fc350513          	addi	a0,a0,-61 # 1511b <end_signature+0x3b>
   10160:	6a1030ef          	jal	ra,14000 <FN_WriteStr>
   10164:	00000513          	li	a0,0
   10168:	6b5030ef          	jal	ra,1401c <FN_WriteA0>
   1016c:	00005517          	auipc	a0,0x5
   10170:	fb150513          	addi	a0,a0,-79 # 1511d <end_signature+0x3d>
   10174:	68d030ef          	jal	ra,14000 <FN_WriteStr>
   10178:	00005517          	auipc	a0,0x5
   1017c:	fab50513          	addi	a0,a0,-85 # 15123 <end_signature+0x43>
   10180:	681030ef          	jal	ra,14000 <FN_WriteStr>
   10184:	00005517          	auipc	a0,0x5
   10188:	faa50513          	addi	a0,a0,-86 # 1512e <end_signature+0x4e>
   1018c:	675030ef          	jal	ra,14000 <FN_WriteStr>
   10190:	06400193          	li	gp,100
   10194:	0000100f          	fence.i
   10198:	00018063          	beqz	gp,10198 <reset_vector+0x14c>
   1019c:	00119193          	slli	gp,gp,0x1
   101a0:	0011e193          	ori	gp,gp,1
   101a4:	00000073          	ecall
   101a8:	00005517          	auipc	a0,0x5
   101ac:	f8850513          	addi	a0,a0,-120 # 15130 <end_signature+0x50>
   101b0:	651030ef          	jal	ra,14000 <FN_WriteStr>
   101b4:	00005517          	auipc	a0,0x5
   101b8:	fae50513          	addi	a0,a0,-82 # 15162 <end_signature+0x82>
   101bc:	645030ef          	jal	ra,14000 <FN_WriteStr>
   101c0:	00005097          	auipc	ra,0x5
   101c4:	e4008093          	addi	ra,ra,-448 # 15000 <test_A1_data>
   101c8:	00005117          	auipc	sp,0x5
   101cc:	e5810113          	addi	sp,sp,-424 # 15020 <begin_signature>
   101d0:	0000a183          	lw	gp,0(ra)
   101d4:	00100213          	li	tp,1
   101d8:	800002b7          	lui	t0,0x80000
   101dc:	fff28293          	addi	t0,t0,-1 # 7fffffff <_end+0x7ffe9d2e>
   101e0:	fff00313          	li	t1,-1
   101e4:	00000393          	li	t2,0
   101e8:	80000437          	lui	s0,0x80000
   101ec:	0041a233          	slt	tp,gp,tp
   101f0:	0051a2b3          	slt	t0,gp,t0
   101f4:	0061a333          	slt	t1,gp,t1
   101f8:	0071a3b3          	slt	t2,gp,t2
   101fc:	0081a433          	slt	s0,gp,s0
   10200:	00312023          	sw	gp,0(sp)
   10204:	00412223          	sw	tp,4(sp)
   10208:	00512423          	sw	t0,8(sp)
   1020c:	00612623          	sw	t1,12(sp)
   10210:	00712823          	sw	t2,16(sp)
   10214:	00812a23          	sw	s0,20(sp)
   10218:	fff00013          	li	zero,-1
   1021c:	00000293          	li	t0,0
   10220:	08518e63          	beq	gp,t0,102bc <reset_vector+0x270>
   10224:	00005517          	auipc	a0,0x5
   10228:	f9050513          	addi	a0,a0,-112 # 151b4 <end_signature+0xd4>
   1022c:	5d5030ef          	jal	ra,14000 <FN_WriteStr>
   10230:	00005517          	auipc	a0,0x5
   10234:	f9f50513          	addi	a0,a0,-97 # 151cf <end_signature+0xef>
   10238:	5c9030ef          	jal	ra,14000 <FN_WriteStr>
   1023c:	00005517          	auipc	a0,0x5
   10240:	fa250513          	addi	a0,a0,-94 # 151de <end_signature+0xfe>
   10244:	5bd030ef          	jal	ra,14000 <FN_WriteStr>
   10248:	00005517          	auipc	a0,0x5
   1024c:	f9e50513          	addi	a0,a0,-98 # 151e6 <end_signature+0x106>
   10250:	5b1030ef          	jal	ra,14000 <FN_WriteStr>
   10254:	00005517          	auipc	a0,0x5
   10258:	f9550513          	addi	a0,a0,-107 # 151e9 <end_signature+0x109>
   1025c:	5a5030ef          	jal	ra,14000 <FN_WriteStr>
   10260:	00005517          	auipc	a0,0x5
   10264:	f8c50513          	addi	a0,a0,-116 # 151ec <end_signature+0x10c>
   10268:	599030ef          	jal	ra,14000 <FN_WriteStr>
   1026c:	00005517          	auipc	a0,0x5
   10270:	f8350513          	addi	a0,a0,-125 # 151ef <end_signature+0x10f>
   10274:	58d030ef          	jal	ra,14000 <FN_WriteStr>
   10278:	00018513          	mv	a0,gp
   1027c:	5a1030ef          	jal	ra,1401c <FN_WriteA0>
   10280:	00005517          	auipc	a0,0x5
   10284:	f7150513          	addi	a0,a0,-143 # 151f1 <end_signature+0x111>
   10288:	579030ef          	jal	ra,14000 <FN_WriteStr>
   1028c:	00005517          	auipc	a0,0x5
   10290:	f6b50513          	addi	a0,a0,-149 # 151f7 <end_signature+0x117>
   10294:	56d030ef          	jal	ra,14000 <FN_WriteStr>
   10298:	00005517          	auipc	a0,0x5
   1029c:	f6a50513          	addi	a0,a0,-150 # 15202 <end_signature+0x122>
   102a0:	561030ef          	jal	ra,14000 <FN_WriteStr>
   102a4:	06400193          	li	gp,100
   102a8:	0000100f          	fence.i
   102ac:	00018063          	beqz	gp,102ac <reset_vector+0x260>
   102b0:	00119193          	slli	gp,gp,0x1
   102b4:	0011e193          	ori	gp,gp,1
   102b8:	00000073          	ecall
   102bc:	00100293          	li	t0,1
   102c0:	08520e63          	beq	tp,t0,1035c <reset_vector+0x310>
   102c4:	00005517          	auipc	a0,0x5
   102c8:	f4050513          	addi	a0,a0,-192 # 15204 <end_signature+0x124>
   102cc:	535030ef          	jal	ra,14000 <FN_WriteStr>
   102d0:	00005517          	auipc	a0,0x5
   102d4:	f4f50513          	addi	a0,a0,-177 # 1521f <end_signature+0x13f>
   102d8:	529030ef          	jal	ra,14000 <FN_WriteStr>
   102dc:	00005517          	auipc	a0,0x5
   102e0:	f5250513          	addi	a0,a0,-174 # 1522e <end_signature+0x14e>
   102e4:	51d030ef          	jal	ra,14000 <FN_WriteStr>
   102e8:	00005517          	auipc	a0,0x5
   102ec:	f4e50513          	addi	a0,a0,-178 # 15236 <end_signature+0x156>
   102f0:	511030ef          	jal	ra,14000 <FN_WriteStr>
   102f4:	00005517          	auipc	a0,0x5
   102f8:	f4550513          	addi	a0,a0,-187 # 15239 <end_signature+0x159>
   102fc:	505030ef          	jal	ra,14000 <FN_WriteStr>
   10300:	00005517          	auipc	a0,0x5
   10304:	f3c50513          	addi	a0,a0,-196 # 1523c <end_signature+0x15c>
   10308:	4f9030ef          	jal	ra,14000 <FN_WriteStr>
   1030c:	00005517          	auipc	a0,0x5
   10310:	f3350513          	addi	a0,a0,-205 # 1523f <end_signature+0x15f>
   10314:	4ed030ef          	jal	ra,14000 <FN_WriteStr>
   10318:	00020513          	mv	a0,tp
   1031c:	501030ef          	jal	ra,1401c <FN_WriteA0>
   10320:	00005517          	auipc	a0,0x5
   10324:	f2150513          	addi	a0,a0,-223 # 15241 <end_signature+0x161>
   10328:	4d9030ef          	jal	ra,14000 <FN_WriteStr>
   1032c:	00005517          	auipc	a0,0x5
   10330:	f1b50513          	addi	a0,a0,-229 # 15247 <end_signature+0x167>
   10334:	4cd030ef          	jal	ra,14000 <FN_WriteStr>
   10338:	00005517          	auipc	a0,0x5
   1033c:	f1a50513          	addi	a0,a0,-230 # 15252 <end_signature+0x172>
   10340:	4c1030ef          	jal	ra,14000 <FN_WriteStr>
   10344:	06400193          	li	gp,100
   10348:	0000100f          	fence.i
   1034c:	00018063          	beqz	gp,1034c <reset_vector+0x300>
   10350:	00119193          	slli	gp,gp,0x1
   10354:	0011e193          	ori	gp,gp,1
   10358:	00000073          	ecall
   1035c:	00000293          	li	t0,0
   10360:	08528e63          	beq	t0,t0,103fc <reset_vector+0x3b0>
   10364:	00005517          	auipc	a0,0x5
   10368:	ef050513          	addi	a0,a0,-272 # 15254 <end_signature+0x174>
   1036c:	495030ef          	jal	ra,14000 <FN_WriteStr>
   10370:	00005517          	auipc	a0,0x5
   10374:	eff50513          	addi	a0,a0,-257 # 1526f <end_signature+0x18f>
   10378:	489030ef          	jal	ra,14000 <FN_WriteStr>
   1037c:	00005517          	auipc	a0,0x5
   10380:	f0250513          	addi	a0,a0,-254 # 1527e <end_signature+0x19e>
   10384:	47d030ef          	jal	ra,14000 <FN_WriteStr>
   10388:	00005517          	auipc	a0,0x5
   1038c:	efe50513          	addi	a0,a0,-258 # 15286 <end_signature+0x1a6>
   10390:	471030ef          	jal	ra,14000 <FN_WriteStr>
   10394:	00005517          	auipc	a0,0x5
   10398:	ef550513          	addi	a0,a0,-267 # 15289 <end_signature+0x1a9>
   1039c:	465030ef          	jal	ra,14000 <FN_WriteStr>
   103a0:	00005517          	auipc	a0,0x5
   103a4:	eec50513          	addi	a0,a0,-276 # 1528c <end_signature+0x1ac>
   103a8:	459030ef          	jal	ra,14000 <FN_WriteStr>
   103ac:	00005517          	auipc	a0,0x5
   103b0:	ee350513          	addi	a0,a0,-285 # 1528f <end_signature+0x1af>
   103b4:	44d030ef          	jal	ra,14000 <FN_WriteStr>
   103b8:	00028513          	mv	a0,t0
   103bc:	461030ef          	jal	ra,1401c <FN_WriteA0>
   103c0:	00005517          	auipc	a0,0x5
   103c4:	ed150513          	addi	a0,a0,-303 # 15291 <end_signature+0x1b1>
   103c8:	439030ef          	jal	ra,14000 <FN_WriteStr>
   103cc:	00005517          	auipc	a0,0x5
   103d0:	ecb50513          	addi	a0,a0,-309 # 15297 <end_signature+0x1b7>
   103d4:	42d030ef          	jal	ra,14000 <FN_WriteStr>
   103d8:	00005517          	auipc	a0,0x5
   103dc:	eca50513          	addi	a0,a0,-310 # 152a2 <end_signature+0x1c2>
   103e0:	421030ef          	jal	ra,14000 <FN_WriteStr>
   103e4:	06400193          	li	gp,100
   103e8:	0000100f          	fence.i
   103ec:	00018063          	beqz	gp,103ec <reset_vector+0x3a0>
   103f0:	00119193          	slli	gp,gp,0x1
   103f4:	0011e193          	ori	gp,gp,1
   103f8:	00000073          	ecall
   103fc:	00000293          	li	t0,0
   10400:	08530e63          	beq	t1,t0,1049c <reset_vector+0x450>
   10404:	00005517          	auipc	a0,0x5
   10408:	ea050513          	addi	a0,a0,-352 # 152a4 <end_signature+0x1c4>
   1040c:	3f5030ef          	jal	ra,14000 <FN_WriteStr>
   10410:	00005517          	auipc	a0,0x5
   10414:	eaf50513          	addi	a0,a0,-337 # 152bf <end_signature+0x1df>
   10418:	3e9030ef          	jal	ra,14000 <FN_WriteStr>
   1041c:	00005517          	auipc	a0,0x5
   10420:	eb250513          	addi	a0,a0,-334 # 152ce <end_signature+0x1ee>
   10424:	3dd030ef          	jal	ra,14000 <FN_WriteStr>
   10428:	00005517          	auipc	a0,0x5
   1042c:	eae50513          	addi	a0,a0,-338 # 152d6 <end_signature+0x1f6>
   10430:	3d1030ef          	jal	ra,14000 <FN_WriteStr>
   10434:	00005517          	auipc	a0,0x5
   10438:	ea550513          	addi	a0,a0,-347 # 152d9 <end_signature+0x1f9>
   1043c:	3c5030ef          	jal	ra,14000 <FN_WriteStr>
   10440:	00005517          	auipc	a0,0x5
   10444:	e9c50513          	addi	a0,a0,-356 # 152dc <end_signature+0x1fc>
   10448:	3b9030ef          	jal	ra,14000 <FN_WriteStr>
   1044c:	00005517          	auipc	a0,0x5
   10450:	e9350513          	addi	a0,a0,-365 # 152df <end_signature+0x1ff>
   10454:	3ad030ef          	jal	ra,14000 <FN_WriteStr>
   10458:	00030513          	mv	a0,t1
   1045c:	3c1030ef          	jal	ra,1401c <FN_WriteA0>
   10460:	00005517          	auipc	a0,0x5
   10464:	e8150513          	addi	a0,a0,-383 # 152e1 <end_signature+0x201>
   10468:	399030ef          	jal	ra,14000 <FN_WriteStr>
   1046c:	00005517          	auipc	a0,0x5
   10470:	e7b50513          	addi	a0,a0,-389 # 152e7 <end_signature+0x207>
   10474:	38d030ef          	jal	ra,14000 <FN_WriteStr>
   10478:	00005517          	auipc	a0,0x5
   1047c:	e7a50513          	addi	a0,a0,-390 # 152f2 <end_signature+0x212>
   10480:	381030ef          	jal	ra,14000 <FN_WriteStr>
   10484:	06400193          	li	gp,100
   10488:	0000100f          	fence.i
   1048c:	00018063          	beqz	gp,1048c <reset_vector+0x440>
   10490:	00119193          	slli	gp,gp,0x1
   10494:	0011e193          	ori	gp,gp,1
   10498:	00000073          	ecall
   1049c:	00000293          	li	t0,0
   104a0:	08538e63          	beq	t2,t0,1053c <reset_vector+0x4f0>
   104a4:	00005517          	auipc	a0,0x5
   104a8:	e5050513          	addi	a0,a0,-432 # 152f4 <end_signature+0x214>
   104ac:	355030ef          	jal	ra,14000 <FN_WriteStr>
   104b0:	00005517          	auipc	a0,0x5
   104b4:	e5f50513          	addi	a0,a0,-417 # 1530f <end_signature+0x22f>
   104b8:	349030ef          	jal	ra,14000 <FN_WriteStr>
   104bc:	00005517          	auipc	a0,0x5
   104c0:	e6250513          	addi	a0,a0,-414 # 1531e <end_signature+0x23e>
   104c4:	33d030ef          	jal	ra,14000 <FN_WriteStr>
   104c8:	00005517          	auipc	a0,0x5
   104cc:	e5e50513          	addi	a0,a0,-418 # 15326 <end_signature+0x246>
   104d0:	331030ef          	jal	ra,14000 <FN_WriteStr>
   104d4:	00005517          	auipc	a0,0x5
   104d8:	e5550513          	addi	a0,a0,-427 # 15329 <end_signature+0x249>
   104dc:	325030ef          	jal	ra,14000 <FN_WriteStr>
   104e0:	00005517          	auipc	a0,0x5
   104e4:	e4c50513          	addi	a0,a0,-436 # 1532c <end_signature+0x24c>
   104e8:	319030ef          	jal	ra,14000 <FN_WriteStr>
   104ec:	00005517          	auipc	a0,0x5
   104f0:	e4350513          	addi	a0,a0,-445 # 1532f <end_signature+0x24f>
   104f4:	30d030ef          	jal	ra,14000 <FN_WriteStr>
   104f8:	00038513          	mv	a0,t2
   104fc:	321030ef          	jal	ra,1401c <FN_WriteA0>
   10500:	00005517          	auipc	a0,0x5
   10504:	e3150513          	addi	a0,a0,-463 # 15331 <end_signature+0x251>
   10508:	2f9030ef          	jal	ra,14000 <FN_WriteStr>
   1050c:	00005517          	auipc	a0,0x5
   10510:	e2b50513          	addi	a0,a0,-469 # 15337 <end_signature+0x257>
   10514:	2ed030ef          	jal	ra,14000 <FN_WriteStr>
   10518:	00005517          	auipc	a0,0x5
   1051c:	e2a50513          	addi	a0,a0,-470 # 15342 <end_signature+0x262>
   10520:	2e1030ef          	jal	ra,14000 <FN_WriteStr>
   10524:	06400193          	li	gp,100
   10528:	0000100f          	fence.i
   1052c:	00018063          	beqz	gp,1052c <reset_vector+0x4e0>
   10530:	00119193          	slli	gp,gp,0x1
   10534:	0011e193          	ori	gp,gp,1
   10538:	00000073          	ecall
   1053c:	00000293          	li	t0,0
   10540:	08540e63          	beq	s0,t0,105dc <reset_vector+0x590>
   10544:	00005517          	auipc	a0,0x5
   10548:	e0050513          	addi	a0,a0,-512 # 15344 <end_signature+0x264>
   1054c:	2b5030ef          	jal	ra,14000 <FN_WriteStr>
   10550:	00005517          	auipc	a0,0x5
   10554:	e0f50513          	addi	a0,a0,-497 # 1535f <end_signature+0x27f>
   10558:	2a9030ef          	jal	ra,14000 <FN_WriteStr>
   1055c:	00005517          	auipc	a0,0x5
   10560:	e1250513          	addi	a0,a0,-494 # 1536e <end_signature+0x28e>
   10564:	29d030ef          	jal	ra,14000 <FN_WriteStr>
   10568:	00005517          	auipc	a0,0x5
   1056c:	e0e50513          	addi	a0,a0,-498 # 15376 <end_signature+0x296>
   10570:	291030ef          	jal	ra,14000 <FN_WriteStr>
   10574:	00005517          	auipc	a0,0x5
   10578:	e0550513          	addi	a0,a0,-507 # 15379 <end_signature+0x299>
   1057c:	285030ef          	jal	ra,14000 <FN_WriteStr>
   10580:	00005517          	auipc	a0,0x5
   10584:	dfc50513          	addi	a0,a0,-516 # 1537c <end_signature+0x29c>
   10588:	279030ef          	jal	ra,14000 <FN_WriteStr>
   1058c:	00005517          	auipc	a0,0x5
   10590:	df350513          	addi	a0,a0,-525 # 1537f <end_signature+0x29f>
   10594:	26d030ef          	jal	ra,14000 <FN_WriteStr>
   10598:	00040513          	mv	a0,s0
   1059c:	281030ef          	jal	ra,1401c <FN_WriteA0>
   105a0:	00005517          	auipc	a0,0x5
   105a4:	de150513          	addi	a0,a0,-543 # 15381 <end_signature+0x2a1>
   105a8:	259030ef          	jal	ra,14000 <FN_WriteStr>
   105ac:	00005517          	auipc	a0,0x5
   105b0:	ddb50513          	addi	a0,a0,-549 # 15387 <end_signature+0x2a7>
   105b4:	24d030ef          	jal	ra,14000 <FN_WriteStr>
   105b8:	00005517          	auipc	a0,0x5
   105bc:	dda50513          	addi	a0,a0,-550 # 15392 <end_signature+0x2b2>
   105c0:	241030ef          	jal	ra,14000 <FN_WriteStr>
   105c4:	06400193          	li	gp,100
   105c8:	0000100f          	fence.i
   105cc:	00018063          	beqz	gp,105cc <reset_vector+0x580>
   105d0:	00119193          	slli	gp,gp,0x1
   105d4:	0011e193          	ori	gp,gp,1
   105d8:	00000073          	ecall
   105dc:	00005517          	auipc	a0,0x5
   105e0:	db850513          	addi	a0,a0,-584 # 15394 <end_signature+0x2b4>
   105e4:	21d030ef          	jal	ra,14000 <FN_WriteStr>
   105e8:	00005517          	auipc	a0,0x5
   105ec:	dc850513          	addi	a0,a0,-568 # 153b0 <end_signature+0x2d0>
   105f0:	211030ef          	jal	ra,14000 <FN_WriteStr>
   105f4:	00005097          	auipc	ra,0x5
   105f8:	a1008093          	addi	ra,ra,-1520 # 15004 <test_A2_data>
   105fc:	00005117          	auipc	sp,0x5
   10600:	a3c10113          	addi	sp,sp,-1476 # 15038 <test_A2_res>
   10604:	0000a403          	lw	s0,0(ra)
   10608:	00100493          	li	s1,1
   1060c:	80000537          	lui	a0,0x80000
   10610:	fff50513          	addi	a0,a0,-1 # 7fffffff <_end+0x7ffe9d2e>
   10614:	fff00593          	li	a1,-1
   10618:	00000613          	li	a2,0
   1061c:	800006b7          	lui	a3,0x80000
   10620:	009424b3          	slt	s1,s0,s1
   10624:	00a42533          	slt	a0,s0,a0
   10628:	00b425b3          	slt	a1,s0,a1
   1062c:	00c42633          	slt	a2,s0,a2
   10630:	00d426b3          	slt	a3,s0,a3
   10634:	00812023          	sw	s0,0(sp)
   10638:	00912223          	sw	s1,4(sp)
   1063c:	00a12423          	sw	a0,8(sp)
   10640:	00b12623          	sw	a1,12(sp)
   10644:	00c12823          	sw	a2,16(sp)
   10648:	00d12a23          	sw	a3,20(sp)
   1064c:	00100293          	li	t0,1
   10650:	08540e63          	beq	s0,t0,106ec <reset_vector+0x6a0>
   10654:	00005517          	auipc	a0,0x5
   10658:	dae50513          	addi	a0,a0,-594 # 15402 <end_signature+0x322>
   1065c:	1a5030ef          	jal	ra,14000 <FN_WriteStr>
   10660:	00005517          	auipc	a0,0x5
   10664:	dbd50513          	addi	a0,a0,-579 # 1541d <end_signature+0x33d>
   10668:	199030ef          	jal	ra,14000 <FN_WriteStr>
   1066c:	00005517          	auipc	a0,0x5
   10670:	dc050513          	addi	a0,a0,-576 # 1542c <end_signature+0x34c>
   10674:	18d030ef          	jal	ra,14000 <FN_WriteStr>
   10678:	00005517          	auipc	a0,0x5
   1067c:	dbc50513          	addi	a0,a0,-580 # 15434 <end_signature+0x354>
   10680:	181030ef          	jal	ra,14000 <FN_WriteStr>
   10684:	00005517          	auipc	a0,0x5
   10688:	db450513          	addi	a0,a0,-588 # 15438 <end_signature+0x358>
   1068c:	175030ef          	jal	ra,14000 <FN_WriteStr>
   10690:	00005517          	auipc	a0,0x5
   10694:	dab50513          	addi	a0,a0,-597 # 1543b <end_signature+0x35b>
   10698:	169030ef          	jal	ra,14000 <FN_WriteStr>
   1069c:	00005517          	auipc	a0,0x5
   106a0:	da250513          	addi	a0,a0,-606 # 1543e <end_signature+0x35e>
   106a4:	15d030ef          	jal	ra,14000 <FN_WriteStr>
   106a8:	00040513          	mv	a0,s0
   106ac:	171030ef          	jal	ra,1401c <FN_WriteA0>
   106b0:	00005517          	auipc	a0,0x5
   106b4:	d9050513          	addi	a0,a0,-624 # 15440 <end_signature+0x360>
   106b8:	149030ef          	jal	ra,14000 <FN_WriteStr>
   106bc:	00005517          	auipc	a0,0x5
   106c0:	d8a50513          	addi	a0,a0,-630 # 15446 <end_signature+0x366>
   106c4:	13d030ef          	jal	ra,14000 <FN_WriteStr>
   106c8:	00005517          	auipc	a0,0x5
   106cc:	d8950513          	addi	a0,a0,-631 # 15451 <end_signature+0x371>
   106d0:	131030ef          	jal	ra,14000 <FN_WriteStr>
   106d4:	06400193          	li	gp,100
   106d8:	0000100f          	fence.i
   106dc:	00018063          	beqz	gp,106dc <reset_vector+0x690>
   106e0:	00119193          	slli	gp,gp,0x1
   106e4:	0011e193          	ori	gp,gp,1
   106e8:	00000073          	ecall
   106ec:	00000293          	li	t0,0
   106f0:	08548e63          	beq	s1,t0,1078c <reset_vector+0x740>
   106f4:	00005517          	auipc	a0,0x5
   106f8:	d5f50513          	addi	a0,a0,-673 # 15453 <end_signature+0x373>
   106fc:	105030ef          	jal	ra,14000 <FN_WriteStr>
   10700:	00005517          	auipc	a0,0x5
   10704:	d6e50513          	addi	a0,a0,-658 # 1546e <end_signature+0x38e>
   10708:	0f9030ef          	jal	ra,14000 <FN_WriteStr>
   1070c:	00005517          	auipc	a0,0x5
   10710:	d7150513          	addi	a0,a0,-655 # 1547d <end_signature+0x39d>
   10714:	0ed030ef          	jal	ra,14000 <FN_WriteStr>
   10718:	00005517          	auipc	a0,0x5
   1071c:	d6d50513          	addi	a0,a0,-659 # 15485 <end_signature+0x3a5>
   10720:	0e1030ef          	jal	ra,14000 <FN_WriteStr>
   10724:	00005517          	auipc	a0,0x5
   10728:	d6550513          	addi	a0,a0,-667 # 15489 <end_signature+0x3a9>
   1072c:	0d5030ef          	jal	ra,14000 <FN_WriteStr>
   10730:	00005517          	auipc	a0,0x5
   10734:	d5c50513          	addi	a0,a0,-676 # 1548c <end_signature+0x3ac>
   10738:	0c9030ef          	jal	ra,14000 <FN_WriteStr>
   1073c:	00005517          	auipc	a0,0x5
   10740:	d5350513          	addi	a0,a0,-685 # 1548f <end_signature+0x3af>
   10744:	0bd030ef          	jal	ra,14000 <FN_WriteStr>
   10748:	00048513          	mv	a0,s1
   1074c:	0d1030ef          	jal	ra,1401c <FN_WriteA0>
   10750:	00005517          	auipc	a0,0x5
   10754:	d4150513          	addi	a0,a0,-703 # 15491 <end_signature+0x3b1>
   10758:	0a9030ef          	jal	ra,14000 <FN_WriteStr>
   1075c:	00005517          	auipc	a0,0x5
   10760:	d3b50513          	addi	a0,a0,-709 # 15497 <end_signature+0x3b7>
   10764:	09d030ef          	jal	ra,14000 <FN_WriteStr>
   10768:	00005517          	auipc	a0,0x5
   1076c:	d3a50513          	addi	a0,a0,-710 # 154a2 <end_signature+0x3c2>
   10770:	091030ef          	jal	ra,14000 <FN_WriteStr>
   10774:	06400193          	li	gp,100
   10778:	0000100f          	fence.i
   1077c:	00018063          	beqz	gp,1077c <reset_vector+0x730>
   10780:	00119193          	slli	gp,gp,0x1
   10784:	0011e193          	ori	gp,gp,1
   10788:	00000073          	ecall
   1078c:	00000293          	li	t0,0
   10790:	08558e63          	beq	a1,t0,1082c <reset_vector+0x7e0>
   10794:	00005517          	auipc	a0,0x5
   10798:	d1050513          	addi	a0,a0,-752 # 154a4 <end_signature+0x3c4>
   1079c:	065030ef          	jal	ra,14000 <FN_WriteStr>
   107a0:	00005517          	auipc	a0,0x5
   107a4:	d1f50513          	addi	a0,a0,-737 # 154bf <end_signature+0x3df>
   107a8:	059030ef          	jal	ra,14000 <FN_WriteStr>
   107ac:	00005517          	auipc	a0,0x5
   107b0:	d2250513          	addi	a0,a0,-734 # 154ce <end_signature+0x3ee>
   107b4:	04d030ef          	jal	ra,14000 <FN_WriteStr>
   107b8:	00005517          	auipc	a0,0x5
   107bc:	d1e50513          	addi	a0,a0,-738 # 154d6 <end_signature+0x3f6>
   107c0:	041030ef          	jal	ra,14000 <FN_WriteStr>
   107c4:	00005517          	auipc	a0,0x5
   107c8:	d1650513          	addi	a0,a0,-746 # 154da <end_signature+0x3fa>
   107cc:	035030ef          	jal	ra,14000 <FN_WriteStr>
   107d0:	00005517          	auipc	a0,0x5
   107d4:	d0d50513          	addi	a0,a0,-755 # 154dd <end_signature+0x3fd>
   107d8:	029030ef          	jal	ra,14000 <FN_WriteStr>
   107dc:	00005517          	auipc	a0,0x5
   107e0:	d0550513          	addi	a0,a0,-763 # 154e1 <end_signature+0x401>
   107e4:	01d030ef          	jal	ra,14000 <FN_WriteStr>
   107e8:	00058513          	mv	a0,a1
   107ec:	031030ef          	jal	ra,1401c <FN_WriteA0>
   107f0:	00005517          	auipc	a0,0x5
   107f4:	cf350513          	addi	a0,a0,-781 # 154e3 <end_signature+0x403>
   107f8:	009030ef          	jal	ra,14000 <FN_WriteStr>
   107fc:	00005517          	auipc	a0,0x5
   10800:	ced50513          	addi	a0,a0,-787 # 154e9 <end_signature+0x409>
   10804:	7fc030ef          	jal	ra,14000 <FN_WriteStr>
   10808:	00005517          	auipc	a0,0x5
   1080c:	cec50513          	addi	a0,a0,-788 # 154f4 <end_signature+0x414>
   10810:	7f0030ef          	jal	ra,14000 <FN_WriteStr>
   10814:	06400193          	li	gp,100
   10818:	0000100f          	fence.i
   1081c:	00018063          	beqz	gp,1081c <reset_vector+0x7d0>
   10820:	00119193          	slli	gp,gp,0x1
   10824:	0011e193          	ori	gp,gp,1
   10828:	00000073          	ecall
   1082c:	00000293          	li	t0,0
   10830:	08560e63          	beq	a2,t0,108cc <reset_vector+0x880>
   10834:	00005517          	auipc	a0,0x5
   10838:	cc250513          	addi	a0,a0,-830 # 154f6 <end_signature+0x416>
   1083c:	7c4030ef          	jal	ra,14000 <FN_WriteStr>
   10840:	00005517          	auipc	a0,0x5
   10844:	cd150513          	addi	a0,a0,-815 # 15511 <end_signature+0x431>
   10848:	7b8030ef          	jal	ra,14000 <FN_WriteStr>
   1084c:	00005517          	auipc	a0,0x5
   10850:	cd450513          	addi	a0,a0,-812 # 15520 <end_signature+0x440>
   10854:	7ac030ef          	jal	ra,14000 <FN_WriteStr>
   10858:	00005517          	auipc	a0,0x5
   1085c:	cd050513          	addi	a0,a0,-816 # 15528 <end_signature+0x448>
   10860:	7a0030ef          	jal	ra,14000 <FN_WriteStr>
   10864:	00005517          	auipc	a0,0x5
   10868:	cc850513          	addi	a0,a0,-824 # 1552c <end_signature+0x44c>
   1086c:	794030ef          	jal	ra,14000 <FN_WriteStr>
   10870:	00005517          	auipc	a0,0x5
   10874:	cbf50513          	addi	a0,a0,-833 # 1552f <end_signature+0x44f>
   10878:	788030ef          	jal	ra,14000 <FN_WriteStr>
   1087c:	00005517          	auipc	a0,0x5
   10880:	cb750513          	addi	a0,a0,-841 # 15533 <end_signature+0x453>
   10884:	77c030ef          	jal	ra,14000 <FN_WriteStr>
   10888:	00060513          	mv	a0,a2
   1088c:	790030ef          	jal	ra,1401c <FN_WriteA0>
   10890:	00005517          	auipc	a0,0x5
   10894:	ca550513          	addi	a0,a0,-859 # 15535 <end_signature+0x455>
   10898:	768030ef          	jal	ra,14000 <FN_WriteStr>
   1089c:	00005517          	auipc	a0,0x5
   108a0:	c9f50513          	addi	a0,a0,-865 # 1553b <end_signature+0x45b>
   108a4:	75c030ef          	jal	ra,14000 <FN_WriteStr>
   108a8:	00005517          	auipc	a0,0x5
   108ac:	c9e50513          	addi	a0,a0,-866 # 15546 <end_signature+0x466>
   108b0:	750030ef          	jal	ra,14000 <FN_WriteStr>
   108b4:	06400193          	li	gp,100
   108b8:	0000100f          	fence.i
   108bc:	00018063          	beqz	gp,108bc <reset_vector+0x870>
   108c0:	00119193          	slli	gp,gp,0x1
   108c4:	0011e193          	ori	gp,gp,1
   108c8:	00000073          	ecall
   108cc:	00000293          	li	t0,0
   108d0:	08568e63          	beq	a3,t0,1096c <reset_vector+0x920>
   108d4:	00005517          	auipc	a0,0x5
   108d8:	c7450513          	addi	a0,a0,-908 # 15548 <end_signature+0x468>
   108dc:	724030ef          	jal	ra,14000 <FN_WriteStr>
   108e0:	00005517          	auipc	a0,0x5
   108e4:	c8350513          	addi	a0,a0,-893 # 15563 <end_signature+0x483>
   108e8:	718030ef          	jal	ra,14000 <FN_WriteStr>
   108ec:	00005517          	auipc	a0,0x5
   108f0:	c8650513          	addi	a0,a0,-890 # 15572 <end_signature+0x492>
   108f4:	70c030ef          	jal	ra,14000 <FN_WriteStr>
   108f8:	00005517          	auipc	a0,0x5
   108fc:	c8250513          	addi	a0,a0,-894 # 1557a <end_signature+0x49a>
   10900:	700030ef          	jal	ra,14000 <FN_WriteStr>
   10904:	00005517          	auipc	a0,0x5
   10908:	c7a50513          	addi	a0,a0,-902 # 1557e <end_signature+0x49e>
   1090c:	6f4030ef          	jal	ra,14000 <FN_WriteStr>
   10910:	00005517          	auipc	a0,0x5
   10914:	c7150513          	addi	a0,a0,-911 # 15581 <end_signature+0x4a1>
   10918:	6e8030ef          	jal	ra,14000 <FN_WriteStr>
   1091c:	00005517          	auipc	a0,0x5
   10920:	c6950513          	addi	a0,a0,-919 # 15585 <end_signature+0x4a5>
   10924:	6dc030ef          	jal	ra,14000 <FN_WriteStr>
   10928:	00068513          	mv	a0,a3
   1092c:	6f0030ef          	jal	ra,1401c <FN_WriteA0>
   10930:	00005517          	auipc	a0,0x5
   10934:	c5750513          	addi	a0,a0,-937 # 15587 <end_signature+0x4a7>
   10938:	6c8030ef          	jal	ra,14000 <FN_WriteStr>
   1093c:	00005517          	auipc	a0,0x5
   10940:	c5150513          	addi	a0,a0,-943 # 1558d <end_signature+0x4ad>
   10944:	6bc030ef          	jal	ra,14000 <FN_WriteStr>
   10948:	00005517          	auipc	a0,0x5
   1094c:	c5050513          	addi	a0,a0,-944 # 15598 <end_signature+0x4b8>
   10950:	6b0030ef          	jal	ra,14000 <FN_WriteStr>
   10954:	06400193          	li	gp,100
   10958:	0000100f          	fence.i
   1095c:	00018063          	beqz	gp,1095c <reset_vector+0x910>
   10960:	00119193          	slli	gp,gp,0x1
   10964:	0011e193          	ori	gp,gp,1
   10968:	00000073          	ecall
   1096c:	00005517          	auipc	a0,0x5
   10970:	c2e50513          	addi	a0,a0,-978 # 1559a <end_signature+0x4ba>
   10974:	68c030ef          	jal	ra,14000 <FN_WriteStr>
   10978:	00005517          	auipc	a0,0x5
   1097c:	c3e50513          	addi	a0,a0,-962 # 155b6 <end_signature+0x4d6>
   10980:	680030ef          	jal	ra,14000 <FN_WriteStr>
   10984:	00004097          	auipc	ra,0x4
   10988:	68408093          	addi	ra,ra,1668 # 15008 <test_A3_data>
   1098c:	00004117          	auipc	sp,0x4
   10990:	6c410113          	addi	sp,sp,1732 # 15050 <test_A3_res>
   10994:	0000a683          	lw	a3,0(ra)
   10998:	00100713          	li	a4,1
   1099c:	800007b7          	lui	a5,0x80000
   109a0:	fff78793          	addi	a5,a5,-1 # 7fffffff <_end+0x7ffe9d2e>
   109a4:	fff00813          	li	a6,-1
   109a8:	00000893          	li	a7,0
   109ac:	80000937          	lui	s2,0x80000
   109b0:	00e6a733          	slt	a4,a3,a4
   109b4:	00f6a7b3          	slt	a5,a3,a5
   109b8:	0106a833          	slt	a6,a3,a6
   109bc:	0116a8b3          	slt	a7,a3,a7
   109c0:	0126a933          	slt	s2,a3,s2
   109c4:	00d12023          	sw	a3,0(sp)
   109c8:	00e12223          	sw	a4,4(sp)
   109cc:	00f12423          	sw	a5,8(sp)
   109d0:	01012623          	sw	a6,12(sp)
   109d4:	01112823          	sw	a7,16(sp)
   109d8:	01212a23          	sw	s2,20(sp)
   109dc:	fff00293          	li	t0,-1
   109e0:	08568e63          	beq	a3,t0,10a7c <reset_vector+0xa30>
   109e4:	00005517          	auipc	a0,0x5
   109e8:	c2550513          	addi	a0,a0,-987 # 15609 <end_signature+0x529>
   109ec:	614030ef          	jal	ra,14000 <FN_WriteStr>
   109f0:	00005517          	auipc	a0,0x5
   109f4:	c3450513          	addi	a0,a0,-972 # 15624 <end_signature+0x544>
   109f8:	608030ef          	jal	ra,14000 <FN_WriteStr>
   109fc:	00005517          	auipc	a0,0x5
   10a00:	c3750513          	addi	a0,a0,-969 # 15633 <end_signature+0x553>
   10a04:	5fc030ef          	jal	ra,14000 <FN_WriteStr>
   10a08:	00005517          	auipc	a0,0x5
   10a0c:	c3350513          	addi	a0,a0,-973 # 1563b <end_signature+0x55b>
   10a10:	5f0030ef          	jal	ra,14000 <FN_WriteStr>
   10a14:	00005517          	auipc	a0,0x5
   10a18:	c2b50513          	addi	a0,a0,-981 # 1563f <end_signature+0x55f>
   10a1c:	5e4030ef          	jal	ra,14000 <FN_WriteStr>
   10a20:	00005517          	auipc	a0,0x5
   10a24:	c2250513          	addi	a0,a0,-990 # 15642 <end_signature+0x562>
   10a28:	5d8030ef          	jal	ra,14000 <FN_WriteStr>
   10a2c:	00005517          	auipc	a0,0x5
   10a30:	c1a50513          	addi	a0,a0,-998 # 15646 <end_signature+0x566>
   10a34:	5cc030ef          	jal	ra,14000 <FN_WriteStr>
   10a38:	00068513          	mv	a0,a3
   10a3c:	5e0030ef          	jal	ra,1401c <FN_WriteA0>
   10a40:	00005517          	auipc	a0,0x5
   10a44:	c0850513          	addi	a0,a0,-1016 # 15648 <end_signature+0x568>
   10a48:	5b8030ef          	jal	ra,14000 <FN_WriteStr>
   10a4c:	00005517          	auipc	a0,0x5
   10a50:	c0250513          	addi	a0,a0,-1022 # 1564e <end_signature+0x56e>
   10a54:	5ac030ef          	jal	ra,14000 <FN_WriteStr>
   10a58:	00005517          	auipc	a0,0x5
   10a5c:	c0150513          	addi	a0,a0,-1023 # 15659 <end_signature+0x579>
   10a60:	5a0030ef          	jal	ra,14000 <FN_WriteStr>
   10a64:	06400193          	li	gp,100
   10a68:	0000100f          	fence.i
   10a6c:	00018063          	beqz	gp,10a6c <reset_vector+0xa20>
   10a70:	00119193          	slli	gp,gp,0x1
   10a74:	0011e193          	ori	gp,gp,1
   10a78:	00000073          	ecall
   10a7c:	00100293          	li	t0,1
   10a80:	08570e63          	beq	a4,t0,10b1c <reset_vector+0xad0>
   10a84:	00005517          	auipc	a0,0x5
   10a88:	bd750513          	addi	a0,a0,-1065 # 1565b <end_signature+0x57b>
   10a8c:	574030ef          	jal	ra,14000 <FN_WriteStr>
   10a90:	00005517          	auipc	a0,0x5
   10a94:	be650513          	addi	a0,a0,-1050 # 15676 <end_signature+0x596>
   10a98:	568030ef          	jal	ra,14000 <FN_WriteStr>
   10a9c:	00005517          	auipc	a0,0x5
   10aa0:	be950513          	addi	a0,a0,-1047 # 15685 <end_signature+0x5a5>
   10aa4:	55c030ef          	jal	ra,14000 <FN_WriteStr>
   10aa8:	00005517          	auipc	a0,0x5
   10aac:	be550513          	addi	a0,a0,-1051 # 1568d <end_signature+0x5ad>
   10ab0:	550030ef          	jal	ra,14000 <FN_WriteStr>
   10ab4:	00005517          	auipc	a0,0x5
   10ab8:	bdd50513          	addi	a0,a0,-1059 # 15691 <end_signature+0x5b1>
   10abc:	544030ef          	jal	ra,14000 <FN_WriteStr>
   10ac0:	00005517          	auipc	a0,0x5
   10ac4:	bd450513          	addi	a0,a0,-1068 # 15694 <end_signature+0x5b4>
   10ac8:	538030ef          	jal	ra,14000 <FN_WriteStr>
   10acc:	00005517          	auipc	a0,0x5
   10ad0:	bcc50513          	addi	a0,a0,-1076 # 15698 <end_signature+0x5b8>
   10ad4:	52c030ef          	jal	ra,14000 <FN_WriteStr>
   10ad8:	00070513          	mv	a0,a4
   10adc:	540030ef          	jal	ra,1401c <FN_WriteA0>
   10ae0:	00005517          	auipc	a0,0x5
   10ae4:	bba50513          	addi	a0,a0,-1094 # 1569a <end_signature+0x5ba>
   10ae8:	518030ef          	jal	ra,14000 <FN_WriteStr>
   10aec:	00005517          	auipc	a0,0x5
   10af0:	bb450513          	addi	a0,a0,-1100 # 156a0 <end_signature+0x5c0>
   10af4:	50c030ef          	jal	ra,14000 <FN_WriteStr>
   10af8:	00005517          	auipc	a0,0x5
   10afc:	bb350513          	addi	a0,a0,-1101 # 156ab <end_signature+0x5cb>
   10b00:	500030ef          	jal	ra,14000 <FN_WriteStr>
   10b04:	06400193          	li	gp,100
   10b08:	0000100f          	fence.i
   10b0c:	00018063          	beqz	gp,10b0c <reset_vector+0xac0>
   10b10:	00119193          	slli	gp,gp,0x1
   10b14:	0011e193          	ori	gp,gp,1
   10b18:	00000073          	ecall
   10b1c:	00100293          	li	t0,1
   10b20:	08578e63          	beq	a5,t0,10bbc <reset_vector+0xb70>
   10b24:	00005517          	auipc	a0,0x5
   10b28:	b8950513          	addi	a0,a0,-1143 # 156ad <end_signature+0x5cd>
   10b2c:	4d4030ef          	jal	ra,14000 <FN_WriteStr>
   10b30:	00005517          	auipc	a0,0x5
   10b34:	b9850513          	addi	a0,a0,-1128 # 156c8 <end_signature+0x5e8>
   10b38:	4c8030ef          	jal	ra,14000 <FN_WriteStr>
   10b3c:	00005517          	auipc	a0,0x5
   10b40:	b9b50513          	addi	a0,a0,-1125 # 156d7 <end_signature+0x5f7>
   10b44:	4bc030ef          	jal	ra,14000 <FN_WriteStr>
   10b48:	00005517          	auipc	a0,0x5
   10b4c:	b9750513          	addi	a0,a0,-1129 # 156df <end_signature+0x5ff>
   10b50:	4b0030ef          	jal	ra,14000 <FN_WriteStr>
   10b54:	00005517          	auipc	a0,0x5
   10b58:	b8f50513          	addi	a0,a0,-1137 # 156e3 <end_signature+0x603>
   10b5c:	4a4030ef          	jal	ra,14000 <FN_WriteStr>
   10b60:	00005517          	auipc	a0,0x5
   10b64:	b8650513          	addi	a0,a0,-1146 # 156e6 <end_signature+0x606>
   10b68:	498030ef          	jal	ra,14000 <FN_WriteStr>
   10b6c:	00005517          	auipc	a0,0x5
   10b70:	b7e50513          	addi	a0,a0,-1154 # 156ea <end_signature+0x60a>
   10b74:	48c030ef          	jal	ra,14000 <FN_WriteStr>
   10b78:	00078513          	mv	a0,a5
   10b7c:	4a0030ef          	jal	ra,1401c <FN_WriteA0>
   10b80:	00005517          	auipc	a0,0x5
   10b84:	b6c50513          	addi	a0,a0,-1172 # 156ec <end_signature+0x60c>
   10b88:	478030ef          	jal	ra,14000 <FN_WriteStr>
   10b8c:	00005517          	auipc	a0,0x5
   10b90:	b6650513          	addi	a0,a0,-1178 # 156f2 <end_signature+0x612>
   10b94:	46c030ef          	jal	ra,14000 <FN_WriteStr>
   10b98:	00005517          	auipc	a0,0x5
   10b9c:	b6550513          	addi	a0,a0,-1179 # 156fd <end_signature+0x61d>
   10ba0:	460030ef          	jal	ra,14000 <FN_WriteStr>
   10ba4:	06400193          	li	gp,100
   10ba8:	0000100f          	fence.i
   10bac:	00018063          	beqz	gp,10bac <reset_vector+0xb60>
   10bb0:	00119193          	slli	gp,gp,0x1
   10bb4:	0011e193          	ori	gp,gp,1
   10bb8:	00000073          	ecall
   10bbc:	00000293          	li	t0,0
   10bc0:	08580e63          	beq	a6,t0,10c5c <reset_vector+0xc10>
   10bc4:	00005517          	auipc	a0,0x5
   10bc8:	b3b50513          	addi	a0,a0,-1221 # 156ff <end_signature+0x61f>
   10bcc:	434030ef          	jal	ra,14000 <FN_WriteStr>
   10bd0:	00005517          	auipc	a0,0x5
   10bd4:	b4a50513          	addi	a0,a0,-1206 # 1571a <end_signature+0x63a>
   10bd8:	428030ef          	jal	ra,14000 <FN_WriteStr>
   10bdc:	00005517          	auipc	a0,0x5
   10be0:	b4d50513          	addi	a0,a0,-1203 # 15729 <end_signature+0x649>
   10be4:	41c030ef          	jal	ra,14000 <FN_WriteStr>
   10be8:	00005517          	auipc	a0,0x5
   10bec:	b4950513          	addi	a0,a0,-1207 # 15731 <end_signature+0x651>
   10bf0:	410030ef          	jal	ra,14000 <FN_WriteStr>
   10bf4:	00005517          	auipc	a0,0x5
   10bf8:	b4150513          	addi	a0,a0,-1215 # 15735 <end_signature+0x655>
   10bfc:	404030ef          	jal	ra,14000 <FN_WriteStr>
   10c00:	00005517          	auipc	a0,0x5
   10c04:	b3850513          	addi	a0,a0,-1224 # 15738 <end_signature+0x658>
   10c08:	3f8030ef          	jal	ra,14000 <FN_WriteStr>
   10c0c:	00005517          	auipc	a0,0x5
   10c10:	b3050513          	addi	a0,a0,-1232 # 1573c <end_signature+0x65c>
   10c14:	3ec030ef          	jal	ra,14000 <FN_WriteStr>
   10c18:	00080513          	mv	a0,a6
   10c1c:	400030ef          	jal	ra,1401c <FN_WriteA0>
   10c20:	00005517          	auipc	a0,0x5
   10c24:	b1e50513          	addi	a0,a0,-1250 # 1573e <end_signature+0x65e>
   10c28:	3d8030ef          	jal	ra,14000 <FN_WriteStr>
   10c2c:	00005517          	auipc	a0,0x5
   10c30:	b1850513          	addi	a0,a0,-1256 # 15744 <end_signature+0x664>
   10c34:	3cc030ef          	jal	ra,14000 <FN_WriteStr>
   10c38:	00005517          	auipc	a0,0x5
   10c3c:	b1750513          	addi	a0,a0,-1257 # 1574f <end_signature+0x66f>
   10c40:	3c0030ef          	jal	ra,14000 <FN_WriteStr>
   10c44:	06400193          	li	gp,100
   10c48:	0000100f          	fence.i
   10c4c:	00018063          	beqz	gp,10c4c <reset_vector+0xc00>
   10c50:	00119193          	slli	gp,gp,0x1
   10c54:	0011e193          	ori	gp,gp,1
   10c58:	00000073          	ecall
   10c5c:	00100293          	li	t0,1
   10c60:	08588e63          	beq	a7,t0,10cfc <reset_vector+0xcb0>
   10c64:	00005517          	auipc	a0,0x5
   10c68:	aed50513          	addi	a0,a0,-1299 # 15751 <end_signature+0x671>
   10c6c:	394030ef          	jal	ra,14000 <FN_WriteStr>
   10c70:	00005517          	auipc	a0,0x5
   10c74:	afc50513          	addi	a0,a0,-1284 # 1576c <end_signature+0x68c>
   10c78:	388030ef          	jal	ra,14000 <FN_WriteStr>
   10c7c:	00005517          	auipc	a0,0x5
   10c80:	aff50513          	addi	a0,a0,-1281 # 1577b <end_signature+0x69b>
   10c84:	37c030ef          	jal	ra,14000 <FN_WriteStr>
   10c88:	00005517          	auipc	a0,0x5
   10c8c:	afb50513          	addi	a0,a0,-1285 # 15783 <end_signature+0x6a3>
   10c90:	370030ef          	jal	ra,14000 <FN_WriteStr>
   10c94:	00005517          	auipc	a0,0x5
   10c98:	af350513          	addi	a0,a0,-1293 # 15787 <end_signature+0x6a7>
   10c9c:	364030ef          	jal	ra,14000 <FN_WriteStr>
   10ca0:	00005517          	auipc	a0,0x5
   10ca4:	aea50513          	addi	a0,a0,-1302 # 1578a <end_signature+0x6aa>
   10ca8:	358030ef          	jal	ra,14000 <FN_WriteStr>
   10cac:	00005517          	auipc	a0,0x5
   10cb0:	ae250513          	addi	a0,a0,-1310 # 1578e <end_signature+0x6ae>
   10cb4:	34c030ef          	jal	ra,14000 <FN_WriteStr>
   10cb8:	00088513          	mv	a0,a7
   10cbc:	360030ef          	jal	ra,1401c <FN_WriteA0>
   10cc0:	00005517          	auipc	a0,0x5
   10cc4:	ad050513          	addi	a0,a0,-1328 # 15790 <end_signature+0x6b0>
   10cc8:	338030ef          	jal	ra,14000 <FN_WriteStr>
   10ccc:	00005517          	auipc	a0,0x5
   10cd0:	aca50513          	addi	a0,a0,-1334 # 15796 <end_signature+0x6b6>
   10cd4:	32c030ef          	jal	ra,14000 <FN_WriteStr>
   10cd8:	00005517          	auipc	a0,0x5
   10cdc:	ac950513          	addi	a0,a0,-1335 # 157a1 <end_signature+0x6c1>
   10ce0:	320030ef          	jal	ra,14000 <FN_WriteStr>
   10ce4:	06400193          	li	gp,100
   10ce8:	0000100f          	fence.i
   10cec:	00018063          	beqz	gp,10cec <reset_vector+0xca0>
   10cf0:	00119193          	slli	gp,gp,0x1
   10cf4:	0011e193          	ori	gp,gp,1
   10cf8:	00000073          	ecall
   10cfc:	00000293          	li	t0,0
   10d00:	08590e63          	beq	s2,t0,10d9c <reset_vector+0xd50>
   10d04:	00005517          	auipc	a0,0x5
   10d08:	a9f50513          	addi	a0,a0,-1377 # 157a3 <end_signature+0x6c3>
   10d0c:	2f4030ef          	jal	ra,14000 <FN_WriteStr>
   10d10:	00005517          	auipc	a0,0x5
   10d14:	aae50513          	addi	a0,a0,-1362 # 157be <end_signature+0x6de>
   10d18:	2e8030ef          	jal	ra,14000 <FN_WriteStr>
   10d1c:	00005517          	auipc	a0,0x5
   10d20:	ab150513          	addi	a0,a0,-1359 # 157cd <end_signature+0x6ed>
   10d24:	2dc030ef          	jal	ra,14000 <FN_WriteStr>
   10d28:	00005517          	auipc	a0,0x5
   10d2c:	aad50513          	addi	a0,a0,-1363 # 157d5 <end_signature+0x6f5>
   10d30:	2d0030ef          	jal	ra,14000 <FN_WriteStr>
   10d34:	00005517          	auipc	a0,0x5
   10d38:	aa550513          	addi	a0,a0,-1371 # 157d9 <end_signature+0x6f9>
   10d3c:	2c4030ef          	jal	ra,14000 <FN_WriteStr>
   10d40:	00005517          	auipc	a0,0x5
   10d44:	a9c50513          	addi	a0,a0,-1380 # 157dc <end_signature+0x6fc>
   10d48:	2b8030ef          	jal	ra,14000 <FN_WriteStr>
   10d4c:	00005517          	auipc	a0,0x5
   10d50:	a9450513          	addi	a0,a0,-1388 # 157e0 <end_signature+0x700>
   10d54:	2ac030ef          	jal	ra,14000 <FN_WriteStr>
   10d58:	00090513          	mv	a0,s2
   10d5c:	2c0030ef          	jal	ra,1401c <FN_WriteA0>
   10d60:	00005517          	auipc	a0,0x5
   10d64:	a8250513          	addi	a0,a0,-1406 # 157e2 <end_signature+0x702>
   10d68:	298030ef          	jal	ra,14000 <FN_WriteStr>
   10d6c:	00005517          	auipc	a0,0x5
   10d70:	a7c50513          	addi	a0,a0,-1412 # 157e8 <end_signature+0x708>
   10d74:	28c030ef          	jal	ra,14000 <FN_WriteStr>
   10d78:	00005517          	auipc	a0,0x5
   10d7c:	a7b50513          	addi	a0,a0,-1413 # 157f3 <end_signature+0x713>
   10d80:	280030ef          	jal	ra,14000 <FN_WriteStr>
   10d84:	06400193          	li	gp,100
   10d88:	0000100f          	fence.i
   10d8c:	00018063          	beqz	gp,10d8c <reset_vector+0xd40>
   10d90:	00119193          	slli	gp,gp,0x1
   10d94:	0011e193          	ori	gp,gp,1
   10d98:	00000073          	ecall
   10d9c:	00005517          	auipc	a0,0x5
   10da0:	a5950513          	addi	a0,a0,-1447 # 157f5 <end_signature+0x715>
   10da4:	25c030ef          	jal	ra,14000 <FN_WriteStr>
   10da8:	00005517          	auipc	a0,0x5
   10dac:	a6950513          	addi	a0,a0,-1431 # 15811 <end_signature+0x731>
   10db0:	250030ef          	jal	ra,14000 <FN_WriteStr>
   10db4:	00004097          	auipc	ra,0x4
   10db8:	25808093          	addi	ra,ra,600 # 1500c <test_A4_data>
   10dbc:	00004117          	auipc	sp,0x4
   10dc0:	2ac10113          	addi	sp,sp,684 # 15068 <test_A4_res>
   10dc4:	0000a903          	lw	s2,0(ra)
   10dc8:	00100993          	li	s3,1
   10dcc:	80000a37          	lui	s4,0x80000
   10dd0:	fffa0a13          	addi	s4,s4,-1 # 7fffffff <_end+0x7ffe9d2e>
   10dd4:	fff00a93          	li	s5,-1
   10dd8:	00000b13          	li	s6,0
   10ddc:	80000bb7          	lui	s7,0x80000
   10de0:	013929b3          	slt	s3,s2,s3
   10de4:	01492a33          	slt	s4,s2,s4
   10de8:	01592ab3          	slt	s5,s2,s5
   10dec:	01692b33          	slt	s6,s2,s6
   10df0:	01792bb3          	slt	s7,s2,s7
   10df4:	01212023          	sw	s2,0(sp)
   10df8:	01312223          	sw	s3,4(sp)
   10dfc:	01412423          	sw	s4,8(sp)
   10e00:	01512623          	sw	s5,12(sp)
   10e04:	01612823          	sw	s6,16(sp)
   10e08:	01712a23          	sw	s7,20(sp)
   10e0c:	800002b7          	lui	t0,0x80000
   10e10:	fff28293          	addi	t0,t0,-1 # 7fffffff <_end+0x7ffe9d2e>
   10e14:	08590e63          	beq	s2,t0,10eb0 <reset_vector+0xe64>
   10e18:	00005517          	auipc	a0,0x5
   10e1c:	a5450513          	addi	a0,a0,-1452 # 1586c <end_signature+0x78c>
   10e20:	1e0030ef          	jal	ra,14000 <FN_WriteStr>
   10e24:	00005517          	auipc	a0,0x5
   10e28:	a6350513          	addi	a0,a0,-1437 # 15887 <end_signature+0x7a7>
   10e2c:	1d4030ef          	jal	ra,14000 <FN_WriteStr>
   10e30:	00005517          	auipc	a0,0x5
   10e34:	a6650513          	addi	a0,a0,-1434 # 15896 <end_signature+0x7b6>
   10e38:	1c8030ef          	jal	ra,14000 <FN_WriteStr>
   10e3c:	00005517          	auipc	a0,0x5
   10e40:	a6250513          	addi	a0,a0,-1438 # 1589e <end_signature+0x7be>
   10e44:	1bc030ef          	jal	ra,14000 <FN_WriteStr>
   10e48:	00005517          	auipc	a0,0x5
   10e4c:	a5a50513          	addi	a0,a0,-1446 # 158a2 <end_signature+0x7c2>
   10e50:	1b0030ef          	jal	ra,14000 <FN_WriteStr>
   10e54:	00005517          	auipc	a0,0x5
   10e58:	a5150513          	addi	a0,a0,-1455 # 158a5 <end_signature+0x7c5>
   10e5c:	1a4030ef          	jal	ra,14000 <FN_WriteStr>
   10e60:	00005517          	auipc	a0,0x5
   10e64:	a4950513          	addi	a0,a0,-1463 # 158a9 <end_signature+0x7c9>
   10e68:	198030ef          	jal	ra,14000 <FN_WriteStr>
   10e6c:	00090513          	mv	a0,s2
   10e70:	1ac030ef          	jal	ra,1401c <FN_WriteA0>
   10e74:	00005517          	auipc	a0,0x5
   10e78:	a3750513          	addi	a0,a0,-1481 # 158ab <end_signature+0x7cb>
   10e7c:	184030ef          	jal	ra,14000 <FN_WriteStr>
   10e80:	00005517          	auipc	a0,0x5
   10e84:	a3150513          	addi	a0,a0,-1487 # 158b1 <end_signature+0x7d1>
   10e88:	178030ef          	jal	ra,14000 <FN_WriteStr>
   10e8c:	00005517          	auipc	a0,0x5
   10e90:	a3050513          	addi	a0,a0,-1488 # 158bc <end_signature+0x7dc>
   10e94:	16c030ef          	jal	ra,14000 <FN_WriteStr>
   10e98:	06400193          	li	gp,100
   10e9c:	0000100f          	fence.i
   10ea0:	00018063          	beqz	gp,10ea0 <reset_vector+0xe54>
   10ea4:	00119193          	slli	gp,gp,0x1
   10ea8:	0011e193          	ori	gp,gp,1
   10eac:	00000073          	ecall
   10eb0:	00000293          	li	t0,0
   10eb4:	08598e63          	beq	s3,t0,10f50 <reset_vector+0xf04>
   10eb8:	00005517          	auipc	a0,0x5
   10ebc:	a0650513          	addi	a0,a0,-1530 # 158be <end_signature+0x7de>
   10ec0:	140030ef          	jal	ra,14000 <FN_WriteStr>
   10ec4:	00005517          	auipc	a0,0x5
   10ec8:	a1550513          	addi	a0,a0,-1515 # 158d9 <end_signature+0x7f9>
   10ecc:	134030ef          	jal	ra,14000 <FN_WriteStr>
   10ed0:	00005517          	auipc	a0,0x5
   10ed4:	a1850513          	addi	a0,a0,-1512 # 158e8 <end_signature+0x808>
   10ed8:	128030ef          	jal	ra,14000 <FN_WriteStr>
   10edc:	00005517          	auipc	a0,0x5
   10ee0:	a1450513          	addi	a0,a0,-1516 # 158f0 <end_signature+0x810>
   10ee4:	11c030ef          	jal	ra,14000 <FN_WriteStr>
   10ee8:	00005517          	auipc	a0,0x5
   10eec:	a0c50513          	addi	a0,a0,-1524 # 158f4 <end_signature+0x814>
   10ef0:	110030ef          	jal	ra,14000 <FN_WriteStr>
   10ef4:	00005517          	auipc	a0,0x5
   10ef8:	a0350513          	addi	a0,a0,-1533 # 158f7 <end_signature+0x817>
   10efc:	104030ef          	jal	ra,14000 <FN_WriteStr>
   10f00:	00005517          	auipc	a0,0x5
   10f04:	9fb50513          	addi	a0,a0,-1541 # 158fb <end_signature+0x81b>
   10f08:	0f8030ef          	jal	ra,14000 <FN_WriteStr>
   10f0c:	00098513          	mv	a0,s3
   10f10:	10c030ef          	jal	ra,1401c <FN_WriteA0>
   10f14:	00005517          	auipc	a0,0x5
   10f18:	9e950513          	addi	a0,a0,-1559 # 158fd <end_signature+0x81d>
   10f1c:	0e4030ef          	jal	ra,14000 <FN_WriteStr>
   10f20:	00005517          	auipc	a0,0x5
   10f24:	9e350513          	addi	a0,a0,-1565 # 15903 <end_signature+0x823>
   10f28:	0d8030ef          	jal	ra,14000 <FN_WriteStr>
   10f2c:	00005517          	auipc	a0,0x5
   10f30:	9e250513          	addi	a0,a0,-1566 # 1590e <end_signature+0x82e>
   10f34:	0cc030ef          	jal	ra,14000 <FN_WriteStr>
   10f38:	06400193          	li	gp,100
   10f3c:	0000100f          	fence.i
   10f40:	00018063          	beqz	gp,10f40 <reset_vector+0xef4>
   10f44:	00119193          	slli	gp,gp,0x1
   10f48:	0011e193          	ori	gp,gp,1
   10f4c:	00000073          	ecall
   10f50:	00000293          	li	t0,0
   10f54:	085a0e63          	beq	s4,t0,10ff0 <reset_vector+0xfa4>
   10f58:	00005517          	auipc	a0,0x5
   10f5c:	9b850513          	addi	a0,a0,-1608 # 15910 <end_signature+0x830>
   10f60:	0a0030ef          	jal	ra,14000 <FN_WriteStr>
   10f64:	00005517          	auipc	a0,0x5
   10f68:	9c750513          	addi	a0,a0,-1593 # 1592b <end_signature+0x84b>
   10f6c:	094030ef          	jal	ra,14000 <FN_WriteStr>
   10f70:	00005517          	auipc	a0,0x5
   10f74:	9ca50513          	addi	a0,a0,-1590 # 1593a <end_signature+0x85a>
   10f78:	088030ef          	jal	ra,14000 <FN_WriteStr>
   10f7c:	00005517          	auipc	a0,0x5
   10f80:	9c650513          	addi	a0,a0,-1594 # 15942 <end_signature+0x862>
   10f84:	07c030ef          	jal	ra,14000 <FN_WriteStr>
   10f88:	00005517          	auipc	a0,0x5
   10f8c:	9be50513          	addi	a0,a0,-1602 # 15946 <end_signature+0x866>
   10f90:	070030ef          	jal	ra,14000 <FN_WriteStr>
   10f94:	00005517          	auipc	a0,0x5
   10f98:	9b550513          	addi	a0,a0,-1611 # 15949 <end_signature+0x869>
   10f9c:	064030ef          	jal	ra,14000 <FN_WriteStr>
   10fa0:	00005517          	auipc	a0,0x5
   10fa4:	9ad50513          	addi	a0,a0,-1619 # 1594d <end_signature+0x86d>
   10fa8:	058030ef          	jal	ra,14000 <FN_WriteStr>
   10fac:	000a0513          	mv	a0,s4
   10fb0:	06c030ef          	jal	ra,1401c <FN_WriteA0>
   10fb4:	00005517          	auipc	a0,0x5
   10fb8:	99b50513          	addi	a0,a0,-1637 # 1594f <end_signature+0x86f>
   10fbc:	044030ef          	jal	ra,14000 <FN_WriteStr>
   10fc0:	00005517          	auipc	a0,0x5
   10fc4:	99550513          	addi	a0,a0,-1643 # 15955 <end_signature+0x875>
   10fc8:	038030ef          	jal	ra,14000 <FN_WriteStr>
   10fcc:	00005517          	auipc	a0,0x5
   10fd0:	99450513          	addi	a0,a0,-1644 # 15960 <end_signature+0x880>
   10fd4:	02c030ef          	jal	ra,14000 <FN_WriteStr>
   10fd8:	06400193          	li	gp,100
   10fdc:	0000100f          	fence.i
   10fe0:	00018063          	beqz	gp,10fe0 <reset_vector+0xf94>
   10fe4:	00119193          	slli	gp,gp,0x1
   10fe8:	0011e193          	ori	gp,gp,1
   10fec:	00000073          	ecall
   10ff0:	00000293          	li	t0,0
   10ff4:	085a8e63          	beq	s5,t0,11090 <reset_vector+0x1044>
   10ff8:	00005517          	auipc	a0,0x5
   10ffc:	96a50513          	addi	a0,a0,-1686 # 15962 <end_signature+0x882>
   11000:	000030ef          	jal	ra,14000 <FN_WriteStr>
   11004:	00005517          	auipc	a0,0x5
   11008:	97950513          	addi	a0,a0,-1671 # 1597d <end_signature+0x89d>
   1100c:	7f5020ef          	jal	ra,14000 <FN_WriteStr>
   11010:	00005517          	auipc	a0,0x5
   11014:	97c50513          	addi	a0,a0,-1668 # 1598c <end_signature+0x8ac>
   11018:	7e9020ef          	jal	ra,14000 <FN_WriteStr>
   1101c:	00005517          	auipc	a0,0x5
   11020:	97850513          	addi	a0,a0,-1672 # 15994 <end_signature+0x8b4>
   11024:	7dd020ef          	jal	ra,14000 <FN_WriteStr>
   11028:	00005517          	auipc	a0,0x5
   1102c:	97050513          	addi	a0,a0,-1680 # 15998 <end_signature+0x8b8>
   11030:	7d1020ef          	jal	ra,14000 <FN_WriteStr>
   11034:	00005517          	auipc	a0,0x5
   11038:	96750513          	addi	a0,a0,-1689 # 1599b <end_signature+0x8bb>
   1103c:	7c5020ef          	jal	ra,14000 <FN_WriteStr>
   11040:	00005517          	auipc	a0,0x5
   11044:	95f50513          	addi	a0,a0,-1697 # 1599f <end_signature+0x8bf>
   11048:	7b9020ef          	jal	ra,14000 <FN_WriteStr>
   1104c:	000a8513          	mv	a0,s5
   11050:	7cd020ef          	jal	ra,1401c <FN_WriteA0>
   11054:	00005517          	auipc	a0,0x5
   11058:	94d50513          	addi	a0,a0,-1715 # 159a1 <end_signature+0x8c1>
   1105c:	7a5020ef          	jal	ra,14000 <FN_WriteStr>
   11060:	00005517          	auipc	a0,0x5
   11064:	94750513          	addi	a0,a0,-1721 # 159a7 <end_signature+0x8c7>
   11068:	799020ef          	jal	ra,14000 <FN_WriteStr>
   1106c:	00005517          	auipc	a0,0x5
   11070:	94650513          	addi	a0,a0,-1722 # 159b2 <end_signature+0x8d2>
   11074:	78d020ef          	jal	ra,14000 <FN_WriteStr>
   11078:	06400193          	li	gp,100
   1107c:	0000100f          	fence.i
   11080:	00018063          	beqz	gp,11080 <reset_vector+0x1034>
   11084:	00119193          	slli	gp,gp,0x1
   11088:	0011e193          	ori	gp,gp,1
   1108c:	00000073          	ecall
   11090:	00000293          	li	t0,0
   11094:	085b0e63          	beq	s6,t0,11130 <reset_vector+0x10e4>
   11098:	00005517          	auipc	a0,0x5
   1109c:	91c50513          	addi	a0,a0,-1764 # 159b4 <end_signature+0x8d4>
   110a0:	761020ef          	jal	ra,14000 <FN_WriteStr>
   110a4:	00005517          	auipc	a0,0x5
   110a8:	92b50513          	addi	a0,a0,-1749 # 159cf <end_signature+0x8ef>
   110ac:	755020ef          	jal	ra,14000 <FN_WriteStr>
   110b0:	00005517          	auipc	a0,0x5
   110b4:	92e50513          	addi	a0,a0,-1746 # 159de <end_signature+0x8fe>
   110b8:	749020ef          	jal	ra,14000 <FN_WriteStr>
   110bc:	00005517          	auipc	a0,0x5
   110c0:	92a50513          	addi	a0,a0,-1750 # 159e6 <end_signature+0x906>
   110c4:	73d020ef          	jal	ra,14000 <FN_WriteStr>
   110c8:	00005517          	auipc	a0,0x5
   110cc:	92250513          	addi	a0,a0,-1758 # 159ea <end_signature+0x90a>
   110d0:	731020ef          	jal	ra,14000 <FN_WriteStr>
   110d4:	00005517          	auipc	a0,0x5
   110d8:	91950513          	addi	a0,a0,-1767 # 159ed <end_signature+0x90d>
   110dc:	725020ef          	jal	ra,14000 <FN_WriteStr>
   110e0:	00005517          	auipc	a0,0x5
   110e4:	91150513          	addi	a0,a0,-1775 # 159f1 <end_signature+0x911>
   110e8:	719020ef          	jal	ra,14000 <FN_WriteStr>
   110ec:	000b0513          	mv	a0,s6
   110f0:	72d020ef          	jal	ra,1401c <FN_WriteA0>
   110f4:	00005517          	auipc	a0,0x5
   110f8:	8ff50513          	addi	a0,a0,-1793 # 159f3 <end_signature+0x913>
   110fc:	705020ef          	jal	ra,14000 <FN_WriteStr>
   11100:	00005517          	auipc	a0,0x5
   11104:	8f950513          	addi	a0,a0,-1799 # 159f9 <end_signature+0x919>
   11108:	6f9020ef          	jal	ra,14000 <FN_WriteStr>
   1110c:	00005517          	auipc	a0,0x5
   11110:	8f850513          	addi	a0,a0,-1800 # 15a04 <end_signature+0x924>
   11114:	6ed020ef          	jal	ra,14000 <FN_WriteStr>
   11118:	06400193          	li	gp,100
   1111c:	0000100f          	fence.i
   11120:	00018063          	beqz	gp,11120 <reset_vector+0x10d4>
   11124:	00119193          	slli	gp,gp,0x1
   11128:	0011e193          	ori	gp,gp,1
   1112c:	00000073          	ecall
   11130:	00000293          	li	t0,0
   11134:	085b8e63          	beq	s7,t0,111d0 <reset_vector+0x1184>
   11138:	00005517          	auipc	a0,0x5
   1113c:	8ce50513          	addi	a0,a0,-1842 # 15a06 <end_signature+0x926>
   11140:	6c1020ef          	jal	ra,14000 <FN_WriteStr>
   11144:	00005517          	auipc	a0,0x5
   11148:	8dd50513          	addi	a0,a0,-1827 # 15a21 <end_signature+0x941>
   1114c:	6b5020ef          	jal	ra,14000 <FN_WriteStr>
   11150:	00005517          	auipc	a0,0x5
   11154:	8e050513          	addi	a0,a0,-1824 # 15a30 <end_signature+0x950>
   11158:	6a9020ef          	jal	ra,14000 <FN_WriteStr>
   1115c:	00005517          	auipc	a0,0x5
   11160:	8dc50513          	addi	a0,a0,-1828 # 15a38 <end_signature+0x958>
   11164:	69d020ef          	jal	ra,14000 <FN_WriteStr>
   11168:	00005517          	auipc	a0,0x5
   1116c:	8d450513          	addi	a0,a0,-1836 # 15a3c <end_signature+0x95c>
   11170:	691020ef          	jal	ra,14000 <FN_WriteStr>
   11174:	00005517          	auipc	a0,0x5
   11178:	8cb50513          	addi	a0,a0,-1845 # 15a3f <end_signature+0x95f>
   1117c:	685020ef          	jal	ra,14000 <FN_WriteStr>
   11180:	00005517          	auipc	a0,0x5
   11184:	8c350513          	addi	a0,a0,-1853 # 15a43 <end_signature+0x963>
   11188:	679020ef          	jal	ra,14000 <FN_WriteStr>
   1118c:	000b8513          	mv	a0,s7
   11190:	68d020ef          	jal	ra,1401c <FN_WriteA0>
   11194:	00005517          	auipc	a0,0x5
   11198:	8b150513          	addi	a0,a0,-1871 # 15a45 <end_signature+0x965>
   1119c:	665020ef          	jal	ra,14000 <FN_WriteStr>
   111a0:	00005517          	auipc	a0,0x5
   111a4:	8ab50513          	addi	a0,a0,-1877 # 15a4b <end_signature+0x96b>
   111a8:	659020ef          	jal	ra,14000 <FN_WriteStr>
   111ac:	00005517          	auipc	a0,0x5
   111b0:	8aa50513          	addi	a0,a0,-1878 # 15a56 <end_signature+0x976>
   111b4:	64d020ef          	jal	ra,14000 <FN_WriteStr>
   111b8:	06400193          	li	gp,100
   111bc:	0000100f          	fence.i
   111c0:	00018063          	beqz	gp,111c0 <reset_vector+0x1174>
   111c4:	00119193          	slli	gp,gp,0x1
   111c8:	0011e193          	ori	gp,gp,1
   111cc:	00000073          	ecall
   111d0:	00005517          	auipc	a0,0x5
   111d4:	88850513          	addi	a0,a0,-1912 # 15a58 <end_signature+0x978>
   111d8:	629020ef          	jal	ra,14000 <FN_WriteStr>
   111dc:	00005517          	auipc	a0,0x5
   111e0:	89850513          	addi	a0,a0,-1896 # 15a74 <end_signature+0x994>
   111e4:	61d020ef          	jal	ra,14000 <FN_WriteStr>
   111e8:	00004097          	auipc	ra,0x4
   111ec:	e2808093          	addi	ra,ra,-472 # 15010 <test_A5_data>
   111f0:	00004117          	auipc	sp,0x4
   111f4:	e9010113          	addi	sp,sp,-368 # 15080 <test_A5_res>
   111f8:	0000ab83          	lw	s7,0(ra)
   111fc:	00100c13          	li	s8,1
   11200:	80000cb7          	lui	s9,0x80000
   11204:	fffc8c93          	addi	s9,s9,-1 # 7fffffff <_end+0x7ffe9d2e>
   11208:	fff00d13          	li	s10,-1
   1120c:	00000d93          	li	s11,0
   11210:	80000e37          	lui	t3,0x80000
   11214:	018bac33          	slt	s8,s7,s8
   11218:	019bacb3          	slt	s9,s7,s9
   1121c:	01abad33          	slt	s10,s7,s10
   11220:	01bbadb3          	slt	s11,s7,s11
   11224:	01cbae33          	slt	t3,s7,t3
   11228:	01712023          	sw	s7,0(sp)
   1122c:	01812223          	sw	s8,4(sp)
   11230:	01912423          	sw	s9,8(sp)
   11234:	01a12623          	sw	s10,12(sp)
   11238:	01b12823          	sw	s11,16(sp)
   1123c:	01c12a23          	sw	t3,20(sp)
   11240:	800002b7          	lui	t0,0x80000
   11244:	085b8e63          	beq	s7,t0,112e0 <reset_vector+0x1294>
   11248:	00005517          	auipc	a0,0x5
   1124c:	88750513          	addi	a0,a0,-1913 # 15acf <end_signature+0x9ef>
   11250:	5b1020ef          	jal	ra,14000 <FN_WriteStr>
   11254:	00005517          	auipc	a0,0x5
   11258:	89650513          	addi	a0,a0,-1898 # 15aea <end_signature+0xa0a>
   1125c:	5a5020ef          	jal	ra,14000 <FN_WriteStr>
   11260:	00005517          	auipc	a0,0x5
   11264:	89950513          	addi	a0,a0,-1895 # 15af9 <end_signature+0xa19>
   11268:	599020ef          	jal	ra,14000 <FN_WriteStr>
   1126c:	00005517          	auipc	a0,0x5
   11270:	89550513          	addi	a0,a0,-1899 # 15b01 <end_signature+0xa21>
   11274:	58d020ef          	jal	ra,14000 <FN_WriteStr>
   11278:	00005517          	auipc	a0,0x5
   1127c:	88d50513          	addi	a0,a0,-1907 # 15b05 <end_signature+0xa25>
   11280:	581020ef          	jal	ra,14000 <FN_WriteStr>
   11284:	00005517          	auipc	a0,0x5
   11288:	88450513          	addi	a0,a0,-1916 # 15b08 <end_signature+0xa28>
   1128c:	575020ef          	jal	ra,14000 <FN_WriteStr>
   11290:	00005517          	auipc	a0,0x5
   11294:	87c50513          	addi	a0,a0,-1924 # 15b0c <end_signature+0xa2c>
   11298:	569020ef          	jal	ra,14000 <FN_WriteStr>
   1129c:	000b8513          	mv	a0,s7
   112a0:	57d020ef          	jal	ra,1401c <FN_WriteA0>
   112a4:	00005517          	auipc	a0,0x5
   112a8:	86a50513          	addi	a0,a0,-1942 # 15b0e <end_signature+0xa2e>
   112ac:	555020ef          	jal	ra,14000 <FN_WriteStr>
   112b0:	00005517          	auipc	a0,0x5
   112b4:	86450513          	addi	a0,a0,-1948 # 15b14 <end_signature+0xa34>
   112b8:	549020ef          	jal	ra,14000 <FN_WriteStr>
   112bc:	00005517          	auipc	a0,0x5
   112c0:	86350513          	addi	a0,a0,-1949 # 15b1f <end_signature+0xa3f>
   112c4:	53d020ef          	jal	ra,14000 <FN_WriteStr>
   112c8:	06400193          	li	gp,100
   112cc:	0000100f          	fence.i
   112d0:	00018063          	beqz	gp,112d0 <reset_vector+0x1284>
   112d4:	00119193          	slli	gp,gp,0x1
   112d8:	0011e193          	ori	gp,gp,1
   112dc:	00000073          	ecall
   112e0:	00100293          	li	t0,1
   112e4:	085c0e63          	beq	s8,t0,11380 <reset_vector+0x1334>
   112e8:	00005517          	auipc	a0,0x5
   112ec:	83950513          	addi	a0,a0,-1991 # 15b21 <end_signature+0xa41>
   112f0:	511020ef          	jal	ra,14000 <FN_WriteStr>
   112f4:	00005517          	auipc	a0,0x5
   112f8:	84850513          	addi	a0,a0,-1976 # 15b3c <end_signature+0xa5c>
   112fc:	505020ef          	jal	ra,14000 <FN_WriteStr>
   11300:	00005517          	auipc	a0,0x5
   11304:	84b50513          	addi	a0,a0,-1973 # 15b4b <end_signature+0xa6b>
   11308:	4f9020ef          	jal	ra,14000 <FN_WriteStr>
   1130c:	00005517          	auipc	a0,0x5
   11310:	84750513          	addi	a0,a0,-1977 # 15b53 <end_signature+0xa73>
   11314:	4ed020ef          	jal	ra,14000 <FN_WriteStr>
   11318:	00005517          	auipc	a0,0x5
   1131c:	83f50513          	addi	a0,a0,-1985 # 15b57 <end_signature+0xa77>
   11320:	4e1020ef          	jal	ra,14000 <FN_WriteStr>
   11324:	00005517          	auipc	a0,0x5
   11328:	83650513          	addi	a0,a0,-1994 # 15b5a <end_signature+0xa7a>
   1132c:	4d5020ef          	jal	ra,14000 <FN_WriteStr>
   11330:	00005517          	auipc	a0,0x5
   11334:	82e50513          	addi	a0,a0,-2002 # 15b5e <end_signature+0xa7e>
   11338:	4c9020ef          	jal	ra,14000 <FN_WriteStr>
   1133c:	000c0513          	mv	a0,s8
   11340:	4dd020ef          	jal	ra,1401c <FN_WriteA0>
   11344:	00005517          	auipc	a0,0x5
   11348:	81c50513          	addi	a0,a0,-2020 # 15b60 <end_signature+0xa80>
   1134c:	4b5020ef          	jal	ra,14000 <FN_WriteStr>
   11350:	00005517          	auipc	a0,0x5
   11354:	81650513          	addi	a0,a0,-2026 # 15b66 <end_signature+0xa86>
   11358:	4a9020ef          	jal	ra,14000 <FN_WriteStr>
   1135c:	00005517          	auipc	a0,0x5
   11360:	81550513          	addi	a0,a0,-2027 # 15b71 <end_signature+0xa91>
   11364:	49d020ef          	jal	ra,14000 <FN_WriteStr>
   11368:	06400193          	li	gp,100
   1136c:	0000100f          	fence.i
   11370:	00018063          	beqz	gp,11370 <reset_vector+0x1324>
   11374:	00119193          	slli	gp,gp,0x1
   11378:	0011e193          	ori	gp,gp,1
   1137c:	00000073          	ecall
   11380:	00100293          	li	t0,1
   11384:	085c8e63          	beq	s9,t0,11420 <reset_vector+0x13d4>
   11388:	00004517          	auipc	a0,0x4
   1138c:	7eb50513          	addi	a0,a0,2027 # 15b73 <end_signature+0xa93>
   11390:	471020ef          	jal	ra,14000 <FN_WriteStr>
   11394:	00004517          	auipc	a0,0x4
   11398:	7fa50513          	addi	a0,a0,2042 # 15b8e <end_signature+0xaae>
   1139c:	465020ef          	jal	ra,14000 <FN_WriteStr>
   113a0:	00004517          	auipc	a0,0x4
   113a4:	7fd50513          	addi	a0,a0,2045 # 15b9d <end_signature+0xabd>
   113a8:	459020ef          	jal	ra,14000 <FN_WriteStr>
   113ac:	00004517          	auipc	a0,0x4
   113b0:	7f950513          	addi	a0,a0,2041 # 15ba5 <end_signature+0xac5>
   113b4:	44d020ef          	jal	ra,14000 <FN_WriteStr>
   113b8:	00004517          	auipc	a0,0x4
   113bc:	7f150513          	addi	a0,a0,2033 # 15ba9 <end_signature+0xac9>
   113c0:	441020ef          	jal	ra,14000 <FN_WriteStr>
   113c4:	00004517          	auipc	a0,0x4
   113c8:	7e850513          	addi	a0,a0,2024 # 15bac <end_signature+0xacc>
   113cc:	435020ef          	jal	ra,14000 <FN_WriteStr>
   113d0:	00004517          	auipc	a0,0x4
   113d4:	7e050513          	addi	a0,a0,2016 # 15bb0 <end_signature+0xad0>
   113d8:	429020ef          	jal	ra,14000 <FN_WriteStr>
   113dc:	000c8513          	mv	a0,s9
   113e0:	43d020ef          	jal	ra,1401c <FN_WriteA0>
   113e4:	00004517          	auipc	a0,0x4
   113e8:	7ce50513          	addi	a0,a0,1998 # 15bb2 <end_signature+0xad2>
   113ec:	415020ef          	jal	ra,14000 <FN_WriteStr>
   113f0:	00004517          	auipc	a0,0x4
   113f4:	7c850513          	addi	a0,a0,1992 # 15bb8 <end_signature+0xad8>
   113f8:	409020ef          	jal	ra,14000 <FN_WriteStr>
   113fc:	00004517          	auipc	a0,0x4
   11400:	7c750513          	addi	a0,a0,1991 # 15bc3 <end_signature+0xae3>
   11404:	3fd020ef          	jal	ra,14000 <FN_WriteStr>
   11408:	06400193          	li	gp,100
   1140c:	0000100f          	fence.i
   11410:	00018063          	beqz	gp,11410 <reset_vector+0x13c4>
   11414:	00119193          	slli	gp,gp,0x1
   11418:	0011e193          	ori	gp,gp,1
   1141c:	00000073          	ecall
   11420:	00100293          	li	t0,1
   11424:	085d0e63          	beq	s10,t0,114c0 <reset_vector+0x1474>
   11428:	00004517          	auipc	a0,0x4
   1142c:	79d50513          	addi	a0,a0,1949 # 15bc5 <end_signature+0xae5>
   11430:	3d1020ef          	jal	ra,14000 <FN_WriteStr>
   11434:	00004517          	auipc	a0,0x4
   11438:	7ac50513          	addi	a0,a0,1964 # 15be0 <end_signature+0xb00>
   1143c:	3c5020ef          	jal	ra,14000 <FN_WriteStr>
   11440:	00004517          	auipc	a0,0x4
   11444:	7af50513          	addi	a0,a0,1967 # 15bef <end_signature+0xb0f>
   11448:	3b9020ef          	jal	ra,14000 <FN_WriteStr>
   1144c:	00004517          	auipc	a0,0x4
   11450:	7ab50513          	addi	a0,a0,1963 # 15bf7 <end_signature+0xb17>
   11454:	3ad020ef          	jal	ra,14000 <FN_WriteStr>
   11458:	00004517          	auipc	a0,0x4
   1145c:	7a350513          	addi	a0,a0,1955 # 15bfb <end_signature+0xb1b>
   11460:	3a1020ef          	jal	ra,14000 <FN_WriteStr>
   11464:	00004517          	auipc	a0,0x4
   11468:	79a50513          	addi	a0,a0,1946 # 15bfe <end_signature+0xb1e>
   1146c:	395020ef          	jal	ra,14000 <FN_WriteStr>
   11470:	00004517          	auipc	a0,0x4
   11474:	79250513          	addi	a0,a0,1938 # 15c02 <end_signature+0xb22>
   11478:	389020ef          	jal	ra,14000 <FN_WriteStr>
   1147c:	000d0513          	mv	a0,s10
   11480:	39d020ef          	jal	ra,1401c <FN_WriteA0>
   11484:	00004517          	auipc	a0,0x4
   11488:	78050513          	addi	a0,a0,1920 # 15c04 <end_signature+0xb24>
   1148c:	375020ef          	jal	ra,14000 <FN_WriteStr>
   11490:	00004517          	auipc	a0,0x4
   11494:	77a50513          	addi	a0,a0,1914 # 15c0a <end_signature+0xb2a>
   11498:	369020ef          	jal	ra,14000 <FN_WriteStr>
   1149c:	00004517          	auipc	a0,0x4
   114a0:	77950513          	addi	a0,a0,1913 # 15c15 <end_signature+0xb35>
   114a4:	35d020ef          	jal	ra,14000 <FN_WriteStr>
   114a8:	06400193          	li	gp,100
   114ac:	0000100f          	fence.i
   114b0:	00018063          	beqz	gp,114b0 <reset_vector+0x1464>
   114b4:	00119193          	slli	gp,gp,0x1
   114b8:	0011e193          	ori	gp,gp,1
   114bc:	00000073          	ecall
   114c0:	00100293          	li	t0,1
   114c4:	085d8e63          	beq	s11,t0,11560 <reset_vector+0x1514>
   114c8:	00004517          	auipc	a0,0x4
   114cc:	74f50513          	addi	a0,a0,1871 # 15c17 <end_signature+0xb37>
   114d0:	331020ef          	jal	ra,14000 <FN_WriteStr>
   114d4:	00004517          	auipc	a0,0x4
   114d8:	75e50513          	addi	a0,a0,1886 # 15c32 <end_signature+0xb52>
   114dc:	325020ef          	jal	ra,14000 <FN_WriteStr>
   114e0:	00004517          	auipc	a0,0x4
   114e4:	76150513          	addi	a0,a0,1889 # 15c41 <end_signature+0xb61>
   114e8:	319020ef          	jal	ra,14000 <FN_WriteStr>
   114ec:	00004517          	auipc	a0,0x4
   114f0:	75d50513          	addi	a0,a0,1885 # 15c49 <end_signature+0xb69>
   114f4:	30d020ef          	jal	ra,14000 <FN_WriteStr>
   114f8:	00004517          	auipc	a0,0x4
   114fc:	75550513          	addi	a0,a0,1877 # 15c4d <end_signature+0xb6d>
   11500:	301020ef          	jal	ra,14000 <FN_WriteStr>
   11504:	00004517          	auipc	a0,0x4
   11508:	74c50513          	addi	a0,a0,1868 # 15c50 <end_signature+0xb70>
   1150c:	2f5020ef          	jal	ra,14000 <FN_WriteStr>
   11510:	00004517          	auipc	a0,0x4
   11514:	74450513          	addi	a0,a0,1860 # 15c54 <end_signature+0xb74>
   11518:	2e9020ef          	jal	ra,14000 <FN_WriteStr>
   1151c:	000d8513          	mv	a0,s11
   11520:	2fd020ef          	jal	ra,1401c <FN_WriteA0>
   11524:	00004517          	auipc	a0,0x4
   11528:	73250513          	addi	a0,a0,1842 # 15c56 <end_signature+0xb76>
   1152c:	2d5020ef          	jal	ra,14000 <FN_WriteStr>
   11530:	00004517          	auipc	a0,0x4
   11534:	72c50513          	addi	a0,a0,1836 # 15c5c <end_signature+0xb7c>
   11538:	2c9020ef          	jal	ra,14000 <FN_WriteStr>
   1153c:	00004517          	auipc	a0,0x4
   11540:	72b50513          	addi	a0,a0,1835 # 15c67 <end_signature+0xb87>
   11544:	2bd020ef          	jal	ra,14000 <FN_WriteStr>
   11548:	06400193          	li	gp,100
   1154c:	0000100f          	fence.i
   11550:	00018063          	beqz	gp,11550 <reset_vector+0x1504>
   11554:	00119193          	slli	gp,gp,0x1
   11558:	0011e193          	ori	gp,gp,1
   1155c:	00000073          	ecall
   11560:	00000293          	li	t0,0
   11564:	085e0e63          	beq	t3,t0,11600 <reset_vector+0x15b4>
   11568:	00004517          	auipc	a0,0x4
   1156c:	70150513          	addi	a0,a0,1793 # 15c69 <end_signature+0xb89>
   11570:	291020ef          	jal	ra,14000 <FN_WriteStr>
   11574:	00004517          	auipc	a0,0x4
   11578:	71050513          	addi	a0,a0,1808 # 15c84 <end_signature+0xba4>
   1157c:	285020ef          	jal	ra,14000 <FN_WriteStr>
   11580:	00004517          	auipc	a0,0x4
   11584:	71350513          	addi	a0,a0,1811 # 15c93 <end_signature+0xbb3>
   11588:	279020ef          	jal	ra,14000 <FN_WriteStr>
   1158c:	00004517          	auipc	a0,0x4
   11590:	70f50513          	addi	a0,a0,1807 # 15c9b <end_signature+0xbbb>
   11594:	26d020ef          	jal	ra,14000 <FN_WriteStr>
   11598:	00004517          	auipc	a0,0x4
   1159c:	70750513          	addi	a0,a0,1799 # 15c9f <end_signature+0xbbf>
   115a0:	261020ef          	jal	ra,14000 <FN_WriteStr>
   115a4:	00004517          	auipc	a0,0x4
   115a8:	6fe50513          	addi	a0,a0,1790 # 15ca2 <end_signature+0xbc2>
   115ac:	255020ef          	jal	ra,14000 <FN_WriteStr>
   115b0:	00004517          	auipc	a0,0x4
   115b4:	6f650513          	addi	a0,a0,1782 # 15ca6 <end_signature+0xbc6>
   115b8:	249020ef          	jal	ra,14000 <FN_WriteStr>
   115bc:	000e0513          	mv	a0,t3
   115c0:	25d020ef          	jal	ra,1401c <FN_WriteA0>
   115c4:	00004517          	auipc	a0,0x4
   115c8:	6e450513          	addi	a0,a0,1764 # 15ca8 <end_signature+0xbc8>
   115cc:	235020ef          	jal	ra,14000 <FN_WriteStr>
   115d0:	00004517          	auipc	a0,0x4
   115d4:	6de50513          	addi	a0,a0,1758 # 15cae <end_signature+0xbce>
   115d8:	229020ef          	jal	ra,14000 <FN_WriteStr>
   115dc:	00004517          	auipc	a0,0x4
   115e0:	6dd50513          	addi	a0,a0,1757 # 15cb9 <end_signature+0xbd9>
   115e4:	21d020ef          	jal	ra,14000 <FN_WriteStr>
   115e8:	06400193          	li	gp,100
   115ec:	0000100f          	fence.i
   115f0:	00018063          	beqz	gp,115f0 <reset_vector+0x15a4>
   115f4:	00119193          	slli	gp,gp,0x1
   115f8:	0011e193          	ori	gp,gp,1
   115fc:	00000073          	ecall
   11600:	00004517          	auipc	a0,0x4
   11604:	6bb50513          	addi	a0,a0,1723 # 15cbb <end_signature+0xbdb>
   11608:	1f9020ef          	jal	ra,14000 <FN_WriteStr>
   1160c:	00004517          	auipc	a0,0x4
   11610:	6cb50513          	addi	a0,a0,1739 # 15cd7 <end_signature+0xbf7>
   11614:	1ed020ef          	jal	ra,14000 <FN_WriteStr>
   11618:	00004d17          	auipc	s10,0x4
   1161c:	9fcd0d13          	addi	s10,s10,-1540 # 15014 <test_B_data>
   11620:	00004d97          	auipc	s11,0x4
   11624:	a78d8d93          	addi	s11,s11,-1416 # 15098 <test_B_res>
   11628:	000d2083          	lw	ra,0(s10)
   1162c:	00100113          	li	sp,1
   11630:	0020a033          	slt	zero,ra,sp
   11634:	000da023          	sw	zero,0(s11)
   11638:	001da223          	sw	ra,4(s11)
   1163c:	002da423          	sw	sp,8(s11)
   11640:	00000293          	li	t0,0
   11644:	08500e63          	beq	zero,t0,116e0 <reset_vector+0x1694>
   11648:	00004517          	auipc	a0,0x4
   1164c:	6b650513          	addi	a0,a0,1718 # 15cfe <end_signature+0xc1e>
   11650:	1b1020ef          	jal	ra,14000 <FN_WriteStr>
   11654:	00004517          	auipc	a0,0x4
   11658:	6c550513          	addi	a0,a0,1733 # 15d19 <end_signature+0xc39>
   1165c:	1a5020ef          	jal	ra,14000 <FN_WriteStr>
   11660:	00004517          	auipc	a0,0x4
   11664:	6c850513          	addi	a0,a0,1736 # 15d28 <end_signature+0xc48>
   11668:	199020ef          	jal	ra,14000 <FN_WriteStr>
   1166c:	00004517          	auipc	a0,0x4
   11670:	6c450513          	addi	a0,a0,1732 # 15d30 <end_signature+0xc50>
   11674:	18d020ef          	jal	ra,14000 <FN_WriteStr>
   11678:	00004517          	auipc	a0,0x4
   1167c:	6bc50513          	addi	a0,a0,1724 # 15d34 <end_signature+0xc54>
   11680:	181020ef          	jal	ra,14000 <FN_WriteStr>
   11684:	00004517          	auipc	a0,0x4
   11688:	6b350513          	addi	a0,a0,1715 # 15d37 <end_signature+0xc57>
   1168c:	175020ef          	jal	ra,14000 <FN_WriteStr>
   11690:	00004517          	auipc	a0,0x4
   11694:	6aa50513          	addi	a0,a0,1706 # 15d3a <end_signature+0xc5a>
   11698:	169020ef          	jal	ra,14000 <FN_WriteStr>
   1169c:	00000513          	li	a0,0
   116a0:	17d020ef          	jal	ra,1401c <FN_WriteA0>
   116a4:	00004517          	auipc	a0,0x4
   116a8:	69850513          	addi	a0,a0,1688 # 15d3c <end_signature+0xc5c>
   116ac:	155020ef          	jal	ra,14000 <FN_WriteStr>
   116b0:	00004517          	auipc	a0,0x4
   116b4:	69250513          	addi	a0,a0,1682 # 15d42 <end_signature+0xc62>
   116b8:	149020ef          	jal	ra,14000 <FN_WriteStr>
   116bc:	00004517          	auipc	a0,0x4
   116c0:	69150513          	addi	a0,a0,1681 # 15d4d <end_signature+0xc6d>
   116c4:	13d020ef          	jal	ra,14000 <FN_WriteStr>
   116c8:	06400193          	li	gp,100
   116cc:	0000100f          	fence.i
   116d0:	00018063          	beqz	gp,116d0 <reset_vector+0x1684>
   116d4:	00119193          	slli	gp,gp,0x1
   116d8:	0011e193          	ori	gp,gp,1
   116dc:	00000073          	ecall
   116e0:	00100293          	li	t0,1
   116e4:	08510e63          	beq	sp,t0,11780 <reset_vector+0x1734>
   116e8:	00004517          	auipc	a0,0x4
   116ec:	66750513          	addi	a0,a0,1639 # 15d4f <end_signature+0xc6f>
   116f0:	111020ef          	jal	ra,14000 <FN_WriteStr>
   116f4:	00004517          	auipc	a0,0x4
   116f8:	67650513          	addi	a0,a0,1654 # 15d6a <end_signature+0xc8a>
   116fc:	105020ef          	jal	ra,14000 <FN_WriteStr>
   11700:	00004517          	auipc	a0,0x4
   11704:	67950513          	addi	a0,a0,1657 # 15d79 <end_signature+0xc99>
   11708:	0f9020ef          	jal	ra,14000 <FN_WriteStr>
   1170c:	00004517          	auipc	a0,0x4
   11710:	67550513          	addi	a0,a0,1653 # 15d81 <end_signature+0xca1>
   11714:	0ed020ef          	jal	ra,14000 <FN_WriteStr>
   11718:	00004517          	auipc	a0,0x4
   1171c:	66d50513          	addi	a0,a0,1645 # 15d85 <end_signature+0xca5>
   11720:	0e1020ef          	jal	ra,14000 <FN_WriteStr>
   11724:	00004517          	auipc	a0,0x4
   11728:	66450513          	addi	a0,a0,1636 # 15d88 <end_signature+0xca8>
   1172c:	0d5020ef          	jal	ra,14000 <FN_WriteStr>
   11730:	00004517          	auipc	a0,0x4
   11734:	65b50513          	addi	a0,a0,1627 # 15d8b <end_signature+0xcab>
   11738:	0c9020ef          	jal	ra,14000 <FN_WriteStr>
   1173c:	00010513          	mv	a0,sp
   11740:	0dd020ef          	jal	ra,1401c <FN_WriteA0>
   11744:	00004517          	auipc	a0,0x4
   11748:	64950513          	addi	a0,a0,1609 # 15d8d <end_signature+0xcad>
   1174c:	0b5020ef          	jal	ra,14000 <FN_WriteStr>
   11750:	00004517          	auipc	a0,0x4
   11754:	64350513          	addi	a0,a0,1603 # 15d93 <end_signature+0xcb3>
   11758:	0a9020ef          	jal	ra,14000 <FN_WriteStr>
   1175c:	00004517          	auipc	a0,0x4
   11760:	64250513          	addi	a0,a0,1602 # 15d9e <end_signature+0xcbe>
   11764:	09d020ef          	jal	ra,14000 <FN_WriteStr>
   11768:	06400193          	li	gp,100
   1176c:	0000100f          	fence.i
   11770:	00018063          	beqz	gp,11770 <reset_vector+0x1724>
   11774:	00119193          	slli	gp,gp,0x1
   11778:	0011e193          	ori	gp,gp,1
   1177c:	00000073          	ecall
   11780:	00004517          	auipc	a0,0x4
   11784:	62050513          	addi	a0,a0,1568 # 15da0 <end_signature+0xcc0>
   11788:	079020ef          	jal	ra,14000 <FN_WriteStr>
   1178c:	00004517          	auipc	a0,0x4
   11790:	62f50513          	addi	a0,a0,1583 # 15dbb <end_signature+0xcdb>
   11794:	06d020ef          	jal	ra,14000 <FN_WriteStr>
   11798:	00004f97          	auipc	t6,0x4
   1179c:	90cf8f93          	addi	t6,t6,-1780 # 150a4 <test_C_res>
   117a0:	00100093          	li	ra,1
   117a4:	7ff00113          	li	sp,2047
   117a8:	fff00193          	li	gp,-1
   117ac:	00000213          	li	tp,0
   117b0:	80000293          	li	t0,-2048
   117b4:	00102333          	sgtz	t1,ra
   117b8:	002023b3          	sgtz	t2,sp
   117bc:	00302433          	sgtz	s0,gp
   117c0:	004024b3          	sgtz	s1,tp
   117c4:	00502533          	sgtz	a0,t0
   117c8:	0000a5b3          	sltz	a1,ra
   117cc:	00012633          	sltz	a2,sp
   117d0:	0001a6b3          	sltz	a3,gp
   117d4:	00022733          	sltz	a4,tp
   117d8:	0002a7b3          	sltz	a5,t0
   117dc:	006fa023          	sw	t1,0(t6)
   117e0:	007fa223          	sw	t2,4(t6)
   117e4:	008fa423          	sw	s0,8(t6)
   117e8:	009fa623          	sw	s1,12(t6)
   117ec:	00afa823          	sw	a0,16(t6)
   117f0:	00bfaa23          	sw	a1,20(t6)
   117f4:	00cfac23          	sw	a2,24(t6)
   117f8:	00dfae23          	sw	a3,28(t6)
   117fc:	02efa023          	sw	a4,32(t6)
   11800:	02ffa223          	sw	a5,36(t6)
   11804:	00100293          	li	t0,1
   11808:	08530e63          	beq	t1,t0,118a4 <reset_vector+0x1858>
   1180c:	00004517          	auipc	a0,0x4
   11810:	5d350513          	addi	a0,a0,1491 # 15ddf <end_signature+0xcff>
   11814:	7ec020ef          	jal	ra,14000 <FN_WriteStr>
   11818:	00004517          	auipc	a0,0x4
   1181c:	5e250513          	addi	a0,a0,1506 # 15dfa <end_signature+0xd1a>
   11820:	7e0020ef          	jal	ra,14000 <FN_WriteStr>
   11824:	00004517          	auipc	a0,0x4
   11828:	5e550513          	addi	a0,a0,1509 # 15e09 <end_signature+0xd29>
   1182c:	7d4020ef          	jal	ra,14000 <FN_WriteStr>
   11830:	00004517          	auipc	a0,0x4
   11834:	5e150513          	addi	a0,a0,1505 # 15e11 <end_signature+0xd31>
   11838:	7c8020ef          	jal	ra,14000 <FN_WriteStr>
   1183c:	00004517          	auipc	a0,0x4
   11840:	5d950513          	addi	a0,a0,1497 # 15e15 <end_signature+0xd35>
   11844:	7bc020ef          	jal	ra,14000 <FN_WriteStr>
   11848:	00004517          	auipc	a0,0x4
   1184c:	5d050513          	addi	a0,a0,1488 # 15e18 <end_signature+0xd38>
   11850:	7b0020ef          	jal	ra,14000 <FN_WriteStr>
   11854:	00004517          	auipc	a0,0x4
   11858:	5c750513          	addi	a0,a0,1479 # 15e1b <end_signature+0xd3b>
   1185c:	7a4020ef          	jal	ra,14000 <FN_WriteStr>
   11860:	00030513          	mv	a0,t1
   11864:	7b8020ef          	jal	ra,1401c <FN_WriteA0>
   11868:	00004517          	auipc	a0,0x4
   1186c:	5b550513          	addi	a0,a0,1461 # 15e1d <end_signature+0xd3d>
   11870:	790020ef          	jal	ra,14000 <FN_WriteStr>
   11874:	00004517          	auipc	a0,0x4
   11878:	5af50513          	addi	a0,a0,1455 # 15e23 <end_signature+0xd43>
   1187c:	784020ef          	jal	ra,14000 <FN_WriteStr>
   11880:	00004517          	auipc	a0,0x4
   11884:	5ae50513          	addi	a0,a0,1454 # 15e2e <end_signature+0xd4e>
   11888:	778020ef          	jal	ra,14000 <FN_WriteStr>
   1188c:	06400193          	li	gp,100
   11890:	0000100f          	fence.i
   11894:	00018063          	beqz	gp,11894 <reset_vector+0x1848>
   11898:	00119193          	slli	gp,gp,0x1
   1189c:	0011e193          	ori	gp,gp,1
   118a0:	00000073          	ecall
   118a4:	00100293          	li	t0,1
   118a8:	08538e63          	beq	t2,t0,11944 <reset_vector+0x18f8>
   118ac:	00004517          	auipc	a0,0x4
   118b0:	58450513          	addi	a0,a0,1412 # 15e30 <end_signature+0xd50>
   118b4:	74c020ef          	jal	ra,14000 <FN_WriteStr>
   118b8:	00004517          	auipc	a0,0x4
   118bc:	59350513          	addi	a0,a0,1427 # 15e4b <end_signature+0xd6b>
   118c0:	740020ef          	jal	ra,14000 <FN_WriteStr>
   118c4:	00004517          	auipc	a0,0x4
   118c8:	59650513          	addi	a0,a0,1430 # 15e5a <end_signature+0xd7a>
   118cc:	734020ef          	jal	ra,14000 <FN_WriteStr>
   118d0:	00004517          	auipc	a0,0x4
   118d4:	59250513          	addi	a0,a0,1426 # 15e62 <end_signature+0xd82>
   118d8:	728020ef          	jal	ra,14000 <FN_WriteStr>
   118dc:	00004517          	auipc	a0,0x4
   118e0:	58a50513          	addi	a0,a0,1418 # 15e66 <end_signature+0xd86>
   118e4:	71c020ef          	jal	ra,14000 <FN_WriteStr>
   118e8:	00004517          	auipc	a0,0x4
   118ec:	58150513          	addi	a0,a0,1409 # 15e69 <end_signature+0xd89>
   118f0:	710020ef          	jal	ra,14000 <FN_WriteStr>
   118f4:	00004517          	auipc	a0,0x4
   118f8:	57850513          	addi	a0,a0,1400 # 15e6c <end_signature+0xd8c>
   118fc:	704020ef          	jal	ra,14000 <FN_WriteStr>
   11900:	00038513          	mv	a0,t2
   11904:	718020ef          	jal	ra,1401c <FN_WriteA0>
   11908:	00004517          	auipc	a0,0x4
   1190c:	56650513          	addi	a0,a0,1382 # 15e6e <end_signature+0xd8e>
   11910:	6f0020ef          	jal	ra,14000 <FN_WriteStr>
   11914:	00004517          	auipc	a0,0x4
   11918:	56050513          	addi	a0,a0,1376 # 15e74 <end_signature+0xd94>
   1191c:	6e4020ef          	jal	ra,14000 <FN_WriteStr>
   11920:	00004517          	auipc	a0,0x4
   11924:	55f50513          	addi	a0,a0,1375 # 15e7f <end_signature+0xd9f>
   11928:	6d8020ef          	jal	ra,14000 <FN_WriteStr>
   1192c:	06400193          	li	gp,100
   11930:	0000100f          	fence.i
   11934:	00018063          	beqz	gp,11934 <reset_vector+0x18e8>
   11938:	00119193          	slli	gp,gp,0x1
   1193c:	0011e193          	ori	gp,gp,1
   11940:	00000073          	ecall
   11944:	00000293          	li	t0,0
   11948:	08540e63          	beq	s0,t0,119e4 <reset_vector+0x1998>
   1194c:	00004517          	auipc	a0,0x4
   11950:	53550513          	addi	a0,a0,1333 # 15e81 <end_signature+0xda1>
   11954:	6ac020ef          	jal	ra,14000 <FN_WriteStr>
   11958:	00004517          	auipc	a0,0x4
   1195c:	54450513          	addi	a0,a0,1348 # 15e9c <end_signature+0xdbc>
   11960:	6a0020ef          	jal	ra,14000 <FN_WriteStr>
   11964:	00004517          	auipc	a0,0x4
   11968:	54750513          	addi	a0,a0,1351 # 15eab <end_signature+0xdcb>
   1196c:	694020ef          	jal	ra,14000 <FN_WriteStr>
   11970:	00004517          	auipc	a0,0x4
   11974:	54350513          	addi	a0,a0,1347 # 15eb3 <end_signature+0xdd3>
   11978:	688020ef          	jal	ra,14000 <FN_WriteStr>
   1197c:	00004517          	auipc	a0,0x4
   11980:	53b50513          	addi	a0,a0,1339 # 15eb7 <end_signature+0xdd7>
   11984:	67c020ef          	jal	ra,14000 <FN_WriteStr>
   11988:	00004517          	auipc	a0,0x4
   1198c:	53250513          	addi	a0,a0,1330 # 15eba <end_signature+0xdda>
   11990:	670020ef          	jal	ra,14000 <FN_WriteStr>
   11994:	00004517          	auipc	a0,0x4
   11998:	52950513          	addi	a0,a0,1321 # 15ebd <end_signature+0xddd>
   1199c:	664020ef          	jal	ra,14000 <FN_WriteStr>
   119a0:	00040513          	mv	a0,s0
   119a4:	678020ef          	jal	ra,1401c <FN_WriteA0>
   119a8:	00004517          	auipc	a0,0x4
   119ac:	51750513          	addi	a0,a0,1303 # 15ebf <end_signature+0xddf>
   119b0:	650020ef          	jal	ra,14000 <FN_WriteStr>
   119b4:	00004517          	auipc	a0,0x4
   119b8:	51150513          	addi	a0,a0,1297 # 15ec5 <end_signature+0xde5>
   119bc:	644020ef          	jal	ra,14000 <FN_WriteStr>
   119c0:	00004517          	auipc	a0,0x4
   119c4:	51050513          	addi	a0,a0,1296 # 15ed0 <end_signature+0xdf0>
   119c8:	638020ef          	jal	ra,14000 <FN_WriteStr>
   119cc:	06400193          	li	gp,100
   119d0:	0000100f          	fence.i
   119d4:	00018063          	beqz	gp,119d4 <reset_vector+0x1988>
   119d8:	00119193          	slli	gp,gp,0x1
   119dc:	0011e193          	ori	gp,gp,1
   119e0:	00000073          	ecall
   119e4:	00000293          	li	t0,0
   119e8:	08548e63          	beq	s1,t0,11a84 <reset_vector+0x1a38>
   119ec:	00004517          	auipc	a0,0x4
   119f0:	4e650513          	addi	a0,a0,1254 # 15ed2 <end_signature+0xdf2>
   119f4:	60c020ef          	jal	ra,14000 <FN_WriteStr>
   119f8:	00004517          	auipc	a0,0x4
   119fc:	4f550513          	addi	a0,a0,1269 # 15eed <end_signature+0xe0d>
   11a00:	600020ef          	jal	ra,14000 <FN_WriteStr>
   11a04:	00004517          	auipc	a0,0x4
   11a08:	4f850513          	addi	a0,a0,1272 # 15efc <end_signature+0xe1c>
   11a0c:	5f4020ef          	jal	ra,14000 <FN_WriteStr>
   11a10:	00004517          	auipc	a0,0x4
   11a14:	4f450513          	addi	a0,a0,1268 # 15f04 <end_signature+0xe24>
   11a18:	5e8020ef          	jal	ra,14000 <FN_WriteStr>
   11a1c:	00004517          	auipc	a0,0x4
   11a20:	4ec50513          	addi	a0,a0,1260 # 15f08 <end_signature+0xe28>
   11a24:	5dc020ef          	jal	ra,14000 <FN_WriteStr>
   11a28:	00004517          	auipc	a0,0x4
   11a2c:	4e350513          	addi	a0,a0,1251 # 15f0b <end_signature+0xe2b>
   11a30:	5d0020ef          	jal	ra,14000 <FN_WriteStr>
   11a34:	00004517          	auipc	a0,0x4
   11a38:	4da50513          	addi	a0,a0,1242 # 15f0e <end_signature+0xe2e>
   11a3c:	5c4020ef          	jal	ra,14000 <FN_WriteStr>
   11a40:	00048513          	mv	a0,s1
   11a44:	5d8020ef          	jal	ra,1401c <FN_WriteA0>
   11a48:	00004517          	auipc	a0,0x4
   11a4c:	4c850513          	addi	a0,a0,1224 # 15f10 <end_signature+0xe30>
   11a50:	5b0020ef          	jal	ra,14000 <FN_WriteStr>
   11a54:	00004517          	auipc	a0,0x4
   11a58:	4c250513          	addi	a0,a0,1218 # 15f16 <end_signature+0xe36>
   11a5c:	5a4020ef          	jal	ra,14000 <FN_WriteStr>
   11a60:	00004517          	auipc	a0,0x4
   11a64:	4c150513          	addi	a0,a0,1217 # 15f21 <end_signature+0xe41>
   11a68:	598020ef          	jal	ra,14000 <FN_WriteStr>
   11a6c:	06400193          	li	gp,100
   11a70:	0000100f          	fence.i
   11a74:	00018063          	beqz	gp,11a74 <reset_vector+0x1a28>
   11a78:	00119193          	slli	gp,gp,0x1
   11a7c:	0011e193          	ori	gp,gp,1
   11a80:	00000073          	ecall
   11a84:	00000293          	li	t0,0
   11a88:	08550e63          	beq	a0,t0,11b24 <reset_vector+0x1ad8>
   11a8c:	00004517          	auipc	a0,0x4
   11a90:	49750513          	addi	a0,a0,1175 # 15f23 <end_signature+0xe43>
   11a94:	56c020ef          	jal	ra,14000 <FN_WriteStr>
   11a98:	00004517          	auipc	a0,0x4
   11a9c:	4a650513          	addi	a0,a0,1190 # 15f3e <end_signature+0xe5e>
   11aa0:	560020ef          	jal	ra,14000 <FN_WriteStr>
   11aa4:	00004517          	auipc	a0,0x4
   11aa8:	4a950513          	addi	a0,a0,1193 # 15f4d <end_signature+0xe6d>
   11aac:	554020ef          	jal	ra,14000 <FN_WriteStr>
   11ab0:	00004517          	auipc	a0,0x4
   11ab4:	4a550513          	addi	a0,a0,1189 # 15f55 <end_signature+0xe75>
   11ab8:	548020ef          	jal	ra,14000 <FN_WriteStr>
   11abc:	00004517          	auipc	a0,0x4
   11ac0:	49d50513          	addi	a0,a0,1181 # 15f59 <end_signature+0xe79>
   11ac4:	53c020ef          	jal	ra,14000 <FN_WriteStr>
   11ac8:	00004517          	auipc	a0,0x4
   11acc:	49450513          	addi	a0,a0,1172 # 15f5c <end_signature+0xe7c>
   11ad0:	530020ef          	jal	ra,14000 <FN_WriteStr>
   11ad4:	00004517          	auipc	a0,0x4
   11ad8:	48c50513          	addi	a0,a0,1164 # 15f60 <end_signature+0xe80>
   11adc:	524020ef          	jal	ra,14000 <FN_WriteStr>
   11ae0:	00050513          	mv	a0,a0
   11ae4:	538020ef          	jal	ra,1401c <FN_WriteA0>
   11ae8:	00004517          	auipc	a0,0x4
   11aec:	47a50513          	addi	a0,a0,1146 # 15f62 <end_signature+0xe82>
   11af0:	510020ef          	jal	ra,14000 <FN_WriteStr>
   11af4:	00004517          	auipc	a0,0x4
   11af8:	47450513          	addi	a0,a0,1140 # 15f68 <end_signature+0xe88>
   11afc:	504020ef          	jal	ra,14000 <FN_WriteStr>
   11b00:	00004517          	auipc	a0,0x4
   11b04:	47350513          	addi	a0,a0,1139 # 15f73 <end_signature+0xe93>
   11b08:	4f8020ef          	jal	ra,14000 <FN_WriteStr>
   11b0c:	06400193          	li	gp,100
   11b10:	0000100f          	fence.i
   11b14:	00018063          	beqz	gp,11b14 <reset_vector+0x1ac8>
   11b18:	00119193          	slli	gp,gp,0x1
   11b1c:	0011e193          	ori	gp,gp,1
   11b20:	00000073          	ecall
   11b24:	00000293          	li	t0,0
   11b28:	08558e63          	beq	a1,t0,11bc4 <reset_vector+0x1b78>
   11b2c:	00004517          	auipc	a0,0x4
   11b30:	44950513          	addi	a0,a0,1097 # 15f75 <end_signature+0xe95>
   11b34:	4cc020ef          	jal	ra,14000 <FN_WriteStr>
   11b38:	00004517          	auipc	a0,0x4
   11b3c:	45850513          	addi	a0,a0,1112 # 15f90 <end_signature+0xeb0>
   11b40:	4c0020ef          	jal	ra,14000 <FN_WriteStr>
   11b44:	00004517          	auipc	a0,0x4
   11b48:	45b50513          	addi	a0,a0,1115 # 15f9f <end_signature+0xebf>
   11b4c:	4b4020ef          	jal	ra,14000 <FN_WriteStr>
   11b50:	00004517          	auipc	a0,0x4
   11b54:	45750513          	addi	a0,a0,1111 # 15fa7 <end_signature+0xec7>
   11b58:	4a8020ef          	jal	ra,14000 <FN_WriteStr>
   11b5c:	00004517          	auipc	a0,0x4
   11b60:	44f50513          	addi	a0,a0,1103 # 15fab <end_signature+0xecb>
   11b64:	49c020ef          	jal	ra,14000 <FN_WriteStr>
   11b68:	00004517          	auipc	a0,0x4
   11b6c:	44650513          	addi	a0,a0,1094 # 15fae <end_signature+0xece>
   11b70:	490020ef          	jal	ra,14000 <FN_WriteStr>
   11b74:	00004517          	auipc	a0,0x4
   11b78:	43e50513          	addi	a0,a0,1086 # 15fb2 <end_signature+0xed2>
   11b7c:	484020ef          	jal	ra,14000 <FN_WriteStr>
   11b80:	00058513          	mv	a0,a1
   11b84:	498020ef          	jal	ra,1401c <FN_WriteA0>
   11b88:	00004517          	auipc	a0,0x4
   11b8c:	42c50513          	addi	a0,a0,1068 # 15fb4 <end_signature+0xed4>
   11b90:	470020ef          	jal	ra,14000 <FN_WriteStr>
   11b94:	00004517          	auipc	a0,0x4
   11b98:	42650513          	addi	a0,a0,1062 # 15fba <end_signature+0xeda>
   11b9c:	464020ef          	jal	ra,14000 <FN_WriteStr>
   11ba0:	00004517          	auipc	a0,0x4
   11ba4:	42550513          	addi	a0,a0,1061 # 15fc5 <end_signature+0xee5>
   11ba8:	458020ef          	jal	ra,14000 <FN_WriteStr>
   11bac:	06400193          	li	gp,100
   11bb0:	0000100f          	fence.i
   11bb4:	00018063          	beqz	gp,11bb4 <reset_vector+0x1b68>
   11bb8:	00119193          	slli	gp,gp,0x1
   11bbc:	0011e193          	ori	gp,gp,1
   11bc0:	00000073          	ecall
   11bc4:	00000293          	li	t0,0
   11bc8:	08560e63          	beq	a2,t0,11c64 <reset_vector+0x1c18>
   11bcc:	00004517          	auipc	a0,0x4
   11bd0:	3fb50513          	addi	a0,a0,1019 # 15fc7 <end_signature+0xee7>
   11bd4:	42c020ef          	jal	ra,14000 <FN_WriteStr>
   11bd8:	00004517          	auipc	a0,0x4
   11bdc:	40a50513          	addi	a0,a0,1034 # 15fe2 <end_signature+0xf02>
   11be0:	420020ef          	jal	ra,14000 <FN_WriteStr>
   11be4:	00004517          	auipc	a0,0x4
   11be8:	40d50513          	addi	a0,a0,1037 # 15ff1 <end_signature+0xf11>
   11bec:	414020ef          	jal	ra,14000 <FN_WriteStr>
   11bf0:	00004517          	auipc	a0,0x4
   11bf4:	40950513          	addi	a0,a0,1033 # 15ff9 <end_signature+0xf19>
   11bf8:	408020ef          	jal	ra,14000 <FN_WriteStr>
   11bfc:	00004517          	auipc	a0,0x4
   11c00:	40150513          	addi	a0,a0,1025 # 15ffd <end_signature+0xf1d>
   11c04:	3fc020ef          	jal	ra,14000 <FN_WriteStr>
   11c08:	00004517          	auipc	a0,0x4
   11c0c:	3f850513          	addi	a0,a0,1016 # 16000 <end_signature+0xf20>
   11c10:	3f0020ef          	jal	ra,14000 <FN_WriteStr>
   11c14:	00004517          	auipc	a0,0x4
   11c18:	3f050513          	addi	a0,a0,1008 # 16004 <end_signature+0xf24>
   11c1c:	3e4020ef          	jal	ra,14000 <FN_WriteStr>
   11c20:	00060513          	mv	a0,a2
   11c24:	3f8020ef          	jal	ra,1401c <FN_WriteA0>
   11c28:	00004517          	auipc	a0,0x4
   11c2c:	3de50513          	addi	a0,a0,990 # 16006 <end_signature+0xf26>
   11c30:	3d0020ef          	jal	ra,14000 <FN_WriteStr>
   11c34:	00004517          	auipc	a0,0x4
   11c38:	3d850513          	addi	a0,a0,984 # 1600c <end_signature+0xf2c>
   11c3c:	3c4020ef          	jal	ra,14000 <FN_WriteStr>
   11c40:	00004517          	auipc	a0,0x4
   11c44:	3d750513          	addi	a0,a0,983 # 16017 <end_signature+0xf37>
   11c48:	3b8020ef          	jal	ra,14000 <FN_WriteStr>
   11c4c:	06400193          	li	gp,100
   11c50:	0000100f          	fence.i
   11c54:	00018063          	beqz	gp,11c54 <reset_vector+0x1c08>
   11c58:	00119193          	slli	gp,gp,0x1
   11c5c:	0011e193          	ori	gp,gp,1
   11c60:	00000073          	ecall
   11c64:	00100293          	li	t0,1
   11c68:	08568e63          	beq	a3,t0,11d04 <reset_vector+0x1cb8>
   11c6c:	00004517          	auipc	a0,0x4
   11c70:	3ad50513          	addi	a0,a0,941 # 16019 <end_signature+0xf39>
   11c74:	38c020ef          	jal	ra,14000 <FN_WriteStr>
   11c78:	00004517          	auipc	a0,0x4
   11c7c:	3bc50513          	addi	a0,a0,956 # 16034 <end_signature+0xf54>
   11c80:	380020ef          	jal	ra,14000 <FN_WriteStr>
   11c84:	00004517          	auipc	a0,0x4
   11c88:	3bf50513          	addi	a0,a0,959 # 16043 <end_signature+0xf63>
   11c8c:	374020ef          	jal	ra,14000 <FN_WriteStr>
   11c90:	00004517          	auipc	a0,0x4
   11c94:	3bb50513          	addi	a0,a0,955 # 1604b <end_signature+0xf6b>
   11c98:	368020ef          	jal	ra,14000 <FN_WriteStr>
   11c9c:	00004517          	auipc	a0,0x4
   11ca0:	3b350513          	addi	a0,a0,947 # 1604f <end_signature+0xf6f>
   11ca4:	35c020ef          	jal	ra,14000 <FN_WriteStr>
   11ca8:	00004517          	auipc	a0,0x4
   11cac:	3aa50513          	addi	a0,a0,938 # 16052 <end_signature+0xf72>
   11cb0:	350020ef          	jal	ra,14000 <FN_WriteStr>
   11cb4:	00004517          	auipc	a0,0x4
   11cb8:	3a250513          	addi	a0,a0,930 # 16056 <end_signature+0xf76>
   11cbc:	344020ef          	jal	ra,14000 <FN_WriteStr>
   11cc0:	00068513          	mv	a0,a3
   11cc4:	358020ef          	jal	ra,1401c <FN_WriteA0>
   11cc8:	00004517          	auipc	a0,0x4
   11ccc:	39050513          	addi	a0,a0,912 # 16058 <end_signature+0xf78>
   11cd0:	330020ef          	jal	ra,14000 <FN_WriteStr>
   11cd4:	00004517          	auipc	a0,0x4
   11cd8:	38a50513          	addi	a0,a0,906 # 1605e <end_signature+0xf7e>
   11cdc:	324020ef          	jal	ra,14000 <FN_WriteStr>
   11ce0:	00004517          	auipc	a0,0x4
   11ce4:	38950513          	addi	a0,a0,905 # 16069 <end_signature+0xf89>
   11ce8:	318020ef          	jal	ra,14000 <FN_WriteStr>
   11cec:	06400193          	li	gp,100
   11cf0:	0000100f          	fence.i
   11cf4:	00018063          	beqz	gp,11cf4 <reset_vector+0x1ca8>
   11cf8:	00119193          	slli	gp,gp,0x1
   11cfc:	0011e193          	ori	gp,gp,1
   11d00:	00000073          	ecall
   11d04:	00000293          	li	t0,0
   11d08:	08570e63          	beq	a4,t0,11da4 <reset_vector+0x1d58>
   11d0c:	00004517          	auipc	a0,0x4
   11d10:	35f50513          	addi	a0,a0,863 # 1606b <end_signature+0xf8b>
   11d14:	2ec020ef          	jal	ra,14000 <FN_WriteStr>
   11d18:	00004517          	auipc	a0,0x4
   11d1c:	36e50513          	addi	a0,a0,878 # 16086 <end_signature+0xfa6>
   11d20:	2e0020ef          	jal	ra,14000 <FN_WriteStr>
   11d24:	00004517          	auipc	a0,0x4
   11d28:	37150513          	addi	a0,a0,881 # 16095 <end_signature+0xfb5>
   11d2c:	2d4020ef          	jal	ra,14000 <FN_WriteStr>
   11d30:	00004517          	auipc	a0,0x4
   11d34:	36d50513          	addi	a0,a0,877 # 1609d <end_signature+0xfbd>
   11d38:	2c8020ef          	jal	ra,14000 <FN_WriteStr>
   11d3c:	00004517          	auipc	a0,0x4
   11d40:	36550513          	addi	a0,a0,869 # 160a1 <end_signature+0xfc1>
   11d44:	2bc020ef          	jal	ra,14000 <FN_WriteStr>
   11d48:	00004517          	auipc	a0,0x4
   11d4c:	35c50513          	addi	a0,a0,860 # 160a4 <end_signature+0xfc4>
   11d50:	2b0020ef          	jal	ra,14000 <FN_WriteStr>
   11d54:	00004517          	auipc	a0,0x4
   11d58:	35450513          	addi	a0,a0,852 # 160a8 <end_signature+0xfc8>
   11d5c:	2a4020ef          	jal	ra,14000 <FN_WriteStr>
   11d60:	00070513          	mv	a0,a4
   11d64:	2b8020ef          	jal	ra,1401c <FN_WriteA0>
   11d68:	00004517          	auipc	a0,0x4
   11d6c:	34250513          	addi	a0,a0,834 # 160aa <end_signature+0xfca>
   11d70:	290020ef          	jal	ra,14000 <FN_WriteStr>
   11d74:	00004517          	auipc	a0,0x4
   11d78:	33c50513          	addi	a0,a0,828 # 160b0 <end_signature+0xfd0>
   11d7c:	284020ef          	jal	ra,14000 <FN_WriteStr>
   11d80:	00004517          	auipc	a0,0x4
   11d84:	33b50513          	addi	a0,a0,827 # 160bb <end_signature+0xfdb>
   11d88:	278020ef          	jal	ra,14000 <FN_WriteStr>
   11d8c:	06400193          	li	gp,100
   11d90:	0000100f          	fence.i
   11d94:	00018063          	beqz	gp,11d94 <reset_vector+0x1d48>
   11d98:	00119193          	slli	gp,gp,0x1
   11d9c:	0011e193          	ori	gp,gp,1
   11da0:	00000073          	ecall
   11da4:	00100293          	li	t0,1
   11da8:	08578e63          	beq	a5,t0,11e44 <reset_vector+0x1df8>
   11dac:	00004517          	auipc	a0,0x4
   11db0:	31150513          	addi	a0,a0,785 # 160bd <end_signature+0xfdd>
   11db4:	24c020ef          	jal	ra,14000 <FN_WriteStr>
   11db8:	00004517          	auipc	a0,0x4
   11dbc:	32050513          	addi	a0,a0,800 # 160d8 <end_signature+0xff8>
   11dc0:	240020ef          	jal	ra,14000 <FN_WriteStr>
   11dc4:	00004517          	auipc	a0,0x4
   11dc8:	32350513          	addi	a0,a0,803 # 160e7 <end_signature+0x1007>
   11dcc:	234020ef          	jal	ra,14000 <FN_WriteStr>
   11dd0:	00004517          	auipc	a0,0x4
   11dd4:	31f50513          	addi	a0,a0,799 # 160ef <end_signature+0x100f>
   11dd8:	228020ef          	jal	ra,14000 <FN_WriteStr>
   11ddc:	00004517          	auipc	a0,0x4
   11de0:	31750513          	addi	a0,a0,791 # 160f3 <end_signature+0x1013>
   11de4:	21c020ef          	jal	ra,14000 <FN_WriteStr>
   11de8:	00004517          	auipc	a0,0x4
   11dec:	30e50513          	addi	a0,a0,782 # 160f6 <end_signature+0x1016>
   11df0:	210020ef          	jal	ra,14000 <FN_WriteStr>
   11df4:	00004517          	auipc	a0,0x4
   11df8:	30650513          	addi	a0,a0,774 # 160fa <end_signature+0x101a>
   11dfc:	204020ef          	jal	ra,14000 <FN_WriteStr>
   11e00:	00078513          	mv	a0,a5
   11e04:	218020ef          	jal	ra,1401c <FN_WriteA0>
   11e08:	00004517          	auipc	a0,0x4
   11e0c:	2f450513          	addi	a0,a0,756 # 160fc <end_signature+0x101c>
   11e10:	1f0020ef          	jal	ra,14000 <FN_WriteStr>
   11e14:	00004517          	auipc	a0,0x4
   11e18:	2ee50513          	addi	a0,a0,750 # 16102 <end_signature+0x1022>
   11e1c:	1e4020ef          	jal	ra,14000 <FN_WriteStr>
   11e20:	00004517          	auipc	a0,0x4
   11e24:	2ed50513          	addi	a0,a0,749 # 1610d <end_signature+0x102d>
   11e28:	1d8020ef          	jal	ra,14000 <FN_WriteStr>
   11e2c:	06400193          	li	gp,100
   11e30:	0000100f          	fence.i
   11e34:	00018063          	beqz	gp,11e34 <reset_vector+0x1de8>
   11e38:	00119193          	slli	gp,gp,0x1
   11e3c:	0011e193          	ori	gp,gp,1
   11e40:	00000073          	ecall
   11e44:	00004517          	auipc	a0,0x4
   11e48:	2cb50513          	addi	a0,a0,715 # 1610f <end_signature+0x102f>
   11e4c:	1b4020ef          	jal	ra,14000 <FN_WriteStr>
   11e50:	00004517          	auipc	a0,0x4
   11e54:	2da50513          	addi	a0,a0,730 # 1612a <end_signature+0x104a>
   11e58:	1a8020ef          	jal	ra,14000 <FN_WriteStr>
   11e5c:	00003f97          	auipc	t6,0x3
   11e60:	270f8f93          	addi	t6,t6,624 # 150cc <test_D_res>
   11e64:	00100193          	li	gp,1
   11e68:	003020b3          	sgtz	ra,gp
   11e6c:	0030a133          	slt	sp,ra,gp
   11e70:	00312e33          	slt	t3,sp,gp
   11e74:	003e2eb3          	slt	t4,t3,gp
   11e78:	003eaf33          	slt	t5,t4,gp
   11e7c:	001fa023          	sw	ra,0(t6)
   11e80:	002fa223          	sw	sp,4(t6)
   11e84:	01cfa423          	sw	t3,8(t6)
   11e88:	01dfa623          	sw	t4,12(t6)
   11e8c:	01efa823          	sw	t5,16(t6)
   11e90:	00000293          	li	t0,0
   11e94:	08510e63          	beq	sp,t0,11f30 <reset_vector+0x1ee4>
   11e98:	00004517          	auipc	a0,0x4
   11e9c:	2cb50513          	addi	a0,a0,715 # 16163 <end_signature+0x1083>
   11ea0:	160020ef          	jal	ra,14000 <FN_WriteStr>
   11ea4:	00004517          	auipc	a0,0x4
   11ea8:	2da50513          	addi	a0,a0,730 # 1617e <end_signature+0x109e>
   11eac:	154020ef          	jal	ra,14000 <FN_WriteStr>
   11eb0:	00004517          	auipc	a0,0x4
   11eb4:	2dd50513          	addi	a0,a0,733 # 1618d <end_signature+0x10ad>
   11eb8:	148020ef          	jal	ra,14000 <FN_WriteStr>
   11ebc:	00004517          	auipc	a0,0x4
   11ec0:	2d950513          	addi	a0,a0,729 # 16195 <end_signature+0x10b5>
   11ec4:	13c020ef          	jal	ra,14000 <FN_WriteStr>
   11ec8:	00004517          	auipc	a0,0x4
   11ecc:	2d150513          	addi	a0,a0,721 # 16199 <end_signature+0x10b9>
   11ed0:	130020ef          	jal	ra,14000 <FN_WriteStr>
   11ed4:	00004517          	auipc	a0,0x4
   11ed8:	2c850513          	addi	a0,a0,712 # 1619c <end_signature+0x10bc>
   11edc:	124020ef          	jal	ra,14000 <FN_WriteStr>
   11ee0:	00004517          	auipc	a0,0x4
   11ee4:	2bf50513          	addi	a0,a0,703 # 1619f <end_signature+0x10bf>
   11ee8:	118020ef          	jal	ra,14000 <FN_WriteStr>
   11eec:	00010513          	mv	a0,sp
   11ef0:	12c020ef          	jal	ra,1401c <FN_WriteA0>
   11ef4:	00004517          	auipc	a0,0x4
   11ef8:	2ad50513          	addi	a0,a0,685 # 161a1 <end_signature+0x10c1>
   11efc:	104020ef          	jal	ra,14000 <FN_WriteStr>
   11f00:	00004517          	auipc	a0,0x4
   11f04:	2a750513          	addi	a0,a0,679 # 161a7 <end_signature+0x10c7>
   11f08:	0f8020ef          	jal	ra,14000 <FN_WriteStr>
   11f0c:	00004517          	auipc	a0,0x4
   11f10:	2a650513          	addi	a0,a0,678 # 161b2 <end_signature+0x10d2>
   11f14:	0ec020ef          	jal	ra,14000 <FN_WriteStr>
   11f18:	06400193          	li	gp,100
   11f1c:	0000100f          	fence.i
   11f20:	00018063          	beqz	gp,11f20 <reset_vector+0x1ed4>
   11f24:	00119193          	slli	gp,gp,0x1
   11f28:	0011e193          	ori	gp,gp,1
   11f2c:	00000073          	ecall
   11f30:	00100293          	li	t0,1
   11f34:	085e0e63          	beq	t3,t0,11fd0 <reset_vector+0x1f84>
   11f38:	00004517          	auipc	a0,0x4
   11f3c:	27c50513          	addi	a0,a0,636 # 161b4 <end_signature+0x10d4>
   11f40:	0c0020ef          	jal	ra,14000 <FN_WriteStr>
   11f44:	00004517          	auipc	a0,0x4
   11f48:	28b50513          	addi	a0,a0,651 # 161cf <end_signature+0x10ef>
   11f4c:	0b4020ef          	jal	ra,14000 <FN_WriteStr>
   11f50:	00004517          	auipc	a0,0x4
   11f54:	28e50513          	addi	a0,a0,654 # 161de <end_signature+0x10fe>
   11f58:	0a8020ef          	jal	ra,14000 <FN_WriteStr>
   11f5c:	00004517          	auipc	a0,0x4
   11f60:	28a50513          	addi	a0,a0,650 # 161e6 <end_signature+0x1106>
   11f64:	09c020ef          	jal	ra,14000 <FN_WriteStr>
   11f68:	00004517          	auipc	a0,0x4
   11f6c:	28250513          	addi	a0,a0,642 # 161ea <end_signature+0x110a>
   11f70:	090020ef          	jal	ra,14000 <FN_WriteStr>
   11f74:	00004517          	auipc	a0,0x4
   11f78:	27950513          	addi	a0,a0,633 # 161ed <end_signature+0x110d>
   11f7c:	084020ef          	jal	ra,14000 <FN_WriteStr>
   11f80:	00004517          	auipc	a0,0x4
   11f84:	27150513          	addi	a0,a0,625 # 161f1 <end_signature+0x1111>
   11f88:	078020ef          	jal	ra,14000 <FN_WriteStr>
   11f8c:	000e0513          	mv	a0,t3
   11f90:	08c020ef          	jal	ra,1401c <FN_WriteA0>
   11f94:	00004517          	auipc	a0,0x4
   11f98:	25f50513          	addi	a0,a0,607 # 161f3 <end_signature+0x1113>
   11f9c:	064020ef          	jal	ra,14000 <FN_WriteStr>
   11fa0:	00004517          	auipc	a0,0x4
   11fa4:	25950513          	addi	a0,a0,601 # 161f9 <end_signature+0x1119>
   11fa8:	058020ef          	jal	ra,14000 <FN_WriteStr>
   11fac:	00004517          	auipc	a0,0x4
   11fb0:	25850513          	addi	a0,a0,600 # 16204 <end_signature+0x1124>
   11fb4:	04c020ef          	jal	ra,14000 <FN_WriteStr>
   11fb8:	06400193          	li	gp,100
   11fbc:	0000100f          	fence.i
   11fc0:	00018063          	beqz	gp,11fc0 <reset_vector+0x1f74>
   11fc4:	00119193          	slli	gp,gp,0x1
   11fc8:	0011e193          	ori	gp,gp,1
   11fcc:	00000073          	ecall
   11fd0:	00000293          	li	t0,0
   11fd4:	085e8e63          	beq	t4,t0,12070 <reset_vector+0x2024>
   11fd8:	00004517          	auipc	a0,0x4
   11fdc:	22e50513          	addi	a0,a0,558 # 16206 <end_signature+0x1126>
   11fe0:	020020ef          	jal	ra,14000 <FN_WriteStr>
   11fe4:	00004517          	auipc	a0,0x4
   11fe8:	23d50513          	addi	a0,a0,573 # 16221 <end_signature+0x1141>
   11fec:	014020ef          	jal	ra,14000 <FN_WriteStr>
   11ff0:	00004517          	auipc	a0,0x4
   11ff4:	24050513          	addi	a0,a0,576 # 16230 <end_signature+0x1150>
   11ff8:	008020ef          	jal	ra,14000 <FN_WriteStr>
   11ffc:	00004517          	auipc	a0,0x4
   12000:	23c50513          	addi	a0,a0,572 # 16238 <end_signature+0x1158>
   12004:	7fd010ef          	jal	ra,14000 <FN_WriteStr>
   12008:	00004517          	auipc	a0,0x4
   1200c:	23450513          	addi	a0,a0,564 # 1623c <end_signature+0x115c>
   12010:	7f1010ef          	jal	ra,14000 <FN_WriteStr>
   12014:	00004517          	auipc	a0,0x4
   12018:	22b50513          	addi	a0,a0,555 # 1623f <end_signature+0x115f>
   1201c:	7e5010ef          	jal	ra,14000 <FN_WriteStr>
   12020:	00004517          	auipc	a0,0x4
   12024:	22350513          	addi	a0,a0,547 # 16243 <end_signature+0x1163>
   12028:	7d9010ef          	jal	ra,14000 <FN_WriteStr>
   1202c:	000e8513          	mv	a0,t4
   12030:	7ed010ef          	jal	ra,1401c <FN_WriteA0>
   12034:	00004517          	auipc	a0,0x4
   12038:	21150513          	addi	a0,a0,529 # 16245 <end_signature+0x1165>
   1203c:	7c5010ef          	jal	ra,14000 <FN_WriteStr>
   12040:	00004517          	auipc	a0,0x4
   12044:	20b50513          	addi	a0,a0,523 # 1624b <end_signature+0x116b>
   12048:	7b9010ef          	jal	ra,14000 <FN_WriteStr>
   1204c:	00004517          	auipc	a0,0x4
   12050:	20a50513          	addi	a0,a0,522 # 16256 <end_signature+0x1176>
   12054:	7ad010ef          	jal	ra,14000 <FN_WriteStr>
   12058:	06400193          	li	gp,100
   1205c:	0000100f          	fence.i
   12060:	00018063          	beqz	gp,12060 <reset_vector+0x2014>
   12064:	00119193          	slli	gp,gp,0x1
   12068:	0011e193          	ori	gp,gp,1
   1206c:	00000073          	ecall
   12070:	00100293          	li	t0,1
   12074:	085f0e63          	beq	t5,t0,12110 <reset_vector+0x20c4>
   12078:	00004517          	auipc	a0,0x4
   1207c:	1e050513          	addi	a0,a0,480 # 16258 <end_signature+0x1178>
   12080:	781010ef          	jal	ra,14000 <FN_WriteStr>
   12084:	00004517          	auipc	a0,0x4
   12088:	1ef50513          	addi	a0,a0,495 # 16273 <end_signature+0x1193>
   1208c:	775010ef          	jal	ra,14000 <FN_WriteStr>
   12090:	00004517          	auipc	a0,0x4
   12094:	1f250513          	addi	a0,a0,498 # 16282 <end_signature+0x11a2>
   12098:	769010ef          	jal	ra,14000 <FN_WriteStr>
   1209c:	00004517          	auipc	a0,0x4
   120a0:	1ee50513          	addi	a0,a0,494 # 1628a <end_signature+0x11aa>
   120a4:	75d010ef          	jal	ra,14000 <FN_WriteStr>
   120a8:	00004517          	auipc	a0,0x4
   120ac:	1e650513          	addi	a0,a0,486 # 1628e <end_signature+0x11ae>
   120b0:	751010ef          	jal	ra,14000 <FN_WriteStr>
   120b4:	00004517          	auipc	a0,0x4
   120b8:	1dd50513          	addi	a0,a0,477 # 16291 <end_signature+0x11b1>
   120bc:	745010ef          	jal	ra,14000 <FN_WriteStr>
   120c0:	00004517          	auipc	a0,0x4
   120c4:	1d550513          	addi	a0,a0,469 # 16295 <end_signature+0x11b5>
   120c8:	739010ef          	jal	ra,14000 <FN_WriteStr>
   120cc:	000f0513          	mv	a0,t5
   120d0:	74d010ef          	jal	ra,1401c <FN_WriteA0>
   120d4:	00004517          	auipc	a0,0x4
   120d8:	1c350513          	addi	a0,a0,451 # 16297 <end_signature+0x11b7>
   120dc:	725010ef          	jal	ra,14000 <FN_WriteStr>
   120e0:	00004517          	auipc	a0,0x4
   120e4:	1bd50513          	addi	a0,a0,445 # 1629d <end_signature+0x11bd>
   120e8:	719010ef          	jal	ra,14000 <FN_WriteStr>
   120ec:	00004517          	auipc	a0,0x4
   120f0:	1bc50513          	addi	a0,a0,444 # 162a8 <end_signature+0x11c8>
   120f4:	70d010ef          	jal	ra,14000 <FN_WriteStr>
   120f8:	06400193          	li	gp,100
   120fc:	0000100f          	fence.i
   12100:	00018063          	beqz	gp,12100 <reset_vector+0x20b4>
   12104:	00119193          	slli	gp,gp,0x1
   12108:	0011e193          	ori	gp,gp,1
   1210c:	00000073          	ecall
   12110:	00004517          	auipc	a0,0x4
   12114:	19a50513          	addi	a0,a0,410 # 162aa <end_signature+0x11ca>
   12118:	6e9010ef          	jal	ra,14000 <FN_WriteStr>
   1211c:	00004517          	auipc	a0,0x4
   12120:	1a950513          	addi	a0,a0,425 # 162c5 <end_signature+0x11e5>
   12124:	6dd010ef          	jal	ra,14000 <FN_WriteStr>
   12128:	0000100f          	fence.i
   1212c:	00100193          	li	gp,1
   12130:	00000073          	ecall
   12134:	c0001073          	unimp
	...

Disassembly of section .tohost:

00013000 <tohost>:
	...

00013100 <fromhost>:
	...

Disassembly of section .text:

00014000 <FN_WriteStr>:
   14000:	00050293          	mv	t0,a0
   14004:	0002c503          	lbu	a0,0(t0) # 80000000 <_end+0x7ffe9d2f>
   14008:	00128293          	addi	t0,t0,1
   1400c:	00050663          	beqz	a0,14018 <FN_WriteStr+0x18>
   14010:	0005200b          	0x5200b
   14014:	ff1ff06f          	j	14004 <FN_WriteStr+0x4>
   14018:	00008067          	ret

0001401c <FN_WriteA0>:
   1401c:	00050293          	mv	t0,a0
   14020:	fff00513          	li	a0,-1
   14024:	01f55513          	srli	a0,a0,0x1f
   14028:	00155513          	srli	a0,a0,0x1
   1402c:	02051463          	bnez	a0,14054 <FN_WriteA0_64>

00014030 <FN_WriteA0_32>:
   14030:	00800313          	li	t1,8
   14034:	00439393          	slli	t2,t2,0x4
   14038:	00f2f513          	andi	a0,t0,15
   1403c:	0042d293          	srli	t0,t0,0x4
   14040:	00a3e3b3          	or	t2,t2,a0
   14044:	fff30313          	addi	t1,t1,-1
   14048:	fe0316e3          	bnez	t1,14034 <FN_WriteA0_32+0x4>
   1404c:	00800313          	li	t1,8
   14050:	0240006f          	j	14074 <FN_WriteA0_common>

00014054 <FN_WriteA0_64>:
   14054:	01000313          	li	t1,16
   14058:	00439393          	slli	t2,t2,0x4
   1405c:	00f2f513          	andi	a0,t0,15
   14060:	0042d293          	srli	t0,t0,0x4
   14064:	00a3e3b3          	or	t2,t2,a0
   14068:	fff30313          	addi	t1,t1,-1
   1406c:	fe0316e3          	bnez	t1,14058 <FN_WriteA0_64+0x4>
   14070:	01000313          	li	t1,16

00014074 <FN_WriteA0_common>:
   14074:	00a00293          	li	t0,10
   14078:	00f3f513          	andi	a0,t2,15
   1407c:	00554663          	blt	a0,t0,14088 <FN_WriteA0_common+0x14>
   14080:	05750513          	addi	a0,a0,87
   14084:	0080006f          	j	1408c <FN_WriteA0_common+0x18>
   14088:	03050513          	addi	a0,a0,48
   1408c:	0005200b          	0x5200b
   14090:	0043d393          	srli	t2,t2,0x4
   14094:	fff30313          	addi	t1,t1,-1
   14098:	fe0310e3          	bnez	t1,14078 <FN_WriteA0_common+0x4>
   1409c:	00008067          	ret
