
/Users/benselfridge/RISCV/riscv-compliance/work//I-SLL-01.elf:     file format elf32-littleriscv


Disassembly of section .text.init:

00010000 <_start>:
   10000:	04c0006f          	j	1004c <reset_vector>

00010004 <trap_vector>:
   10004:	34202f73          	csrr	t5,mcause
   10008:	00800f93          	li	t6,8
   1000c:	03ff0a63          	beq	t5,t6,10040 <write_tohost>
   10010:	00900f93          	li	t6,9
   10014:	03ff0663          	beq	t5,t6,10040 <write_tohost>
   10018:	00b00f93          	li	t6,11
   1001c:	03ff0263          	beq	t5,t6,10040 <write_tohost>
   10020:	ffff0f17          	auipc	t5,0xffff0
   10024:	fe0f0f13          	addi	t5,t5,-32 # 0 <_start-0x10000>
   10028:	000f0463          	beqz	t5,10030 <trap_vector+0x2c>
   1002c:	000f0067          	jr	t5
   10030:	34202f73          	csrr	t5,mcause
   10034:	000f5463          	bgez	t5,1003c <handle_exception>
   10038:	0040006f          	j	1003c <handle_exception>

0001003c <handle_exception>:
   1003c:	5391e193          	ori	gp,gp,1337

00010040 <write_tohost>:
   10040:	00001f17          	auipc	t5,0x1
   10044:	fc3f2023          	sw	gp,-64(t5) # 11000 <tohost>
   10048:	ff9ff06f          	j	10040 <write_tohost>

0001004c <reset_vector>:
   1004c:	f1402573          	csrr	a0,mhartid
   10050:	00051063          	bnez	a0,10050 <reset_vector+0x4>
   10054:	00000297          	auipc	t0,0x0
   10058:	01028293          	addi	t0,t0,16 # 10064 <reset_vector+0x18>
   1005c:	30529073          	csrw	mtvec,t0
   10060:	18005073          	csrwi	satp,0
   10064:	00000297          	auipc	t0,0x0
   10068:	01c28293          	addi	t0,t0,28 # 10080 <reset_vector+0x34>
   1006c:	30529073          	csrw	mtvec,t0
   10070:	fff00293          	li	t0,-1
   10074:	3b029073          	csrw	pmpaddr0,t0
   10078:	01f00293          	li	t0,31
   1007c:	3a029073          	csrw	pmpcfg0,t0
   10080:	00000297          	auipc	t0,0x0
   10084:	01828293          	addi	t0,t0,24 # 10098 <reset_vector+0x4c>
   10088:	30529073          	csrw	mtvec,t0
   1008c:	30205073          	csrwi	medeleg,0
   10090:	30305073          	csrwi	mideleg,0
   10094:	30405073          	csrwi	mie,0
   10098:	00000193          	li	gp,0
   1009c:	00000297          	auipc	t0,0x0
   100a0:	f6828293          	addi	t0,t0,-152 # 10004 <trap_vector>
   100a4:	30529073          	csrw	mtvec,t0
   100a8:	00100513          	li	a0,1
   100ac:	01f51513          	slli	a0,a0,0x1f
   100b0:	00054863          	bltz	a0,100c0 <reset_vector+0x74>
   100b4:	00000013          	nop
   100b8:	00100193          	li	gp,1
   100bc:	00000073          	ecall
   100c0:	ffff0297          	auipc	t0,0xffff0
   100c4:	f4028293          	addi	t0,t0,-192 # 0 <_start-0x10000>
   100c8:	00028e63          	beqz	t0,100e4 <reset_vector+0x98>
   100cc:	10529073          	csrw	stvec,t0
   100d0:	0000b2b7          	lui	t0,0xb
   100d4:	10928293          	addi	t0,t0,265 # b109 <_start-0x4ef7>
   100d8:	30229073          	csrw	medeleg,t0
   100dc:	30202373          	csrr	t1,medeleg
   100e0:	f4629ee3          	bne	t0,t1,1003c <handle_exception>
   100e4:	30005073          	csrwi	mstatus,0
   100e8:	00002537          	lui	a0,0x2
   100ec:	80050513          	addi	a0,a0,-2048 # 1800 <_start-0xe800>
   100f0:	30052073          	csrs	mstatus,a0
   100f4:	00000297          	auipc	t0,0x0
   100f8:	01428293          	addi	t0,t0,20 # 10108 <reset_vector+0xbc>
   100fc:	34129073          	csrw	mepc,t0
   10100:	f1402573          	csrr	a0,mhartid
   10104:	30200073          	mret
   10108:	00002097          	auipc	ra,0x2
   1010c:	ef808093          	addi	ra,ra,-264 # 12000 <test_A1_data>
   10110:	00002117          	auipc	sp,0x2
   10114:	f2010113          	addi	sp,sp,-224 # 12030 <begin_signature>
   10118:	0000a183          	lw	gp,0(ra)
   1011c:	00100213          	li	tp,1
   10120:	00f00293          	li	t0,15
   10124:	01f00313          	li	t1,31
   10128:	00000393          	li	t2,0
   1012c:	01000413          	li	s0,16
   10130:	00419233          	sll	tp,gp,tp
   10134:	005192b3          	sll	t0,gp,t0
   10138:	00619333          	sll	t1,gp,t1
   1013c:	007193b3          	sll	t2,gp,t2
   10140:	00819433          	sll	s0,gp,s0
   10144:	00312023          	sw	gp,0(sp)
   10148:	00412223          	sw	tp,4(sp)
   1014c:	00512423          	sw	t0,8(sp)
   10150:	00612623          	sw	t1,12(sp)
   10154:	00712823          	sw	t2,16(sp)
   10158:	00812a23          	sw	s0,20(sp)
   1015c:	00002097          	auipc	ra,0x2
   10160:	ea808093          	addi	ra,ra,-344 # 12004 <test_A2_data>
   10164:	00002117          	auipc	sp,0x2
   10168:	ee410113          	addi	sp,sp,-284 # 12048 <test_A2_res>
   1016c:	0000a403          	lw	s0,0(ra)
   10170:	00100493          	li	s1,1
   10174:	00f00513          	li	a0,15
   10178:	01f00593          	li	a1,31
   1017c:	00000613          	li	a2,0
   10180:	01000693          	li	a3,16
   10184:	009414b3          	sll	s1,s0,s1
   10188:	00a41533          	sll	a0,s0,a0
   1018c:	00b415b3          	sll	a1,s0,a1
   10190:	00c41633          	sll	a2,s0,a2
   10194:	00d416b3          	sll	a3,s0,a3
   10198:	00812023          	sw	s0,0(sp)
   1019c:	00912223          	sw	s1,4(sp)
   101a0:	00a12423          	sw	a0,8(sp)
   101a4:	00b12623          	sw	a1,12(sp)
   101a8:	00c12823          	sw	a2,16(sp)
   101ac:	00d12a23          	sw	a3,20(sp)
   101b0:	00002097          	auipc	ra,0x2
   101b4:	e5808093          	addi	ra,ra,-424 # 12008 <test_A3_data>
   101b8:	00002117          	auipc	sp,0x2
   101bc:	ea810113          	addi	sp,sp,-344 # 12060 <test_A3_res>
   101c0:	0000a683          	lw	a3,0(ra)
   101c4:	00100713          	li	a4,1
   101c8:	00f00793          	li	a5,15
   101cc:	01f00813          	li	a6,31
   101d0:	00000893          	li	a7,0
   101d4:	01000913          	li	s2,16
   101d8:	00e69733          	sll	a4,a3,a4
   101dc:	00f697b3          	sll	a5,a3,a5
   101e0:	01069833          	sll	a6,a3,a6
   101e4:	011698b3          	sll	a7,a3,a7
   101e8:	01269933          	sll	s2,a3,s2
   101ec:	00d12023          	sw	a3,0(sp)
   101f0:	00e12223          	sw	a4,4(sp)
   101f4:	00f12423          	sw	a5,8(sp)
   101f8:	01012623          	sw	a6,12(sp)
   101fc:	01112823          	sw	a7,16(sp)
   10200:	01212a23          	sw	s2,20(sp)
   10204:	00002617          	auipc	a2,0x2
   10208:	e0860613          	addi	a2,a2,-504 # 1200c <test_A4_data>
   1020c:	00002697          	auipc	a3,0x2
   10210:	e6c68693          	addi	a3,a3,-404 # 12078 <test_A4_res>
   10214:	00062903          	lw	s2,0(a2)
   10218:	00100993          	li	s3,1
   1021c:	00f00a13          	li	s4,15
   10220:	01f00a93          	li	s5,31
   10224:	00000b13          	li	s6,0
   10228:	01000b93          	li	s7,16
   1022c:	013919b3          	sll	s3,s2,s3
   10230:	01491a33          	sll	s4,s2,s4
   10234:	01591ab3          	sll	s5,s2,s5
   10238:	01691b33          	sll	s6,s2,s6
   1023c:	01791bb3          	sll	s7,s2,s7
   10240:	0126a023          	sw	s2,0(a3)
   10244:	0136a223          	sw	s3,4(a3)
   10248:	0146a423          	sw	s4,8(a3)
   1024c:	0156a623          	sw	s5,12(a3)
   10250:	0166a823          	sw	s6,16(a3)
   10254:	0176aa23          	sw	s7,20(a3)
   10258:	00002617          	auipc	a2,0x2
   1025c:	db860613          	addi	a2,a2,-584 # 12010 <test_A5_data>
   10260:	00002697          	auipc	a3,0x2
   10264:	e3068693          	addi	a3,a3,-464 # 12090 <test_A5_res>
   10268:	00062b83          	lw	s7,0(a2)
   1026c:	00100c13          	li	s8,1
   10270:	00f00c93          	li	s9,15
   10274:	01f00d13          	li	s10,31
   10278:	00000d93          	li	s11,0
   1027c:	01000e13          	li	t3,16
   10280:	018b9c33          	sll	s8,s7,s8
   10284:	019b9cb3          	sll	s9,s7,s9
   10288:	01ab9d33          	sll	s10,s7,s10
   1028c:	01bb9db3          	sll	s11,s7,s11
   10290:	01cb9e33          	sll	t3,s7,t3
   10294:	0176a023          	sw	s7,0(a3)
   10298:	0186a223          	sw	s8,4(a3)
   1029c:	0196a423          	sw	s9,8(a3)
   102a0:	01a6a623          	sw	s10,12(a3)
   102a4:	01b6a823          	sw	s11,16(a3)
   102a8:	01c6aa23          	sw	t3,20(a3)
   102ac:	00002c97          	auipc	s9,0x2
   102b0:	d68c8c93          	addi	s9,s9,-664 # 12014 <test_B_data>
   102b4:	00002d17          	auipc	s10,0x2
   102b8:	df4d0d13          	addi	s10,s10,-524 # 120a8 <test_B_res>
   102bc:	000cae03          	lw	t3,0(s9)
   102c0:	00100d93          	li	s11,1
   102c4:	01be1eb3          	sll	t4,t3,s11
   102c8:	01be9f33          	sll	t5,t4,s11
   102cc:	01bf1fb3          	sll	t6,t5,s11
   102d0:	01bf90b3          	sll	ra,t6,s11
   102d4:	01b09133          	sll	sp,ra,s11
   102d8:	01b111b3          	sll	gp,sp,s11
   102dc:	01cd2023          	sw	t3,0(s10)
   102e0:	01dd2223          	sw	t4,4(s10)
   102e4:	01ed2423          	sw	t5,8(s10)
   102e8:	01fd2623          	sw	t6,12(s10)
   102ec:	001d2823          	sw	ra,16(s10)
   102f0:	002d2a23          	sw	sp,20(s10)
   102f4:	003d2c23          	sw	gp,24(s10)
   102f8:	00002097          	auipc	ra,0x2
   102fc:	d2008093          	addi	ra,ra,-736 # 12018 <test_C_data>
   10300:	00002117          	auipc	sp,0x2
   10304:	dc410113          	addi	sp,sp,-572 # 120c4 <test_C_res>
   10308:	0000a283          	lw	t0,0(ra)
   1030c:	00100d93          	li	s11,1
   10310:	01b29033          	sll	zero,t0,s11
   10314:	00012023          	sw	zero,0(sp)
   10318:	00002097          	auipc	ra,0x2
   1031c:	d0408093          	addi	ra,ra,-764 # 1201c <test_D_data>
   10320:	00002117          	auipc	sp,0x2
   10324:	da810113          	addi	sp,sp,-600 # 120c8 <test_D_res>
   10328:	0000a283          	lw	t0,0(ra)
   1032c:	00100d93          	li	s11,1
   10330:	01b29033          	sll	zero,t0,s11
   10334:	01b012b3          	sll	t0,zero,s11
   10338:	00012023          	sw	zero,0(sp)
   1033c:	00512223          	sw	t0,4(sp)
   10340:	00002097          	auipc	ra,0x2
   10344:	ce008093          	addi	ra,ra,-800 # 12020 <test_E_data>
   10348:	00002117          	auipc	sp,0x2
   1034c:	d8810113          	addi	sp,sp,-632 # 120d0 <test_E_res>
   10350:	0000a183          	lw	gp,0(ra)
   10354:	10000237          	lui	tp,0x10000
   10358:	fe020213          	addi	tp,tp,-32 # fffffe0 <_end+0xffedf00>
   1035c:	100002b7          	lui	t0,0x10000
   10360:	fe128293          	addi	t0,t0,-31 # fffffe1 <_end+0xffedf01>
   10364:	10000337          	lui	t1,0x10000
   10368:	fef30313          	addi	t1,t1,-17 # fffffef <_end+0xffedf0f>
   1036c:	100003b7          	lui	t2,0x10000
   10370:	fff38393          	addi	t2,t2,-1 # fffffff <_end+0xffedf1f>
   10374:	00419233          	sll	tp,gp,tp
   10378:	005192b3          	sll	t0,gp,t0
   1037c:	00619333          	sll	t1,gp,t1
   10380:	007193b3          	sll	t2,gp,t2
   10384:	00412023          	sw	tp,0(sp)
   10388:	00512223          	sw	t0,4(sp)
   1038c:	00612423          	sw	t1,8(sp)
   10390:	00712623          	sw	t2,12(sp)
   10394:	00000013          	nop
   10398:	00100193          	li	gp,1
   1039c:	00000073          	ecall
   103a0:	c0001073          	unimp
	...

Disassembly of section .tohost:

00011000 <tohost>:
	...

00011100 <fromhost>:
	...
