
/home/benselfridge/riscv-compliance/work//I-SLTU-01.elf:     file format elf32-littleriscv


Disassembly of section .text.init:

00010000 <_start>:
   10000:	04c0006f          	j	1004c <reset_vector>

00010004 <trap_vector>:
   10004:	34202f73          	csrr	t5,mcause
   10008:	00800f93          	li	t6,8
   1000c:	03ff0a63          	beq	t5,t6,10040 <write_tohost>
   10010:	00900f93          	li	t6,9
   10014:	03ff0663          	beq	t5,t6,10040 <write_tohost>
   10018:	00b00f93          	li	t6,11
   1001c:	03ff0263          	beq	t5,t6,10040 <write_tohost>
   10020:	ffff0f17          	auipc	t5,0xffff0
   10024:	fe0f0f13          	addi	t5,t5,-32 # 0 <_start-0x10000>
   10028:	000f0463          	beqz	t5,10030 <trap_vector+0x2c>
   1002c:	000f0067          	jr	t5
   10030:	34202f73          	csrr	t5,mcause
   10034:	000f5463          	bgez	t5,1003c <handle_exception>
   10038:	0040006f          	j	1003c <handle_exception>

0001003c <handle_exception>:
   1003c:	5391e193          	ori	gp,gp,1337

00010040 <write_tohost>:
   10040:	00003f17          	auipc	t5,0x3
   10044:	fc3f2023          	sw	gp,-64(t5) # 13000 <tohost>
   10048:	ff9ff06f          	j	10040 <write_tohost>

0001004c <reset_vector>:
   1004c:	f1402573          	csrr	a0,mhartid
   10050:	00051063          	bnez	a0,10050 <reset_vector+0x4>
   10054:	00000297          	auipc	t0,0x0
   10058:	01028293          	addi	t0,t0,16 # 10064 <reset_vector+0x18>
   1005c:	30529073          	csrw	mtvec,t0
   10060:	18005073          	csrwi	satp,0
   10064:	00000297          	auipc	t0,0x0
   10068:	01c28293          	addi	t0,t0,28 # 10080 <reset_vector+0x34>
   1006c:	30529073          	csrw	mtvec,t0
   10070:	fff00293          	li	t0,-1
   10074:	3b029073          	csrw	pmpaddr0,t0
   10078:	01f00293          	li	t0,31
   1007c:	3a029073          	csrw	pmpcfg0,t0
   10080:	00000297          	auipc	t0,0x0
   10084:	01828293          	addi	t0,t0,24 # 10098 <reset_vector+0x4c>
   10088:	30529073          	csrw	mtvec,t0
   1008c:	30205073          	csrwi	medeleg,0
   10090:	30305073          	csrwi	mideleg,0
   10094:	30405073          	csrwi	mie,0
   10098:	00000193          	li	gp,0
   1009c:	00000297          	auipc	t0,0x0
   100a0:	f6828293          	addi	t0,t0,-152 # 10004 <trap_vector>
   100a4:	30529073          	csrw	mtvec,t0
   100a8:	00100513          	li	a0,1
   100ac:	01f51513          	slli	a0,a0,0x1f
   100b0:	00054863          	bltz	a0,100c0 <reset_vector+0x74>
   100b4:	0000100f          	fence.i
   100b8:	00100193          	li	gp,1
   100bc:	00000073          	ecall
   100c0:	ffff0297          	auipc	t0,0xffff0
   100c4:	f4028293          	addi	t0,t0,-192 # 0 <_start-0x10000>
   100c8:	00028e63          	beqz	t0,100e4 <reset_vector+0x98>
   100cc:	10529073          	csrw	stvec,t0
   100d0:	0000b2b7          	lui	t0,0xb
   100d4:	10928293          	addi	t0,t0,265 # b109 <_start-0x4ef7>
   100d8:	30229073          	csrw	medeleg,t0
   100dc:	30202373          	csrr	t1,medeleg
   100e0:	f4629ee3          	bne	t0,t1,1003c <handle_exception>
   100e4:	30005073          	csrwi	mstatus,0
   100e8:	00002537          	lui	a0,0x2
   100ec:	80050513          	addi	a0,a0,-2048 # 1800 <_start-0xe800>
   100f0:	30052073          	csrs	mstatus,a0
   100f4:	00000297          	auipc	t0,0x0
   100f8:	01428293          	addi	t0,t0,20 # 10108 <reset_vector+0xbc>
   100fc:	34129073          	csrw	mepc,t0
   10100:	f1402573          	csrr	a0,mhartid
   10104:	30200073          	mret
   10108:	00000293          	li	t0,0
   1010c:	08500e63          	beq	zero,t0,101a8 <reset_vector+0x15c>
   10110:	00005517          	auipc	a0,0x5
   10114:	fd050513          	addi	a0,a0,-48 # 150e0 <end_signature>
   10118:	6e9030ef          	jal	ra,14000 <FN_WriteStr>
   1011c:	00005517          	auipc	a0,0x5
   10120:	fdf50513          	addi	a0,a0,-33 # 150fb <end_signature+0x1b>
   10124:	6dd030ef          	jal	ra,14000 <FN_WriteStr>
   10128:	00005517          	auipc	a0,0x5
   1012c:	fe350513          	addi	a0,a0,-29 # 1510b <end_signature+0x2b>
   10130:	6d1030ef          	jal	ra,14000 <FN_WriteStr>
   10134:	00005517          	auipc	a0,0x5
   10138:	fdf50513          	addi	a0,a0,-33 # 15113 <end_signature+0x33>
   1013c:	6c5030ef          	jal	ra,14000 <FN_WriteStr>
   10140:	00005517          	auipc	a0,0x5
   10144:	fd650513          	addi	a0,a0,-42 # 15116 <end_signature+0x36>
   10148:	6b9030ef          	jal	ra,14000 <FN_WriteStr>
   1014c:	00005517          	auipc	a0,0x5
   10150:	fcd50513          	addi	a0,a0,-51 # 15119 <end_signature+0x39>
   10154:	6ad030ef          	jal	ra,14000 <FN_WriteStr>
   10158:	00005517          	auipc	a0,0x5
   1015c:	fc450513          	addi	a0,a0,-60 # 1511c <end_signature+0x3c>
   10160:	6a1030ef          	jal	ra,14000 <FN_WriteStr>
   10164:	00000513          	li	a0,0
   10168:	6b5030ef          	jal	ra,1401c <FN_WriteA0>
   1016c:	00005517          	auipc	a0,0x5
   10170:	fb250513          	addi	a0,a0,-78 # 1511e <end_signature+0x3e>
   10174:	68d030ef          	jal	ra,14000 <FN_WriteStr>
   10178:	00005517          	auipc	a0,0x5
   1017c:	fac50513          	addi	a0,a0,-84 # 15124 <end_signature+0x44>
   10180:	681030ef          	jal	ra,14000 <FN_WriteStr>
   10184:	00005517          	auipc	a0,0x5
   10188:	fab50513          	addi	a0,a0,-85 # 1512f <end_signature+0x4f>
   1018c:	675030ef          	jal	ra,14000 <FN_WriteStr>
   10190:	06400193          	li	gp,100
   10194:	0000100f          	fence.i
   10198:	00018063          	beqz	gp,10198 <reset_vector+0x14c>
   1019c:	00119193          	slli	gp,gp,0x1
   101a0:	0011e193          	ori	gp,gp,1
   101a4:	00000073          	ecall
   101a8:	00005517          	auipc	a0,0x5
   101ac:	f8950513          	addi	a0,a0,-119 # 15131 <end_signature+0x51>
   101b0:	651030ef          	jal	ra,14000 <FN_WriteStr>
   101b4:	00005517          	auipc	a0,0x5
   101b8:	faf50513          	addi	a0,a0,-81 # 15163 <end_signature+0x83>
   101bc:	645030ef          	jal	ra,14000 <FN_WriteStr>
   101c0:	00005097          	auipc	ra,0x5
   101c4:	e4008093          	addi	ra,ra,-448 # 15000 <test_A1_data>
   101c8:	00005117          	auipc	sp,0x5
   101cc:	e5810113          	addi	sp,sp,-424 # 15020 <begin_signature>
   101d0:	0000a183          	lw	gp,0(ra)
   101d4:	00100213          	li	tp,1
   101d8:	800002b7          	lui	t0,0x80000
   101dc:	fff28293          	addi	t0,t0,-1 # 7fffffff <_end+0x7ffe9d53>
   101e0:	fff00313          	li	t1,-1
   101e4:	00000393          	li	t2,0
   101e8:	80000437          	lui	s0,0x80000
   101ec:	0041b233          	sltu	tp,gp,tp
   101f0:	0051b2b3          	sltu	t0,gp,t0
   101f4:	0061b333          	sltu	t1,gp,t1
   101f8:	0071b3b3          	sltu	t2,gp,t2
   101fc:	0081b433          	sltu	s0,gp,s0
   10200:	00312023          	sw	gp,0(sp)
   10204:	00412223          	sw	tp,4(sp)
   10208:	00512423          	sw	t0,8(sp)
   1020c:	00612623          	sw	t1,12(sp)
   10210:	00712823          	sw	t2,16(sp)
   10214:	00812a23          	sw	s0,20(sp)
   10218:	fff00013          	li	zero,-1
   1021c:	00000293          	li	t0,0
   10220:	08518e63          	beq	gp,t0,102bc <reset_vector+0x270>
   10224:	00005517          	auipc	a0,0x5
   10228:	f9150513          	addi	a0,a0,-111 # 151b5 <end_signature+0xd5>
   1022c:	5d5030ef          	jal	ra,14000 <FN_WriteStr>
   10230:	00005517          	auipc	a0,0x5
   10234:	fa050513          	addi	a0,a0,-96 # 151d0 <end_signature+0xf0>
   10238:	5c9030ef          	jal	ra,14000 <FN_WriteStr>
   1023c:	00005517          	auipc	a0,0x5
   10240:	fa450513          	addi	a0,a0,-92 # 151e0 <end_signature+0x100>
   10244:	5bd030ef          	jal	ra,14000 <FN_WriteStr>
   10248:	00005517          	auipc	a0,0x5
   1024c:	fa050513          	addi	a0,a0,-96 # 151e8 <end_signature+0x108>
   10250:	5b1030ef          	jal	ra,14000 <FN_WriteStr>
   10254:	00005517          	auipc	a0,0x5
   10258:	f9750513          	addi	a0,a0,-105 # 151eb <end_signature+0x10b>
   1025c:	5a5030ef          	jal	ra,14000 <FN_WriteStr>
   10260:	00005517          	auipc	a0,0x5
   10264:	f8e50513          	addi	a0,a0,-114 # 151ee <end_signature+0x10e>
   10268:	599030ef          	jal	ra,14000 <FN_WriteStr>
   1026c:	00005517          	auipc	a0,0x5
   10270:	f8550513          	addi	a0,a0,-123 # 151f1 <end_signature+0x111>
   10274:	58d030ef          	jal	ra,14000 <FN_WriteStr>
   10278:	00018513          	mv	a0,gp
   1027c:	5a1030ef          	jal	ra,1401c <FN_WriteA0>
   10280:	00005517          	auipc	a0,0x5
   10284:	f7350513          	addi	a0,a0,-141 # 151f3 <end_signature+0x113>
   10288:	579030ef          	jal	ra,14000 <FN_WriteStr>
   1028c:	00005517          	auipc	a0,0x5
   10290:	f6d50513          	addi	a0,a0,-147 # 151f9 <end_signature+0x119>
   10294:	56d030ef          	jal	ra,14000 <FN_WriteStr>
   10298:	00005517          	auipc	a0,0x5
   1029c:	f6c50513          	addi	a0,a0,-148 # 15204 <end_signature+0x124>
   102a0:	561030ef          	jal	ra,14000 <FN_WriteStr>
   102a4:	06400193          	li	gp,100
   102a8:	0000100f          	fence.i
   102ac:	00018063          	beqz	gp,102ac <reset_vector+0x260>
   102b0:	00119193          	slli	gp,gp,0x1
   102b4:	0011e193          	ori	gp,gp,1
   102b8:	00000073          	ecall
   102bc:	00100293          	li	t0,1
   102c0:	08520e63          	beq	tp,t0,1035c <reset_vector+0x310>
   102c4:	00005517          	auipc	a0,0x5
   102c8:	f4250513          	addi	a0,a0,-190 # 15206 <end_signature+0x126>
   102cc:	535030ef          	jal	ra,14000 <FN_WriteStr>
   102d0:	00005517          	auipc	a0,0x5
   102d4:	f5150513          	addi	a0,a0,-175 # 15221 <end_signature+0x141>
   102d8:	529030ef          	jal	ra,14000 <FN_WriteStr>
   102dc:	00005517          	auipc	a0,0x5
   102e0:	f5550513          	addi	a0,a0,-171 # 15231 <end_signature+0x151>
   102e4:	51d030ef          	jal	ra,14000 <FN_WriteStr>
   102e8:	00005517          	auipc	a0,0x5
   102ec:	f5150513          	addi	a0,a0,-175 # 15239 <end_signature+0x159>
   102f0:	511030ef          	jal	ra,14000 <FN_WriteStr>
   102f4:	00005517          	auipc	a0,0x5
   102f8:	f4850513          	addi	a0,a0,-184 # 1523c <end_signature+0x15c>
   102fc:	505030ef          	jal	ra,14000 <FN_WriteStr>
   10300:	00005517          	auipc	a0,0x5
   10304:	f3f50513          	addi	a0,a0,-193 # 1523f <end_signature+0x15f>
   10308:	4f9030ef          	jal	ra,14000 <FN_WriteStr>
   1030c:	00005517          	auipc	a0,0x5
   10310:	f3650513          	addi	a0,a0,-202 # 15242 <end_signature+0x162>
   10314:	4ed030ef          	jal	ra,14000 <FN_WriteStr>
   10318:	00020513          	mv	a0,tp
   1031c:	501030ef          	jal	ra,1401c <FN_WriteA0>
   10320:	00005517          	auipc	a0,0x5
   10324:	f2450513          	addi	a0,a0,-220 # 15244 <end_signature+0x164>
   10328:	4d9030ef          	jal	ra,14000 <FN_WriteStr>
   1032c:	00005517          	auipc	a0,0x5
   10330:	f1e50513          	addi	a0,a0,-226 # 1524a <end_signature+0x16a>
   10334:	4cd030ef          	jal	ra,14000 <FN_WriteStr>
   10338:	00005517          	auipc	a0,0x5
   1033c:	f1d50513          	addi	a0,a0,-227 # 15255 <end_signature+0x175>
   10340:	4c1030ef          	jal	ra,14000 <FN_WriteStr>
   10344:	06400193          	li	gp,100
   10348:	0000100f          	fence.i
   1034c:	00018063          	beqz	gp,1034c <reset_vector+0x300>
   10350:	00119193          	slli	gp,gp,0x1
   10354:	0011e193          	ori	gp,gp,1
   10358:	00000073          	ecall
   1035c:	00000293          	li	t0,0
   10360:	08528e63          	beq	t0,t0,103fc <reset_vector+0x3b0>
   10364:	00005517          	auipc	a0,0x5
   10368:	ef350513          	addi	a0,a0,-269 # 15257 <end_signature+0x177>
   1036c:	495030ef          	jal	ra,14000 <FN_WriteStr>
   10370:	00005517          	auipc	a0,0x5
   10374:	f0250513          	addi	a0,a0,-254 # 15272 <end_signature+0x192>
   10378:	489030ef          	jal	ra,14000 <FN_WriteStr>
   1037c:	00005517          	auipc	a0,0x5
   10380:	f0650513          	addi	a0,a0,-250 # 15282 <end_signature+0x1a2>
   10384:	47d030ef          	jal	ra,14000 <FN_WriteStr>
   10388:	00005517          	auipc	a0,0x5
   1038c:	f0250513          	addi	a0,a0,-254 # 1528a <end_signature+0x1aa>
   10390:	471030ef          	jal	ra,14000 <FN_WriteStr>
   10394:	00005517          	auipc	a0,0x5
   10398:	ef950513          	addi	a0,a0,-263 # 1528d <end_signature+0x1ad>
   1039c:	465030ef          	jal	ra,14000 <FN_WriteStr>
   103a0:	00005517          	auipc	a0,0x5
   103a4:	ef050513          	addi	a0,a0,-272 # 15290 <end_signature+0x1b0>
   103a8:	459030ef          	jal	ra,14000 <FN_WriteStr>
   103ac:	00005517          	auipc	a0,0x5
   103b0:	ee750513          	addi	a0,a0,-281 # 15293 <end_signature+0x1b3>
   103b4:	44d030ef          	jal	ra,14000 <FN_WriteStr>
   103b8:	00028513          	mv	a0,t0
   103bc:	461030ef          	jal	ra,1401c <FN_WriteA0>
   103c0:	00005517          	auipc	a0,0x5
   103c4:	ed550513          	addi	a0,a0,-299 # 15295 <end_signature+0x1b5>
   103c8:	439030ef          	jal	ra,14000 <FN_WriteStr>
   103cc:	00005517          	auipc	a0,0x5
   103d0:	ecf50513          	addi	a0,a0,-305 # 1529b <end_signature+0x1bb>
   103d4:	42d030ef          	jal	ra,14000 <FN_WriteStr>
   103d8:	00005517          	auipc	a0,0x5
   103dc:	ece50513          	addi	a0,a0,-306 # 152a6 <end_signature+0x1c6>
   103e0:	421030ef          	jal	ra,14000 <FN_WriteStr>
   103e4:	06400193          	li	gp,100
   103e8:	0000100f          	fence.i
   103ec:	00018063          	beqz	gp,103ec <reset_vector+0x3a0>
   103f0:	00119193          	slli	gp,gp,0x1
   103f4:	0011e193          	ori	gp,gp,1
   103f8:	00000073          	ecall
   103fc:	00100293          	li	t0,1
   10400:	08530e63          	beq	t1,t0,1049c <reset_vector+0x450>
   10404:	00005517          	auipc	a0,0x5
   10408:	ea450513          	addi	a0,a0,-348 # 152a8 <end_signature+0x1c8>
   1040c:	3f5030ef          	jal	ra,14000 <FN_WriteStr>
   10410:	00005517          	auipc	a0,0x5
   10414:	eb350513          	addi	a0,a0,-333 # 152c3 <end_signature+0x1e3>
   10418:	3e9030ef          	jal	ra,14000 <FN_WriteStr>
   1041c:	00005517          	auipc	a0,0x5
   10420:	eb750513          	addi	a0,a0,-329 # 152d3 <end_signature+0x1f3>
   10424:	3dd030ef          	jal	ra,14000 <FN_WriteStr>
   10428:	00005517          	auipc	a0,0x5
   1042c:	eb350513          	addi	a0,a0,-333 # 152db <end_signature+0x1fb>
   10430:	3d1030ef          	jal	ra,14000 <FN_WriteStr>
   10434:	00005517          	auipc	a0,0x5
   10438:	eaa50513          	addi	a0,a0,-342 # 152de <end_signature+0x1fe>
   1043c:	3c5030ef          	jal	ra,14000 <FN_WriteStr>
   10440:	00005517          	auipc	a0,0x5
   10444:	ea150513          	addi	a0,a0,-351 # 152e1 <end_signature+0x201>
   10448:	3b9030ef          	jal	ra,14000 <FN_WriteStr>
   1044c:	00005517          	auipc	a0,0x5
   10450:	e9850513          	addi	a0,a0,-360 # 152e4 <end_signature+0x204>
   10454:	3ad030ef          	jal	ra,14000 <FN_WriteStr>
   10458:	00030513          	mv	a0,t1
   1045c:	3c1030ef          	jal	ra,1401c <FN_WriteA0>
   10460:	00005517          	auipc	a0,0x5
   10464:	e8650513          	addi	a0,a0,-378 # 152e6 <end_signature+0x206>
   10468:	399030ef          	jal	ra,14000 <FN_WriteStr>
   1046c:	00005517          	auipc	a0,0x5
   10470:	e8050513          	addi	a0,a0,-384 # 152ec <end_signature+0x20c>
   10474:	38d030ef          	jal	ra,14000 <FN_WriteStr>
   10478:	00005517          	auipc	a0,0x5
   1047c:	e7f50513          	addi	a0,a0,-385 # 152f7 <end_signature+0x217>
   10480:	381030ef          	jal	ra,14000 <FN_WriteStr>
   10484:	06400193          	li	gp,100
   10488:	0000100f          	fence.i
   1048c:	00018063          	beqz	gp,1048c <reset_vector+0x440>
   10490:	00119193          	slli	gp,gp,0x1
   10494:	0011e193          	ori	gp,gp,1
   10498:	00000073          	ecall
   1049c:	00000293          	li	t0,0
   104a0:	08538e63          	beq	t2,t0,1053c <reset_vector+0x4f0>
   104a4:	00005517          	auipc	a0,0x5
   104a8:	e5550513          	addi	a0,a0,-427 # 152f9 <end_signature+0x219>
   104ac:	355030ef          	jal	ra,14000 <FN_WriteStr>
   104b0:	00005517          	auipc	a0,0x5
   104b4:	e6450513          	addi	a0,a0,-412 # 15314 <end_signature+0x234>
   104b8:	349030ef          	jal	ra,14000 <FN_WriteStr>
   104bc:	00005517          	auipc	a0,0x5
   104c0:	e6850513          	addi	a0,a0,-408 # 15324 <end_signature+0x244>
   104c4:	33d030ef          	jal	ra,14000 <FN_WriteStr>
   104c8:	00005517          	auipc	a0,0x5
   104cc:	e6450513          	addi	a0,a0,-412 # 1532c <end_signature+0x24c>
   104d0:	331030ef          	jal	ra,14000 <FN_WriteStr>
   104d4:	00005517          	auipc	a0,0x5
   104d8:	e5b50513          	addi	a0,a0,-421 # 1532f <end_signature+0x24f>
   104dc:	325030ef          	jal	ra,14000 <FN_WriteStr>
   104e0:	00005517          	auipc	a0,0x5
   104e4:	e5250513          	addi	a0,a0,-430 # 15332 <end_signature+0x252>
   104e8:	319030ef          	jal	ra,14000 <FN_WriteStr>
   104ec:	00005517          	auipc	a0,0x5
   104f0:	e4950513          	addi	a0,a0,-439 # 15335 <end_signature+0x255>
   104f4:	30d030ef          	jal	ra,14000 <FN_WriteStr>
   104f8:	00038513          	mv	a0,t2
   104fc:	321030ef          	jal	ra,1401c <FN_WriteA0>
   10500:	00005517          	auipc	a0,0x5
   10504:	e3750513          	addi	a0,a0,-457 # 15337 <end_signature+0x257>
   10508:	2f9030ef          	jal	ra,14000 <FN_WriteStr>
   1050c:	00005517          	auipc	a0,0x5
   10510:	e3150513          	addi	a0,a0,-463 # 1533d <end_signature+0x25d>
   10514:	2ed030ef          	jal	ra,14000 <FN_WriteStr>
   10518:	00005517          	auipc	a0,0x5
   1051c:	e3050513          	addi	a0,a0,-464 # 15348 <end_signature+0x268>
   10520:	2e1030ef          	jal	ra,14000 <FN_WriteStr>
   10524:	06400193          	li	gp,100
   10528:	0000100f          	fence.i
   1052c:	00018063          	beqz	gp,1052c <reset_vector+0x4e0>
   10530:	00119193          	slli	gp,gp,0x1
   10534:	0011e193          	ori	gp,gp,1
   10538:	00000073          	ecall
   1053c:	00100293          	li	t0,1
   10540:	08540e63          	beq	s0,t0,105dc <reset_vector+0x590>
   10544:	00005517          	auipc	a0,0x5
   10548:	e0650513          	addi	a0,a0,-506 # 1534a <end_signature+0x26a>
   1054c:	2b5030ef          	jal	ra,14000 <FN_WriteStr>
   10550:	00005517          	auipc	a0,0x5
   10554:	e1550513          	addi	a0,a0,-491 # 15365 <end_signature+0x285>
   10558:	2a9030ef          	jal	ra,14000 <FN_WriteStr>
   1055c:	00005517          	auipc	a0,0x5
   10560:	e1950513          	addi	a0,a0,-487 # 15375 <end_signature+0x295>
   10564:	29d030ef          	jal	ra,14000 <FN_WriteStr>
   10568:	00005517          	auipc	a0,0x5
   1056c:	e1550513          	addi	a0,a0,-491 # 1537d <end_signature+0x29d>
   10570:	291030ef          	jal	ra,14000 <FN_WriteStr>
   10574:	00005517          	auipc	a0,0x5
   10578:	e0c50513          	addi	a0,a0,-500 # 15380 <end_signature+0x2a0>
   1057c:	285030ef          	jal	ra,14000 <FN_WriteStr>
   10580:	00005517          	auipc	a0,0x5
   10584:	e0350513          	addi	a0,a0,-509 # 15383 <end_signature+0x2a3>
   10588:	279030ef          	jal	ra,14000 <FN_WriteStr>
   1058c:	00005517          	auipc	a0,0x5
   10590:	dfa50513          	addi	a0,a0,-518 # 15386 <end_signature+0x2a6>
   10594:	26d030ef          	jal	ra,14000 <FN_WriteStr>
   10598:	00040513          	mv	a0,s0
   1059c:	281030ef          	jal	ra,1401c <FN_WriteA0>
   105a0:	00005517          	auipc	a0,0x5
   105a4:	de850513          	addi	a0,a0,-536 # 15388 <end_signature+0x2a8>
   105a8:	259030ef          	jal	ra,14000 <FN_WriteStr>
   105ac:	00005517          	auipc	a0,0x5
   105b0:	de250513          	addi	a0,a0,-542 # 1538e <end_signature+0x2ae>
   105b4:	24d030ef          	jal	ra,14000 <FN_WriteStr>
   105b8:	00005517          	auipc	a0,0x5
   105bc:	de150513          	addi	a0,a0,-543 # 15399 <end_signature+0x2b9>
   105c0:	241030ef          	jal	ra,14000 <FN_WriteStr>
   105c4:	06400193          	li	gp,100
   105c8:	0000100f          	fence.i
   105cc:	00018063          	beqz	gp,105cc <reset_vector+0x580>
   105d0:	00119193          	slli	gp,gp,0x1
   105d4:	0011e193          	ori	gp,gp,1
   105d8:	00000073          	ecall
   105dc:	00005517          	auipc	a0,0x5
   105e0:	dbf50513          	addi	a0,a0,-577 # 1539b <end_signature+0x2bb>
   105e4:	21d030ef          	jal	ra,14000 <FN_WriteStr>
   105e8:	00005517          	auipc	a0,0x5
   105ec:	dcf50513          	addi	a0,a0,-561 # 153b7 <end_signature+0x2d7>
   105f0:	211030ef          	jal	ra,14000 <FN_WriteStr>
   105f4:	00005097          	auipc	ra,0x5
   105f8:	a1008093          	addi	ra,ra,-1520 # 15004 <test_A2_data>
   105fc:	00005117          	auipc	sp,0x5
   10600:	a3c10113          	addi	sp,sp,-1476 # 15038 <test_A2_res>
   10604:	0000a403          	lw	s0,0(ra)
   10608:	00100493          	li	s1,1
   1060c:	80000537          	lui	a0,0x80000
   10610:	fff50513          	addi	a0,a0,-1 # 7fffffff <_end+0x7ffe9d53>
   10614:	fff00593          	li	a1,-1
   10618:	00000613          	li	a2,0
   1061c:	800006b7          	lui	a3,0x80000
   10620:	009434b3          	sltu	s1,s0,s1
   10624:	00a43533          	sltu	a0,s0,a0
   10628:	00b435b3          	sltu	a1,s0,a1
   1062c:	00c43633          	sltu	a2,s0,a2
   10630:	00d436b3          	sltu	a3,s0,a3
   10634:	00812023          	sw	s0,0(sp)
   10638:	00912223          	sw	s1,4(sp)
   1063c:	00a12423          	sw	a0,8(sp)
   10640:	00b12623          	sw	a1,12(sp)
   10644:	00c12823          	sw	a2,16(sp)
   10648:	00d12a23          	sw	a3,20(sp)
   1064c:	00100293          	li	t0,1
   10650:	08540e63          	beq	s0,t0,106ec <reset_vector+0x6a0>
   10654:	00005517          	auipc	a0,0x5
   10658:	db550513          	addi	a0,a0,-587 # 15409 <end_signature+0x329>
   1065c:	1a5030ef          	jal	ra,14000 <FN_WriteStr>
   10660:	00005517          	auipc	a0,0x5
   10664:	dc450513          	addi	a0,a0,-572 # 15424 <end_signature+0x344>
   10668:	199030ef          	jal	ra,14000 <FN_WriteStr>
   1066c:	00005517          	auipc	a0,0x5
   10670:	dc850513          	addi	a0,a0,-568 # 15434 <end_signature+0x354>
   10674:	18d030ef          	jal	ra,14000 <FN_WriteStr>
   10678:	00005517          	auipc	a0,0x5
   1067c:	dc450513          	addi	a0,a0,-572 # 1543c <end_signature+0x35c>
   10680:	181030ef          	jal	ra,14000 <FN_WriteStr>
   10684:	00005517          	auipc	a0,0x5
   10688:	dbc50513          	addi	a0,a0,-580 # 15440 <end_signature+0x360>
   1068c:	175030ef          	jal	ra,14000 <FN_WriteStr>
   10690:	00005517          	auipc	a0,0x5
   10694:	db350513          	addi	a0,a0,-589 # 15443 <end_signature+0x363>
   10698:	169030ef          	jal	ra,14000 <FN_WriteStr>
   1069c:	00005517          	auipc	a0,0x5
   106a0:	daa50513          	addi	a0,a0,-598 # 15446 <end_signature+0x366>
   106a4:	15d030ef          	jal	ra,14000 <FN_WriteStr>
   106a8:	00040513          	mv	a0,s0
   106ac:	171030ef          	jal	ra,1401c <FN_WriteA0>
   106b0:	00005517          	auipc	a0,0x5
   106b4:	d9850513          	addi	a0,a0,-616 # 15448 <end_signature+0x368>
   106b8:	149030ef          	jal	ra,14000 <FN_WriteStr>
   106bc:	00005517          	auipc	a0,0x5
   106c0:	d9250513          	addi	a0,a0,-622 # 1544e <end_signature+0x36e>
   106c4:	13d030ef          	jal	ra,14000 <FN_WriteStr>
   106c8:	00005517          	auipc	a0,0x5
   106cc:	d9150513          	addi	a0,a0,-623 # 15459 <end_signature+0x379>
   106d0:	131030ef          	jal	ra,14000 <FN_WriteStr>
   106d4:	06400193          	li	gp,100
   106d8:	0000100f          	fence.i
   106dc:	00018063          	beqz	gp,106dc <reset_vector+0x690>
   106e0:	00119193          	slli	gp,gp,0x1
   106e4:	0011e193          	ori	gp,gp,1
   106e8:	00000073          	ecall
   106ec:	00000293          	li	t0,0
   106f0:	08548e63          	beq	s1,t0,1078c <reset_vector+0x740>
   106f4:	00005517          	auipc	a0,0x5
   106f8:	d6750513          	addi	a0,a0,-665 # 1545b <end_signature+0x37b>
   106fc:	105030ef          	jal	ra,14000 <FN_WriteStr>
   10700:	00005517          	auipc	a0,0x5
   10704:	d7650513          	addi	a0,a0,-650 # 15476 <end_signature+0x396>
   10708:	0f9030ef          	jal	ra,14000 <FN_WriteStr>
   1070c:	00005517          	auipc	a0,0x5
   10710:	d7a50513          	addi	a0,a0,-646 # 15486 <end_signature+0x3a6>
   10714:	0ed030ef          	jal	ra,14000 <FN_WriteStr>
   10718:	00005517          	auipc	a0,0x5
   1071c:	d7650513          	addi	a0,a0,-650 # 1548e <end_signature+0x3ae>
   10720:	0e1030ef          	jal	ra,14000 <FN_WriteStr>
   10724:	00005517          	auipc	a0,0x5
   10728:	d6e50513          	addi	a0,a0,-658 # 15492 <end_signature+0x3b2>
   1072c:	0d5030ef          	jal	ra,14000 <FN_WriteStr>
   10730:	00005517          	auipc	a0,0x5
   10734:	d6550513          	addi	a0,a0,-667 # 15495 <end_signature+0x3b5>
   10738:	0c9030ef          	jal	ra,14000 <FN_WriteStr>
   1073c:	00005517          	auipc	a0,0x5
   10740:	d5c50513          	addi	a0,a0,-676 # 15498 <end_signature+0x3b8>
   10744:	0bd030ef          	jal	ra,14000 <FN_WriteStr>
   10748:	00048513          	mv	a0,s1
   1074c:	0d1030ef          	jal	ra,1401c <FN_WriteA0>
   10750:	00005517          	auipc	a0,0x5
   10754:	d4a50513          	addi	a0,a0,-694 # 1549a <end_signature+0x3ba>
   10758:	0a9030ef          	jal	ra,14000 <FN_WriteStr>
   1075c:	00005517          	auipc	a0,0x5
   10760:	d4450513          	addi	a0,a0,-700 # 154a0 <end_signature+0x3c0>
   10764:	09d030ef          	jal	ra,14000 <FN_WriteStr>
   10768:	00005517          	auipc	a0,0x5
   1076c:	d4350513          	addi	a0,a0,-701 # 154ab <end_signature+0x3cb>
   10770:	091030ef          	jal	ra,14000 <FN_WriteStr>
   10774:	06400193          	li	gp,100
   10778:	0000100f          	fence.i
   1077c:	00018063          	beqz	gp,1077c <reset_vector+0x730>
   10780:	00119193          	slli	gp,gp,0x1
   10784:	0011e193          	ori	gp,gp,1
   10788:	00000073          	ecall
   1078c:	00100293          	li	t0,1
   10790:	08558e63          	beq	a1,t0,1082c <reset_vector+0x7e0>
   10794:	00005517          	auipc	a0,0x5
   10798:	d1950513          	addi	a0,a0,-743 # 154ad <end_signature+0x3cd>
   1079c:	065030ef          	jal	ra,14000 <FN_WriteStr>
   107a0:	00005517          	auipc	a0,0x5
   107a4:	d2850513          	addi	a0,a0,-728 # 154c8 <end_signature+0x3e8>
   107a8:	059030ef          	jal	ra,14000 <FN_WriteStr>
   107ac:	00005517          	auipc	a0,0x5
   107b0:	d2c50513          	addi	a0,a0,-724 # 154d8 <end_signature+0x3f8>
   107b4:	04d030ef          	jal	ra,14000 <FN_WriteStr>
   107b8:	00005517          	auipc	a0,0x5
   107bc:	d2850513          	addi	a0,a0,-728 # 154e0 <end_signature+0x400>
   107c0:	041030ef          	jal	ra,14000 <FN_WriteStr>
   107c4:	00005517          	auipc	a0,0x5
   107c8:	d2050513          	addi	a0,a0,-736 # 154e4 <end_signature+0x404>
   107cc:	035030ef          	jal	ra,14000 <FN_WriteStr>
   107d0:	00005517          	auipc	a0,0x5
   107d4:	d1750513          	addi	a0,a0,-745 # 154e7 <end_signature+0x407>
   107d8:	029030ef          	jal	ra,14000 <FN_WriteStr>
   107dc:	00005517          	auipc	a0,0x5
   107e0:	d0f50513          	addi	a0,a0,-753 # 154eb <end_signature+0x40b>
   107e4:	01d030ef          	jal	ra,14000 <FN_WriteStr>
   107e8:	00058513          	mv	a0,a1
   107ec:	031030ef          	jal	ra,1401c <FN_WriteA0>
   107f0:	00005517          	auipc	a0,0x5
   107f4:	cfd50513          	addi	a0,a0,-771 # 154ed <end_signature+0x40d>
   107f8:	009030ef          	jal	ra,14000 <FN_WriteStr>
   107fc:	00005517          	auipc	a0,0x5
   10800:	cf750513          	addi	a0,a0,-777 # 154f3 <end_signature+0x413>
   10804:	7fc030ef          	jal	ra,14000 <FN_WriteStr>
   10808:	00005517          	auipc	a0,0x5
   1080c:	cf650513          	addi	a0,a0,-778 # 154fe <end_signature+0x41e>
   10810:	7f0030ef          	jal	ra,14000 <FN_WriteStr>
   10814:	06400193          	li	gp,100
   10818:	0000100f          	fence.i
   1081c:	00018063          	beqz	gp,1081c <reset_vector+0x7d0>
   10820:	00119193          	slli	gp,gp,0x1
   10824:	0011e193          	ori	gp,gp,1
   10828:	00000073          	ecall
   1082c:	00000293          	li	t0,0
   10830:	08560e63          	beq	a2,t0,108cc <reset_vector+0x880>
   10834:	00005517          	auipc	a0,0x5
   10838:	ccc50513          	addi	a0,a0,-820 # 15500 <end_signature+0x420>
   1083c:	7c4030ef          	jal	ra,14000 <FN_WriteStr>
   10840:	00005517          	auipc	a0,0x5
   10844:	cdb50513          	addi	a0,a0,-805 # 1551b <end_signature+0x43b>
   10848:	7b8030ef          	jal	ra,14000 <FN_WriteStr>
   1084c:	00005517          	auipc	a0,0x5
   10850:	cdf50513          	addi	a0,a0,-801 # 1552b <end_signature+0x44b>
   10854:	7ac030ef          	jal	ra,14000 <FN_WriteStr>
   10858:	00005517          	auipc	a0,0x5
   1085c:	cdb50513          	addi	a0,a0,-805 # 15533 <end_signature+0x453>
   10860:	7a0030ef          	jal	ra,14000 <FN_WriteStr>
   10864:	00005517          	auipc	a0,0x5
   10868:	cd350513          	addi	a0,a0,-813 # 15537 <end_signature+0x457>
   1086c:	794030ef          	jal	ra,14000 <FN_WriteStr>
   10870:	00005517          	auipc	a0,0x5
   10874:	cca50513          	addi	a0,a0,-822 # 1553a <end_signature+0x45a>
   10878:	788030ef          	jal	ra,14000 <FN_WriteStr>
   1087c:	00005517          	auipc	a0,0x5
   10880:	cc250513          	addi	a0,a0,-830 # 1553e <end_signature+0x45e>
   10884:	77c030ef          	jal	ra,14000 <FN_WriteStr>
   10888:	00060513          	mv	a0,a2
   1088c:	790030ef          	jal	ra,1401c <FN_WriteA0>
   10890:	00005517          	auipc	a0,0x5
   10894:	cb050513          	addi	a0,a0,-848 # 15540 <end_signature+0x460>
   10898:	768030ef          	jal	ra,14000 <FN_WriteStr>
   1089c:	00005517          	auipc	a0,0x5
   108a0:	caa50513          	addi	a0,a0,-854 # 15546 <end_signature+0x466>
   108a4:	75c030ef          	jal	ra,14000 <FN_WriteStr>
   108a8:	00005517          	auipc	a0,0x5
   108ac:	ca950513          	addi	a0,a0,-855 # 15551 <end_signature+0x471>
   108b0:	750030ef          	jal	ra,14000 <FN_WriteStr>
   108b4:	06400193          	li	gp,100
   108b8:	0000100f          	fence.i
   108bc:	00018063          	beqz	gp,108bc <reset_vector+0x870>
   108c0:	00119193          	slli	gp,gp,0x1
   108c4:	0011e193          	ori	gp,gp,1
   108c8:	00000073          	ecall
   108cc:	00100293          	li	t0,1
   108d0:	08568e63          	beq	a3,t0,1096c <reset_vector+0x920>
   108d4:	00005517          	auipc	a0,0x5
   108d8:	c7f50513          	addi	a0,a0,-897 # 15553 <end_signature+0x473>
   108dc:	724030ef          	jal	ra,14000 <FN_WriteStr>
   108e0:	00005517          	auipc	a0,0x5
   108e4:	c8e50513          	addi	a0,a0,-882 # 1556e <end_signature+0x48e>
   108e8:	718030ef          	jal	ra,14000 <FN_WriteStr>
   108ec:	00005517          	auipc	a0,0x5
   108f0:	c9250513          	addi	a0,a0,-878 # 1557e <end_signature+0x49e>
   108f4:	70c030ef          	jal	ra,14000 <FN_WriteStr>
   108f8:	00005517          	auipc	a0,0x5
   108fc:	c8e50513          	addi	a0,a0,-882 # 15586 <end_signature+0x4a6>
   10900:	700030ef          	jal	ra,14000 <FN_WriteStr>
   10904:	00005517          	auipc	a0,0x5
   10908:	c8650513          	addi	a0,a0,-890 # 1558a <end_signature+0x4aa>
   1090c:	6f4030ef          	jal	ra,14000 <FN_WriteStr>
   10910:	00005517          	auipc	a0,0x5
   10914:	c7d50513          	addi	a0,a0,-899 # 1558d <end_signature+0x4ad>
   10918:	6e8030ef          	jal	ra,14000 <FN_WriteStr>
   1091c:	00005517          	auipc	a0,0x5
   10920:	c7550513          	addi	a0,a0,-907 # 15591 <end_signature+0x4b1>
   10924:	6dc030ef          	jal	ra,14000 <FN_WriteStr>
   10928:	00068513          	mv	a0,a3
   1092c:	6f0030ef          	jal	ra,1401c <FN_WriteA0>
   10930:	00005517          	auipc	a0,0x5
   10934:	c6350513          	addi	a0,a0,-925 # 15593 <end_signature+0x4b3>
   10938:	6c8030ef          	jal	ra,14000 <FN_WriteStr>
   1093c:	00005517          	auipc	a0,0x5
   10940:	c5d50513          	addi	a0,a0,-931 # 15599 <end_signature+0x4b9>
   10944:	6bc030ef          	jal	ra,14000 <FN_WriteStr>
   10948:	00005517          	auipc	a0,0x5
   1094c:	c5c50513          	addi	a0,a0,-932 # 155a4 <end_signature+0x4c4>
   10950:	6b0030ef          	jal	ra,14000 <FN_WriteStr>
   10954:	06400193          	li	gp,100
   10958:	0000100f          	fence.i
   1095c:	00018063          	beqz	gp,1095c <reset_vector+0x910>
   10960:	00119193          	slli	gp,gp,0x1
   10964:	0011e193          	ori	gp,gp,1
   10968:	00000073          	ecall
   1096c:	00005517          	auipc	a0,0x5
   10970:	c3a50513          	addi	a0,a0,-966 # 155a6 <end_signature+0x4c6>
   10974:	68c030ef          	jal	ra,14000 <FN_WriteStr>
   10978:	00005517          	auipc	a0,0x5
   1097c:	c4a50513          	addi	a0,a0,-950 # 155c2 <end_signature+0x4e2>
   10980:	680030ef          	jal	ra,14000 <FN_WriteStr>
   10984:	00004097          	auipc	ra,0x4
   10988:	68408093          	addi	ra,ra,1668 # 15008 <test_A3_data>
   1098c:	00004117          	auipc	sp,0x4
   10990:	6c410113          	addi	sp,sp,1732 # 15050 <test_A3_res>
   10994:	0000a683          	lw	a3,0(ra)
   10998:	00100713          	li	a4,1
   1099c:	800007b7          	lui	a5,0x80000
   109a0:	fff78793          	addi	a5,a5,-1 # 7fffffff <_end+0x7ffe9d53>
   109a4:	fff00813          	li	a6,-1
   109a8:	00000893          	li	a7,0
   109ac:	80000937          	lui	s2,0x80000
   109b0:	00e6b733          	sltu	a4,a3,a4
   109b4:	00f6b7b3          	sltu	a5,a3,a5
   109b8:	0106b833          	sltu	a6,a3,a6
   109bc:	0116b8b3          	sltu	a7,a3,a7
   109c0:	0126b933          	sltu	s2,a3,s2
   109c4:	00d12023          	sw	a3,0(sp)
   109c8:	00e12223          	sw	a4,4(sp)
   109cc:	00f12423          	sw	a5,8(sp)
   109d0:	01012623          	sw	a6,12(sp)
   109d4:	01112823          	sw	a7,16(sp)
   109d8:	01212a23          	sw	s2,20(sp)
   109dc:	fff00293          	li	t0,-1
   109e0:	08568e63          	beq	a3,t0,10a7c <reset_vector+0xa30>
   109e4:	00005517          	auipc	a0,0x5
   109e8:	c3150513          	addi	a0,a0,-975 # 15615 <end_signature+0x535>
   109ec:	614030ef          	jal	ra,14000 <FN_WriteStr>
   109f0:	00005517          	auipc	a0,0x5
   109f4:	c4050513          	addi	a0,a0,-960 # 15630 <end_signature+0x550>
   109f8:	608030ef          	jal	ra,14000 <FN_WriteStr>
   109fc:	00005517          	auipc	a0,0x5
   10a00:	c4450513          	addi	a0,a0,-956 # 15640 <end_signature+0x560>
   10a04:	5fc030ef          	jal	ra,14000 <FN_WriteStr>
   10a08:	00005517          	auipc	a0,0x5
   10a0c:	c4050513          	addi	a0,a0,-960 # 15648 <end_signature+0x568>
   10a10:	5f0030ef          	jal	ra,14000 <FN_WriteStr>
   10a14:	00005517          	auipc	a0,0x5
   10a18:	c3850513          	addi	a0,a0,-968 # 1564c <end_signature+0x56c>
   10a1c:	5e4030ef          	jal	ra,14000 <FN_WriteStr>
   10a20:	00005517          	auipc	a0,0x5
   10a24:	c2f50513          	addi	a0,a0,-977 # 1564f <end_signature+0x56f>
   10a28:	5d8030ef          	jal	ra,14000 <FN_WriteStr>
   10a2c:	00005517          	auipc	a0,0x5
   10a30:	c2750513          	addi	a0,a0,-985 # 15653 <end_signature+0x573>
   10a34:	5cc030ef          	jal	ra,14000 <FN_WriteStr>
   10a38:	00068513          	mv	a0,a3
   10a3c:	5e0030ef          	jal	ra,1401c <FN_WriteA0>
   10a40:	00005517          	auipc	a0,0x5
   10a44:	c1550513          	addi	a0,a0,-1003 # 15655 <end_signature+0x575>
   10a48:	5b8030ef          	jal	ra,14000 <FN_WriteStr>
   10a4c:	00005517          	auipc	a0,0x5
   10a50:	c0f50513          	addi	a0,a0,-1009 # 1565b <end_signature+0x57b>
   10a54:	5ac030ef          	jal	ra,14000 <FN_WriteStr>
   10a58:	00005517          	auipc	a0,0x5
   10a5c:	c0e50513          	addi	a0,a0,-1010 # 15666 <end_signature+0x586>
   10a60:	5a0030ef          	jal	ra,14000 <FN_WriteStr>
   10a64:	06400193          	li	gp,100
   10a68:	0000100f          	fence.i
   10a6c:	00018063          	beqz	gp,10a6c <reset_vector+0xa20>
   10a70:	00119193          	slli	gp,gp,0x1
   10a74:	0011e193          	ori	gp,gp,1
   10a78:	00000073          	ecall
   10a7c:	00000293          	li	t0,0
   10a80:	08570e63          	beq	a4,t0,10b1c <reset_vector+0xad0>
   10a84:	00005517          	auipc	a0,0x5
   10a88:	be450513          	addi	a0,a0,-1052 # 15668 <end_signature+0x588>
   10a8c:	574030ef          	jal	ra,14000 <FN_WriteStr>
   10a90:	00005517          	auipc	a0,0x5
   10a94:	bf350513          	addi	a0,a0,-1037 # 15683 <end_signature+0x5a3>
   10a98:	568030ef          	jal	ra,14000 <FN_WriteStr>
   10a9c:	00005517          	auipc	a0,0x5
   10aa0:	bf750513          	addi	a0,a0,-1033 # 15693 <end_signature+0x5b3>
   10aa4:	55c030ef          	jal	ra,14000 <FN_WriteStr>
   10aa8:	00005517          	auipc	a0,0x5
   10aac:	bf350513          	addi	a0,a0,-1037 # 1569b <end_signature+0x5bb>
   10ab0:	550030ef          	jal	ra,14000 <FN_WriteStr>
   10ab4:	00005517          	auipc	a0,0x5
   10ab8:	beb50513          	addi	a0,a0,-1045 # 1569f <end_signature+0x5bf>
   10abc:	544030ef          	jal	ra,14000 <FN_WriteStr>
   10ac0:	00005517          	auipc	a0,0x5
   10ac4:	be250513          	addi	a0,a0,-1054 # 156a2 <end_signature+0x5c2>
   10ac8:	538030ef          	jal	ra,14000 <FN_WriteStr>
   10acc:	00005517          	auipc	a0,0x5
   10ad0:	bda50513          	addi	a0,a0,-1062 # 156a6 <end_signature+0x5c6>
   10ad4:	52c030ef          	jal	ra,14000 <FN_WriteStr>
   10ad8:	00070513          	mv	a0,a4
   10adc:	540030ef          	jal	ra,1401c <FN_WriteA0>
   10ae0:	00005517          	auipc	a0,0x5
   10ae4:	bc850513          	addi	a0,a0,-1080 # 156a8 <end_signature+0x5c8>
   10ae8:	518030ef          	jal	ra,14000 <FN_WriteStr>
   10aec:	00005517          	auipc	a0,0x5
   10af0:	bc250513          	addi	a0,a0,-1086 # 156ae <end_signature+0x5ce>
   10af4:	50c030ef          	jal	ra,14000 <FN_WriteStr>
   10af8:	00005517          	auipc	a0,0x5
   10afc:	bc150513          	addi	a0,a0,-1087 # 156b9 <end_signature+0x5d9>
   10b00:	500030ef          	jal	ra,14000 <FN_WriteStr>
   10b04:	06400193          	li	gp,100
   10b08:	0000100f          	fence.i
   10b0c:	00018063          	beqz	gp,10b0c <reset_vector+0xac0>
   10b10:	00119193          	slli	gp,gp,0x1
   10b14:	0011e193          	ori	gp,gp,1
   10b18:	00000073          	ecall
   10b1c:	00000293          	li	t0,0
   10b20:	08578e63          	beq	a5,t0,10bbc <reset_vector+0xb70>
   10b24:	00005517          	auipc	a0,0x5
   10b28:	b9750513          	addi	a0,a0,-1129 # 156bb <end_signature+0x5db>
   10b2c:	4d4030ef          	jal	ra,14000 <FN_WriteStr>
   10b30:	00005517          	auipc	a0,0x5
   10b34:	ba650513          	addi	a0,a0,-1114 # 156d6 <end_signature+0x5f6>
   10b38:	4c8030ef          	jal	ra,14000 <FN_WriteStr>
   10b3c:	00005517          	auipc	a0,0x5
   10b40:	baa50513          	addi	a0,a0,-1110 # 156e6 <end_signature+0x606>
   10b44:	4bc030ef          	jal	ra,14000 <FN_WriteStr>
   10b48:	00005517          	auipc	a0,0x5
   10b4c:	ba650513          	addi	a0,a0,-1114 # 156ee <end_signature+0x60e>
   10b50:	4b0030ef          	jal	ra,14000 <FN_WriteStr>
   10b54:	00005517          	auipc	a0,0x5
   10b58:	b9e50513          	addi	a0,a0,-1122 # 156f2 <end_signature+0x612>
   10b5c:	4a4030ef          	jal	ra,14000 <FN_WriteStr>
   10b60:	00005517          	auipc	a0,0x5
   10b64:	b9550513          	addi	a0,a0,-1131 # 156f5 <end_signature+0x615>
   10b68:	498030ef          	jal	ra,14000 <FN_WriteStr>
   10b6c:	00005517          	auipc	a0,0x5
   10b70:	b8d50513          	addi	a0,a0,-1139 # 156f9 <end_signature+0x619>
   10b74:	48c030ef          	jal	ra,14000 <FN_WriteStr>
   10b78:	00078513          	mv	a0,a5
   10b7c:	4a0030ef          	jal	ra,1401c <FN_WriteA0>
   10b80:	00005517          	auipc	a0,0x5
   10b84:	b7b50513          	addi	a0,a0,-1157 # 156fb <end_signature+0x61b>
   10b88:	478030ef          	jal	ra,14000 <FN_WriteStr>
   10b8c:	00005517          	auipc	a0,0x5
   10b90:	b7550513          	addi	a0,a0,-1163 # 15701 <end_signature+0x621>
   10b94:	46c030ef          	jal	ra,14000 <FN_WriteStr>
   10b98:	00005517          	auipc	a0,0x5
   10b9c:	b7450513          	addi	a0,a0,-1164 # 1570c <end_signature+0x62c>
   10ba0:	460030ef          	jal	ra,14000 <FN_WriteStr>
   10ba4:	06400193          	li	gp,100
   10ba8:	0000100f          	fence.i
   10bac:	00018063          	beqz	gp,10bac <reset_vector+0xb60>
   10bb0:	00119193          	slli	gp,gp,0x1
   10bb4:	0011e193          	ori	gp,gp,1
   10bb8:	00000073          	ecall
   10bbc:	00000293          	li	t0,0
   10bc0:	08580e63          	beq	a6,t0,10c5c <reset_vector+0xc10>
   10bc4:	00005517          	auipc	a0,0x5
   10bc8:	b4a50513          	addi	a0,a0,-1206 # 1570e <end_signature+0x62e>
   10bcc:	434030ef          	jal	ra,14000 <FN_WriteStr>
   10bd0:	00005517          	auipc	a0,0x5
   10bd4:	b5950513          	addi	a0,a0,-1191 # 15729 <end_signature+0x649>
   10bd8:	428030ef          	jal	ra,14000 <FN_WriteStr>
   10bdc:	00005517          	auipc	a0,0x5
   10be0:	b5d50513          	addi	a0,a0,-1187 # 15739 <end_signature+0x659>
   10be4:	41c030ef          	jal	ra,14000 <FN_WriteStr>
   10be8:	00005517          	auipc	a0,0x5
   10bec:	b5950513          	addi	a0,a0,-1191 # 15741 <end_signature+0x661>
   10bf0:	410030ef          	jal	ra,14000 <FN_WriteStr>
   10bf4:	00005517          	auipc	a0,0x5
   10bf8:	b5150513          	addi	a0,a0,-1199 # 15745 <end_signature+0x665>
   10bfc:	404030ef          	jal	ra,14000 <FN_WriteStr>
   10c00:	00005517          	auipc	a0,0x5
   10c04:	b4850513          	addi	a0,a0,-1208 # 15748 <end_signature+0x668>
   10c08:	3f8030ef          	jal	ra,14000 <FN_WriteStr>
   10c0c:	00005517          	auipc	a0,0x5
   10c10:	b4050513          	addi	a0,a0,-1216 # 1574c <end_signature+0x66c>
   10c14:	3ec030ef          	jal	ra,14000 <FN_WriteStr>
   10c18:	00080513          	mv	a0,a6
   10c1c:	400030ef          	jal	ra,1401c <FN_WriteA0>
   10c20:	00005517          	auipc	a0,0x5
   10c24:	b2e50513          	addi	a0,a0,-1234 # 1574e <end_signature+0x66e>
   10c28:	3d8030ef          	jal	ra,14000 <FN_WriteStr>
   10c2c:	00005517          	auipc	a0,0x5
   10c30:	b2850513          	addi	a0,a0,-1240 # 15754 <end_signature+0x674>
   10c34:	3cc030ef          	jal	ra,14000 <FN_WriteStr>
   10c38:	00005517          	auipc	a0,0x5
   10c3c:	b2750513          	addi	a0,a0,-1241 # 1575f <end_signature+0x67f>
   10c40:	3c0030ef          	jal	ra,14000 <FN_WriteStr>
   10c44:	06400193          	li	gp,100
   10c48:	0000100f          	fence.i
   10c4c:	00018063          	beqz	gp,10c4c <reset_vector+0xc00>
   10c50:	00119193          	slli	gp,gp,0x1
   10c54:	0011e193          	ori	gp,gp,1
   10c58:	00000073          	ecall
   10c5c:	00000293          	li	t0,0
   10c60:	08588e63          	beq	a7,t0,10cfc <reset_vector+0xcb0>
   10c64:	00005517          	auipc	a0,0x5
   10c68:	afd50513          	addi	a0,a0,-1283 # 15761 <end_signature+0x681>
   10c6c:	394030ef          	jal	ra,14000 <FN_WriteStr>
   10c70:	00005517          	auipc	a0,0x5
   10c74:	b0c50513          	addi	a0,a0,-1268 # 1577c <end_signature+0x69c>
   10c78:	388030ef          	jal	ra,14000 <FN_WriteStr>
   10c7c:	00005517          	auipc	a0,0x5
   10c80:	b1050513          	addi	a0,a0,-1264 # 1578c <end_signature+0x6ac>
   10c84:	37c030ef          	jal	ra,14000 <FN_WriteStr>
   10c88:	00005517          	auipc	a0,0x5
   10c8c:	b0c50513          	addi	a0,a0,-1268 # 15794 <end_signature+0x6b4>
   10c90:	370030ef          	jal	ra,14000 <FN_WriteStr>
   10c94:	00005517          	auipc	a0,0x5
   10c98:	b0450513          	addi	a0,a0,-1276 # 15798 <end_signature+0x6b8>
   10c9c:	364030ef          	jal	ra,14000 <FN_WriteStr>
   10ca0:	00005517          	auipc	a0,0x5
   10ca4:	afb50513          	addi	a0,a0,-1285 # 1579b <end_signature+0x6bb>
   10ca8:	358030ef          	jal	ra,14000 <FN_WriteStr>
   10cac:	00005517          	auipc	a0,0x5
   10cb0:	af350513          	addi	a0,a0,-1293 # 1579f <end_signature+0x6bf>
   10cb4:	34c030ef          	jal	ra,14000 <FN_WriteStr>
   10cb8:	00088513          	mv	a0,a7
   10cbc:	360030ef          	jal	ra,1401c <FN_WriteA0>
   10cc0:	00005517          	auipc	a0,0x5
   10cc4:	ae150513          	addi	a0,a0,-1311 # 157a1 <end_signature+0x6c1>
   10cc8:	338030ef          	jal	ra,14000 <FN_WriteStr>
   10ccc:	00005517          	auipc	a0,0x5
   10cd0:	adb50513          	addi	a0,a0,-1317 # 157a7 <end_signature+0x6c7>
   10cd4:	32c030ef          	jal	ra,14000 <FN_WriteStr>
   10cd8:	00005517          	auipc	a0,0x5
   10cdc:	ada50513          	addi	a0,a0,-1318 # 157b2 <end_signature+0x6d2>
   10ce0:	320030ef          	jal	ra,14000 <FN_WriteStr>
   10ce4:	06400193          	li	gp,100
   10ce8:	0000100f          	fence.i
   10cec:	00018063          	beqz	gp,10cec <reset_vector+0xca0>
   10cf0:	00119193          	slli	gp,gp,0x1
   10cf4:	0011e193          	ori	gp,gp,1
   10cf8:	00000073          	ecall
   10cfc:	00000293          	li	t0,0
   10d00:	08590e63          	beq	s2,t0,10d9c <reset_vector+0xd50>
   10d04:	00005517          	auipc	a0,0x5
   10d08:	ab050513          	addi	a0,a0,-1360 # 157b4 <end_signature+0x6d4>
   10d0c:	2f4030ef          	jal	ra,14000 <FN_WriteStr>
   10d10:	00005517          	auipc	a0,0x5
   10d14:	abf50513          	addi	a0,a0,-1345 # 157cf <end_signature+0x6ef>
   10d18:	2e8030ef          	jal	ra,14000 <FN_WriteStr>
   10d1c:	00005517          	auipc	a0,0x5
   10d20:	ac350513          	addi	a0,a0,-1341 # 157df <end_signature+0x6ff>
   10d24:	2dc030ef          	jal	ra,14000 <FN_WriteStr>
   10d28:	00005517          	auipc	a0,0x5
   10d2c:	abf50513          	addi	a0,a0,-1345 # 157e7 <end_signature+0x707>
   10d30:	2d0030ef          	jal	ra,14000 <FN_WriteStr>
   10d34:	00005517          	auipc	a0,0x5
   10d38:	ab750513          	addi	a0,a0,-1353 # 157eb <end_signature+0x70b>
   10d3c:	2c4030ef          	jal	ra,14000 <FN_WriteStr>
   10d40:	00005517          	auipc	a0,0x5
   10d44:	aae50513          	addi	a0,a0,-1362 # 157ee <end_signature+0x70e>
   10d48:	2b8030ef          	jal	ra,14000 <FN_WriteStr>
   10d4c:	00005517          	auipc	a0,0x5
   10d50:	aa650513          	addi	a0,a0,-1370 # 157f2 <end_signature+0x712>
   10d54:	2ac030ef          	jal	ra,14000 <FN_WriteStr>
   10d58:	00090513          	mv	a0,s2
   10d5c:	2c0030ef          	jal	ra,1401c <FN_WriteA0>
   10d60:	00005517          	auipc	a0,0x5
   10d64:	a9450513          	addi	a0,a0,-1388 # 157f4 <end_signature+0x714>
   10d68:	298030ef          	jal	ra,14000 <FN_WriteStr>
   10d6c:	00005517          	auipc	a0,0x5
   10d70:	a8e50513          	addi	a0,a0,-1394 # 157fa <end_signature+0x71a>
   10d74:	28c030ef          	jal	ra,14000 <FN_WriteStr>
   10d78:	00005517          	auipc	a0,0x5
   10d7c:	a8d50513          	addi	a0,a0,-1395 # 15805 <end_signature+0x725>
   10d80:	280030ef          	jal	ra,14000 <FN_WriteStr>
   10d84:	06400193          	li	gp,100
   10d88:	0000100f          	fence.i
   10d8c:	00018063          	beqz	gp,10d8c <reset_vector+0xd40>
   10d90:	00119193          	slli	gp,gp,0x1
   10d94:	0011e193          	ori	gp,gp,1
   10d98:	00000073          	ecall
   10d9c:	00005517          	auipc	a0,0x5
   10da0:	a6b50513          	addi	a0,a0,-1429 # 15807 <end_signature+0x727>
   10da4:	25c030ef          	jal	ra,14000 <FN_WriteStr>
   10da8:	00005517          	auipc	a0,0x5
   10dac:	a7b50513          	addi	a0,a0,-1413 # 15823 <end_signature+0x743>
   10db0:	250030ef          	jal	ra,14000 <FN_WriteStr>
   10db4:	00004097          	auipc	ra,0x4
   10db8:	25808093          	addi	ra,ra,600 # 1500c <test_A4_data>
   10dbc:	00004117          	auipc	sp,0x4
   10dc0:	2ac10113          	addi	sp,sp,684 # 15068 <test_A4_res>
   10dc4:	0000a903          	lw	s2,0(ra)
   10dc8:	00100993          	li	s3,1
   10dcc:	80000a37          	lui	s4,0x80000
   10dd0:	fffa0a13          	addi	s4,s4,-1 # 7fffffff <_end+0x7ffe9d53>
   10dd4:	fff00a93          	li	s5,-1
   10dd8:	00000b13          	li	s6,0
   10ddc:	80000bb7          	lui	s7,0x80000
   10de0:	013939b3          	sltu	s3,s2,s3
   10de4:	01493a33          	sltu	s4,s2,s4
   10de8:	01593ab3          	sltu	s5,s2,s5
   10dec:	01693b33          	sltu	s6,s2,s6
   10df0:	01793bb3          	sltu	s7,s2,s7
   10df4:	01212023          	sw	s2,0(sp)
   10df8:	01312223          	sw	s3,4(sp)
   10dfc:	01412423          	sw	s4,8(sp)
   10e00:	01512623          	sw	s5,12(sp)
   10e04:	01612823          	sw	s6,16(sp)
   10e08:	01712a23          	sw	s7,20(sp)
   10e0c:	800002b7          	lui	t0,0x80000
   10e10:	fff28293          	addi	t0,t0,-1 # 7fffffff <_end+0x7ffe9d53>
   10e14:	08590e63          	beq	s2,t0,10eb0 <reset_vector+0xe64>
   10e18:	00005517          	auipc	a0,0x5
   10e1c:	a6650513          	addi	a0,a0,-1434 # 1587e <end_signature+0x79e>
   10e20:	1e0030ef          	jal	ra,14000 <FN_WriteStr>
   10e24:	00005517          	auipc	a0,0x5
   10e28:	a7550513          	addi	a0,a0,-1419 # 15899 <end_signature+0x7b9>
   10e2c:	1d4030ef          	jal	ra,14000 <FN_WriteStr>
   10e30:	00005517          	auipc	a0,0x5
   10e34:	a7950513          	addi	a0,a0,-1415 # 158a9 <end_signature+0x7c9>
   10e38:	1c8030ef          	jal	ra,14000 <FN_WriteStr>
   10e3c:	00005517          	auipc	a0,0x5
   10e40:	a7550513          	addi	a0,a0,-1419 # 158b1 <end_signature+0x7d1>
   10e44:	1bc030ef          	jal	ra,14000 <FN_WriteStr>
   10e48:	00005517          	auipc	a0,0x5
   10e4c:	a6d50513          	addi	a0,a0,-1427 # 158b5 <end_signature+0x7d5>
   10e50:	1b0030ef          	jal	ra,14000 <FN_WriteStr>
   10e54:	00005517          	auipc	a0,0x5
   10e58:	a6450513          	addi	a0,a0,-1436 # 158b8 <end_signature+0x7d8>
   10e5c:	1a4030ef          	jal	ra,14000 <FN_WriteStr>
   10e60:	00005517          	auipc	a0,0x5
   10e64:	a5c50513          	addi	a0,a0,-1444 # 158bc <end_signature+0x7dc>
   10e68:	198030ef          	jal	ra,14000 <FN_WriteStr>
   10e6c:	00090513          	mv	a0,s2
   10e70:	1ac030ef          	jal	ra,1401c <FN_WriteA0>
   10e74:	00005517          	auipc	a0,0x5
   10e78:	a4a50513          	addi	a0,a0,-1462 # 158be <end_signature+0x7de>
   10e7c:	184030ef          	jal	ra,14000 <FN_WriteStr>
   10e80:	00005517          	auipc	a0,0x5
   10e84:	a4450513          	addi	a0,a0,-1468 # 158c4 <end_signature+0x7e4>
   10e88:	178030ef          	jal	ra,14000 <FN_WriteStr>
   10e8c:	00005517          	auipc	a0,0x5
   10e90:	a4350513          	addi	a0,a0,-1469 # 158cf <end_signature+0x7ef>
   10e94:	16c030ef          	jal	ra,14000 <FN_WriteStr>
   10e98:	06400193          	li	gp,100
   10e9c:	0000100f          	fence.i
   10ea0:	00018063          	beqz	gp,10ea0 <reset_vector+0xe54>
   10ea4:	00119193          	slli	gp,gp,0x1
   10ea8:	0011e193          	ori	gp,gp,1
   10eac:	00000073          	ecall
   10eb0:	00000293          	li	t0,0
   10eb4:	08598e63          	beq	s3,t0,10f50 <reset_vector+0xf04>
   10eb8:	00005517          	auipc	a0,0x5
   10ebc:	a1950513          	addi	a0,a0,-1511 # 158d1 <end_signature+0x7f1>
   10ec0:	140030ef          	jal	ra,14000 <FN_WriteStr>
   10ec4:	00005517          	auipc	a0,0x5
   10ec8:	a2850513          	addi	a0,a0,-1496 # 158ec <end_signature+0x80c>
   10ecc:	134030ef          	jal	ra,14000 <FN_WriteStr>
   10ed0:	00005517          	auipc	a0,0x5
   10ed4:	a2c50513          	addi	a0,a0,-1492 # 158fc <end_signature+0x81c>
   10ed8:	128030ef          	jal	ra,14000 <FN_WriteStr>
   10edc:	00005517          	auipc	a0,0x5
   10ee0:	a2850513          	addi	a0,a0,-1496 # 15904 <end_signature+0x824>
   10ee4:	11c030ef          	jal	ra,14000 <FN_WriteStr>
   10ee8:	00005517          	auipc	a0,0x5
   10eec:	a2050513          	addi	a0,a0,-1504 # 15908 <end_signature+0x828>
   10ef0:	110030ef          	jal	ra,14000 <FN_WriteStr>
   10ef4:	00005517          	auipc	a0,0x5
   10ef8:	a1750513          	addi	a0,a0,-1513 # 1590b <end_signature+0x82b>
   10efc:	104030ef          	jal	ra,14000 <FN_WriteStr>
   10f00:	00005517          	auipc	a0,0x5
   10f04:	a0f50513          	addi	a0,a0,-1521 # 1590f <end_signature+0x82f>
   10f08:	0f8030ef          	jal	ra,14000 <FN_WriteStr>
   10f0c:	00098513          	mv	a0,s3
   10f10:	10c030ef          	jal	ra,1401c <FN_WriteA0>
   10f14:	00005517          	auipc	a0,0x5
   10f18:	9fd50513          	addi	a0,a0,-1539 # 15911 <end_signature+0x831>
   10f1c:	0e4030ef          	jal	ra,14000 <FN_WriteStr>
   10f20:	00005517          	auipc	a0,0x5
   10f24:	9f750513          	addi	a0,a0,-1545 # 15917 <end_signature+0x837>
   10f28:	0d8030ef          	jal	ra,14000 <FN_WriteStr>
   10f2c:	00005517          	auipc	a0,0x5
   10f30:	9f650513          	addi	a0,a0,-1546 # 15922 <end_signature+0x842>
   10f34:	0cc030ef          	jal	ra,14000 <FN_WriteStr>
   10f38:	06400193          	li	gp,100
   10f3c:	0000100f          	fence.i
   10f40:	00018063          	beqz	gp,10f40 <reset_vector+0xef4>
   10f44:	00119193          	slli	gp,gp,0x1
   10f48:	0011e193          	ori	gp,gp,1
   10f4c:	00000073          	ecall
   10f50:	00000293          	li	t0,0
   10f54:	085a0e63          	beq	s4,t0,10ff0 <reset_vector+0xfa4>
   10f58:	00005517          	auipc	a0,0x5
   10f5c:	9cc50513          	addi	a0,a0,-1588 # 15924 <end_signature+0x844>
   10f60:	0a0030ef          	jal	ra,14000 <FN_WriteStr>
   10f64:	00005517          	auipc	a0,0x5
   10f68:	9db50513          	addi	a0,a0,-1573 # 1593f <end_signature+0x85f>
   10f6c:	094030ef          	jal	ra,14000 <FN_WriteStr>
   10f70:	00005517          	auipc	a0,0x5
   10f74:	9df50513          	addi	a0,a0,-1569 # 1594f <end_signature+0x86f>
   10f78:	088030ef          	jal	ra,14000 <FN_WriteStr>
   10f7c:	00005517          	auipc	a0,0x5
   10f80:	9db50513          	addi	a0,a0,-1573 # 15957 <end_signature+0x877>
   10f84:	07c030ef          	jal	ra,14000 <FN_WriteStr>
   10f88:	00005517          	auipc	a0,0x5
   10f8c:	9d350513          	addi	a0,a0,-1581 # 1595b <end_signature+0x87b>
   10f90:	070030ef          	jal	ra,14000 <FN_WriteStr>
   10f94:	00005517          	auipc	a0,0x5
   10f98:	9ca50513          	addi	a0,a0,-1590 # 1595e <end_signature+0x87e>
   10f9c:	064030ef          	jal	ra,14000 <FN_WriteStr>
   10fa0:	00005517          	auipc	a0,0x5
   10fa4:	9c250513          	addi	a0,a0,-1598 # 15962 <end_signature+0x882>
   10fa8:	058030ef          	jal	ra,14000 <FN_WriteStr>
   10fac:	000a0513          	mv	a0,s4
   10fb0:	06c030ef          	jal	ra,1401c <FN_WriteA0>
   10fb4:	00005517          	auipc	a0,0x5
   10fb8:	9b050513          	addi	a0,a0,-1616 # 15964 <end_signature+0x884>
   10fbc:	044030ef          	jal	ra,14000 <FN_WriteStr>
   10fc0:	00005517          	auipc	a0,0x5
   10fc4:	9aa50513          	addi	a0,a0,-1622 # 1596a <end_signature+0x88a>
   10fc8:	038030ef          	jal	ra,14000 <FN_WriteStr>
   10fcc:	00005517          	auipc	a0,0x5
   10fd0:	9a950513          	addi	a0,a0,-1623 # 15975 <end_signature+0x895>
   10fd4:	02c030ef          	jal	ra,14000 <FN_WriteStr>
   10fd8:	06400193          	li	gp,100
   10fdc:	0000100f          	fence.i
   10fe0:	00018063          	beqz	gp,10fe0 <reset_vector+0xf94>
   10fe4:	00119193          	slli	gp,gp,0x1
   10fe8:	0011e193          	ori	gp,gp,1
   10fec:	00000073          	ecall
   10ff0:	00100293          	li	t0,1
   10ff4:	085a8e63          	beq	s5,t0,11090 <reset_vector+0x1044>
   10ff8:	00005517          	auipc	a0,0x5
   10ffc:	97f50513          	addi	a0,a0,-1665 # 15977 <end_signature+0x897>
   11000:	000030ef          	jal	ra,14000 <FN_WriteStr>
   11004:	00005517          	auipc	a0,0x5
   11008:	98e50513          	addi	a0,a0,-1650 # 15992 <end_signature+0x8b2>
   1100c:	7f5020ef          	jal	ra,14000 <FN_WriteStr>
   11010:	00005517          	auipc	a0,0x5
   11014:	99250513          	addi	a0,a0,-1646 # 159a2 <end_signature+0x8c2>
   11018:	7e9020ef          	jal	ra,14000 <FN_WriteStr>
   1101c:	00005517          	auipc	a0,0x5
   11020:	98e50513          	addi	a0,a0,-1650 # 159aa <end_signature+0x8ca>
   11024:	7dd020ef          	jal	ra,14000 <FN_WriteStr>
   11028:	00005517          	auipc	a0,0x5
   1102c:	98650513          	addi	a0,a0,-1658 # 159ae <end_signature+0x8ce>
   11030:	7d1020ef          	jal	ra,14000 <FN_WriteStr>
   11034:	00005517          	auipc	a0,0x5
   11038:	97d50513          	addi	a0,a0,-1667 # 159b1 <end_signature+0x8d1>
   1103c:	7c5020ef          	jal	ra,14000 <FN_WriteStr>
   11040:	00005517          	auipc	a0,0x5
   11044:	97550513          	addi	a0,a0,-1675 # 159b5 <end_signature+0x8d5>
   11048:	7b9020ef          	jal	ra,14000 <FN_WriteStr>
   1104c:	000a8513          	mv	a0,s5
   11050:	7cd020ef          	jal	ra,1401c <FN_WriteA0>
   11054:	00005517          	auipc	a0,0x5
   11058:	96350513          	addi	a0,a0,-1693 # 159b7 <end_signature+0x8d7>
   1105c:	7a5020ef          	jal	ra,14000 <FN_WriteStr>
   11060:	00005517          	auipc	a0,0x5
   11064:	95d50513          	addi	a0,a0,-1699 # 159bd <end_signature+0x8dd>
   11068:	799020ef          	jal	ra,14000 <FN_WriteStr>
   1106c:	00005517          	auipc	a0,0x5
   11070:	95c50513          	addi	a0,a0,-1700 # 159c8 <end_signature+0x8e8>
   11074:	78d020ef          	jal	ra,14000 <FN_WriteStr>
   11078:	06400193          	li	gp,100
   1107c:	0000100f          	fence.i
   11080:	00018063          	beqz	gp,11080 <reset_vector+0x1034>
   11084:	00119193          	slli	gp,gp,0x1
   11088:	0011e193          	ori	gp,gp,1
   1108c:	00000073          	ecall
   11090:	00000293          	li	t0,0
   11094:	085b0e63          	beq	s6,t0,11130 <reset_vector+0x10e4>
   11098:	00005517          	auipc	a0,0x5
   1109c:	93250513          	addi	a0,a0,-1742 # 159ca <end_signature+0x8ea>
   110a0:	761020ef          	jal	ra,14000 <FN_WriteStr>
   110a4:	00005517          	auipc	a0,0x5
   110a8:	94150513          	addi	a0,a0,-1727 # 159e5 <end_signature+0x905>
   110ac:	755020ef          	jal	ra,14000 <FN_WriteStr>
   110b0:	00005517          	auipc	a0,0x5
   110b4:	94550513          	addi	a0,a0,-1723 # 159f5 <end_signature+0x915>
   110b8:	749020ef          	jal	ra,14000 <FN_WriteStr>
   110bc:	00005517          	auipc	a0,0x5
   110c0:	94150513          	addi	a0,a0,-1727 # 159fd <end_signature+0x91d>
   110c4:	73d020ef          	jal	ra,14000 <FN_WriteStr>
   110c8:	00005517          	auipc	a0,0x5
   110cc:	93950513          	addi	a0,a0,-1735 # 15a01 <end_signature+0x921>
   110d0:	731020ef          	jal	ra,14000 <FN_WriteStr>
   110d4:	00005517          	auipc	a0,0x5
   110d8:	93050513          	addi	a0,a0,-1744 # 15a04 <end_signature+0x924>
   110dc:	725020ef          	jal	ra,14000 <FN_WriteStr>
   110e0:	00005517          	auipc	a0,0x5
   110e4:	92850513          	addi	a0,a0,-1752 # 15a08 <end_signature+0x928>
   110e8:	719020ef          	jal	ra,14000 <FN_WriteStr>
   110ec:	000b0513          	mv	a0,s6
   110f0:	72d020ef          	jal	ra,1401c <FN_WriteA0>
   110f4:	00005517          	auipc	a0,0x5
   110f8:	91650513          	addi	a0,a0,-1770 # 15a0a <end_signature+0x92a>
   110fc:	705020ef          	jal	ra,14000 <FN_WriteStr>
   11100:	00005517          	auipc	a0,0x5
   11104:	91050513          	addi	a0,a0,-1776 # 15a10 <end_signature+0x930>
   11108:	6f9020ef          	jal	ra,14000 <FN_WriteStr>
   1110c:	00005517          	auipc	a0,0x5
   11110:	90f50513          	addi	a0,a0,-1777 # 15a1b <end_signature+0x93b>
   11114:	6ed020ef          	jal	ra,14000 <FN_WriteStr>
   11118:	06400193          	li	gp,100
   1111c:	0000100f          	fence.i
   11120:	00018063          	beqz	gp,11120 <reset_vector+0x10d4>
   11124:	00119193          	slli	gp,gp,0x1
   11128:	0011e193          	ori	gp,gp,1
   1112c:	00000073          	ecall
   11130:	00100293          	li	t0,1
   11134:	085b8e63          	beq	s7,t0,111d0 <reset_vector+0x1184>
   11138:	00005517          	auipc	a0,0x5
   1113c:	8e550513          	addi	a0,a0,-1819 # 15a1d <end_signature+0x93d>
   11140:	6c1020ef          	jal	ra,14000 <FN_WriteStr>
   11144:	00005517          	auipc	a0,0x5
   11148:	8f450513          	addi	a0,a0,-1804 # 15a38 <end_signature+0x958>
   1114c:	6b5020ef          	jal	ra,14000 <FN_WriteStr>
   11150:	00005517          	auipc	a0,0x5
   11154:	8f850513          	addi	a0,a0,-1800 # 15a48 <end_signature+0x968>
   11158:	6a9020ef          	jal	ra,14000 <FN_WriteStr>
   1115c:	00005517          	auipc	a0,0x5
   11160:	8f450513          	addi	a0,a0,-1804 # 15a50 <end_signature+0x970>
   11164:	69d020ef          	jal	ra,14000 <FN_WriteStr>
   11168:	00005517          	auipc	a0,0x5
   1116c:	8ec50513          	addi	a0,a0,-1812 # 15a54 <end_signature+0x974>
   11170:	691020ef          	jal	ra,14000 <FN_WriteStr>
   11174:	00005517          	auipc	a0,0x5
   11178:	8e350513          	addi	a0,a0,-1821 # 15a57 <end_signature+0x977>
   1117c:	685020ef          	jal	ra,14000 <FN_WriteStr>
   11180:	00005517          	auipc	a0,0x5
   11184:	8db50513          	addi	a0,a0,-1829 # 15a5b <end_signature+0x97b>
   11188:	679020ef          	jal	ra,14000 <FN_WriteStr>
   1118c:	000b8513          	mv	a0,s7
   11190:	68d020ef          	jal	ra,1401c <FN_WriteA0>
   11194:	00005517          	auipc	a0,0x5
   11198:	8c950513          	addi	a0,a0,-1847 # 15a5d <end_signature+0x97d>
   1119c:	665020ef          	jal	ra,14000 <FN_WriteStr>
   111a0:	00005517          	auipc	a0,0x5
   111a4:	8c350513          	addi	a0,a0,-1853 # 15a63 <end_signature+0x983>
   111a8:	659020ef          	jal	ra,14000 <FN_WriteStr>
   111ac:	00005517          	auipc	a0,0x5
   111b0:	8c250513          	addi	a0,a0,-1854 # 15a6e <end_signature+0x98e>
   111b4:	64d020ef          	jal	ra,14000 <FN_WriteStr>
   111b8:	06400193          	li	gp,100
   111bc:	0000100f          	fence.i
   111c0:	00018063          	beqz	gp,111c0 <reset_vector+0x1174>
   111c4:	00119193          	slli	gp,gp,0x1
   111c8:	0011e193          	ori	gp,gp,1
   111cc:	00000073          	ecall
   111d0:	00005517          	auipc	a0,0x5
   111d4:	8a050513          	addi	a0,a0,-1888 # 15a70 <end_signature+0x990>
   111d8:	629020ef          	jal	ra,14000 <FN_WriteStr>
   111dc:	00005517          	auipc	a0,0x5
   111e0:	8b050513          	addi	a0,a0,-1872 # 15a8c <end_signature+0x9ac>
   111e4:	61d020ef          	jal	ra,14000 <FN_WriteStr>
   111e8:	00004097          	auipc	ra,0x4
   111ec:	e2808093          	addi	ra,ra,-472 # 15010 <test_A5_data>
   111f0:	00004117          	auipc	sp,0x4
   111f4:	e9010113          	addi	sp,sp,-368 # 15080 <test_A5_res>
   111f8:	0000ab83          	lw	s7,0(ra)
   111fc:	00100c13          	li	s8,1
   11200:	80000cb7          	lui	s9,0x80000
   11204:	fffc8c93          	addi	s9,s9,-1 # 7fffffff <_end+0x7ffe9d53>
   11208:	fff00d13          	li	s10,-1
   1120c:	00000d93          	li	s11,0
   11210:	80000e37          	lui	t3,0x80000
   11214:	018bbc33          	sltu	s8,s7,s8
   11218:	019bbcb3          	sltu	s9,s7,s9
   1121c:	01abbd33          	sltu	s10,s7,s10
   11220:	01bbbdb3          	sltu	s11,s7,s11
   11224:	01cbbe33          	sltu	t3,s7,t3
   11228:	01712023          	sw	s7,0(sp)
   1122c:	01812223          	sw	s8,4(sp)
   11230:	01912423          	sw	s9,8(sp)
   11234:	01a12623          	sw	s10,12(sp)
   11238:	01b12823          	sw	s11,16(sp)
   1123c:	01c12a23          	sw	t3,20(sp)
   11240:	800002b7          	lui	t0,0x80000
   11244:	085b8e63          	beq	s7,t0,112e0 <reset_vector+0x1294>
   11248:	00005517          	auipc	a0,0x5
   1124c:	89f50513          	addi	a0,a0,-1889 # 15ae7 <end_signature+0xa07>
   11250:	5b1020ef          	jal	ra,14000 <FN_WriteStr>
   11254:	00005517          	auipc	a0,0x5
   11258:	8ae50513          	addi	a0,a0,-1874 # 15b02 <end_signature+0xa22>
   1125c:	5a5020ef          	jal	ra,14000 <FN_WriteStr>
   11260:	00005517          	auipc	a0,0x5
   11264:	8b250513          	addi	a0,a0,-1870 # 15b12 <end_signature+0xa32>
   11268:	599020ef          	jal	ra,14000 <FN_WriteStr>
   1126c:	00005517          	auipc	a0,0x5
   11270:	8ae50513          	addi	a0,a0,-1874 # 15b1a <end_signature+0xa3a>
   11274:	58d020ef          	jal	ra,14000 <FN_WriteStr>
   11278:	00005517          	auipc	a0,0x5
   1127c:	8a650513          	addi	a0,a0,-1882 # 15b1e <end_signature+0xa3e>
   11280:	581020ef          	jal	ra,14000 <FN_WriteStr>
   11284:	00005517          	auipc	a0,0x5
   11288:	89d50513          	addi	a0,a0,-1891 # 15b21 <end_signature+0xa41>
   1128c:	575020ef          	jal	ra,14000 <FN_WriteStr>
   11290:	00005517          	auipc	a0,0x5
   11294:	89550513          	addi	a0,a0,-1899 # 15b25 <end_signature+0xa45>
   11298:	569020ef          	jal	ra,14000 <FN_WriteStr>
   1129c:	000b8513          	mv	a0,s7
   112a0:	57d020ef          	jal	ra,1401c <FN_WriteA0>
   112a4:	00005517          	auipc	a0,0x5
   112a8:	88350513          	addi	a0,a0,-1917 # 15b27 <end_signature+0xa47>
   112ac:	555020ef          	jal	ra,14000 <FN_WriteStr>
   112b0:	00005517          	auipc	a0,0x5
   112b4:	87d50513          	addi	a0,a0,-1923 # 15b2d <end_signature+0xa4d>
   112b8:	549020ef          	jal	ra,14000 <FN_WriteStr>
   112bc:	00005517          	auipc	a0,0x5
   112c0:	87c50513          	addi	a0,a0,-1924 # 15b38 <end_signature+0xa58>
   112c4:	53d020ef          	jal	ra,14000 <FN_WriteStr>
   112c8:	06400193          	li	gp,100
   112cc:	0000100f          	fence.i
   112d0:	00018063          	beqz	gp,112d0 <reset_vector+0x1284>
   112d4:	00119193          	slli	gp,gp,0x1
   112d8:	0011e193          	ori	gp,gp,1
   112dc:	00000073          	ecall
   112e0:	00000293          	li	t0,0
   112e4:	085c0e63          	beq	s8,t0,11380 <reset_vector+0x1334>
   112e8:	00005517          	auipc	a0,0x5
   112ec:	85250513          	addi	a0,a0,-1966 # 15b3a <end_signature+0xa5a>
   112f0:	511020ef          	jal	ra,14000 <FN_WriteStr>
   112f4:	00005517          	auipc	a0,0x5
   112f8:	86150513          	addi	a0,a0,-1951 # 15b55 <end_signature+0xa75>
   112fc:	505020ef          	jal	ra,14000 <FN_WriteStr>
   11300:	00005517          	auipc	a0,0x5
   11304:	86550513          	addi	a0,a0,-1947 # 15b65 <end_signature+0xa85>
   11308:	4f9020ef          	jal	ra,14000 <FN_WriteStr>
   1130c:	00005517          	auipc	a0,0x5
   11310:	86150513          	addi	a0,a0,-1951 # 15b6d <end_signature+0xa8d>
   11314:	4ed020ef          	jal	ra,14000 <FN_WriteStr>
   11318:	00005517          	auipc	a0,0x5
   1131c:	85950513          	addi	a0,a0,-1959 # 15b71 <end_signature+0xa91>
   11320:	4e1020ef          	jal	ra,14000 <FN_WriteStr>
   11324:	00005517          	auipc	a0,0x5
   11328:	85050513          	addi	a0,a0,-1968 # 15b74 <end_signature+0xa94>
   1132c:	4d5020ef          	jal	ra,14000 <FN_WriteStr>
   11330:	00005517          	auipc	a0,0x5
   11334:	84850513          	addi	a0,a0,-1976 # 15b78 <end_signature+0xa98>
   11338:	4c9020ef          	jal	ra,14000 <FN_WriteStr>
   1133c:	000c0513          	mv	a0,s8
   11340:	4dd020ef          	jal	ra,1401c <FN_WriteA0>
   11344:	00005517          	auipc	a0,0x5
   11348:	83650513          	addi	a0,a0,-1994 # 15b7a <end_signature+0xa9a>
   1134c:	4b5020ef          	jal	ra,14000 <FN_WriteStr>
   11350:	00005517          	auipc	a0,0x5
   11354:	83050513          	addi	a0,a0,-2000 # 15b80 <end_signature+0xaa0>
   11358:	4a9020ef          	jal	ra,14000 <FN_WriteStr>
   1135c:	00005517          	auipc	a0,0x5
   11360:	82f50513          	addi	a0,a0,-2001 # 15b8b <end_signature+0xaab>
   11364:	49d020ef          	jal	ra,14000 <FN_WriteStr>
   11368:	06400193          	li	gp,100
   1136c:	0000100f          	fence.i
   11370:	00018063          	beqz	gp,11370 <reset_vector+0x1324>
   11374:	00119193          	slli	gp,gp,0x1
   11378:	0011e193          	ori	gp,gp,1
   1137c:	00000073          	ecall
   11380:	00000293          	li	t0,0
   11384:	085c8e63          	beq	s9,t0,11420 <reset_vector+0x13d4>
   11388:	00005517          	auipc	a0,0x5
   1138c:	80550513          	addi	a0,a0,-2043 # 15b8d <end_signature+0xaad>
   11390:	471020ef          	jal	ra,14000 <FN_WriteStr>
   11394:	00005517          	auipc	a0,0x5
   11398:	81450513          	addi	a0,a0,-2028 # 15ba8 <end_signature+0xac8>
   1139c:	465020ef          	jal	ra,14000 <FN_WriteStr>
   113a0:	00005517          	auipc	a0,0x5
   113a4:	81850513          	addi	a0,a0,-2024 # 15bb8 <end_signature+0xad8>
   113a8:	459020ef          	jal	ra,14000 <FN_WriteStr>
   113ac:	00005517          	auipc	a0,0x5
   113b0:	81450513          	addi	a0,a0,-2028 # 15bc0 <end_signature+0xae0>
   113b4:	44d020ef          	jal	ra,14000 <FN_WriteStr>
   113b8:	00005517          	auipc	a0,0x5
   113bc:	80c50513          	addi	a0,a0,-2036 # 15bc4 <end_signature+0xae4>
   113c0:	441020ef          	jal	ra,14000 <FN_WriteStr>
   113c4:	00005517          	auipc	a0,0x5
   113c8:	80350513          	addi	a0,a0,-2045 # 15bc7 <end_signature+0xae7>
   113cc:	435020ef          	jal	ra,14000 <FN_WriteStr>
   113d0:	00004517          	auipc	a0,0x4
   113d4:	7fb50513          	addi	a0,a0,2043 # 15bcb <end_signature+0xaeb>
   113d8:	429020ef          	jal	ra,14000 <FN_WriteStr>
   113dc:	000c8513          	mv	a0,s9
   113e0:	43d020ef          	jal	ra,1401c <FN_WriteA0>
   113e4:	00004517          	auipc	a0,0x4
   113e8:	7e950513          	addi	a0,a0,2025 # 15bcd <end_signature+0xaed>
   113ec:	415020ef          	jal	ra,14000 <FN_WriteStr>
   113f0:	00004517          	auipc	a0,0x4
   113f4:	7e350513          	addi	a0,a0,2019 # 15bd3 <end_signature+0xaf3>
   113f8:	409020ef          	jal	ra,14000 <FN_WriteStr>
   113fc:	00004517          	auipc	a0,0x4
   11400:	7e250513          	addi	a0,a0,2018 # 15bde <end_signature+0xafe>
   11404:	3fd020ef          	jal	ra,14000 <FN_WriteStr>
   11408:	06400193          	li	gp,100
   1140c:	0000100f          	fence.i
   11410:	00018063          	beqz	gp,11410 <reset_vector+0x13c4>
   11414:	00119193          	slli	gp,gp,0x1
   11418:	0011e193          	ori	gp,gp,1
   1141c:	00000073          	ecall
   11420:	00100293          	li	t0,1
   11424:	085d0e63          	beq	s10,t0,114c0 <reset_vector+0x1474>
   11428:	00004517          	auipc	a0,0x4
   1142c:	7b850513          	addi	a0,a0,1976 # 15be0 <end_signature+0xb00>
   11430:	3d1020ef          	jal	ra,14000 <FN_WriteStr>
   11434:	00004517          	auipc	a0,0x4
   11438:	7c750513          	addi	a0,a0,1991 # 15bfb <end_signature+0xb1b>
   1143c:	3c5020ef          	jal	ra,14000 <FN_WriteStr>
   11440:	00004517          	auipc	a0,0x4
   11444:	7cb50513          	addi	a0,a0,1995 # 15c0b <end_signature+0xb2b>
   11448:	3b9020ef          	jal	ra,14000 <FN_WriteStr>
   1144c:	00004517          	auipc	a0,0x4
   11450:	7c750513          	addi	a0,a0,1991 # 15c13 <end_signature+0xb33>
   11454:	3ad020ef          	jal	ra,14000 <FN_WriteStr>
   11458:	00004517          	auipc	a0,0x4
   1145c:	7bf50513          	addi	a0,a0,1983 # 15c17 <end_signature+0xb37>
   11460:	3a1020ef          	jal	ra,14000 <FN_WriteStr>
   11464:	00004517          	auipc	a0,0x4
   11468:	7b650513          	addi	a0,a0,1974 # 15c1a <end_signature+0xb3a>
   1146c:	395020ef          	jal	ra,14000 <FN_WriteStr>
   11470:	00004517          	auipc	a0,0x4
   11474:	7ae50513          	addi	a0,a0,1966 # 15c1e <end_signature+0xb3e>
   11478:	389020ef          	jal	ra,14000 <FN_WriteStr>
   1147c:	000d0513          	mv	a0,s10
   11480:	39d020ef          	jal	ra,1401c <FN_WriteA0>
   11484:	00004517          	auipc	a0,0x4
   11488:	79c50513          	addi	a0,a0,1948 # 15c20 <end_signature+0xb40>
   1148c:	375020ef          	jal	ra,14000 <FN_WriteStr>
   11490:	00004517          	auipc	a0,0x4
   11494:	79650513          	addi	a0,a0,1942 # 15c26 <end_signature+0xb46>
   11498:	369020ef          	jal	ra,14000 <FN_WriteStr>
   1149c:	00004517          	auipc	a0,0x4
   114a0:	79550513          	addi	a0,a0,1941 # 15c31 <end_signature+0xb51>
   114a4:	35d020ef          	jal	ra,14000 <FN_WriteStr>
   114a8:	06400193          	li	gp,100
   114ac:	0000100f          	fence.i
   114b0:	00018063          	beqz	gp,114b0 <reset_vector+0x1464>
   114b4:	00119193          	slli	gp,gp,0x1
   114b8:	0011e193          	ori	gp,gp,1
   114bc:	00000073          	ecall
   114c0:	00000293          	li	t0,0
   114c4:	085d8e63          	beq	s11,t0,11560 <reset_vector+0x1514>
   114c8:	00004517          	auipc	a0,0x4
   114cc:	76b50513          	addi	a0,a0,1899 # 15c33 <end_signature+0xb53>
   114d0:	331020ef          	jal	ra,14000 <FN_WriteStr>
   114d4:	00004517          	auipc	a0,0x4
   114d8:	77a50513          	addi	a0,a0,1914 # 15c4e <end_signature+0xb6e>
   114dc:	325020ef          	jal	ra,14000 <FN_WriteStr>
   114e0:	00004517          	auipc	a0,0x4
   114e4:	77e50513          	addi	a0,a0,1918 # 15c5e <end_signature+0xb7e>
   114e8:	319020ef          	jal	ra,14000 <FN_WriteStr>
   114ec:	00004517          	auipc	a0,0x4
   114f0:	77a50513          	addi	a0,a0,1914 # 15c66 <end_signature+0xb86>
   114f4:	30d020ef          	jal	ra,14000 <FN_WriteStr>
   114f8:	00004517          	auipc	a0,0x4
   114fc:	77250513          	addi	a0,a0,1906 # 15c6a <end_signature+0xb8a>
   11500:	301020ef          	jal	ra,14000 <FN_WriteStr>
   11504:	00004517          	auipc	a0,0x4
   11508:	76950513          	addi	a0,a0,1897 # 15c6d <end_signature+0xb8d>
   1150c:	2f5020ef          	jal	ra,14000 <FN_WriteStr>
   11510:	00004517          	auipc	a0,0x4
   11514:	76150513          	addi	a0,a0,1889 # 15c71 <end_signature+0xb91>
   11518:	2e9020ef          	jal	ra,14000 <FN_WriteStr>
   1151c:	000d8513          	mv	a0,s11
   11520:	2fd020ef          	jal	ra,1401c <FN_WriteA0>
   11524:	00004517          	auipc	a0,0x4
   11528:	74f50513          	addi	a0,a0,1871 # 15c73 <end_signature+0xb93>
   1152c:	2d5020ef          	jal	ra,14000 <FN_WriteStr>
   11530:	00004517          	auipc	a0,0x4
   11534:	74950513          	addi	a0,a0,1865 # 15c79 <end_signature+0xb99>
   11538:	2c9020ef          	jal	ra,14000 <FN_WriteStr>
   1153c:	00004517          	auipc	a0,0x4
   11540:	74850513          	addi	a0,a0,1864 # 15c84 <end_signature+0xba4>
   11544:	2bd020ef          	jal	ra,14000 <FN_WriteStr>
   11548:	06400193          	li	gp,100
   1154c:	0000100f          	fence.i
   11550:	00018063          	beqz	gp,11550 <reset_vector+0x1504>
   11554:	00119193          	slli	gp,gp,0x1
   11558:	0011e193          	ori	gp,gp,1
   1155c:	00000073          	ecall
   11560:	00000293          	li	t0,0
   11564:	085e0e63          	beq	t3,t0,11600 <reset_vector+0x15b4>
   11568:	00004517          	auipc	a0,0x4
   1156c:	71e50513          	addi	a0,a0,1822 # 15c86 <end_signature+0xba6>
   11570:	291020ef          	jal	ra,14000 <FN_WriteStr>
   11574:	00004517          	auipc	a0,0x4
   11578:	72d50513          	addi	a0,a0,1837 # 15ca1 <end_signature+0xbc1>
   1157c:	285020ef          	jal	ra,14000 <FN_WriteStr>
   11580:	00004517          	auipc	a0,0x4
   11584:	73150513          	addi	a0,a0,1841 # 15cb1 <end_signature+0xbd1>
   11588:	279020ef          	jal	ra,14000 <FN_WriteStr>
   1158c:	00004517          	auipc	a0,0x4
   11590:	72d50513          	addi	a0,a0,1837 # 15cb9 <end_signature+0xbd9>
   11594:	26d020ef          	jal	ra,14000 <FN_WriteStr>
   11598:	00004517          	auipc	a0,0x4
   1159c:	72550513          	addi	a0,a0,1829 # 15cbd <end_signature+0xbdd>
   115a0:	261020ef          	jal	ra,14000 <FN_WriteStr>
   115a4:	00004517          	auipc	a0,0x4
   115a8:	71c50513          	addi	a0,a0,1820 # 15cc0 <end_signature+0xbe0>
   115ac:	255020ef          	jal	ra,14000 <FN_WriteStr>
   115b0:	00004517          	auipc	a0,0x4
   115b4:	71450513          	addi	a0,a0,1812 # 15cc4 <end_signature+0xbe4>
   115b8:	249020ef          	jal	ra,14000 <FN_WriteStr>
   115bc:	000e0513          	mv	a0,t3
   115c0:	25d020ef          	jal	ra,1401c <FN_WriteA0>
   115c4:	00004517          	auipc	a0,0x4
   115c8:	70250513          	addi	a0,a0,1794 # 15cc6 <end_signature+0xbe6>
   115cc:	235020ef          	jal	ra,14000 <FN_WriteStr>
   115d0:	00004517          	auipc	a0,0x4
   115d4:	6fc50513          	addi	a0,a0,1788 # 15ccc <end_signature+0xbec>
   115d8:	229020ef          	jal	ra,14000 <FN_WriteStr>
   115dc:	00004517          	auipc	a0,0x4
   115e0:	6fb50513          	addi	a0,a0,1787 # 15cd7 <end_signature+0xbf7>
   115e4:	21d020ef          	jal	ra,14000 <FN_WriteStr>
   115e8:	06400193          	li	gp,100
   115ec:	0000100f          	fence.i
   115f0:	00018063          	beqz	gp,115f0 <reset_vector+0x15a4>
   115f4:	00119193          	slli	gp,gp,0x1
   115f8:	0011e193          	ori	gp,gp,1
   115fc:	00000073          	ecall
   11600:	00004517          	auipc	a0,0x4
   11604:	6d950513          	addi	a0,a0,1753 # 15cd9 <end_signature+0xbf9>
   11608:	1f9020ef          	jal	ra,14000 <FN_WriteStr>
   1160c:	00004517          	auipc	a0,0x4
   11610:	6e950513          	addi	a0,a0,1769 # 15cf5 <end_signature+0xc15>
   11614:	1ed020ef          	jal	ra,14000 <FN_WriteStr>
   11618:	00004d17          	auipc	s10,0x4
   1161c:	9fcd0d13          	addi	s10,s10,-1540 # 15014 <test_B_data>
   11620:	00004d97          	auipc	s11,0x4
   11624:	a78d8d93          	addi	s11,s11,-1416 # 15098 <test_B_res>
   11628:	000d2083          	lw	ra,0(s10)
   1162c:	fff00113          	li	sp,-1
   11630:	0020b033          	sltu	zero,ra,sp
   11634:	000da023          	sw	zero,0(s11)
   11638:	001da223          	sw	ra,4(s11)
   1163c:	002da423          	sw	sp,8(s11)
   11640:	00000293          	li	t0,0
   11644:	08500e63          	beq	zero,t0,116e0 <reset_vector+0x1694>
   11648:	00004517          	auipc	a0,0x4
   1164c:	6d450513          	addi	a0,a0,1748 # 15d1c <end_signature+0xc3c>
   11650:	1b1020ef          	jal	ra,14000 <FN_WriteStr>
   11654:	00004517          	auipc	a0,0x4
   11658:	6e350513          	addi	a0,a0,1763 # 15d37 <end_signature+0xc57>
   1165c:	1a5020ef          	jal	ra,14000 <FN_WriteStr>
   11660:	00004517          	auipc	a0,0x4
   11664:	6e750513          	addi	a0,a0,1767 # 15d47 <end_signature+0xc67>
   11668:	199020ef          	jal	ra,14000 <FN_WriteStr>
   1166c:	00004517          	auipc	a0,0x4
   11670:	6e350513          	addi	a0,a0,1763 # 15d4f <end_signature+0xc6f>
   11674:	18d020ef          	jal	ra,14000 <FN_WriteStr>
   11678:	00004517          	auipc	a0,0x4
   1167c:	6db50513          	addi	a0,a0,1755 # 15d53 <end_signature+0xc73>
   11680:	181020ef          	jal	ra,14000 <FN_WriteStr>
   11684:	00004517          	auipc	a0,0x4
   11688:	6d250513          	addi	a0,a0,1746 # 15d56 <end_signature+0xc76>
   1168c:	175020ef          	jal	ra,14000 <FN_WriteStr>
   11690:	00004517          	auipc	a0,0x4
   11694:	6c950513          	addi	a0,a0,1737 # 15d59 <end_signature+0xc79>
   11698:	169020ef          	jal	ra,14000 <FN_WriteStr>
   1169c:	00000513          	li	a0,0
   116a0:	17d020ef          	jal	ra,1401c <FN_WriteA0>
   116a4:	00004517          	auipc	a0,0x4
   116a8:	6b750513          	addi	a0,a0,1719 # 15d5b <end_signature+0xc7b>
   116ac:	155020ef          	jal	ra,14000 <FN_WriteStr>
   116b0:	00004517          	auipc	a0,0x4
   116b4:	6b150513          	addi	a0,a0,1713 # 15d61 <end_signature+0xc81>
   116b8:	149020ef          	jal	ra,14000 <FN_WriteStr>
   116bc:	00004517          	auipc	a0,0x4
   116c0:	6b050513          	addi	a0,a0,1712 # 15d6c <end_signature+0xc8c>
   116c4:	13d020ef          	jal	ra,14000 <FN_WriteStr>
   116c8:	06400193          	li	gp,100
   116cc:	0000100f          	fence.i
   116d0:	00018063          	beqz	gp,116d0 <reset_vector+0x1684>
   116d4:	00119193          	slli	gp,gp,0x1
   116d8:	0011e193          	ori	gp,gp,1
   116dc:	00000073          	ecall
   116e0:	fff00293          	li	t0,-1
   116e4:	08510e63          	beq	sp,t0,11780 <reset_vector+0x1734>
   116e8:	00004517          	auipc	a0,0x4
   116ec:	68650513          	addi	a0,a0,1670 # 15d6e <end_signature+0xc8e>
   116f0:	111020ef          	jal	ra,14000 <FN_WriteStr>
   116f4:	00004517          	auipc	a0,0x4
   116f8:	69550513          	addi	a0,a0,1685 # 15d89 <end_signature+0xca9>
   116fc:	105020ef          	jal	ra,14000 <FN_WriteStr>
   11700:	00004517          	auipc	a0,0x4
   11704:	69950513          	addi	a0,a0,1689 # 15d99 <end_signature+0xcb9>
   11708:	0f9020ef          	jal	ra,14000 <FN_WriteStr>
   1170c:	00004517          	auipc	a0,0x4
   11710:	69550513          	addi	a0,a0,1685 # 15da1 <end_signature+0xcc1>
   11714:	0ed020ef          	jal	ra,14000 <FN_WriteStr>
   11718:	00004517          	auipc	a0,0x4
   1171c:	68d50513          	addi	a0,a0,1677 # 15da5 <end_signature+0xcc5>
   11720:	0e1020ef          	jal	ra,14000 <FN_WriteStr>
   11724:	00004517          	auipc	a0,0x4
   11728:	68450513          	addi	a0,a0,1668 # 15da8 <end_signature+0xcc8>
   1172c:	0d5020ef          	jal	ra,14000 <FN_WriteStr>
   11730:	00004517          	auipc	a0,0x4
   11734:	67b50513          	addi	a0,a0,1659 # 15dab <end_signature+0xccb>
   11738:	0c9020ef          	jal	ra,14000 <FN_WriteStr>
   1173c:	00010513          	mv	a0,sp
   11740:	0dd020ef          	jal	ra,1401c <FN_WriteA0>
   11744:	00004517          	auipc	a0,0x4
   11748:	66950513          	addi	a0,a0,1641 # 15dad <end_signature+0xccd>
   1174c:	0b5020ef          	jal	ra,14000 <FN_WriteStr>
   11750:	00004517          	auipc	a0,0x4
   11754:	66350513          	addi	a0,a0,1635 # 15db3 <end_signature+0xcd3>
   11758:	0a9020ef          	jal	ra,14000 <FN_WriteStr>
   1175c:	00004517          	auipc	a0,0x4
   11760:	66250513          	addi	a0,a0,1634 # 15dbe <end_signature+0xcde>
   11764:	09d020ef          	jal	ra,14000 <FN_WriteStr>
   11768:	06400193          	li	gp,100
   1176c:	0000100f          	fence.i
   11770:	00018063          	beqz	gp,11770 <reset_vector+0x1724>
   11774:	00119193          	slli	gp,gp,0x1
   11778:	0011e193          	ori	gp,gp,1
   1177c:	00000073          	ecall
   11780:	00004517          	auipc	a0,0x4
   11784:	64050513          	addi	a0,a0,1600 # 15dc0 <end_signature+0xce0>
   11788:	079020ef          	jal	ra,14000 <FN_WriteStr>
   1178c:	00004517          	auipc	a0,0x4
   11790:	64f50513          	addi	a0,a0,1615 # 15ddb <end_signature+0xcfb>
   11794:	06d020ef          	jal	ra,14000 <FN_WriteStr>
   11798:	00004f97          	auipc	t6,0x4
   1179c:	90cf8f93          	addi	t6,t6,-1780 # 150a4 <test_C_res>
   117a0:	00100093          	li	ra,1
   117a4:	7ff00113          	li	sp,2047
   117a8:	fff00193          	li	gp,-1
   117ac:	00000213          	li	tp,0
   117b0:	80000293          	li	t0,-2048
   117b4:	00103333          	snez	t1,ra
   117b8:	002033b3          	snez	t2,sp
   117bc:	00303433          	snez	s0,gp
   117c0:	004034b3          	snez	s1,tp
   117c4:	00503533          	snez	a0,t0
   117c8:	0000b5b3          	sltu	a1,ra,zero
   117cc:	00013633          	sltu	a2,sp,zero
   117d0:	0001b6b3          	sltu	a3,gp,zero
   117d4:	00023733          	sltu	a4,tp,zero
   117d8:	0002b7b3          	sltu	a5,t0,zero
   117dc:	006fa023          	sw	t1,0(t6)
   117e0:	007fa223          	sw	t2,4(t6)
   117e4:	008fa423          	sw	s0,8(t6)
   117e8:	009fa623          	sw	s1,12(t6)
   117ec:	00afa823          	sw	a0,16(t6)
   117f0:	00bfaa23          	sw	a1,20(t6)
   117f4:	00cfac23          	sw	a2,24(t6)
   117f8:	00dfae23          	sw	a3,28(t6)
   117fc:	02efa023          	sw	a4,32(t6)
   11800:	02ffa223          	sw	a5,36(t6)
   11804:	00100293          	li	t0,1
   11808:	08530e63          	beq	t1,t0,118a4 <reset_vector+0x1858>
   1180c:	00004517          	auipc	a0,0x4
   11810:	5f350513          	addi	a0,a0,1523 # 15dff <end_signature+0xd1f>
   11814:	7ec020ef          	jal	ra,14000 <FN_WriteStr>
   11818:	00004517          	auipc	a0,0x4
   1181c:	60250513          	addi	a0,a0,1538 # 15e1a <end_signature+0xd3a>
   11820:	7e0020ef          	jal	ra,14000 <FN_WriteStr>
   11824:	00004517          	auipc	a0,0x4
   11828:	60650513          	addi	a0,a0,1542 # 15e2a <end_signature+0xd4a>
   1182c:	7d4020ef          	jal	ra,14000 <FN_WriteStr>
   11830:	00004517          	auipc	a0,0x4
   11834:	60250513          	addi	a0,a0,1538 # 15e32 <end_signature+0xd52>
   11838:	7c8020ef          	jal	ra,14000 <FN_WriteStr>
   1183c:	00004517          	auipc	a0,0x4
   11840:	5fa50513          	addi	a0,a0,1530 # 15e36 <end_signature+0xd56>
   11844:	7bc020ef          	jal	ra,14000 <FN_WriteStr>
   11848:	00004517          	auipc	a0,0x4
   1184c:	5f150513          	addi	a0,a0,1521 # 15e39 <end_signature+0xd59>
   11850:	7b0020ef          	jal	ra,14000 <FN_WriteStr>
   11854:	00004517          	auipc	a0,0x4
   11858:	5e850513          	addi	a0,a0,1512 # 15e3c <end_signature+0xd5c>
   1185c:	7a4020ef          	jal	ra,14000 <FN_WriteStr>
   11860:	00030513          	mv	a0,t1
   11864:	7b8020ef          	jal	ra,1401c <FN_WriteA0>
   11868:	00004517          	auipc	a0,0x4
   1186c:	5d650513          	addi	a0,a0,1494 # 15e3e <end_signature+0xd5e>
   11870:	790020ef          	jal	ra,14000 <FN_WriteStr>
   11874:	00004517          	auipc	a0,0x4
   11878:	5d050513          	addi	a0,a0,1488 # 15e44 <end_signature+0xd64>
   1187c:	784020ef          	jal	ra,14000 <FN_WriteStr>
   11880:	00004517          	auipc	a0,0x4
   11884:	5cf50513          	addi	a0,a0,1487 # 15e4f <end_signature+0xd6f>
   11888:	778020ef          	jal	ra,14000 <FN_WriteStr>
   1188c:	06400193          	li	gp,100
   11890:	0000100f          	fence.i
   11894:	00018063          	beqz	gp,11894 <reset_vector+0x1848>
   11898:	00119193          	slli	gp,gp,0x1
   1189c:	0011e193          	ori	gp,gp,1
   118a0:	00000073          	ecall
   118a4:	00100293          	li	t0,1
   118a8:	08538e63          	beq	t2,t0,11944 <reset_vector+0x18f8>
   118ac:	00004517          	auipc	a0,0x4
   118b0:	5a550513          	addi	a0,a0,1445 # 15e51 <end_signature+0xd71>
   118b4:	74c020ef          	jal	ra,14000 <FN_WriteStr>
   118b8:	00004517          	auipc	a0,0x4
   118bc:	5b450513          	addi	a0,a0,1460 # 15e6c <end_signature+0xd8c>
   118c0:	740020ef          	jal	ra,14000 <FN_WriteStr>
   118c4:	00004517          	auipc	a0,0x4
   118c8:	5b850513          	addi	a0,a0,1464 # 15e7c <end_signature+0xd9c>
   118cc:	734020ef          	jal	ra,14000 <FN_WriteStr>
   118d0:	00004517          	auipc	a0,0x4
   118d4:	5b450513          	addi	a0,a0,1460 # 15e84 <end_signature+0xda4>
   118d8:	728020ef          	jal	ra,14000 <FN_WriteStr>
   118dc:	00004517          	auipc	a0,0x4
   118e0:	5ac50513          	addi	a0,a0,1452 # 15e88 <end_signature+0xda8>
   118e4:	71c020ef          	jal	ra,14000 <FN_WriteStr>
   118e8:	00004517          	auipc	a0,0x4
   118ec:	5a350513          	addi	a0,a0,1443 # 15e8b <end_signature+0xdab>
   118f0:	710020ef          	jal	ra,14000 <FN_WriteStr>
   118f4:	00004517          	auipc	a0,0x4
   118f8:	59a50513          	addi	a0,a0,1434 # 15e8e <end_signature+0xdae>
   118fc:	704020ef          	jal	ra,14000 <FN_WriteStr>
   11900:	00038513          	mv	a0,t2
   11904:	718020ef          	jal	ra,1401c <FN_WriteA0>
   11908:	00004517          	auipc	a0,0x4
   1190c:	58850513          	addi	a0,a0,1416 # 15e90 <end_signature+0xdb0>
   11910:	6f0020ef          	jal	ra,14000 <FN_WriteStr>
   11914:	00004517          	auipc	a0,0x4
   11918:	58250513          	addi	a0,a0,1410 # 15e96 <end_signature+0xdb6>
   1191c:	6e4020ef          	jal	ra,14000 <FN_WriteStr>
   11920:	00004517          	auipc	a0,0x4
   11924:	58150513          	addi	a0,a0,1409 # 15ea1 <end_signature+0xdc1>
   11928:	6d8020ef          	jal	ra,14000 <FN_WriteStr>
   1192c:	06400193          	li	gp,100
   11930:	0000100f          	fence.i
   11934:	00018063          	beqz	gp,11934 <reset_vector+0x18e8>
   11938:	00119193          	slli	gp,gp,0x1
   1193c:	0011e193          	ori	gp,gp,1
   11940:	00000073          	ecall
   11944:	00100293          	li	t0,1
   11948:	08540e63          	beq	s0,t0,119e4 <reset_vector+0x1998>
   1194c:	00004517          	auipc	a0,0x4
   11950:	55750513          	addi	a0,a0,1367 # 15ea3 <end_signature+0xdc3>
   11954:	6ac020ef          	jal	ra,14000 <FN_WriteStr>
   11958:	00004517          	auipc	a0,0x4
   1195c:	56650513          	addi	a0,a0,1382 # 15ebe <end_signature+0xdde>
   11960:	6a0020ef          	jal	ra,14000 <FN_WriteStr>
   11964:	00004517          	auipc	a0,0x4
   11968:	56a50513          	addi	a0,a0,1386 # 15ece <end_signature+0xdee>
   1196c:	694020ef          	jal	ra,14000 <FN_WriteStr>
   11970:	00004517          	auipc	a0,0x4
   11974:	56650513          	addi	a0,a0,1382 # 15ed6 <end_signature+0xdf6>
   11978:	688020ef          	jal	ra,14000 <FN_WriteStr>
   1197c:	00004517          	auipc	a0,0x4
   11980:	55e50513          	addi	a0,a0,1374 # 15eda <end_signature+0xdfa>
   11984:	67c020ef          	jal	ra,14000 <FN_WriteStr>
   11988:	00004517          	auipc	a0,0x4
   1198c:	55550513          	addi	a0,a0,1365 # 15edd <end_signature+0xdfd>
   11990:	670020ef          	jal	ra,14000 <FN_WriteStr>
   11994:	00004517          	auipc	a0,0x4
   11998:	54c50513          	addi	a0,a0,1356 # 15ee0 <end_signature+0xe00>
   1199c:	664020ef          	jal	ra,14000 <FN_WriteStr>
   119a0:	00040513          	mv	a0,s0
   119a4:	678020ef          	jal	ra,1401c <FN_WriteA0>
   119a8:	00004517          	auipc	a0,0x4
   119ac:	53a50513          	addi	a0,a0,1338 # 15ee2 <end_signature+0xe02>
   119b0:	650020ef          	jal	ra,14000 <FN_WriteStr>
   119b4:	00004517          	auipc	a0,0x4
   119b8:	53450513          	addi	a0,a0,1332 # 15ee8 <end_signature+0xe08>
   119bc:	644020ef          	jal	ra,14000 <FN_WriteStr>
   119c0:	00004517          	auipc	a0,0x4
   119c4:	53350513          	addi	a0,a0,1331 # 15ef3 <end_signature+0xe13>
   119c8:	638020ef          	jal	ra,14000 <FN_WriteStr>
   119cc:	06400193          	li	gp,100
   119d0:	0000100f          	fence.i
   119d4:	00018063          	beqz	gp,119d4 <reset_vector+0x1988>
   119d8:	00119193          	slli	gp,gp,0x1
   119dc:	0011e193          	ori	gp,gp,1
   119e0:	00000073          	ecall
   119e4:	00000293          	li	t0,0
   119e8:	08548e63          	beq	s1,t0,11a84 <reset_vector+0x1a38>
   119ec:	00004517          	auipc	a0,0x4
   119f0:	50950513          	addi	a0,a0,1289 # 15ef5 <end_signature+0xe15>
   119f4:	60c020ef          	jal	ra,14000 <FN_WriteStr>
   119f8:	00004517          	auipc	a0,0x4
   119fc:	51850513          	addi	a0,a0,1304 # 15f10 <end_signature+0xe30>
   11a00:	600020ef          	jal	ra,14000 <FN_WriteStr>
   11a04:	00004517          	auipc	a0,0x4
   11a08:	51c50513          	addi	a0,a0,1308 # 15f20 <end_signature+0xe40>
   11a0c:	5f4020ef          	jal	ra,14000 <FN_WriteStr>
   11a10:	00004517          	auipc	a0,0x4
   11a14:	51850513          	addi	a0,a0,1304 # 15f28 <end_signature+0xe48>
   11a18:	5e8020ef          	jal	ra,14000 <FN_WriteStr>
   11a1c:	00004517          	auipc	a0,0x4
   11a20:	51050513          	addi	a0,a0,1296 # 15f2c <end_signature+0xe4c>
   11a24:	5dc020ef          	jal	ra,14000 <FN_WriteStr>
   11a28:	00004517          	auipc	a0,0x4
   11a2c:	50750513          	addi	a0,a0,1287 # 15f2f <end_signature+0xe4f>
   11a30:	5d0020ef          	jal	ra,14000 <FN_WriteStr>
   11a34:	00004517          	auipc	a0,0x4
   11a38:	4fe50513          	addi	a0,a0,1278 # 15f32 <end_signature+0xe52>
   11a3c:	5c4020ef          	jal	ra,14000 <FN_WriteStr>
   11a40:	00048513          	mv	a0,s1
   11a44:	5d8020ef          	jal	ra,1401c <FN_WriteA0>
   11a48:	00004517          	auipc	a0,0x4
   11a4c:	4ec50513          	addi	a0,a0,1260 # 15f34 <end_signature+0xe54>
   11a50:	5b0020ef          	jal	ra,14000 <FN_WriteStr>
   11a54:	00004517          	auipc	a0,0x4
   11a58:	4e650513          	addi	a0,a0,1254 # 15f3a <end_signature+0xe5a>
   11a5c:	5a4020ef          	jal	ra,14000 <FN_WriteStr>
   11a60:	00004517          	auipc	a0,0x4
   11a64:	4e550513          	addi	a0,a0,1253 # 15f45 <end_signature+0xe65>
   11a68:	598020ef          	jal	ra,14000 <FN_WriteStr>
   11a6c:	06400193          	li	gp,100
   11a70:	0000100f          	fence.i
   11a74:	00018063          	beqz	gp,11a74 <reset_vector+0x1a28>
   11a78:	00119193          	slli	gp,gp,0x1
   11a7c:	0011e193          	ori	gp,gp,1
   11a80:	00000073          	ecall
   11a84:	00000293          	li	t0,0
   11a88:	08558e63          	beq	a1,t0,11b24 <reset_vector+0x1ad8>
   11a8c:	00004517          	auipc	a0,0x4
   11a90:	4bb50513          	addi	a0,a0,1211 # 15f47 <end_signature+0xe67>
   11a94:	56c020ef          	jal	ra,14000 <FN_WriteStr>
   11a98:	00004517          	auipc	a0,0x4
   11a9c:	4ca50513          	addi	a0,a0,1226 # 15f62 <end_signature+0xe82>
   11aa0:	560020ef          	jal	ra,14000 <FN_WriteStr>
   11aa4:	00004517          	auipc	a0,0x4
   11aa8:	4ce50513          	addi	a0,a0,1230 # 15f72 <end_signature+0xe92>
   11aac:	554020ef          	jal	ra,14000 <FN_WriteStr>
   11ab0:	00004517          	auipc	a0,0x4
   11ab4:	4ca50513          	addi	a0,a0,1226 # 15f7a <end_signature+0xe9a>
   11ab8:	548020ef          	jal	ra,14000 <FN_WriteStr>
   11abc:	00004517          	auipc	a0,0x4
   11ac0:	4c250513          	addi	a0,a0,1218 # 15f7e <end_signature+0xe9e>
   11ac4:	53c020ef          	jal	ra,14000 <FN_WriteStr>
   11ac8:	00004517          	auipc	a0,0x4
   11acc:	4b950513          	addi	a0,a0,1209 # 15f81 <end_signature+0xea1>
   11ad0:	530020ef          	jal	ra,14000 <FN_WriteStr>
   11ad4:	00004517          	auipc	a0,0x4
   11ad8:	4b150513          	addi	a0,a0,1201 # 15f85 <end_signature+0xea5>
   11adc:	524020ef          	jal	ra,14000 <FN_WriteStr>
   11ae0:	00058513          	mv	a0,a1
   11ae4:	538020ef          	jal	ra,1401c <FN_WriteA0>
   11ae8:	00004517          	auipc	a0,0x4
   11aec:	49f50513          	addi	a0,a0,1183 # 15f87 <end_signature+0xea7>
   11af0:	510020ef          	jal	ra,14000 <FN_WriteStr>
   11af4:	00004517          	auipc	a0,0x4
   11af8:	49950513          	addi	a0,a0,1177 # 15f8d <end_signature+0xead>
   11afc:	504020ef          	jal	ra,14000 <FN_WriteStr>
   11b00:	00004517          	auipc	a0,0x4
   11b04:	49850513          	addi	a0,a0,1176 # 15f98 <end_signature+0xeb8>
   11b08:	4f8020ef          	jal	ra,14000 <FN_WriteStr>
   11b0c:	06400193          	li	gp,100
   11b10:	0000100f          	fence.i
   11b14:	00018063          	beqz	gp,11b14 <reset_vector+0x1ac8>
   11b18:	00119193          	slli	gp,gp,0x1
   11b1c:	0011e193          	ori	gp,gp,1
   11b20:	00000073          	ecall
   11b24:	00000293          	li	t0,0
   11b28:	08560e63          	beq	a2,t0,11bc4 <reset_vector+0x1b78>
   11b2c:	00004517          	auipc	a0,0x4
   11b30:	46e50513          	addi	a0,a0,1134 # 15f9a <end_signature+0xeba>
   11b34:	4cc020ef          	jal	ra,14000 <FN_WriteStr>
   11b38:	00004517          	auipc	a0,0x4
   11b3c:	47d50513          	addi	a0,a0,1149 # 15fb5 <end_signature+0xed5>
   11b40:	4c0020ef          	jal	ra,14000 <FN_WriteStr>
   11b44:	00004517          	auipc	a0,0x4
   11b48:	48150513          	addi	a0,a0,1153 # 15fc5 <end_signature+0xee5>
   11b4c:	4b4020ef          	jal	ra,14000 <FN_WriteStr>
   11b50:	00004517          	auipc	a0,0x4
   11b54:	47d50513          	addi	a0,a0,1149 # 15fcd <end_signature+0xeed>
   11b58:	4a8020ef          	jal	ra,14000 <FN_WriteStr>
   11b5c:	00004517          	auipc	a0,0x4
   11b60:	47550513          	addi	a0,a0,1141 # 15fd1 <end_signature+0xef1>
   11b64:	49c020ef          	jal	ra,14000 <FN_WriteStr>
   11b68:	00004517          	auipc	a0,0x4
   11b6c:	46c50513          	addi	a0,a0,1132 # 15fd4 <end_signature+0xef4>
   11b70:	490020ef          	jal	ra,14000 <FN_WriteStr>
   11b74:	00004517          	auipc	a0,0x4
   11b78:	46450513          	addi	a0,a0,1124 # 15fd8 <end_signature+0xef8>
   11b7c:	484020ef          	jal	ra,14000 <FN_WriteStr>
   11b80:	00060513          	mv	a0,a2
   11b84:	498020ef          	jal	ra,1401c <FN_WriteA0>
   11b88:	00004517          	auipc	a0,0x4
   11b8c:	45250513          	addi	a0,a0,1106 # 15fda <end_signature+0xefa>
   11b90:	470020ef          	jal	ra,14000 <FN_WriteStr>
   11b94:	00004517          	auipc	a0,0x4
   11b98:	44c50513          	addi	a0,a0,1100 # 15fe0 <end_signature+0xf00>
   11b9c:	464020ef          	jal	ra,14000 <FN_WriteStr>
   11ba0:	00004517          	auipc	a0,0x4
   11ba4:	44b50513          	addi	a0,a0,1099 # 15feb <end_signature+0xf0b>
   11ba8:	458020ef          	jal	ra,14000 <FN_WriteStr>
   11bac:	06400193          	li	gp,100
   11bb0:	0000100f          	fence.i
   11bb4:	00018063          	beqz	gp,11bb4 <reset_vector+0x1b68>
   11bb8:	00119193          	slli	gp,gp,0x1
   11bbc:	0011e193          	ori	gp,gp,1
   11bc0:	00000073          	ecall
   11bc4:	00000293          	li	t0,0
   11bc8:	08568e63          	beq	a3,t0,11c64 <reset_vector+0x1c18>
   11bcc:	00004517          	auipc	a0,0x4
   11bd0:	42150513          	addi	a0,a0,1057 # 15fed <end_signature+0xf0d>
   11bd4:	42c020ef          	jal	ra,14000 <FN_WriteStr>
   11bd8:	00004517          	auipc	a0,0x4
   11bdc:	43050513          	addi	a0,a0,1072 # 16008 <end_signature+0xf28>
   11be0:	420020ef          	jal	ra,14000 <FN_WriteStr>
   11be4:	00004517          	auipc	a0,0x4
   11be8:	43450513          	addi	a0,a0,1076 # 16018 <end_signature+0xf38>
   11bec:	414020ef          	jal	ra,14000 <FN_WriteStr>
   11bf0:	00004517          	auipc	a0,0x4
   11bf4:	43050513          	addi	a0,a0,1072 # 16020 <end_signature+0xf40>
   11bf8:	408020ef          	jal	ra,14000 <FN_WriteStr>
   11bfc:	00004517          	auipc	a0,0x4
   11c00:	42850513          	addi	a0,a0,1064 # 16024 <end_signature+0xf44>
   11c04:	3fc020ef          	jal	ra,14000 <FN_WriteStr>
   11c08:	00004517          	auipc	a0,0x4
   11c0c:	41f50513          	addi	a0,a0,1055 # 16027 <end_signature+0xf47>
   11c10:	3f0020ef          	jal	ra,14000 <FN_WriteStr>
   11c14:	00004517          	auipc	a0,0x4
   11c18:	41750513          	addi	a0,a0,1047 # 1602b <end_signature+0xf4b>
   11c1c:	3e4020ef          	jal	ra,14000 <FN_WriteStr>
   11c20:	00068513          	mv	a0,a3
   11c24:	3f8020ef          	jal	ra,1401c <FN_WriteA0>
   11c28:	00004517          	auipc	a0,0x4
   11c2c:	40550513          	addi	a0,a0,1029 # 1602d <end_signature+0xf4d>
   11c30:	3d0020ef          	jal	ra,14000 <FN_WriteStr>
   11c34:	00004517          	auipc	a0,0x4
   11c38:	3ff50513          	addi	a0,a0,1023 # 16033 <end_signature+0xf53>
   11c3c:	3c4020ef          	jal	ra,14000 <FN_WriteStr>
   11c40:	00004517          	auipc	a0,0x4
   11c44:	3fe50513          	addi	a0,a0,1022 # 1603e <end_signature+0xf5e>
   11c48:	3b8020ef          	jal	ra,14000 <FN_WriteStr>
   11c4c:	06400193          	li	gp,100
   11c50:	0000100f          	fence.i
   11c54:	00018063          	beqz	gp,11c54 <reset_vector+0x1c08>
   11c58:	00119193          	slli	gp,gp,0x1
   11c5c:	0011e193          	ori	gp,gp,1
   11c60:	00000073          	ecall
   11c64:	00000293          	li	t0,0
   11c68:	08570e63          	beq	a4,t0,11d04 <reset_vector+0x1cb8>
   11c6c:	00004517          	auipc	a0,0x4
   11c70:	3d450513          	addi	a0,a0,980 # 16040 <end_signature+0xf60>
   11c74:	38c020ef          	jal	ra,14000 <FN_WriteStr>
   11c78:	00004517          	auipc	a0,0x4
   11c7c:	3e350513          	addi	a0,a0,995 # 1605b <end_signature+0xf7b>
   11c80:	380020ef          	jal	ra,14000 <FN_WriteStr>
   11c84:	00004517          	auipc	a0,0x4
   11c88:	3e750513          	addi	a0,a0,999 # 1606b <end_signature+0xf8b>
   11c8c:	374020ef          	jal	ra,14000 <FN_WriteStr>
   11c90:	00004517          	auipc	a0,0x4
   11c94:	3e350513          	addi	a0,a0,995 # 16073 <end_signature+0xf93>
   11c98:	368020ef          	jal	ra,14000 <FN_WriteStr>
   11c9c:	00004517          	auipc	a0,0x4
   11ca0:	3db50513          	addi	a0,a0,987 # 16077 <end_signature+0xf97>
   11ca4:	35c020ef          	jal	ra,14000 <FN_WriteStr>
   11ca8:	00004517          	auipc	a0,0x4
   11cac:	3d250513          	addi	a0,a0,978 # 1607a <end_signature+0xf9a>
   11cb0:	350020ef          	jal	ra,14000 <FN_WriteStr>
   11cb4:	00004517          	auipc	a0,0x4
   11cb8:	3ca50513          	addi	a0,a0,970 # 1607e <end_signature+0xf9e>
   11cbc:	344020ef          	jal	ra,14000 <FN_WriteStr>
   11cc0:	00070513          	mv	a0,a4
   11cc4:	358020ef          	jal	ra,1401c <FN_WriteA0>
   11cc8:	00004517          	auipc	a0,0x4
   11ccc:	3b850513          	addi	a0,a0,952 # 16080 <end_signature+0xfa0>
   11cd0:	330020ef          	jal	ra,14000 <FN_WriteStr>
   11cd4:	00004517          	auipc	a0,0x4
   11cd8:	3b250513          	addi	a0,a0,946 # 16086 <end_signature+0xfa6>
   11cdc:	324020ef          	jal	ra,14000 <FN_WriteStr>
   11ce0:	00004517          	auipc	a0,0x4
   11ce4:	3b150513          	addi	a0,a0,945 # 16091 <end_signature+0xfb1>
   11ce8:	318020ef          	jal	ra,14000 <FN_WriteStr>
   11cec:	06400193          	li	gp,100
   11cf0:	0000100f          	fence.i
   11cf4:	00018063          	beqz	gp,11cf4 <reset_vector+0x1ca8>
   11cf8:	00119193          	slli	gp,gp,0x1
   11cfc:	0011e193          	ori	gp,gp,1
   11d00:	00000073          	ecall
   11d04:	00000293          	li	t0,0
   11d08:	08578e63          	beq	a5,t0,11da4 <reset_vector+0x1d58>
   11d0c:	00004517          	auipc	a0,0x4
   11d10:	38750513          	addi	a0,a0,903 # 16093 <end_signature+0xfb3>
   11d14:	2ec020ef          	jal	ra,14000 <FN_WriteStr>
   11d18:	00004517          	auipc	a0,0x4
   11d1c:	39650513          	addi	a0,a0,918 # 160ae <end_signature+0xfce>
   11d20:	2e0020ef          	jal	ra,14000 <FN_WriteStr>
   11d24:	00004517          	auipc	a0,0x4
   11d28:	39a50513          	addi	a0,a0,922 # 160be <end_signature+0xfde>
   11d2c:	2d4020ef          	jal	ra,14000 <FN_WriteStr>
   11d30:	00004517          	auipc	a0,0x4
   11d34:	39650513          	addi	a0,a0,918 # 160c6 <end_signature+0xfe6>
   11d38:	2c8020ef          	jal	ra,14000 <FN_WriteStr>
   11d3c:	00004517          	auipc	a0,0x4
   11d40:	38e50513          	addi	a0,a0,910 # 160ca <end_signature+0xfea>
   11d44:	2bc020ef          	jal	ra,14000 <FN_WriteStr>
   11d48:	00004517          	auipc	a0,0x4
   11d4c:	38550513          	addi	a0,a0,901 # 160cd <end_signature+0xfed>
   11d50:	2b0020ef          	jal	ra,14000 <FN_WriteStr>
   11d54:	00004517          	auipc	a0,0x4
   11d58:	37d50513          	addi	a0,a0,893 # 160d1 <end_signature+0xff1>
   11d5c:	2a4020ef          	jal	ra,14000 <FN_WriteStr>
   11d60:	00078513          	mv	a0,a5
   11d64:	2b8020ef          	jal	ra,1401c <FN_WriteA0>
   11d68:	00004517          	auipc	a0,0x4
   11d6c:	36b50513          	addi	a0,a0,875 # 160d3 <end_signature+0xff3>
   11d70:	290020ef          	jal	ra,14000 <FN_WriteStr>
   11d74:	00004517          	auipc	a0,0x4
   11d78:	36550513          	addi	a0,a0,869 # 160d9 <end_signature+0xff9>
   11d7c:	284020ef          	jal	ra,14000 <FN_WriteStr>
   11d80:	00004517          	auipc	a0,0x4
   11d84:	36450513          	addi	a0,a0,868 # 160e4 <end_signature+0x1004>
   11d88:	278020ef          	jal	ra,14000 <FN_WriteStr>
   11d8c:	06400193          	li	gp,100
   11d90:	0000100f          	fence.i
   11d94:	00018063          	beqz	gp,11d94 <reset_vector+0x1d48>
   11d98:	00119193          	slli	gp,gp,0x1
   11d9c:	0011e193          	ori	gp,gp,1
   11da0:	00000073          	ecall
   11da4:	00004517          	auipc	a0,0x4
   11da8:	34250513          	addi	a0,a0,834 # 160e6 <end_signature+0x1006>
   11dac:	254020ef          	jal	ra,14000 <FN_WriteStr>
   11db0:	00004517          	auipc	a0,0x4
   11db4:	35150513          	addi	a0,a0,849 # 16101 <end_signature+0x1021>
   11db8:	248020ef          	jal	ra,14000 <FN_WriteStr>
   11dbc:	00003f97          	auipc	t6,0x3
   11dc0:	310f8f93          	addi	t6,t6,784 # 150cc <test_D_res>
   11dc4:	00100193          	li	gp,1
   11dc8:	003030b3          	snez	ra,gp
   11dcc:	0030b133          	sltu	sp,ra,gp
   11dd0:	00313e33          	sltu	t3,sp,gp
   11dd4:	003e3eb3          	sltu	t4,t3,gp
   11dd8:	003ebf33          	sltu	t5,t4,gp
   11ddc:	001fa023          	sw	ra,0(t6)
   11de0:	002fa223          	sw	sp,4(t6)
   11de4:	01cfa423          	sw	t3,8(t6)
   11de8:	01dfa623          	sw	t4,12(t6)
   11dec:	01efa823          	sw	t5,16(t6)
   11df0:	00000293          	li	t0,0
   11df4:	08510e63          	beq	sp,t0,11e90 <reset_vector+0x1e44>
   11df8:	00004517          	auipc	a0,0x4
   11dfc:	34250513          	addi	a0,a0,834 # 1613a <end_signature+0x105a>
   11e00:	200020ef          	jal	ra,14000 <FN_WriteStr>
   11e04:	00004517          	auipc	a0,0x4
   11e08:	35150513          	addi	a0,a0,849 # 16155 <end_signature+0x1075>
   11e0c:	1f4020ef          	jal	ra,14000 <FN_WriteStr>
   11e10:	00004517          	auipc	a0,0x4
   11e14:	35550513          	addi	a0,a0,853 # 16165 <end_signature+0x1085>
   11e18:	1e8020ef          	jal	ra,14000 <FN_WriteStr>
   11e1c:	00004517          	auipc	a0,0x4
   11e20:	35150513          	addi	a0,a0,849 # 1616d <end_signature+0x108d>
   11e24:	1dc020ef          	jal	ra,14000 <FN_WriteStr>
   11e28:	00004517          	auipc	a0,0x4
   11e2c:	34950513          	addi	a0,a0,841 # 16171 <end_signature+0x1091>
   11e30:	1d0020ef          	jal	ra,14000 <FN_WriteStr>
   11e34:	00004517          	auipc	a0,0x4
   11e38:	34050513          	addi	a0,a0,832 # 16174 <end_signature+0x1094>
   11e3c:	1c4020ef          	jal	ra,14000 <FN_WriteStr>
   11e40:	00004517          	auipc	a0,0x4
   11e44:	33750513          	addi	a0,a0,823 # 16177 <end_signature+0x1097>
   11e48:	1b8020ef          	jal	ra,14000 <FN_WriteStr>
   11e4c:	00010513          	mv	a0,sp
   11e50:	1cc020ef          	jal	ra,1401c <FN_WriteA0>
   11e54:	00004517          	auipc	a0,0x4
   11e58:	32550513          	addi	a0,a0,805 # 16179 <end_signature+0x1099>
   11e5c:	1a4020ef          	jal	ra,14000 <FN_WriteStr>
   11e60:	00004517          	auipc	a0,0x4
   11e64:	31f50513          	addi	a0,a0,799 # 1617f <end_signature+0x109f>
   11e68:	198020ef          	jal	ra,14000 <FN_WriteStr>
   11e6c:	00004517          	auipc	a0,0x4
   11e70:	31e50513          	addi	a0,a0,798 # 1618a <end_signature+0x10aa>
   11e74:	18c020ef          	jal	ra,14000 <FN_WriteStr>
   11e78:	06400193          	li	gp,100
   11e7c:	0000100f          	fence.i
   11e80:	00018063          	beqz	gp,11e80 <reset_vector+0x1e34>
   11e84:	00119193          	slli	gp,gp,0x1
   11e88:	0011e193          	ori	gp,gp,1
   11e8c:	00000073          	ecall
   11e90:	00100293          	li	t0,1
   11e94:	085e0e63          	beq	t3,t0,11f30 <reset_vector+0x1ee4>
   11e98:	00004517          	auipc	a0,0x4
   11e9c:	2f450513          	addi	a0,a0,756 # 1618c <end_signature+0x10ac>
   11ea0:	160020ef          	jal	ra,14000 <FN_WriteStr>
   11ea4:	00004517          	auipc	a0,0x4
   11ea8:	30350513          	addi	a0,a0,771 # 161a7 <end_signature+0x10c7>
   11eac:	154020ef          	jal	ra,14000 <FN_WriteStr>
   11eb0:	00004517          	auipc	a0,0x4
   11eb4:	30750513          	addi	a0,a0,775 # 161b7 <end_signature+0x10d7>
   11eb8:	148020ef          	jal	ra,14000 <FN_WriteStr>
   11ebc:	00004517          	auipc	a0,0x4
   11ec0:	30350513          	addi	a0,a0,771 # 161bf <end_signature+0x10df>
   11ec4:	13c020ef          	jal	ra,14000 <FN_WriteStr>
   11ec8:	00004517          	auipc	a0,0x4
   11ecc:	2fb50513          	addi	a0,a0,763 # 161c3 <end_signature+0x10e3>
   11ed0:	130020ef          	jal	ra,14000 <FN_WriteStr>
   11ed4:	00004517          	auipc	a0,0x4
   11ed8:	2f250513          	addi	a0,a0,754 # 161c6 <end_signature+0x10e6>
   11edc:	124020ef          	jal	ra,14000 <FN_WriteStr>
   11ee0:	00004517          	auipc	a0,0x4
   11ee4:	2ea50513          	addi	a0,a0,746 # 161ca <end_signature+0x10ea>
   11ee8:	118020ef          	jal	ra,14000 <FN_WriteStr>
   11eec:	000e0513          	mv	a0,t3
   11ef0:	12c020ef          	jal	ra,1401c <FN_WriteA0>
   11ef4:	00004517          	auipc	a0,0x4
   11ef8:	2d850513          	addi	a0,a0,728 # 161cc <end_signature+0x10ec>
   11efc:	104020ef          	jal	ra,14000 <FN_WriteStr>
   11f00:	00004517          	auipc	a0,0x4
   11f04:	2d250513          	addi	a0,a0,722 # 161d2 <end_signature+0x10f2>
   11f08:	0f8020ef          	jal	ra,14000 <FN_WriteStr>
   11f0c:	00004517          	auipc	a0,0x4
   11f10:	2d150513          	addi	a0,a0,721 # 161dd <end_signature+0x10fd>
   11f14:	0ec020ef          	jal	ra,14000 <FN_WriteStr>
   11f18:	06400193          	li	gp,100
   11f1c:	0000100f          	fence.i
   11f20:	00018063          	beqz	gp,11f20 <reset_vector+0x1ed4>
   11f24:	00119193          	slli	gp,gp,0x1
   11f28:	0011e193          	ori	gp,gp,1
   11f2c:	00000073          	ecall
   11f30:	00000293          	li	t0,0
   11f34:	085e8e63          	beq	t4,t0,11fd0 <reset_vector+0x1f84>
   11f38:	00004517          	auipc	a0,0x4
   11f3c:	2a750513          	addi	a0,a0,679 # 161df <end_signature+0x10ff>
   11f40:	0c0020ef          	jal	ra,14000 <FN_WriteStr>
   11f44:	00004517          	auipc	a0,0x4
   11f48:	2b650513          	addi	a0,a0,694 # 161fa <end_signature+0x111a>
   11f4c:	0b4020ef          	jal	ra,14000 <FN_WriteStr>
   11f50:	00004517          	auipc	a0,0x4
   11f54:	2ba50513          	addi	a0,a0,698 # 1620a <end_signature+0x112a>
   11f58:	0a8020ef          	jal	ra,14000 <FN_WriteStr>
   11f5c:	00004517          	auipc	a0,0x4
   11f60:	2b650513          	addi	a0,a0,694 # 16212 <end_signature+0x1132>
   11f64:	09c020ef          	jal	ra,14000 <FN_WriteStr>
   11f68:	00004517          	auipc	a0,0x4
   11f6c:	2ae50513          	addi	a0,a0,686 # 16216 <end_signature+0x1136>
   11f70:	090020ef          	jal	ra,14000 <FN_WriteStr>
   11f74:	00004517          	auipc	a0,0x4
   11f78:	2a550513          	addi	a0,a0,677 # 16219 <end_signature+0x1139>
   11f7c:	084020ef          	jal	ra,14000 <FN_WriteStr>
   11f80:	00004517          	auipc	a0,0x4
   11f84:	29d50513          	addi	a0,a0,669 # 1621d <end_signature+0x113d>
   11f88:	078020ef          	jal	ra,14000 <FN_WriteStr>
   11f8c:	000e8513          	mv	a0,t4
   11f90:	08c020ef          	jal	ra,1401c <FN_WriteA0>
   11f94:	00004517          	auipc	a0,0x4
   11f98:	28b50513          	addi	a0,a0,651 # 1621f <end_signature+0x113f>
   11f9c:	064020ef          	jal	ra,14000 <FN_WriteStr>
   11fa0:	00004517          	auipc	a0,0x4
   11fa4:	28550513          	addi	a0,a0,645 # 16225 <end_signature+0x1145>
   11fa8:	058020ef          	jal	ra,14000 <FN_WriteStr>
   11fac:	00004517          	auipc	a0,0x4
   11fb0:	28450513          	addi	a0,a0,644 # 16230 <end_signature+0x1150>
   11fb4:	04c020ef          	jal	ra,14000 <FN_WriteStr>
   11fb8:	06400193          	li	gp,100
   11fbc:	0000100f          	fence.i
   11fc0:	00018063          	beqz	gp,11fc0 <reset_vector+0x1f74>
   11fc4:	00119193          	slli	gp,gp,0x1
   11fc8:	0011e193          	ori	gp,gp,1
   11fcc:	00000073          	ecall
   11fd0:	00100293          	li	t0,1
   11fd4:	085f0e63          	beq	t5,t0,12070 <reset_vector+0x2024>
   11fd8:	00004517          	auipc	a0,0x4
   11fdc:	25a50513          	addi	a0,a0,602 # 16232 <end_signature+0x1152>
   11fe0:	020020ef          	jal	ra,14000 <FN_WriteStr>
   11fe4:	00004517          	auipc	a0,0x4
   11fe8:	26950513          	addi	a0,a0,617 # 1624d <end_signature+0x116d>
   11fec:	014020ef          	jal	ra,14000 <FN_WriteStr>
   11ff0:	00004517          	auipc	a0,0x4
   11ff4:	26d50513          	addi	a0,a0,621 # 1625d <end_signature+0x117d>
   11ff8:	008020ef          	jal	ra,14000 <FN_WriteStr>
   11ffc:	00004517          	auipc	a0,0x4
   12000:	26950513          	addi	a0,a0,617 # 16265 <end_signature+0x1185>
   12004:	7fd010ef          	jal	ra,14000 <FN_WriteStr>
   12008:	00004517          	auipc	a0,0x4
   1200c:	26150513          	addi	a0,a0,609 # 16269 <end_signature+0x1189>
   12010:	7f1010ef          	jal	ra,14000 <FN_WriteStr>
   12014:	00004517          	auipc	a0,0x4
   12018:	25850513          	addi	a0,a0,600 # 1626c <end_signature+0x118c>
   1201c:	7e5010ef          	jal	ra,14000 <FN_WriteStr>
   12020:	00004517          	auipc	a0,0x4
   12024:	25050513          	addi	a0,a0,592 # 16270 <end_signature+0x1190>
   12028:	7d9010ef          	jal	ra,14000 <FN_WriteStr>
   1202c:	000f0513          	mv	a0,t5
   12030:	7ed010ef          	jal	ra,1401c <FN_WriteA0>
   12034:	00004517          	auipc	a0,0x4
   12038:	23e50513          	addi	a0,a0,574 # 16272 <end_signature+0x1192>
   1203c:	7c5010ef          	jal	ra,14000 <FN_WriteStr>
   12040:	00004517          	auipc	a0,0x4
   12044:	23850513          	addi	a0,a0,568 # 16278 <end_signature+0x1198>
   12048:	7b9010ef          	jal	ra,14000 <FN_WriteStr>
   1204c:	00004517          	auipc	a0,0x4
   12050:	23750513          	addi	a0,a0,567 # 16283 <end_signature+0x11a3>
   12054:	7ad010ef          	jal	ra,14000 <FN_WriteStr>
   12058:	06400193          	li	gp,100
   1205c:	0000100f          	fence.i
   12060:	00018063          	beqz	gp,12060 <reset_vector+0x2014>
   12064:	00119193          	slli	gp,gp,0x1
   12068:	0011e193          	ori	gp,gp,1
   1206c:	00000073          	ecall
   12070:	00004517          	auipc	a0,0x4
   12074:	21550513          	addi	a0,a0,533 # 16285 <end_signature+0x11a5>
   12078:	789010ef          	jal	ra,14000 <FN_WriteStr>
   1207c:	00004517          	auipc	a0,0x4
   12080:	22450513          	addi	a0,a0,548 # 162a0 <end_signature+0x11c0>
   12084:	77d010ef          	jal	ra,14000 <FN_WriteStr>
   12088:	0000100f          	fence.i
   1208c:	00100193          	li	gp,1
   12090:	00000073          	ecall
   12094:	c0001073          	unimp
	...

Disassembly of section .tohost:

00013000 <tohost>:
	...

00013100 <fromhost>:
	...

Disassembly of section .text:

00014000 <FN_WriteStr>:
   14000:	00050293          	mv	t0,a0
   14004:	0002c503          	lbu	a0,0(t0) # 80000000 <_end+0x7ffe9d54>
   14008:	00128293          	addi	t0,t0,1
   1400c:	00050663          	beqz	a0,14018 <FN_WriteStr+0x18>
   14010:	0005200b          	0x5200b
   14014:	ff1ff06f          	j	14004 <FN_WriteStr+0x4>
   14018:	00008067          	ret

0001401c <FN_WriteA0>:
   1401c:	00050293          	mv	t0,a0
   14020:	fff00513          	li	a0,-1
   14024:	01f55513          	srli	a0,a0,0x1f
   14028:	00155513          	srli	a0,a0,0x1
   1402c:	02051463          	bnez	a0,14054 <FN_WriteA0_64>

00014030 <FN_WriteA0_32>:
   14030:	00800313          	li	t1,8
   14034:	00439393          	slli	t2,t2,0x4
   14038:	00f2f513          	andi	a0,t0,15
   1403c:	0042d293          	srli	t0,t0,0x4
   14040:	00a3e3b3          	or	t2,t2,a0
   14044:	fff30313          	addi	t1,t1,-1
   14048:	fe0316e3          	bnez	t1,14034 <FN_WriteA0_32+0x4>
   1404c:	00800313          	li	t1,8
   14050:	0240006f          	j	14074 <FN_WriteA0_common>

00014054 <FN_WriteA0_64>:
   14054:	01000313          	li	t1,16
   14058:	00439393          	slli	t2,t2,0x4
   1405c:	00f2f513          	andi	a0,t0,15
   14060:	0042d293          	srli	t0,t0,0x4
   14064:	00a3e3b3          	or	t2,t2,a0
   14068:	fff30313          	addi	t1,t1,-1
   1406c:	fe0316e3          	bnez	t1,14058 <FN_WriteA0_64+0x4>
   14070:	01000313          	li	t1,16

00014074 <FN_WriteA0_common>:
   14074:	00a00293          	li	t0,10
   14078:	00f3f513          	andi	a0,t2,15
   1407c:	00554663          	blt	a0,t0,14088 <FN_WriteA0_common+0x14>
   14080:	05750513          	addi	a0,a0,87
   14084:	0080006f          	j	1408c <FN_WriteA0_common+0x18>
   14088:	03050513          	addi	a0,a0,48
   1408c:	0005200b          	0x5200b
   14090:	0043d393          	srli	t2,t2,0x4
   14094:	fff30313          	addi	t1,t1,-1
   14098:	fe0310e3          	bnez	t1,14078 <FN_WriteA0_common+0x4>
   1409c:	00008067          	ret
