
/home/benselfridge/riscv-compliance/work//I-SLL-01.elf:     file format elf32-littleriscv


Disassembly of section .text.init:

00010000 <_start>:
   10000:	04c0006f          	j	1004c <reset_vector>

00010004 <trap_vector>:
   10004:	34202f73          	csrr	t5,mcause
   10008:	00800f93          	li	t6,8
   1000c:	03ff0a63          	beq	t5,t6,10040 <write_tohost>
   10010:	00900f93          	li	t6,9
   10014:	03ff0663          	beq	t5,t6,10040 <write_tohost>
   10018:	00b00f93          	li	t6,11
   1001c:	03ff0263          	beq	t5,t6,10040 <write_tohost>
   10020:	ffff0f17          	auipc	t5,0xffff0
   10024:	fe0f0f13          	addi	t5,t5,-32 # 0 <_start-0x10000>
   10028:	000f0463          	beqz	t5,10030 <trap_vector+0x2c>
   1002c:	000f0067          	jr	t5
   10030:	34202f73          	csrr	t5,mcause
   10034:	000f5463          	bgez	t5,1003c <handle_exception>
   10038:	0040006f          	j	1003c <handle_exception>

0001003c <handle_exception>:
   1003c:	5391e193          	ori	gp,gp,1337

00010040 <write_tohost>:
   10040:	00002f17          	auipc	t5,0x2
   10044:	fc3f2023          	sw	gp,-64(t5) # 12000 <tohost>
   10048:	ff9ff06f          	j	10040 <write_tohost>

0001004c <reset_vector>:
   1004c:	f1402573          	csrr	a0,mhartid
   10050:	00051063          	bnez	a0,10050 <reset_vector+0x4>
   10054:	00000297          	auipc	t0,0x0
   10058:	01028293          	addi	t0,t0,16 # 10064 <reset_vector+0x18>
   1005c:	30529073          	csrw	mtvec,t0
   10060:	18005073          	csrwi	satp,0
   10064:	00000297          	auipc	t0,0x0
   10068:	01c28293          	addi	t0,t0,28 # 10080 <reset_vector+0x34>
   1006c:	30529073          	csrw	mtvec,t0
   10070:	fff00293          	li	t0,-1
   10074:	3b029073          	csrw	pmpaddr0,t0
   10078:	01f00293          	li	t0,31
   1007c:	3a029073          	csrw	pmpcfg0,t0
   10080:	00000297          	auipc	t0,0x0
   10084:	01828293          	addi	t0,t0,24 # 10098 <reset_vector+0x4c>
   10088:	30529073          	csrw	mtvec,t0
   1008c:	30205073          	csrwi	medeleg,0
   10090:	30305073          	csrwi	mideleg,0
   10094:	30405073          	csrwi	mie,0
   10098:	00000193          	li	gp,0
   1009c:	00000297          	auipc	t0,0x0
   100a0:	f6828293          	addi	t0,t0,-152 # 10004 <trap_vector>
   100a4:	30529073          	csrw	mtvec,t0
   100a8:	00100513          	li	a0,1
   100ac:	01f51513          	slli	a0,a0,0x1f
   100b0:	00054863          	bltz	a0,100c0 <reset_vector+0x74>
   100b4:	0000100f          	fence.i
   100b8:	00100193          	li	gp,1
   100bc:	00000073          	ecall
   100c0:	ffff0297          	auipc	t0,0xffff0
   100c4:	f4028293          	addi	t0,t0,-192 # 0 <_start-0x10000>
   100c8:	00028e63          	beqz	t0,100e4 <reset_vector+0x98>
   100cc:	10529073          	csrw	stvec,t0
   100d0:	0000b2b7          	lui	t0,0xb
   100d4:	10928293          	addi	t0,t0,265 # b109 <_start-0x4ef7>
   100d8:	30229073          	csrw	medeleg,t0
   100dc:	30202373          	csrr	t1,medeleg
   100e0:	f4629ee3          	bne	t0,t1,1003c <handle_exception>
   100e4:	30005073          	csrwi	mstatus,0
   100e8:	00002537          	lui	a0,0x2
   100ec:	80050513          	addi	a0,a0,-2048 # 1800 <_start-0xe800>
   100f0:	30052073          	csrs	mstatus,a0
   100f4:	00000297          	auipc	t0,0x0
   100f8:	01428293          	addi	t0,t0,20 # 10108 <reset_vector+0xbc>
   100fc:	34129073          	csrw	mepc,t0
   10100:	f1402573          	csrr	a0,mhartid
   10104:	30200073          	mret
   10108:	00000293          	li	t0,0
   1010c:	08500e63          	beq	zero,t0,101a8 <reset_vector+0x15c>
   10110:	00004517          	auipc	a0,0x4
   10114:	fd050513          	addi	a0,a0,-48 # 140e0 <end_signature>
   10118:	6e9020ef          	jal	ra,13000 <FN_WriteStr>
   1011c:	00004517          	auipc	a0,0x4
   10120:	fdf50513          	addi	a0,a0,-33 # 140fb <end_signature+0x1b>
   10124:	6dd020ef          	jal	ra,13000 <FN_WriteStr>
   10128:	00004517          	auipc	a0,0x4
   1012c:	fe250513          	addi	a0,a0,-30 # 1410a <end_signature+0x2a>
   10130:	6d1020ef          	jal	ra,13000 <FN_WriteStr>
   10134:	00004517          	auipc	a0,0x4
   10138:	fde50513          	addi	a0,a0,-34 # 14112 <end_signature+0x32>
   1013c:	6c5020ef          	jal	ra,13000 <FN_WriteStr>
   10140:	00004517          	auipc	a0,0x4
   10144:	fd550513          	addi	a0,a0,-43 # 14115 <end_signature+0x35>
   10148:	6b9020ef          	jal	ra,13000 <FN_WriteStr>
   1014c:	00004517          	auipc	a0,0x4
   10150:	fcc50513          	addi	a0,a0,-52 # 14118 <end_signature+0x38>
   10154:	6ad020ef          	jal	ra,13000 <FN_WriteStr>
   10158:	00004517          	auipc	a0,0x4
   1015c:	fc350513          	addi	a0,a0,-61 # 1411b <end_signature+0x3b>
   10160:	6a1020ef          	jal	ra,13000 <FN_WriteStr>
   10164:	00000513          	li	a0,0
   10168:	6b5020ef          	jal	ra,1301c <FN_WriteA0>
   1016c:	00004517          	auipc	a0,0x4
   10170:	fb150513          	addi	a0,a0,-79 # 1411d <end_signature+0x3d>
   10174:	68d020ef          	jal	ra,13000 <FN_WriteStr>
   10178:	00004517          	auipc	a0,0x4
   1017c:	fab50513          	addi	a0,a0,-85 # 14123 <end_signature+0x43>
   10180:	681020ef          	jal	ra,13000 <FN_WriteStr>
   10184:	00004517          	auipc	a0,0x4
   10188:	faa50513          	addi	a0,a0,-86 # 1412e <end_signature+0x4e>
   1018c:	675020ef          	jal	ra,13000 <FN_WriteStr>
   10190:	06400193          	li	gp,100
   10194:	0000100f          	fence.i
   10198:	00018063          	beqz	gp,10198 <reset_vector+0x14c>
   1019c:	00119193          	slli	gp,gp,0x1
   101a0:	0011e193          	ori	gp,gp,1
   101a4:	00000073          	ecall
   101a8:	00004517          	auipc	a0,0x4
   101ac:	f8850513          	addi	a0,a0,-120 # 14130 <end_signature+0x50>
   101b0:	651020ef          	jal	ra,13000 <FN_WriteStr>
   101b4:	00004517          	auipc	a0,0x4
   101b8:	fae50513          	addi	a0,a0,-82 # 14162 <end_signature+0x82>
   101bc:	645020ef          	jal	ra,13000 <FN_WriteStr>
   101c0:	00004097          	auipc	ra,0x4
   101c4:	e4008093          	addi	ra,ra,-448 # 14000 <test_A1_data>
   101c8:	00004117          	auipc	sp,0x4
   101cc:	e6810113          	addi	sp,sp,-408 # 14030 <begin_signature>
   101d0:	0000a183          	lw	gp,0(ra)
   101d4:	00100213          	li	tp,1
   101d8:	00f00293          	li	t0,15
   101dc:	01f00313          	li	t1,31
   101e0:	00000393          	li	t2,0
   101e4:	01000413          	li	s0,16
   101e8:	00419233          	sll	tp,gp,tp
   101ec:	005192b3          	sll	t0,gp,t0
   101f0:	00619333          	sll	t1,gp,t1
   101f4:	007193b3          	sll	t2,gp,t2
   101f8:	00819433          	sll	s0,gp,s0
   101fc:	00312023          	sw	gp,0(sp)
   10200:	00412223          	sw	tp,4(sp)
   10204:	00512423          	sw	t0,8(sp)
   10208:	00612623          	sw	t1,12(sp)
   1020c:	00712823          	sw	t2,16(sp)
   10210:	00812a23          	sw	s0,20(sp)
   10214:	fff00013          	li	zero,-1
   10218:	00000293          	li	t0,0
   1021c:	08518e63          	beq	gp,t0,102b8 <reset_vector+0x26c>
   10220:	00004517          	auipc	a0,0x4
   10224:	f9b50513          	addi	a0,a0,-101 # 141bb <end_signature+0xdb>
   10228:	5d9020ef          	jal	ra,13000 <FN_WriteStr>
   1022c:	00004517          	auipc	a0,0x4
   10230:	faa50513          	addi	a0,a0,-86 # 141d6 <end_signature+0xf6>
   10234:	5cd020ef          	jal	ra,13000 <FN_WriteStr>
   10238:	00004517          	auipc	a0,0x4
   1023c:	fad50513          	addi	a0,a0,-83 # 141e5 <end_signature+0x105>
   10240:	5c1020ef          	jal	ra,13000 <FN_WriteStr>
   10244:	00004517          	auipc	a0,0x4
   10248:	fa950513          	addi	a0,a0,-87 # 141ed <end_signature+0x10d>
   1024c:	5b5020ef          	jal	ra,13000 <FN_WriteStr>
   10250:	00004517          	auipc	a0,0x4
   10254:	fa050513          	addi	a0,a0,-96 # 141f0 <end_signature+0x110>
   10258:	5a9020ef          	jal	ra,13000 <FN_WriteStr>
   1025c:	00004517          	auipc	a0,0x4
   10260:	f9750513          	addi	a0,a0,-105 # 141f3 <end_signature+0x113>
   10264:	59d020ef          	jal	ra,13000 <FN_WriteStr>
   10268:	00004517          	auipc	a0,0x4
   1026c:	f8e50513          	addi	a0,a0,-114 # 141f6 <end_signature+0x116>
   10270:	591020ef          	jal	ra,13000 <FN_WriteStr>
   10274:	00018513          	mv	a0,gp
   10278:	5a5020ef          	jal	ra,1301c <FN_WriteA0>
   1027c:	00004517          	auipc	a0,0x4
   10280:	f7c50513          	addi	a0,a0,-132 # 141f8 <end_signature+0x118>
   10284:	57d020ef          	jal	ra,13000 <FN_WriteStr>
   10288:	00004517          	auipc	a0,0x4
   1028c:	f7650513          	addi	a0,a0,-138 # 141fe <end_signature+0x11e>
   10290:	571020ef          	jal	ra,13000 <FN_WriteStr>
   10294:	00004517          	auipc	a0,0x4
   10298:	f7550513          	addi	a0,a0,-139 # 14209 <end_signature+0x129>
   1029c:	565020ef          	jal	ra,13000 <FN_WriteStr>
   102a0:	06400193          	li	gp,100
   102a4:	0000100f          	fence.i
   102a8:	00018063          	beqz	gp,102a8 <reset_vector+0x25c>
   102ac:	00119193          	slli	gp,gp,0x1
   102b0:	0011e193          	ori	gp,gp,1
   102b4:	00000073          	ecall
   102b8:	00000293          	li	t0,0
   102bc:	08520e63          	beq	tp,t0,10358 <reset_vector+0x30c>
   102c0:	00004517          	auipc	a0,0x4
   102c4:	f4b50513          	addi	a0,a0,-181 # 1420b <end_signature+0x12b>
   102c8:	539020ef          	jal	ra,13000 <FN_WriteStr>
   102cc:	00004517          	auipc	a0,0x4
   102d0:	f5a50513          	addi	a0,a0,-166 # 14226 <end_signature+0x146>
   102d4:	52d020ef          	jal	ra,13000 <FN_WriteStr>
   102d8:	00004517          	auipc	a0,0x4
   102dc:	f5d50513          	addi	a0,a0,-163 # 14235 <end_signature+0x155>
   102e0:	521020ef          	jal	ra,13000 <FN_WriteStr>
   102e4:	00004517          	auipc	a0,0x4
   102e8:	f5950513          	addi	a0,a0,-167 # 1423d <end_signature+0x15d>
   102ec:	515020ef          	jal	ra,13000 <FN_WriteStr>
   102f0:	00004517          	auipc	a0,0x4
   102f4:	f5050513          	addi	a0,a0,-176 # 14240 <end_signature+0x160>
   102f8:	509020ef          	jal	ra,13000 <FN_WriteStr>
   102fc:	00004517          	auipc	a0,0x4
   10300:	f4750513          	addi	a0,a0,-185 # 14243 <end_signature+0x163>
   10304:	4fd020ef          	jal	ra,13000 <FN_WriteStr>
   10308:	00004517          	auipc	a0,0x4
   1030c:	f3e50513          	addi	a0,a0,-194 # 14246 <end_signature+0x166>
   10310:	4f1020ef          	jal	ra,13000 <FN_WriteStr>
   10314:	00020513          	mv	a0,tp
   10318:	505020ef          	jal	ra,1301c <FN_WriteA0>
   1031c:	00004517          	auipc	a0,0x4
   10320:	f2c50513          	addi	a0,a0,-212 # 14248 <end_signature+0x168>
   10324:	4dd020ef          	jal	ra,13000 <FN_WriteStr>
   10328:	00004517          	auipc	a0,0x4
   1032c:	f2650513          	addi	a0,a0,-218 # 1424e <end_signature+0x16e>
   10330:	4d1020ef          	jal	ra,13000 <FN_WriteStr>
   10334:	00004517          	auipc	a0,0x4
   10338:	f2550513          	addi	a0,a0,-219 # 14259 <end_signature+0x179>
   1033c:	4c5020ef          	jal	ra,13000 <FN_WriteStr>
   10340:	06400193          	li	gp,100
   10344:	0000100f          	fence.i
   10348:	00018063          	beqz	gp,10348 <reset_vector+0x2fc>
   1034c:	00119193          	slli	gp,gp,0x1
   10350:	0011e193          	ori	gp,gp,1
   10354:	00000073          	ecall
   10358:	00000293          	li	t0,0
   1035c:	08528e63          	beq	t0,t0,103f8 <reset_vector+0x3ac>
   10360:	00004517          	auipc	a0,0x4
   10364:	efb50513          	addi	a0,a0,-261 # 1425b <end_signature+0x17b>
   10368:	499020ef          	jal	ra,13000 <FN_WriteStr>
   1036c:	00004517          	auipc	a0,0x4
   10370:	f0a50513          	addi	a0,a0,-246 # 14276 <end_signature+0x196>
   10374:	48d020ef          	jal	ra,13000 <FN_WriteStr>
   10378:	00004517          	auipc	a0,0x4
   1037c:	f0d50513          	addi	a0,a0,-243 # 14285 <end_signature+0x1a5>
   10380:	481020ef          	jal	ra,13000 <FN_WriteStr>
   10384:	00004517          	auipc	a0,0x4
   10388:	f0950513          	addi	a0,a0,-247 # 1428d <end_signature+0x1ad>
   1038c:	475020ef          	jal	ra,13000 <FN_WriteStr>
   10390:	00004517          	auipc	a0,0x4
   10394:	f0050513          	addi	a0,a0,-256 # 14290 <end_signature+0x1b0>
   10398:	469020ef          	jal	ra,13000 <FN_WriteStr>
   1039c:	00004517          	auipc	a0,0x4
   103a0:	ef750513          	addi	a0,a0,-265 # 14293 <end_signature+0x1b3>
   103a4:	45d020ef          	jal	ra,13000 <FN_WriteStr>
   103a8:	00004517          	auipc	a0,0x4
   103ac:	eee50513          	addi	a0,a0,-274 # 14296 <end_signature+0x1b6>
   103b0:	451020ef          	jal	ra,13000 <FN_WriteStr>
   103b4:	00028513          	mv	a0,t0
   103b8:	465020ef          	jal	ra,1301c <FN_WriteA0>
   103bc:	00004517          	auipc	a0,0x4
   103c0:	edc50513          	addi	a0,a0,-292 # 14298 <end_signature+0x1b8>
   103c4:	43d020ef          	jal	ra,13000 <FN_WriteStr>
   103c8:	00004517          	auipc	a0,0x4
   103cc:	ed650513          	addi	a0,a0,-298 # 1429e <end_signature+0x1be>
   103d0:	431020ef          	jal	ra,13000 <FN_WriteStr>
   103d4:	00004517          	auipc	a0,0x4
   103d8:	ed550513          	addi	a0,a0,-299 # 142a9 <end_signature+0x1c9>
   103dc:	425020ef          	jal	ra,13000 <FN_WriteStr>
   103e0:	06400193          	li	gp,100
   103e4:	0000100f          	fence.i
   103e8:	00018063          	beqz	gp,103e8 <reset_vector+0x39c>
   103ec:	00119193          	slli	gp,gp,0x1
   103f0:	0011e193          	ori	gp,gp,1
   103f4:	00000073          	ecall
   103f8:	00000293          	li	t0,0
   103fc:	08530e63          	beq	t1,t0,10498 <reset_vector+0x44c>
   10400:	00004517          	auipc	a0,0x4
   10404:	eab50513          	addi	a0,a0,-341 # 142ab <end_signature+0x1cb>
   10408:	3f9020ef          	jal	ra,13000 <FN_WriteStr>
   1040c:	00004517          	auipc	a0,0x4
   10410:	eba50513          	addi	a0,a0,-326 # 142c6 <end_signature+0x1e6>
   10414:	3ed020ef          	jal	ra,13000 <FN_WriteStr>
   10418:	00004517          	auipc	a0,0x4
   1041c:	ebd50513          	addi	a0,a0,-323 # 142d5 <end_signature+0x1f5>
   10420:	3e1020ef          	jal	ra,13000 <FN_WriteStr>
   10424:	00004517          	auipc	a0,0x4
   10428:	eb950513          	addi	a0,a0,-327 # 142dd <end_signature+0x1fd>
   1042c:	3d5020ef          	jal	ra,13000 <FN_WriteStr>
   10430:	00004517          	auipc	a0,0x4
   10434:	eb050513          	addi	a0,a0,-336 # 142e0 <end_signature+0x200>
   10438:	3c9020ef          	jal	ra,13000 <FN_WriteStr>
   1043c:	00004517          	auipc	a0,0x4
   10440:	ea750513          	addi	a0,a0,-345 # 142e3 <end_signature+0x203>
   10444:	3bd020ef          	jal	ra,13000 <FN_WriteStr>
   10448:	00004517          	auipc	a0,0x4
   1044c:	e9e50513          	addi	a0,a0,-354 # 142e6 <end_signature+0x206>
   10450:	3b1020ef          	jal	ra,13000 <FN_WriteStr>
   10454:	00030513          	mv	a0,t1
   10458:	3c5020ef          	jal	ra,1301c <FN_WriteA0>
   1045c:	00004517          	auipc	a0,0x4
   10460:	e8c50513          	addi	a0,a0,-372 # 142e8 <end_signature+0x208>
   10464:	39d020ef          	jal	ra,13000 <FN_WriteStr>
   10468:	00004517          	auipc	a0,0x4
   1046c:	e8650513          	addi	a0,a0,-378 # 142ee <end_signature+0x20e>
   10470:	391020ef          	jal	ra,13000 <FN_WriteStr>
   10474:	00004517          	auipc	a0,0x4
   10478:	e8550513          	addi	a0,a0,-379 # 142f9 <end_signature+0x219>
   1047c:	385020ef          	jal	ra,13000 <FN_WriteStr>
   10480:	06400193          	li	gp,100
   10484:	0000100f          	fence.i
   10488:	00018063          	beqz	gp,10488 <reset_vector+0x43c>
   1048c:	00119193          	slli	gp,gp,0x1
   10490:	0011e193          	ori	gp,gp,1
   10494:	00000073          	ecall
   10498:	00000293          	li	t0,0
   1049c:	08538e63          	beq	t2,t0,10538 <reset_vector+0x4ec>
   104a0:	00004517          	auipc	a0,0x4
   104a4:	e5b50513          	addi	a0,a0,-421 # 142fb <end_signature+0x21b>
   104a8:	359020ef          	jal	ra,13000 <FN_WriteStr>
   104ac:	00004517          	auipc	a0,0x4
   104b0:	e6a50513          	addi	a0,a0,-406 # 14316 <end_signature+0x236>
   104b4:	34d020ef          	jal	ra,13000 <FN_WriteStr>
   104b8:	00004517          	auipc	a0,0x4
   104bc:	e6d50513          	addi	a0,a0,-403 # 14325 <end_signature+0x245>
   104c0:	341020ef          	jal	ra,13000 <FN_WriteStr>
   104c4:	00004517          	auipc	a0,0x4
   104c8:	e6950513          	addi	a0,a0,-407 # 1432d <end_signature+0x24d>
   104cc:	335020ef          	jal	ra,13000 <FN_WriteStr>
   104d0:	00004517          	auipc	a0,0x4
   104d4:	e6050513          	addi	a0,a0,-416 # 14330 <end_signature+0x250>
   104d8:	329020ef          	jal	ra,13000 <FN_WriteStr>
   104dc:	00004517          	auipc	a0,0x4
   104e0:	e5750513          	addi	a0,a0,-425 # 14333 <end_signature+0x253>
   104e4:	31d020ef          	jal	ra,13000 <FN_WriteStr>
   104e8:	00004517          	auipc	a0,0x4
   104ec:	e4e50513          	addi	a0,a0,-434 # 14336 <end_signature+0x256>
   104f0:	311020ef          	jal	ra,13000 <FN_WriteStr>
   104f4:	00038513          	mv	a0,t2
   104f8:	325020ef          	jal	ra,1301c <FN_WriteA0>
   104fc:	00004517          	auipc	a0,0x4
   10500:	e3c50513          	addi	a0,a0,-452 # 14338 <end_signature+0x258>
   10504:	2fd020ef          	jal	ra,13000 <FN_WriteStr>
   10508:	00004517          	auipc	a0,0x4
   1050c:	e3650513          	addi	a0,a0,-458 # 1433e <end_signature+0x25e>
   10510:	2f1020ef          	jal	ra,13000 <FN_WriteStr>
   10514:	00004517          	auipc	a0,0x4
   10518:	e3550513          	addi	a0,a0,-459 # 14349 <end_signature+0x269>
   1051c:	2e5020ef          	jal	ra,13000 <FN_WriteStr>
   10520:	06400193          	li	gp,100
   10524:	0000100f          	fence.i
   10528:	00018063          	beqz	gp,10528 <reset_vector+0x4dc>
   1052c:	00119193          	slli	gp,gp,0x1
   10530:	0011e193          	ori	gp,gp,1
   10534:	00000073          	ecall
   10538:	00000293          	li	t0,0
   1053c:	08540e63          	beq	s0,t0,105d8 <reset_vector+0x58c>
   10540:	00004517          	auipc	a0,0x4
   10544:	e0b50513          	addi	a0,a0,-501 # 1434b <end_signature+0x26b>
   10548:	2b9020ef          	jal	ra,13000 <FN_WriteStr>
   1054c:	00004517          	auipc	a0,0x4
   10550:	e1a50513          	addi	a0,a0,-486 # 14366 <end_signature+0x286>
   10554:	2ad020ef          	jal	ra,13000 <FN_WriteStr>
   10558:	00004517          	auipc	a0,0x4
   1055c:	e1d50513          	addi	a0,a0,-483 # 14375 <end_signature+0x295>
   10560:	2a1020ef          	jal	ra,13000 <FN_WriteStr>
   10564:	00004517          	auipc	a0,0x4
   10568:	e1950513          	addi	a0,a0,-487 # 1437d <end_signature+0x29d>
   1056c:	295020ef          	jal	ra,13000 <FN_WriteStr>
   10570:	00004517          	auipc	a0,0x4
   10574:	e1050513          	addi	a0,a0,-496 # 14380 <end_signature+0x2a0>
   10578:	289020ef          	jal	ra,13000 <FN_WriteStr>
   1057c:	00004517          	auipc	a0,0x4
   10580:	e0750513          	addi	a0,a0,-505 # 14383 <end_signature+0x2a3>
   10584:	27d020ef          	jal	ra,13000 <FN_WriteStr>
   10588:	00004517          	auipc	a0,0x4
   1058c:	dfe50513          	addi	a0,a0,-514 # 14386 <end_signature+0x2a6>
   10590:	271020ef          	jal	ra,13000 <FN_WriteStr>
   10594:	00040513          	mv	a0,s0
   10598:	285020ef          	jal	ra,1301c <FN_WriteA0>
   1059c:	00004517          	auipc	a0,0x4
   105a0:	dec50513          	addi	a0,a0,-532 # 14388 <end_signature+0x2a8>
   105a4:	25d020ef          	jal	ra,13000 <FN_WriteStr>
   105a8:	00004517          	auipc	a0,0x4
   105ac:	de650513          	addi	a0,a0,-538 # 1438e <end_signature+0x2ae>
   105b0:	251020ef          	jal	ra,13000 <FN_WriteStr>
   105b4:	00004517          	auipc	a0,0x4
   105b8:	de550513          	addi	a0,a0,-539 # 14399 <end_signature+0x2b9>
   105bc:	245020ef          	jal	ra,13000 <FN_WriteStr>
   105c0:	06400193          	li	gp,100
   105c4:	0000100f          	fence.i
   105c8:	00018063          	beqz	gp,105c8 <reset_vector+0x57c>
   105cc:	00119193          	slli	gp,gp,0x1
   105d0:	0011e193          	ori	gp,gp,1
   105d4:	00000073          	ecall
   105d8:	00004517          	auipc	a0,0x4
   105dc:	dc350513          	addi	a0,a0,-573 # 1439b <end_signature+0x2bb>
   105e0:	221020ef          	jal	ra,13000 <FN_WriteStr>
   105e4:	00004517          	auipc	a0,0x4
   105e8:	dd350513          	addi	a0,a0,-557 # 143b7 <end_signature+0x2d7>
   105ec:	215020ef          	jal	ra,13000 <FN_WriteStr>
   105f0:	00004097          	auipc	ra,0x4
   105f4:	a1408093          	addi	ra,ra,-1516 # 14004 <test_A2_data>
   105f8:	00004117          	auipc	sp,0x4
   105fc:	a5010113          	addi	sp,sp,-1456 # 14048 <test_A2_res>
   10600:	0000a403          	lw	s0,0(ra)
   10604:	00100493          	li	s1,1
   10608:	00f00513          	li	a0,15
   1060c:	01f00593          	li	a1,31
   10610:	00000613          	li	a2,0
   10614:	01000693          	li	a3,16
   10618:	009414b3          	sll	s1,s0,s1
   1061c:	00a41533          	sll	a0,s0,a0
   10620:	00b415b3          	sll	a1,s0,a1
   10624:	00c41633          	sll	a2,s0,a2
   10628:	00d416b3          	sll	a3,s0,a3
   1062c:	00812023          	sw	s0,0(sp)
   10630:	00912223          	sw	s1,4(sp)
   10634:	00a12423          	sw	a0,8(sp)
   10638:	00b12623          	sw	a1,12(sp)
   1063c:	00c12823          	sw	a2,16(sp)
   10640:	00d12a23          	sw	a3,20(sp)
   10644:	00100293          	li	t0,1
   10648:	08540e63          	beq	s0,t0,106e4 <reset_vector+0x698>
   1064c:	00004517          	auipc	a0,0x4
   10650:	dc450513          	addi	a0,a0,-572 # 14410 <end_signature+0x330>
   10654:	1ad020ef          	jal	ra,13000 <FN_WriteStr>
   10658:	00004517          	auipc	a0,0x4
   1065c:	dd350513          	addi	a0,a0,-557 # 1442b <end_signature+0x34b>
   10660:	1a1020ef          	jal	ra,13000 <FN_WriteStr>
   10664:	00004517          	auipc	a0,0x4
   10668:	dd650513          	addi	a0,a0,-554 # 1443a <end_signature+0x35a>
   1066c:	195020ef          	jal	ra,13000 <FN_WriteStr>
   10670:	00004517          	auipc	a0,0x4
   10674:	dd250513          	addi	a0,a0,-558 # 14442 <end_signature+0x362>
   10678:	189020ef          	jal	ra,13000 <FN_WriteStr>
   1067c:	00004517          	auipc	a0,0x4
   10680:	dca50513          	addi	a0,a0,-566 # 14446 <end_signature+0x366>
   10684:	17d020ef          	jal	ra,13000 <FN_WriteStr>
   10688:	00004517          	auipc	a0,0x4
   1068c:	dc150513          	addi	a0,a0,-575 # 14449 <end_signature+0x369>
   10690:	171020ef          	jal	ra,13000 <FN_WriteStr>
   10694:	00004517          	auipc	a0,0x4
   10698:	db850513          	addi	a0,a0,-584 # 1444c <end_signature+0x36c>
   1069c:	165020ef          	jal	ra,13000 <FN_WriteStr>
   106a0:	00040513          	mv	a0,s0
   106a4:	179020ef          	jal	ra,1301c <FN_WriteA0>
   106a8:	00004517          	auipc	a0,0x4
   106ac:	da650513          	addi	a0,a0,-602 # 1444e <end_signature+0x36e>
   106b0:	151020ef          	jal	ra,13000 <FN_WriteStr>
   106b4:	00004517          	auipc	a0,0x4
   106b8:	da050513          	addi	a0,a0,-608 # 14454 <end_signature+0x374>
   106bc:	145020ef          	jal	ra,13000 <FN_WriteStr>
   106c0:	00004517          	auipc	a0,0x4
   106c4:	d9f50513          	addi	a0,a0,-609 # 1445f <end_signature+0x37f>
   106c8:	139020ef          	jal	ra,13000 <FN_WriteStr>
   106cc:	06400193          	li	gp,100
   106d0:	0000100f          	fence.i
   106d4:	00018063          	beqz	gp,106d4 <reset_vector+0x688>
   106d8:	00119193          	slli	gp,gp,0x1
   106dc:	0011e193          	ori	gp,gp,1
   106e0:	00000073          	ecall
   106e4:	00200293          	li	t0,2
   106e8:	08548e63          	beq	s1,t0,10784 <reset_vector+0x738>
   106ec:	00004517          	auipc	a0,0x4
   106f0:	d7550513          	addi	a0,a0,-651 # 14461 <end_signature+0x381>
   106f4:	10d020ef          	jal	ra,13000 <FN_WriteStr>
   106f8:	00004517          	auipc	a0,0x4
   106fc:	d8450513          	addi	a0,a0,-636 # 1447c <end_signature+0x39c>
   10700:	101020ef          	jal	ra,13000 <FN_WriteStr>
   10704:	00004517          	auipc	a0,0x4
   10708:	d8750513          	addi	a0,a0,-633 # 1448b <end_signature+0x3ab>
   1070c:	0f5020ef          	jal	ra,13000 <FN_WriteStr>
   10710:	00004517          	auipc	a0,0x4
   10714:	d8350513          	addi	a0,a0,-637 # 14493 <end_signature+0x3b3>
   10718:	0e9020ef          	jal	ra,13000 <FN_WriteStr>
   1071c:	00004517          	auipc	a0,0x4
   10720:	d7b50513          	addi	a0,a0,-645 # 14497 <end_signature+0x3b7>
   10724:	0dd020ef          	jal	ra,13000 <FN_WriteStr>
   10728:	00004517          	auipc	a0,0x4
   1072c:	d7250513          	addi	a0,a0,-654 # 1449a <end_signature+0x3ba>
   10730:	0d1020ef          	jal	ra,13000 <FN_WriteStr>
   10734:	00004517          	auipc	a0,0x4
   10738:	d6950513          	addi	a0,a0,-663 # 1449d <end_signature+0x3bd>
   1073c:	0c5020ef          	jal	ra,13000 <FN_WriteStr>
   10740:	00048513          	mv	a0,s1
   10744:	0d9020ef          	jal	ra,1301c <FN_WriteA0>
   10748:	00004517          	auipc	a0,0x4
   1074c:	d5750513          	addi	a0,a0,-681 # 1449f <end_signature+0x3bf>
   10750:	0b1020ef          	jal	ra,13000 <FN_WriteStr>
   10754:	00004517          	auipc	a0,0x4
   10758:	d5150513          	addi	a0,a0,-687 # 144a5 <end_signature+0x3c5>
   1075c:	0a5020ef          	jal	ra,13000 <FN_WriteStr>
   10760:	00004517          	auipc	a0,0x4
   10764:	d5050513          	addi	a0,a0,-688 # 144b0 <end_signature+0x3d0>
   10768:	099020ef          	jal	ra,13000 <FN_WriteStr>
   1076c:	06400193          	li	gp,100
   10770:	0000100f          	fence.i
   10774:	00018063          	beqz	gp,10774 <reset_vector+0x728>
   10778:	00119193          	slli	gp,gp,0x1
   1077c:	0011e193          	ori	gp,gp,1
   10780:	00000073          	ecall
   10784:	800002b7          	lui	t0,0x80000
   10788:	08558e63          	beq	a1,t0,10824 <reset_vector+0x7d8>
   1078c:	00004517          	auipc	a0,0x4
   10790:	d2650513          	addi	a0,a0,-730 # 144b2 <end_signature+0x3d2>
   10794:	06d020ef          	jal	ra,13000 <FN_WriteStr>
   10798:	00004517          	auipc	a0,0x4
   1079c:	d3550513          	addi	a0,a0,-715 # 144cd <end_signature+0x3ed>
   107a0:	061020ef          	jal	ra,13000 <FN_WriteStr>
   107a4:	00004517          	auipc	a0,0x4
   107a8:	d3850513          	addi	a0,a0,-712 # 144dc <end_signature+0x3fc>
   107ac:	055020ef          	jal	ra,13000 <FN_WriteStr>
   107b0:	00004517          	auipc	a0,0x4
   107b4:	d3450513          	addi	a0,a0,-716 # 144e4 <end_signature+0x404>
   107b8:	049020ef          	jal	ra,13000 <FN_WriteStr>
   107bc:	00004517          	auipc	a0,0x4
   107c0:	d2c50513          	addi	a0,a0,-724 # 144e8 <end_signature+0x408>
   107c4:	03d020ef          	jal	ra,13000 <FN_WriteStr>
   107c8:	00004517          	auipc	a0,0x4
   107cc:	d2350513          	addi	a0,a0,-733 # 144eb <end_signature+0x40b>
   107d0:	031020ef          	jal	ra,13000 <FN_WriteStr>
   107d4:	00004517          	auipc	a0,0x4
   107d8:	d1b50513          	addi	a0,a0,-741 # 144ef <end_signature+0x40f>
   107dc:	025020ef          	jal	ra,13000 <FN_WriteStr>
   107e0:	00058513          	mv	a0,a1
   107e4:	039020ef          	jal	ra,1301c <FN_WriteA0>
   107e8:	00004517          	auipc	a0,0x4
   107ec:	d0950513          	addi	a0,a0,-759 # 144f1 <end_signature+0x411>
   107f0:	011020ef          	jal	ra,13000 <FN_WriteStr>
   107f4:	00004517          	auipc	a0,0x4
   107f8:	d0350513          	addi	a0,a0,-765 # 144f7 <end_signature+0x417>
   107fc:	005020ef          	jal	ra,13000 <FN_WriteStr>
   10800:	00004517          	auipc	a0,0x4
   10804:	d0250513          	addi	a0,a0,-766 # 14502 <end_signature+0x422>
   10808:	7f8020ef          	jal	ra,13000 <FN_WriteStr>
   1080c:	06400193          	li	gp,100
   10810:	0000100f          	fence.i
   10814:	00018063          	beqz	gp,10814 <reset_vector+0x7c8>
   10818:	00119193          	slli	gp,gp,0x1
   1081c:	0011e193          	ori	gp,gp,1
   10820:	00000073          	ecall
   10824:	00100293          	li	t0,1
   10828:	08560e63          	beq	a2,t0,108c4 <reset_vector+0x878>
   1082c:	00004517          	auipc	a0,0x4
   10830:	cd850513          	addi	a0,a0,-808 # 14504 <end_signature+0x424>
   10834:	7cc020ef          	jal	ra,13000 <FN_WriteStr>
   10838:	00004517          	auipc	a0,0x4
   1083c:	ce750513          	addi	a0,a0,-793 # 1451f <end_signature+0x43f>
   10840:	7c0020ef          	jal	ra,13000 <FN_WriteStr>
   10844:	00004517          	auipc	a0,0x4
   10848:	cea50513          	addi	a0,a0,-790 # 1452e <end_signature+0x44e>
   1084c:	7b4020ef          	jal	ra,13000 <FN_WriteStr>
   10850:	00004517          	auipc	a0,0x4
   10854:	ce650513          	addi	a0,a0,-794 # 14536 <end_signature+0x456>
   10858:	7a8020ef          	jal	ra,13000 <FN_WriteStr>
   1085c:	00004517          	auipc	a0,0x4
   10860:	cde50513          	addi	a0,a0,-802 # 1453a <end_signature+0x45a>
   10864:	79c020ef          	jal	ra,13000 <FN_WriteStr>
   10868:	00004517          	auipc	a0,0x4
   1086c:	cd550513          	addi	a0,a0,-811 # 1453d <end_signature+0x45d>
   10870:	790020ef          	jal	ra,13000 <FN_WriteStr>
   10874:	00004517          	auipc	a0,0x4
   10878:	ccd50513          	addi	a0,a0,-819 # 14541 <end_signature+0x461>
   1087c:	784020ef          	jal	ra,13000 <FN_WriteStr>
   10880:	00060513          	mv	a0,a2
   10884:	798020ef          	jal	ra,1301c <FN_WriteA0>
   10888:	00004517          	auipc	a0,0x4
   1088c:	cbb50513          	addi	a0,a0,-837 # 14543 <end_signature+0x463>
   10890:	770020ef          	jal	ra,13000 <FN_WriteStr>
   10894:	00004517          	auipc	a0,0x4
   10898:	cb550513          	addi	a0,a0,-843 # 14549 <end_signature+0x469>
   1089c:	764020ef          	jal	ra,13000 <FN_WriteStr>
   108a0:	00004517          	auipc	a0,0x4
   108a4:	cb450513          	addi	a0,a0,-844 # 14554 <end_signature+0x474>
   108a8:	758020ef          	jal	ra,13000 <FN_WriteStr>
   108ac:	06400193          	li	gp,100
   108b0:	0000100f          	fence.i
   108b4:	00018063          	beqz	gp,108b4 <reset_vector+0x868>
   108b8:	00119193          	slli	gp,gp,0x1
   108bc:	0011e193          	ori	gp,gp,1
   108c0:	00000073          	ecall
   108c4:	000102b7          	lui	t0,0x10
   108c8:	08568e63          	beq	a3,t0,10964 <reset_vector+0x918>
   108cc:	00004517          	auipc	a0,0x4
   108d0:	c8a50513          	addi	a0,a0,-886 # 14556 <end_signature+0x476>
   108d4:	72c020ef          	jal	ra,13000 <FN_WriteStr>
   108d8:	00004517          	auipc	a0,0x4
   108dc:	c9950513          	addi	a0,a0,-871 # 14571 <end_signature+0x491>
   108e0:	720020ef          	jal	ra,13000 <FN_WriteStr>
   108e4:	00004517          	auipc	a0,0x4
   108e8:	c9c50513          	addi	a0,a0,-868 # 14580 <end_signature+0x4a0>
   108ec:	714020ef          	jal	ra,13000 <FN_WriteStr>
   108f0:	00004517          	auipc	a0,0x4
   108f4:	c9850513          	addi	a0,a0,-872 # 14588 <end_signature+0x4a8>
   108f8:	708020ef          	jal	ra,13000 <FN_WriteStr>
   108fc:	00004517          	auipc	a0,0x4
   10900:	c9050513          	addi	a0,a0,-880 # 1458c <end_signature+0x4ac>
   10904:	6fc020ef          	jal	ra,13000 <FN_WriteStr>
   10908:	00004517          	auipc	a0,0x4
   1090c:	c8750513          	addi	a0,a0,-889 # 1458f <end_signature+0x4af>
   10910:	6f0020ef          	jal	ra,13000 <FN_WriteStr>
   10914:	00004517          	auipc	a0,0x4
   10918:	c7f50513          	addi	a0,a0,-897 # 14593 <end_signature+0x4b3>
   1091c:	6e4020ef          	jal	ra,13000 <FN_WriteStr>
   10920:	00068513          	mv	a0,a3
   10924:	6f8020ef          	jal	ra,1301c <FN_WriteA0>
   10928:	00004517          	auipc	a0,0x4
   1092c:	c6d50513          	addi	a0,a0,-915 # 14595 <end_signature+0x4b5>
   10930:	6d0020ef          	jal	ra,13000 <FN_WriteStr>
   10934:	00004517          	auipc	a0,0x4
   10938:	c6750513          	addi	a0,a0,-921 # 1459b <end_signature+0x4bb>
   1093c:	6c4020ef          	jal	ra,13000 <FN_WriteStr>
   10940:	00004517          	auipc	a0,0x4
   10944:	c6650513          	addi	a0,a0,-922 # 145a6 <end_signature+0x4c6>
   10948:	6b8020ef          	jal	ra,13000 <FN_WriteStr>
   1094c:	06400193          	li	gp,100
   10950:	0000100f          	fence.i
   10954:	00018063          	beqz	gp,10954 <reset_vector+0x908>
   10958:	00119193          	slli	gp,gp,0x1
   1095c:	0011e193          	ori	gp,gp,1
   10960:	00000073          	ecall
   10964:	00004517          	auipc	a0,0x4
   10968:	c4450513          	addi	a0,a0,-956 # 145a8 <end_signature+0x4c8>
   1096c:	694020ef          	jal	ra,13000 <FN_WriteStr>
   10970:	00004517          	auipc	a0,0x4
   10974:	c5450513          	addi	a0,a0,-940 # 145c4 <end_signature+0x4e4>
   10978:	688020ef          	jal	ra,13000 <FN_WriteStr>
   1097c:	00003097          	auipc	ra,0x3
   10980:	68c08093          	addi	ra,ra,1676 # 14008 <test_A3_data>
   10984:	00003117          	auipc	sp,0x3
   10988:	6dc10113          	addi	sp,sp,1756 # 14060 <test_A3_res>
   1098c:	0000a683          	lw	a3,0(ra)
   10990:	00100713          	li	a4,1
   10994:	00f00793          	li	a5,15
   10998:	01f00813          	li	a6,31
   1099c:	00000893          	li	a7,0
   109a0:	01000913          	li	s2,16
   109a4:	00e69733          	sll	a4,a3,a4
   109a8:	00f697b3          	sll	a5,a3,a5
   109ac:	01069833          	sll	a6,a3,a6
   109b0:	011698b3          	sll	a7,a3,a7
   109b4:	01269933          	sll	s2,a3,s2
   109b8:	00d12023          	sw	a3,0(sp)
   109bc:	00e12223          	sw	a4,4(sp)
   109c0:	00f12423          	sw	a5,8(sp)
   109c4:	01012623          	sw	a6,12(sp)
   109c8:	01112823          	sw	a7,16(sp)
   109cc:	01212a23          	sw	s2,20(sp)
   109d0:	fff00293          	li	t0,-1
   109d4:	08568e63          	beq	a3,t0,10a70 <reset_vector+0xa24>
   109d8:	00004517          	auipc	a0,0x4
   109dc:	c4650513          	addi	a0,a0,-954 # 1461e <end_signature+0x53e>
   109e0:	620020ef          	jal	ra,13000 <FN_WriteStr>
   109e4:	00004517          	auipc	a0,0x4
   109e8:	c5550513          	addi	a0,a0,-939 # 14639 <end_signature+0x559>
   109ec:	614020ef          	jal	ra,13000 <FN_WriteStr>
   109f0:	00004517          	auipc	a0,0x4
   109f4:	c5850513          	addi	a0,a0,-936 # 14648 <end_signature+0x568>
   109f8:	608020ef          	jal	ra,13000 <FN_WriteStr>
   109fc:	00004517          	auipc	a0,0x4
   10a00:	c5450513          	addi	a0,a0,-940 # 14650 <end_signature+0x570>
   10a04:	5fc020ef          	jal	ra,13000 <FN_WriteStr>
   10a08:	00004517          	auipc	a0,0x4
   10a0c:	c4c50513          	addi	a0,a0,-948 # 14654 <end_signature+0x574>
   10a10:	5f0020ef          	jal	ra,13000 <FN_WriteStr>
   10a14:	00004517          	auipc	a0,0x4
   10a18:	c4350513          	addi	a0,a0,-957 # 14657 <end_signature+0x577>
   10a1c:	5e4020ef          	jal	ra,13000 <FN_WriteStr>
   10a20:	00004517          	auipc	a0,0x4
   10a24:	c3b50513          	addi	a0,a0,-965 # 1465b <end_signature+0x57b>
   10a28:	5d8020ef          	jal	ra,13000 <FN_WriteStr>
   10a2c:	00068513          	mv	a0,a3
   10a30:	5ec020ef          	jal	ra,1301c <FN_WriteA0>
   10a34:	00004517          	auipc	a0,0x4
   10a38:	c2950513          	addi	a0,a0,-983 # 1465d <end_signature+0x57d>
   10a3c:	5c4020ef          	jal	ra,13000 <FN_WriteStr>
   10a40:	00004517          	auipc	a0,0x4
   10a44:	c2350513          	addi	a0,a0,-989 # 14663 <end_signature+0x583>
   10a48:	5b8020ef          	jal	ra,13000 <FN_WriteStr>
   10a4c:	00004517          	auipc	a0,0x4
   10a50:	c2250513          	addi	a0,a0,-990 # 1466e <end_signature+0x58e>
   10a54:	5ac020ef          	jal	ra,13000 <FN_WriteStr>
   10a58:	06400193          	li	gp,100
   10a5c:	0000100f          	fence.i
   10a60:	00018063          	beqz	gp,10a60 <reset_vector+0xa14>
   10a64:	00119193          	slli	gp,gp,0x1
   10a68:	0011e193          	ori	gp,gp,1
   10a6c:	00000073          	ecall
   10a70:	ffe00293          	li	t0,-2
   10a74:	08570e63          	beq	a4,t0,10b10 <reset_vector+0xac4>
   10a78:	00004517          	auipc	a0,0x4
   10a7c:	bf850513          	addi	a0,a0,-1032 # 14670 <end_signature+0x590>
   10a80:	580020ef          	jal	ra,13000 <FN_WriteStr>
   10a84:	00004517          	auipc	a0,0x4
   10a88:	c0750513          	addi	a0,a0,-1017 # 1468b <end_signature+0x5ab>
   10a8c:	574020ef          	jal	ra,13000 <FN_WriteStr>
   10a90:	00004517          	auipc	a0,0x4
   10a94:	c0a50513          	addi	a0,a0,-1014 # 1469a <end_signature+0x5ba>
   10a98:	568020ef          	jal	ra,13000 <FN_WriteStr>
   10a9c:	00004517          	auipc	a0,0x4
   10aa0:	c0650513          	addi	a0,a0,-1018 # 146a2 <end_signature+0x5c2>
   10aa4:	55c020ef          	jal	ra,13000 <FN_WriteStr>
   10aa8:	00004517          	auipc	a0,0x4
   10aac:	bfe50513          	addi	a0,a0,-1026 # 146a6 <end_signature+0x5c6>
   10ab0:	550020ef          	jal	ra,13000 <FN_WriteStr>
   10ab4:	00004517          	auipc	a0,0x4
   10ab8:	bf550513          	addi	a0,a0,-1035 # 146a9 <end_signature+0x5c9>
   10abc:	544020ef          	jal	ra,13000 <FN_WriteStr>
   10ac0:	00004517          	auipc	a0,0x4
   10ac4:	bed50513          	addi	a0,a0,-1043 # 146ad <end_signature+0x5cd>
   10ac8:	538020ef          	jal	ra,13000 <FN_WriteStr>
   10acc:	00070513          	mv	a0,a4
   10ad0:	54c020ef          	jal	ra,1301c <FN_WriteA0>
   10ad4:	00004517          	auipc	a0,0x4
   10ad8:	bdb50513          	addi	a0,a0,-1061 # 146af <end_signature+0x5cf>
   10adc:	524020ef          	jal	ra,13000 <FN_WriteStr>
   10ae0:	00004517          	auipc	a0,0x4
   10ae4:	bd550513          	addi	a0,a0,-1067 # 146b5 <end_signature+0x5d5>
   10ae8:	518020ef          	jal	ra,13000 <FN_WriteStr>
   10aec:	00004517          	auipc	a0,0x4
   10af0:	bd450513          	addi	a0,a0,-1068 # 146c0 <end_signature+0x5e0>
   10af4:	50c020ef          	jal	ra,13000 <FN_WriteStr>
   10af8:	06400193          	li	gp,100
   10afc:	0000100f          	fence.i
   10b00:	00018063          	beqz	gp,10b00 <reset_vector+0xab4>
   10b04:	00119193          	slli	gp,gp,0x1
   10b08:	0011e193          	ori	gp,gp,1
   10b0c:	00000073          	ecall
   10b10:	ffff82b7          	lui	t0,0xffff8
   10b14:	08578e63          	beq	a5,t0,10bb0 <reset_vector+0xb64>
   10b18:	00004517          	auipc	a0,0x4
   10b1c:	baa50513          	addi	a0,a0,-1110 # 146c2 <end_signature+0x5e2>
   10b20:	4e0020ef          	jal	ra,13000 <FN_WriteStr>
   10b24:	00004517          	auipc	a0,0x4
   10b28:	bb950513          	addi	a0,a0,-1095 # 146dd <end_signature+0x5fd>
   10b2c:	4d4020ef          	jal	ra,13000 <FN_WriteStr>
   10b30:	00004517          	auipc	a0,0x4
   10b34:	bbc50513          	addi	a0,a0,-1092 # 146ec <end_signature+0x60c>
   10b38:	4c8020ef          	jal	ra,13000 <FN_WriteStr>
   10b3c:	00004517          	auipc	a0,0x4
   10b40:	bb850513          	addi	a0,a0,-1096 # 146f4 <end_signature+0x614>
   10b44:	4bc020ef          	jal	ra,13000 <FN_WriteStr>
   10b48:	00004517          	auipc	a0,0x4
   10b4c:	bb050513          	addi	a0,a0,-1104 # 146f8 <end_signature+0x618>
   10b50:	4b0020ef          	jal	ra,13000 <FN_WriteStr>
   10b54:	00004517          	auipc	a0,0x4
   10b58:	ba750513          	addi	a0,a0,-1113 # 146fb <end_signature+0x61b>
   10b5c:	4a4020ef          	jal	ra,13000 <FN_WriteStr>
   10b60:	00004517          	auipc	a0,0x4
   10b64:	b9f50513          	addi	a0,a0,-1121 # 146ff <end_signature+0x61f>
   10b68:	498020ef          	jal	ra,13000 <FN_WriteStr>
   10b6c:	00078513          	mv	a0,a5
   10b70:	4ac020ef          	jal	ra,1301c <FN_WriteA0>
   10b74:	00004517          	auipc	a0,0x4
   10b78:	b8d50513          	addi	a0,a0,-1139 # 14701 <end_signature+0x621>
   10b7c:	484020ef          	jal	ra,13000 <FN_WriteStr>
   10b80:	00004517          	auipc	a0,0x4
   10b84:	b8750513          	addi	a0,a0,-1145 # 14707 <end_signature+0x627>
   10b88:	478020ef          	jal	ra,13000 <FN_WriteStr>
   10b8c:	00004517          	auipc	a0,0x4
   10b90:	b8650513          	addi	a0,a0,-1146 # 14712 <end_signature+0x632>
   10b94:	46c020ef          	jal	ra,13000 <FN_WriteStr>
   10b98:	06400193          	li	gp,100
   10b9c:	0000100f          	fence.i
   10ba0:	00018063          	beqz	gp,10ba0 <reset_vector+0xb54>
   10ba4:	00119193          	slli	gp,gp,0x1
   10ba8:	0011e193          	ori	gp,gp,1
   10bac:	00000073          	ecall
   10bb0:	800002b7          	lui	t0,0x80000
   10bb4:	08580e63          	beq	a6,t0,10c50 <reset_vector+0xc04>
   10bb8:	00004517          	auipc	a0,0x4
   10bbc:	b5c50513          	addi	a0,a0,-1188 # 14714 <end_signature+0x634>
   10bc0:	440020ef          	jal	ra,13000 <FN_WriteStr>
   10bc4:	00004517          	auipc	a0,0x4
   10bc8:	b6b50513          	addi	a0,a0,-1173 # 1472f <end_signature+0x64f>
   10bcc:	434020ef          	jal	ra,13000 <FN_WriteStr>
   10bd0:	00004517          	auipc	a0,0x4
   10bd4:	b6e50513          	addi	a0,a0,-1170 # 1473e <end_signature+0x65e>
   10bd8:	428020ef          	jal	ra,13000 <FN_WriteStr>
   10bdc:	00004517          	auipc	a0,0x4
   10be0:	b6a50513          	addi	a0,a0,-1174 # 14746 <end_signature+0x666>
   10be4:	41c020ef          	jal	ra,13000 <FN_WriteStr>
   10be8:	00004517          	auipc	a0,0x4
   10bec:	b6250513          	addi	a0,a0,-1182 # 1474a <end_signature+0x66a>
   10bf0:	410020ef          	jal	ra,13000 <FN_WriteStr>
   10bf4:	00004517          	auipc	a0,0x4
   10bf8:	b5950513          	addi	a0,a0,-1191 # 1474d <end_signature+0x66d>
   10bfc:	404020ef          	jal	ra,13000 <FN_WriteStr>
   10c00:	00004517          	auipc	a0,0x4
   10c04:	b5150513          	addi	a0,a0,-1199 # 14751 <end_signature+0x671>
   10c08:	3f8020ef          	jal	ra,13000 <FN_WriteStr>
   10c0c:	00080513          	mv	a0,a6
   10c10:	40c020ef          	jal	ra,1301c <FN_WriteA0>
   10c14:	00004517          	auipc	a0,0x4
   10c18:	b3f50513          	addi	a0,a0,-1217 # 14753 <end_signature+0x673>
   10c1c:	3e4020ef          	jal	ra,13000 <FN_WriteStr>
   10c20:	00004517          	auipc	a0,0x4
   10c24:	b3950513          	addi	a0,a0,-1223 # 14759 <end_signature+0x679>
   10c28:	3d8020ef          	jal	ra,13000 <FN_WriteStr>
   10c2c:	00004517          	auipc	a0,0x4
   10c30:	b3850513          	addi	a0,a0,-1224 # 14764 <end_signature+0x684>
   10c34:	3cc020ef          	jal	ra,13000 <FN_WriteStr>
   10c38:	06400193          	li	gp,100
   10c3c:	0000100f          	fence.i
   10c40:	00018063          	beqz	gp,10c40 <reset_vector+0xbf4>
   10c44:	00119193          	slli	gp,gp,0x1
   10c48:	0011e193          	ori	gp,gp,1
   10c4c:	00000073          	ecall
   10c50:	fff00293          	li	t0,-1
   10c54:	08588e63          	beq	a7,t0,10cf0 <reset_vector+0xca4>
   10c58:	00004517          	auipc	a0,0x4
   10c5c:	b0e50513          	addi	a0,a0,-1266 # 14766 <end_signature+0x686>
   10c60:	3a0020ef          	jal	ra,13000 <FN_WriteStr>
   10c64:	00004517          	auipc	a0,0x4
   10c68:	b1d50513          	addi	a0,a0,-1251 # 14781 <end_signature+0x6a1>
   10c6c:	394020ef          	jal	ra,13000 <FN_WriteStr>
   10c70:	00004517          	auipc	a0,0x4
   10c74:	b2050513          	addi	a0,a0,-1248 # 14790 <end_signature+0x6b0>
   10c78:	388020ef          	jal	ra,13000 <FN_WriteStr>
   10c7c:	00004517          	auipc	a0,0x4
   10c80:	b1c50513          	addi	a0,a0,-1252 # 14798 <end_signature+0x6b8>
   10c84:	37c020ef          	jal	ra,13000 <FN_WriteStr>
   10c88:	00004517          	auipc	a0,0x4
   10c8c:	b1450513          	addi	a0,a0,-1260 # 1479c <end_signature+0x6bc>
   10c90:	370020ef          	jal	ra,13000 <FN_WriteStr>
   10c94:	00004517          	auipc	a0,0x4
   10c98:	b0b50513          	addi	a0,a0,-1269 # 1479f <end_signature+0x6bf>
   10c9c:	364020ef          	jal	ra,13000 <FN_WriteStr>
   10ca0:	00004517          	auipc	a0,0x4
   10ca4:	b0350513          	addi	a0,a0,-1277 # 147a3 <end_signature+0x6c3>
   10ca8:	358020ef          	jal	ra,13000 <FN_WriteStr>
   10cac:	00088513          	mv	a0,a7
   10cb0:	36c020ef          	jal	ra,1301c <FN_WriteA0>
   10cb4:	00004517          	auipc	a0,0x4
   10cb8:	af150513          	addi	a0,a0,-1295 # 147a5 <end_signature+0x6c5>
   10cbc:	344020ef          	jal	ra,13000 <FN_WriteStr>
   10cc0:	00004517          	auipc	a0,0x4
   10cc4:	aeb50513          	addi	a0,a0,-1301 # 147ab <end_signature+0x6cb>
   10cc8:	338020ef          	jal	ra,13000 <FN_WriteStr>
   10ccc:	00004517          	auipc	a0,0x4
   10cd0:	aea50513          	addi	a0,a0,-1302 # 147b6 <end_signature+0x6d6>
   10cd4:	32c020ef          	jal	ra,13000 <FN_WriteStr>
   10cd8:	06400193          	li	gp,100
   10cdc:	0000100f          	fence.i
   10ce0:	00018063          	beqz	gp,10ce0 <reset_vector+0xc94>
   10ce4:	00119193          	slli	gp,gp,0x1
   10ce8:	0011e193          	ori	gp,gp,1
   10cec:	00000073          	ecall
   10cf0:	ffff02b7          	lui	t0,0xffff0
   10cf4:	08590e63          	beq	s2,t0,10d90 <reset_vector+0xd44>
   10cf8:	00004517          	auipc	a0,0x4
   10cfc:	ac050513          	addi	a0,a0,-1344 # 147b8 <end_signature+0x6d8>
   10d00:	300020ef          	jal	ra,13000 <FN_WriteStr>
   10d04:	00004517          	auipc	a0,0x4
   10d08:	acf50513          	addi	a0,a0,-1329 # 147d3 <end_signature+0x6f3>
   10d0c:	2f4020ef          	jal	ra,13000 <FN_WriteStr>
   10d10:	00004517          	auipc	a0,0x4
   10d14:	ad250513          	addi	a0,a0,-1326 # 147e2 <end_signature+0x702>
   10d18:	2e8020ef          	jal	ra,13000 <FN_WriteStr>
   10d1c:	00004517          	auipc	a0,0x4
   10d20:	ace50513          	addi	a0,a0,-1330 # 147ea <end_signature+0x70a>
   10d24:	2dc020ef          	jal	ra,13000 <FN_WriteStr>
   10d28:	00004517          	auipc	a0,0x4
   10d2c:	ac650513          	addi	a0,a0,-1338 # 147ee <end_signature+0x70e>
   10d30:	2d0020ef          	jal	ra,13000 <FN_WriteStr>
   10d34:	00004517          	auipc	a0,0x4
   10d38:	abd50513          	addi	a0,a0,-1347 # 147f1 <end_signature+0x711>
   10d3c:	2c4020ef          	jal	ra,13000 <FN_WriteStr>
   10d40:	00004517          	auipc	a0,0x4
   10d44:	ab550513          	addi	a0,a0,-1355 # 147f5 <end_signature+0x715>
   10d48:	2b8020ef          	jal	ra,13000 <FN_WriteStr>
   10d4c:	00090513          	mv	a0,s2
   10d50:	2cc020ef          	jal	ra,1301c <FN_WriteA0>
   10d54:	00004517          	auipc	a0,0x4
   10d58:	aa350513          	addi	a0,a0,-1373 # 147f7 <end_signature+0x717>
   10d5c:	2a4020ef          	jal	ra,13000 <FN_WriteStr>
   10d60:	00004517          	auipc	a0,0x4
   10d64:	a9d50513          	addi	a0,a0,-1379 # 147fd <end_signature+0x71d>
   10d68:	298020ef          	jal	ra,13000 <FN_WriteStr>
   10d6c:	00004517          	auipc	a0,0x4
   10d70:	a9c50513          	addi	a0,a0,-1380 # 14808 <end_signature+0x728>
   10d74:	28c020ef          	jal	ra,13000 <FN_WriteStr>
   10d78:	06400193          	li	gp,100
   10d7c:	0000100f          	fence.i
   10d80:	00018063          	beqz	gp,10d80 <reset_vector+0xd34>
   10d84:	00119193          	slli	gp,gp,0x1
   10d88:	0011e193          	ori	gp,gp,1
   10d8c:	00000073          	ecall
   10d90:	00004517          	auipc	a0,0x4
   10d94:	a7a50513          	addi	a0,a0,-1414 # 1480a <end_signature+0x72a>
   10d98:	268020ef          	jal	ra,13000 <FN_WriteStr>
   10d9c:	00004517          	auipc	a0,0x4
   10da0:	a8a50513          	addi	a0,a0,-1398 # 14826 <end_signature+0x746>
   10da4:	25c020ef          	jal	ra,13000 <FN_WriteStr>
   10da8:	00003617          	auipc	a2,0x3
   10dac:	26460613          	addi	a2,a2,612 # 1400c <test_A4_data>
   10db0:	00003697          	auipc	a3,0x3
   10db4:	2c868693          	addi	a3,a3,712 # 14078 <test_A4_res>
   10db8:	00062903          	lw	s2,0(a2)
   10dbc:	00100993          	li	s3,1
   10dc0:	00f00a13          	li	s4,15
   10dc4:	01f00a93          	li	s5,31
   10dc8:	00000b13          	li	s6,0
   10dcc:	01000b93          	li	s7,16
   10dd0:	013919b3          	sll	s3,s2,s3
   10dd4:	01491a33          	sll	s4,s2,s4
   10dd8:	01591ab3          	sll	s5,s2,s5
   10ddc:	01691b33          	sll	s6,s2,s6
   10de0:	01791bb3          	sll	s7,s2,s7
   10de4:	0126a023          	sw	s2,0(a3)
   10de8:	0136a223          	sw	s3,4(a3)
   10dec:	0146a423          	sw	s4,8(a3)
   10df0:	0156a623          	sw	s5,12(a3)
   10df4:	0166a823          	sw	s6,16(a3)
   10df8:	0176aa23          	sw	s7,20(a3)
   10dfc:	800002b7          	lui	t0,0x80000
   10e00:	fff28293          	addi	t0,t0,-1 # 7fffffff <_end+0x7ffeada4>
   10e04:	08590e63          	beq	s2,t0,10ea0 <reset_vector+0xe54>
   10e08:	00004517          	auipc	a0,0x4
   10e0c:	a8050513          	addi	a0,a0,-1408 # 14888 <end_signature+0x7a8>
   10e10:	1f0020ef          	jal	ra,13000 <FN_WriteStr>
   10e14:	00004517          	auipc	a0,0x4
   10e18:	a8f50513          	addi	a0,a0,-1393 # 148a3 <end_signature+0x7c3>
   10e1c:	1e4020ef          	jal	ra,13000 <FN_WriteStr>
   10e20:	00004517          	auipc	a0,0x4
   10e24:	a9250513          	addi	a0,a0,-1390 # 148b2 <end_signature+0x7d2>
   10e28:	1d8020ef          	jal	ra,13000 <FN_WriteStr>
   10e2c:	00004517          	auipc	a0,0x4
   10e30:	a8e50513          	addi	a0,a0,-1394 # 148ba <end_signature+0x7da>
   10e34:	1cc020ef          	jal	ra,13000 <FN_WriteStr>
   10e38:	00004517          	auipc	a0,0x4
   10e3c:	a8650513          	addi	a0,a0,-1402 # 148be <end_signature+0x7de>
   10e40:	1c0020ef          	jal	ra,13000 <FN_WriteStr>
   10e44:	00004517          	auipc	a0,0x4
   10e48:	a7d50513          	addi	a0,a0,-1411 # 148c1 <end_signature+0x7e1>
   10e4c:	1b4020ef          	jal	ra,13000 <FN_WriteStr>
   10e50:	00004517          	auipc	a0,0x4
   10e54:	a7550513          	addi	a0,a0,-1419 # 148c5 <end_signature+0x7e5>
   10e58:	1a8020ef          	jal	ra,13000 <FN_WriteStr>
   10e5c:	00090513          	mv	a0,s2
   10e60:	1bc020ef          	jal	ra,1301c <FN_WriteA0>
   10e64:	00004517          	auipc	a0,0x4
   10e68:	a6350513          	addi	a0,a0,-1437 # 148c7 <end_signature+0x7e7>
   10e6c:	194020ef          	jal	ra,13000 <FN_WriteStr>
   10e70:	00004517          	auipc	a0,0x4
   10e74:	a5d50513          	addi	a0,a0,-1443 # 148cd <end_signature+0x7ed>
   10e78:	188020ef          	jal	ra,13000 <FN_WriteStr>
   10e7c:	00004517          	auipc	a0,0x4
   10e80:	a5c50513          	addi	a0,a0,-1444 # 148d8 <end_signature+0x7f8>
   10e84:	17c020ef          	jal	ra,13000 <FN_WriteStr>
   10e88:	06400193          	li	gp,100
   10e8c:	0000100f          	fence.i
   10e90:	00018063          	beqz	gp,10e90 <reset_vector+0xe44>
   10e94:	00119193          	slli	gp,gp,0x1
   10e98:	0011e193          	ori	gp,gp,1
   10e9c:	00000073          	ecall
   10ea0:	ffe00293          	li	t0,-2
   10ea4:	08598e63          	beq	s3,t0,10f40 <reset_vector+0xef4>
   10ea8:	00004517          	auipc	a0,0x4
   10eac:	a3250513          	addi	a0,a0,-1486 # 148da <end_signature+0x7fa>
   10eb0:	150020ef          	jal	ra,13000 <FN_WriteStr>
   10eb4:	00004517          	auipc	a0,0x4
   10eb8:	a4150513          	addi	a0,a0,-1471 # 148f5 <end_signature+0x815>
   10ebc:	144020ef          	jal	ra,13000 <FN_WriteStr>
   10ec0:	00004517          	auipc	a0,0x4
   10ec4:	a4450513          	addi	a0,a0,-1468 # 14904 <end_signature+0x824>
   10ec8:	138020ef          	jal	ra,13000 <FN_WriteStr>
   10ecc:	00004517          	auipc	a0,0x4
   10ed0:	a4050513          	addi	a0,a0,-1472 # 1490c <end_signature+0x82c>
   10ed4:	12c020ef          	jal	ra,13000 <FN_WriteStr>
   10ed8:	00004517          	auipc	a0,0x4
   10edc:	a3850513          	addi	a0,a0,-1480 # 14910 <end_signature+0x830>
   10ee0:	120020ef          	jal	ra,13000 <FN_WriteStr>
   10ee4:	00004517          	auipc	a0,0x4
   10ee8:	a2f50513          	addi	a0,a0,-1489 # 14913 <end_signature+0x833>
   10eec:	114020ef          	jal	ra,13000 <FN_WriteStr>
   10ef0:	00004517          	auipc	a0,0x4
   10ef4:	a2750513          	addi	a0,a0,-1497 # 14917 <end_signature+0x837>
   10ef8:	108020ef          	jal	ra,13000 <FN_WriteStr>
   10efc:	00098513          	mv	a0,s3
   10f00:	11c020ef          	jal	ra,1301c <FN_WriteA0>
   10f04:	00004517          	auipc	a0,0x4
   10f08:	a1550513          	addi	a0,a0,-1515 # 14919 <end_signature+0x839>
   10f0c:	0f4020ef          	jal	ra,13000 <FN_WriteStr>
   10f10:	00004517          	auipc	a0,0x4
   10f14:	a0f50513          	addi	a0,a0,-1521 # 1491f <end_signature+0x83f>
   10f18:	0e8020ef          	jal	ra,13000 <FN_WriteStr>
   10f1c:	00004517          	auipc	a0,0x4
   10f20:	a0e50513          	addi	a0,a0,-1522 # 1492a <end_signature+0x84a>
   10f24:	0dc020ef          	jal	ra,13000 <FN_WriteStr>
   10f28:	06400193          	li	gp,100
   10f2c:	0000100f          	fence.i
   10f30:	00018063          	beqz	gp,10f30 <reset_vector+0xee4>
   10f34:	00119193          	slli	gp,gp,0x1
   10f38:	0011e193          	ori	gp,gp,1
   10f3c:	00000073          	ecall
   10f40:	ffff82b7          	lui	t0,0xffff8
   10f44:	085a0e63          	beq	s4,t0,10fe0 <reset_vector+0xf94>
   10f48:	00004517          	auipc	a0,0x4
   10f4c:	9e450513          	addi	a0,a0,-1564 # 1492c <end_signature+0x84c>
   10f50:	0b0020ef          	jal	ra,13000 <FN_WriteStr>
   10f54:	00004517          	auipc	a0,0x4
   10f58:	9f350513          	addi	a0,a0,-1549 # 14947 <end_signature+0x867>
   10f5c:	0a4020ef          	jal	ra,13000 <FN_WriteStr>
   10f60:	00004517          	auipc	a0,0x4
   10f64:	9f650513          	addi	a0,a0,-1546 # 14956 <end_signature+0x876>
   10f68:	098020ef          	jal	ra,13000 <FN_WriteStr>
   10f6c:	00004517          	auipc	a0,0x4
   10f70:	9f250513          	addi	a0,a0,-1550 # 1495e <end_signature+0x87e>
   10f74:	08c020ef          	jal	ra,13000 <FN_WriteStr>
   10f78:	00004517          	auipc	a0,0x4
   10f7c:	9ea50513          	addi	a0,a0,-1558 # 14962 <end_signature+0x882>
   10f80:	080020ef          	jal	ra,13000 <FN_WriteStr>
   10f84:	00004517          	auipc	a0,0x4
   10f88:	9e150513          	addi	a0,a0,-1567 # 14965 <end_signature+0x885>
   10f8c:	074020ef          	jal	ra,13000 <FN_WriteStr>
   10f90:	00004517          	auipc	a0,0x4
   10f94:	9d950513          	addi	a0,a0,-1575 # 14969 <end_signature+0x889>
   10f98:	068020ef          	jal	ra,13000 <FN_WriteStr>
   10f9c:	000a0513          	mv	a0,s4
   10fa0:	07c020ef          	jal	ra,1301c <FN_WriteA0>
   10fa4:	00004517          	auipc	a0,0x4
   10fa8:	9c750513          	addi	a0,a0,-1593 # 1496b <end_signature+0x88b>
   10fac:	054020ef          	jal	ra,13000 <FN_WriteStr>
   10fb0:	00004517          	auipc	a0,0x4
   10fb4:	9c150513          	addi	a0,a0,-1599 # 14971 <end_signature+0x891>
   10fb8:	048020ef          	jal	ra,13000 <FN_WriteStr>
   10fbc:	00004517          	auipc	a0,0x4
   10fc0:	9c050513          	addi	a0,a0,-1600 # 1497c <end_signature+0x89c>
   10fc4:	03c020ef          	jal	ra,13000 <FN_WriteStr>
   10fc8:	06400193          	li	gp,100
   10fcc:	0000100f          	fence.i
   10fd0:	00018063          	beqz	gp,10fd0 <reset_vector+0xf84>
   10fd4:	00119193          	slli	gp,gp,0x1
   10fd8:	0011e193          	ori	gp,gp,1
   10fdc:	00000073          	ecall
   10fe0:	800002b7          	lui	t0,0x80000
   10fe4:	085a8e63          	beq	s5,t0,11080 <reset_vector+0x1034>
   10fe8:	00004517          	auipc	a0,0x4
   10fec:	99650513          	addi	a0,a0,-1642 # 1497e <end_signature+0x89e>
   10ff0:	010020ef          	jal	ra,13000 <FN_WriteStr>
   10ff4:	00004517          	auipc	a0,0x4
   10ff8:	9a550513          	addi	a0,a0,-1627 # 14999 <end_signature+0x8b9>
   10ffc:	004020ef          	jal	ra,13000 <FN_WriteStr>
   11000:	00004517          	auipc	a0,0x4
   11004:	9a850513          	addi	a0,a0,-1624 # 149a8 <end_signature+0x8c8>
   11008:	7f9010ef          	jal	ra,13000 <FN_WriteStr>
   1100c:	00004517          	auipc	a0,0x4
   11010:	9a450513          	addi	a0,a0,-1628 # 149b0 <end_signature+0x8d0>
   11014:	7ed010ef          	jal	ra,13000 <FN_WriteStr>
   11018:	00004517          	auipc	a0,0x4
   1101c:	99c50513          	addi	a0,a0,-1636 # 149b4 <end_signature+0x8d4>
   11020:	7e1010ef          	jal	ra,13000 <FN_WriteStr>
   11024:	00004517          	auipc	a0,0x4
   11028:	99350513          	addi	a0,a0,-1645 # 149b7 <end_signature+0x8d7>
   1102c:	7d5010ef          	jal	ra,13000 <FN_WriteStr>
   11030:	00004517          	auipc	a0,0x4
   11034:	98b50513          	addi	a0,a0,-1653 # 149bb <end_signature+0x8db>
   11038:	7c9010ef          	jal	ra,13000 <FN_WriteStr>
   1103c:	000a8513          	mv	a0,s5
   11040:	7dd010ef          	jal	ra,1301c <FN_WriteA0>
   11044:	00004517          	auipc	a0,0x4
   11048:	97950513          	addi	a0,a0,-1671 # 149bd <end_signature+0x8dd>
   1104c:	7b5010ef          	jal	ra,13000 <FN_WriteStr>
   11050:	00004517          	auipc	a0,0x4
   11054:	97350513          	addi	a0,a0,-1677 # 149c3 <end_signature+0x8e3>
   11058:	7a9010ef          	jal	ra,13000 <FN_WriteStr>
   1105c:	00004517          	auipc	a0,0x4
   11060:	97250513          	addi	a0,a0,-1678 # 149ce <end_signature+0x8ee>
   11064:	79d010ef          	jal	ra,13000 <FN_WriteStr>
   11068:	06400193          	li	gp,100
   1106c:	0000100f          	fence.i
   11070:	00018063          	beqz	gp,11070 <reset_vector+0x1024>
   11074:	00119193          	slli	gp,gp,0x1
   11078:	0011e193          	ori	gp,gp,1
   1107c:	00000073          	ecall
   11080:	800002b7          	lui	t0,0x80000
   11084:	fff28293          	addi	t0,t0,-1 # 7fffffff <_end+0x7ffeada4>
   11088:	085b0e63          	beq	s6,t0,11124 <reset_vector+0x10d8>
   1108c:	00004517          	auipc	a0,0x4
   11090:	94450513          	addi	a0,a0,-1724 # 149d0 <end_signature+0x8f0>
   11094:	76d010ef          	jal	ra,13000 <FN_WriteStr>
   11098:	00004517          	auipc	a0,0x4
   1109c:	95350513          	addi	a0,a0,-1709 # 149eb <end_signature+0x90b>
   110a0:	761010ef          	jal	ra,13000 <FN_WriteStr>
   110a4:	00004517          	auipc	a0,0x4
   110a8:	95650513          	addi	a0,a0,-1706 # 149fa <end_signature+0x91a>
   110ac:	755010ef          	jal	ra,13000 <FN_WriteStr>
   110b0:	00004517          	auipc	a0,0x4
   110b4:	95250513          	addi	a0,a0,-1710 # 14a02 <end_signature+0x922>
   110b8:	749010ef          	jal	ra,13000 <FN_WriteStr>
   110bc:	00004517          	auipc	a0,0x4
   110c0:	94a50513          	addi	a0,a0,-1718 # 14a06 <end_signature+0x926>
   110c4:	73d010ef          	jal	ra,13000 <FN_WriteStr>
   110c8:	00004517          	auipc	a0,0x4
   110cc:	94150513          	addi	a0,a0,-1727 # 14a09 <end_signature+0x929>
   110d0:	731010ef          	jal	ra,13000 <FN_WriteStr>
   110d4:	00004517          	auipc	a0,0x4
   110d8:	93950513          	addi	a0,a0,-1735 # 14a0d <end_signature+0x92d>
   110dc:	725010ef          	jal	ra,13000 <FN_WriteStr>
   110e0:	000b0513          	mv	a0,s6
   110e4:	739010ef          	jal	ra,1301c <FN_WriteA0>
   110e8:	00004517          	auipc	a0,0x4
   110ec:	92750513          	addi	a0,a0,-1753 # 14a0f <end_signature+0x92f>
   110f0:	711010ef          	jal	ra,13000 <FN_WriteStr>
   110f4:	00004517          	auipc	a0,0x4
   110f8:	92150513          	addi	a0,a0,-1759 # 14a15 <end_signature+0x935>
   110fc:	705010ef          	jal	ra,13000 <FN_WriteStr>
   11100:	00004517          	auipc	a0,0x4
   11104:	92050513          	addi	a0,a0,-1760 # 14a20 <end_signature+0x940>
   11108:	6f9010ef          	jal	ra,13000 <FN_WriteStr>
   1110c:	06400193          	li	gp,100
   11110:	0000100f          	fence.i
   11114:	00018063          	beqz	gp,11114 <reset_vector+0x10c8>
   11118:	00119193          	slli	gp,gp,0x1
   1111c:	0011e193          	ori	gp,gp,1
   11120:	00000073          	ecall
   11124:	ffff02b7          	lui	t0,0xffff0
   11128:	085b8e63          	beq	s7,t0,111c4 <reset_vector+0x1178>
   1112c:	00004517          	auipc	a0,0x4
   11130:	8f650513          	addi	a0,a0,-1802 # 14a22 <end_signature+0x942>
   11134:	6cd010ef          	jal	ra,13000 <FN_WriteStr>
   11138:	00004517          	auipc	a0,0x4
   1113c:	90550513          	addi	a0,a0,-1787 # 14a3d <end_signature+0x95d>
   11140:	6c1010ef          	jal	ra,13000 <FN_WriteStr>
   11144:	00004517          	auipc	a0,0x4
   11148:	90850513          	addi	a0,a0,-1784 # 14a4c <end_signature+0x96c>
   1114c:	6b5010ef          	jal	ra,13000 <FN_WriteStr>
   11150:	00004517          	auipc	a0,0x4
   11154:	90450513          	addi	a0,a0,-1788 # 14a54 <end_signature+0x974>
   11158:	6a9010ef          	jal	ra,13000 <FN_WriteStr>
   1115c:	00004517          	auipc	a0,0x4
   11160:	8fc50513          	addi	a0,a0,-1796 # 14a58 <end_signature+0x978>
   11164:	69d010ef          	jal	ra,13000 <FN_WriteStr>
   11168:	00004517          	auipc	a0,0x4
   1116c:	8f350513          	addi	a0,a0,-1805 # 14a5b <end_signature+0x97b>
   11170:	691010ef          	jal	ra,13000 <FN_WriteStr>
   11174:	00004517          	auipc	a0,0x4
   11178:	8eb50513          	addi	a0,a0,-1813 # 14a5f <end_signature+0x97f>
   1117c:	685010ef          	jal	ra,13000 <FN_WriteStr>
   11180:	000b8513          	mv	a0,s7
   11184:	699010ef          	jal	ra,1301c <FN_WriteA0>
   11188:	00004517          	auipc	a0,0x4
   1118c:	8d950513          	addi	a0,a0,-1831 # 14a61 <end_signature+0x981>
   11190:	671010ef          	jal	ra,13000 <FN_WriteStr>
   11194:	00004517          	auipc	a0,0x4
   11198:	8d350513          	addi	a0,a0,-1837 # 14a67 <end_signature+0x987>
   1119c:	665010ef          	jal	ra,13000 <FN_WriteStr>
   111a0:	00004517          	auipc	a0,0x4
   111a4:	8d250513          	addi	a0,a0,-1838 # 14a72 <end_signature+0x992>
   111a8:	659010ef          	jal	ra,13000 <FN_WriteStr>
   111ac:	06400193          	li	gp,100
   111b0:	0000100f          	fence.i
   111b4:	00018063          	beqz	gp,111b4 <reset_vector+0x1168>
   111b8:	00119193          	slli	gp,gp,0x1
   111bc:	0011e193          	ori	gp,gp,1
   111c0:	00000073          	ecall
   111c4:	00004517          	auipc	a0,0x4
   111c8:	8b050513          	addi	a0,a0,-1872 # 14a74 <end_signature+0x994>
   111cc:	635010ef          	jal	ra,13000 <FN_WriteStr>
   111d0:	00004517          	auipc	a0,0x4
   111d4:	8c050513          	addi	a0,a0,-1856 # 14a90 <end_signature+0x9b0>
   111d8:	629010ef          	jal	ra,13000 <FN_WriteStr>
   111dc:	00003617          	auipc	a2,0x3
   111e0:	e3460613          	addi	a2,a2,-460 # 14010 <test_A5_data>
   111e4:	00003697          	auipc	a3,0x3
   111e8:	eac68693          	addi	a3,a3,-340 # 14090 <test_A5_res>
   111ec:	00062b83          	lw	s7,0(a2)
   111f0:	00100c13          	li	s8,1
   111f4:	00f00c93          	li	s9,15
   111f8:	01f00d13          	li	s10,31
   111fc:	00000d93          	li	s11,0
   11200:	01000e13          	li	t3,16
   11204:	018b9c33          	sll	s8,s7,s8
   11208:	019b9cb3          	sll	s9,s7,s9
   1120c:	01ab9d33          	sll	s10,s7,s10
   11210:	01bb9db3          	sll	s11,s7,s11
   11214:	01cb9e33          	sll	t3,s7,t3
   11218:	0176a023          	sw	s7,0(a3)
   1121c:	0186a223          	sw	s8,4(a3)
   11220:	0196a423          	sw	s9,8(a3)
   11224:	01a6a623          	sw	s10,12(a3)
   11228:	01b6a823          	sw	s11,16(a3)
   1122c:	01c6aa23          	sw	t3,20(a3)
   11230:	800002b7          	lui	t0,0x80000
   11234:	085b8e63          	beq	s7,t0,112d0 <reset_vector+0x1284>
   11238:	00004517          	auipc	a0,0x4
   1123c:	8ba50513          	addi	a0,a0,-1862 # 14af2 <end_signature+0xa12>
   11240:	5c1010ef          	jal	ra,13000 <FN_WriteStr>
   11244:	00004517          	auipc	a0,0x4
   11248:	8c950513          	addi	a0,a0,-1847 # 14b0d <end_signature+0xa2d>
   1124c:	5b5010ef          	jal	ra,13000 <FN_WriteStr>
   11250:	00004517          	auipc	a0,0x4
   11254:	8cc50513          	addi	a0,a0,-1844 # 14b1c <end_signature+0xa3c>
   11258:	5a9010ef          	jal	ra,13000 <FN_WriteStr>
   1125c:	00004517          	auipc	a0,0x4
   11260:	8c850513          	addi	a0,a0,-1848 # 14b24 <end_signature+0xa44>
   11264:	59d010ef          	jal	ra,13000 <FN_WriteStr>
   11268:	00004517          	auipc	a0,0x4
   1126c:	8c050513          	addi	a0,a0,-1856 # 14b28 <end_signature+0xa48>
   11270:	591010ef          	jal	ra,13000 <FN_WriteStr>
   11274:	00004517          	auipc	a0,0x4
   11278:	8b750513          	addi	a0,a0,-1865 # 14b2b <end_signature+0xa4b>
   1127c:	585010ef          	jal	ra,13000 <FN_WriteStr>
   11280:	00004517          	auipc	a0,0x4
   11284:	8af50513          	addi	a0,a0,-1873 # 14b2f <end_signature+0xa4f>
   11288:	579010ef          	jal	ra,13000 <FN_WriteStr>
   1128c:	000b8513          	mv	a0,s7
   11290:	58d010ef          	jal	ra,1301c <FN_WriteA0>
   11294:	00004517          	auipc	a0,0x4
   11298:	89d50513          	addi	a0,a0,-1891 # 14b31 <end_signature+0xa51>
   1129c:	565010ef          	jal	ra,13000 <FN_WriteStr>
   112a0:	00004517          	auipc	a0,0x4
   112a4:	89750513          	addi	a0,a0,-1897 # 14b37 <end_signature+0xa57>
   112a8:	559010ef          	jal	ra,13000 <FN_WriteStr>
   112ac:	00004517          	auipc	a0,0x4
   112b0:	89650513          	addi	a0,a0,-1898 # 14b42 <end_signature+0xa62>
   112b4:	54d010ef          	jal	ra,13000 <FN_WriteStr>
   112b8:	06400193          	li	gp,100
   112bc:	0000100f          	fence.i
   112c0:	00018063          	beqz	gp,112c0 <reset_vector+0x1274>
   112c4:	00119193          	slli	gp,gp,0x1
   112c8:	0011e193          	ori	gp,gp,1
   112cc:	00000073          	ecall
   112d0:	00000293          	li	t0,0
   112d4:	085c0e63          	beq	s8,t0,11370 <reset_vector+0x1324>
   112d8:	00004517          	auipc	a0,0x4
   112dc:	86c50513          	addi	a0,a0,-1940 # 14b44 <end_signature+0xa64>
   112e0:	521010ef          	jal	ra,13000 <FN_WriteStr>
   112e4:	00004517          	auipc	a0,0x4
   112e8:	87b50513          	addi	a0,a0,-1925 # 14b5f <end_signature+0xa7f>
   112ec:	515010ef          	jal	ra,13000 <FN_WriteStr>
   112f0:	00004517          	auipc	a0,0x4
   112f4:	87e50513          	addi	a0,a0,-1922 # 14b6e <end_signature+0xa8e>
   112f8:	509010ef          	jal	ra,13000 <FN_WriteStr>
   112fc:	00004517          	auipc	a0,0x4
   11300:	87a50513          	addi	a0,a0,-1926 # 14b76 <end_signature+0xa96>
   11304:	4fd010ef          	jal	ra,13000 <FN_WriteStr>
   11308:	00004517          	auipc	a0,0x4
   1130c:	87250513          	addi	a0,a0,-1934 # 14b7a <end_signature+0xa9a>
   11310:	4f1010ef          	jal	ra,13000 <FN_WriteStr>
   11314:	00004517          	auipc	a0,0x4
   11318:	86950513          	addi	a0,a0,-1943 # 14b7d <end_signature+0xa9d>
   1131c:	4e5010ef          	jal	ra,13000 <FN_WriteStr>
   11320:	00004517          	auipc	a0,0x4
   11324:	86150513          	addi	a0,a0,-1951 # 14b81 <end_signature+0xaa1>
   11328:	4d9010ef          	jal	ra,13000 <FN_WriteStr>
   1132c:	000c0513          	mv	a0,s8
   11330:	4ed010ef          	jal	ra,1301c <FN_WriteA0>
   11334:	00004517          	auipc	a0,0x4
   11338:	84f50513          	addi	a0,a0,-1969 # 14b83 <end_signature+0xaa3>
   1133c:	4c5010ef          	jal	ra,13000 <FN_WriteStr>
   11340:	00004517          	auipc	a0,0x4
   11344:	84950513          	addi	a0,a0,-1975 # 14b89 <end_signature+0xaa9>
   11348:	4b9010ef          	jal	ra,13000 <FN_WriteStr>
   1134c:	00004517          	auipc	a0,0x4
   11350:	84850513          	addi	a0,a0,-1976 # 14b94 <end_signature+0xab4>
   11354:	4ad010ef          	jal	ra,13000 <FN_WriteStr>
   11358:	06400193          	li	gp,100
   1135c:	0000100f          	fence.i
   11360:	00018063          	beqz	gp,11360 <reset_vector+0x1314>
   11364:	00119193          	slli	gp,gp,0x1
   11368:	0011e193          	ori	gp,gp,1
   1136c:	00000073          	ecall
   11370:	00000293          	li	t0,0
   11374:	085c8e63          	beq	s9,t0,11410 <reset_vector+0x13c4>
   11378:	00004517          	auipc	a0,0x4
   1137c:	81e50513          	addi	a0,a0,-2018 # 14b96 <end_signature+0xab6>
   11380:	481010ef          	jal	ra,13000 <FN_WriteStr>
   11384:	00004517          	auipc	a0,0x4
   11388:	82d50513          	addi	a0,a0,-2003 # 14bb1 <end_signature+0xad1>
   1138c:	475010ef          	jal	ra,13000 <FN_WriteStr>
   11390:	00004517          	auipc	a0,0x4
   11394:	83050513          	addi	a0,a0,-2000 # 14bc0 <end_signature+0xae0>
   11398:	469010ef          	jal	ra,13000 <FN_WriteStr>
   1139c:	00004517          	auipc	a0,0x4
   113a0:	82c50513          	addi	a0,a0,-2004 # 14bc8 <end_signature+0xae8>
   113a4:	45d010ef          	jal	ra,13000 <FN_WriteStr>
   113a8:	00004517          	auipc	a0,0x4
   113ac:	82450513          	addi	a0,a0,-2012 # 14bcc <end_signature+0xaec>
   113b0:	451010ef          	jal	ra,13000 <FN_WriteStr>
   113b4:	00004517          	auipc	a0,0x4
   113b8:	81b50513          	addi	a0,a0,-2021 # 14bcf <end_signature+0xaef>
   113bc:	445010ef          	jal	ra,13000 <FN_WriteStr>
   113c0:	00004517          	auipc	a0,0x4
   113c4:	81350513          	addi	a0,a0,-2029 # 14bd3 <end_signature+0xaf3>
   113c8:	439010ef          	jal	ra,13000 <FN_WriteStr>
   113cc:	000c8513          	mv	a0,s9
   113d0:	44d010ef          	jal	ra,1301c <FN_WriteA0>
   113d4:	00004517          	auipc	a0,0x4
   113d8:	80150513          	addi	a0,a0,-2047 # 14bd5 <end_signature+0xaf5>
   113dc:	425010ef          	jal	ra,13000 <FN_WriteStr>
   113e0:	00003517          	auipc	a0,0x3
   113e4:	7fb50513          	addi	a0,a0,2043 # 14bdb <end_signature+0xafb>
   113e8:	419010ef          	jal	ra,13000 <FN_WriteStr>
   113ec:	00003517          	auipc	a0,0x3
   113f0:	7fa50513          	addi	a0,a0,2042 # 14be6 <end_signature+0xb06>
   113f4:	40d010ef          	jal	ra,13000 <FN_WriteStr>
   113f8:	06400193          	li	gp,100
   113fc:	0000100f          	fence.i
   11400:	00018063          	beqz	gp,11400 <reset_vector+0x13b4>
   11404:	00119193          	slli	gp,gp,0x1
   11408:	0011e193          	ori	gp,gp,1
   1140c:	00000073          	ecall
   11410:	00000293          	li	t0,0
   11414:	085d0e63          	beq	s10,t0,114b0 <reset_vector+0x1464>
   11418:	00003517          	auipc	a0,0x3
   1141c:	7d050513          	addi	a0,a0,2000 # 14be8 <end_signature+0xb08>
   11420:	3e1010ef          	jal	ra,13000 <FN_WriteStr>
   11424:	00003517          	auipc	a0,0x3
   11428:	7df50513          	addi	a0,a0,2015 # 14c03 <end_signature+0xb23>
   1142c:	3d5010ef          	jal	ra,13000 <FN_WriteStr>
   11430:	00003517          	auipc	a0,0x3
   11434:	7e250513          	addi	a0,a0,2018 # 14c12 <end_signature+0xb32>
   11438:	3c9010ef          	jal	ra,13000 <FN_WriteStr>
   1143c:	00003517          	auipc	a0,0x3
   11440:	7de50513          	addi	a0,a0,2014 # 14c1a <end_signature+0xb3a>
   11444:	3bd010ef          	jal	ra,13000 <FN_WriteStr>
   11448:	00003517          	auipc	a0,0x3
   1144c:	7d650513          	addi	a0,a0,2006 # 14c1e <end_signature+0xb3e>
   11450:	3b1010ef          	jal	ra,13000 <FN_WriteStr>
   11454:	00003517          	auipc	a0,0x3
   11458:	7cd50513          	addi	a0,a0,1997 # 14c21 <end_signature+0xb41>
   1145c:	3a5010ef          	jal	ra,13000 <FN_WriteStr>
   11460:	00003517          	auipc	a0,0x3
   11464:	7c550513          	addi	a0,a0,1989 # 14c25 <end_signature+0xb45>
   11468:	399010ef          	jal	ra,13000 <FN_WriteStr>
   1146c:	000d0513          	mv	a0,s10
   11470:	3ad010ef          	jal	ra,1301c <FN_WriteA0>
   11474:	00003517          	auipc	a0,0x3
   11478:	7b350513          	addi	a0,a0,1971 # 14c27 <end_signature+0xb47>
   1147c:	385010ef          	jal	ra,13000 <FN_WriteStr>
   11480:	00003517          	auipc	a0,0x3
   11484:	7ad50513          	addi	a0,a0,1965 # 14c2d <end_signature+0xb4d>
   11488:	379010ef          	jal	ra,13000 <FN_WriteStr>
   1148c:	00003517          	auipc	a0,0x3
   11490:	7ac50513          	addi	a0,a0,1964 # 14c38 <end_signature+0xb58>
   11494:	36d010ef          	jal	ra,13000 <FN_WriteStr>
   11498:	06400193          	li	gp,100
   1149c:	0000100f          	fence.i
   114a0:	00018063          	beqz	gp,114a0 <reset_vector+0x1454>
   114a4:	00119193          	slli	gp,gp,0x1
   114a8:	0011e193          	ori	gp,gp,1
   114ac:	00000073          	ecall
   114b0:	800002b7          	lui	t0,0x80000
   114b4:	085d8e63          	beq	s11,t0,11550 <reset_vector+0x1504>
   114b8:	00003517          	auipc	a0,0x3
   114bc:	78250513          	addi	a0,a0,1922 # 14c3a <end_signature+0xb5a>
   114c0:	341010ef          	jal	ra,13000 <FN_WriteStr>
   114c4:	00003517          	auipc	a0,0x3
   114c8:	79150513          	addi	a0,a0,1937 # 14c55 <end_signature+0xb75>
   114cc:	335010ef          	jal	ra,13000 <FN_WriteStr>
   114d0:	00003517          	auipc	a0,0x3
   114d4:	79450513          	addi	a0,a0,1940 # 14c64 <end_signature+0xb84>
   114d8:	329010ef          	jal	ra,13000 <FN_WriteStr>
   114dc:	00003517          	auipc	a0,0x3
   114e0:	79050513          	addi	a0,a0,1936 # 14c6c <end_signature+0xb8c>
   114e4:	31d010ef          	jal	ra,13000 <FN_WriteStr>
   114e8:	00003517          	auipc	a0,0x3
   114ec:	78850513          	addi	a0,a0,1928 # 14c70 <end_signature+0xb90>
   114f0:	311010ef          	jal	ra,13000 <FN_WriteStr>
   114f4:	00003517          	auipc	a0,0x3
   114f8:	77f50513          	addi	a0,a0,1919 # 14c73 <end_signature+0xb93>
   114fc:	305010ef          	jal	ra,13000 <FN_WriteStr>
   11500:	00003517          	auipc	a0,0x3
   11504:	77750513          	addi	a0,a0,1911 # 14c77 <end_signature+0xb97>
   11508:	2f9010ef          	jal	ra,13000 <FN_WriteStr>
   1150c:	000d8513          	mv	a0,s11
   11510:	30d010ef          	jal	ra,1301c <FN_WriteA0>
   11514:	00003517          	auipc	a0,0x3
   11518:	76550513          	addi	a0,a0,1893 # 14c79 <end_signature+0xb99>
   1151c:	2e5010ef          	jal	ra,13000 <FN_WriteStr>
   11520:	00003517          	auipc	a0,0x3
   11524:	75f50513          	addi	a0,a0,1887 # 14c7f <end_signature+0xb9f>
   11528:	2d9010ef          	jal	ra,13000 <FN_WriteStr>
   1152c:	00003517          	auipc	a0,0x3
   11530:	75e50513          	addi	a0,a0,1886 # 14c8a <end_signature+0xbaa>
   11534:	2cd010ef          	jal	ra,13000 <FN_WriteStr>
   11538:	06400193          	li	gp,100
   1153c:	0000100f          	fence.i
   11540:	00018063          	beqz	gp,11540 <reset_vector+0x14f4>
   11544:	00119193          	slli	gp,gp,0x1
   11548:	0011e193          	ori	gp,gp,1
   1154c:	00000073          	ecall
   11550:	00000293          	li	t0,0
   11554:	085e0e63          	beq	t3,t0,115f0 <reset_vector+0x15a4>
   11558:	00003517          	auipc	a0,0x3
   1155c:	73450513          	addi	a0,a0,1844 # 14c8c <end_signature+0xbac>
   11560:	2a1010ef          	jal	ra,13000 <FN_WriteStr>
   11564:	00003517          	auipc	a0,0x3
   11568:	74350513          	addi	a0,a0,1859 # 14ca7 <end_signature+0xbc7>
   1156c:	295010ef          	jal	ra,13000 <FN_WriteStr>
   11570:	00003517          	auipc	a0,0x3
   11574:	74650513          	addi	a0,a0,1862 # 14cb6 <end_signature+0xbd6>
   11578:	289010ef          	jal	ra,13000 <FN_WriteStr>
   1157c:	00003517          	auipc	a0,0x3
   11580:	74250513          	addi	a0,a0,1858 # 14cbe <end_signature+0xbde>
   11584:	27d010ef          	jal	ra,13000 <FN_WriteStr>
   11588:	00003517          	auipc	a0,0x3
   1158c:	73a50513          	addi	a0,a0,1850 # 14cc2 <end_signature+0xbe2>
   11590:	271010ef          	jal	ra,13000 <FN_WriteStr>
   11594:	00003517          	auipc	a0,0x3
   11598:	73150513          	addi	a0,a0,1841 # 14cc5 <end_signature+0xbe5>
   1159c:	265010ef          	jal	ra,13000 <FN_WriteStr>
   115a0:	00003517          	auipc	a0,0x3
   115a4:	72950513          	addi	a0,a0,1833 # 14cc9 <end_signature+0xbe9>
   115a8:	259010ef          	jal	ra,13000 <FN_WriteStr>
   115ac:	000e0513          	mv	a0,t3
   115b0:	26d010ef          	jal	ra,1301c <FN_WriteA0>
   115b4:	00003517          	auipc	a0,0x3
   115b8:	71750513          	addi	a0,a0,1815 # 14ccb <end_signature+0xbeb>
   115bc:	245010ef          	jal	ra,13000 <FN_WriteStr>
   115c0:	00003517          	auipc	a0,0x3
   115c4:	71150513          	addi	a0,a0,1809 # 14cd1 <end_signature+0xbf1>
   115c8:	239010ef          	jal	ra,13000 <FN_WriteStr>
   115cc:	00003517          	auipc	a0,0x3
   115d0:	71050513          	addi	a0,a0,1808 # 14cdc <end_signature+0xbfc>
   115d4:	22d010ef          	jal	ra,13000 <FN_WriteStr>
   115d8:	06400193          	li	gp,100
   115dc:	0000100f          	fence.i
   115e0:	00018063          	beqz	gp,115e0 <reset_vector+0x1594>
   115e4:	00119193          	slli	gp,gp,0x1
   115e8:	0011e193          	ori	gp,gp,1
   115ec:	00000073          	ecall
   115f0:	00003517          	auipc	a0,0x3
   115f4:	6ee50513          	addi	a0,a0,1774 # 14cde <end_signature+0xbfe>
   115f8:	209010ef          	jal	ra,13000 <FN_WriteStr>
   115fc:	00003517          	auipc	a0,0x3
   11600:	6fe50513          	addi	a0,a0,1790 # 14cfa <end_signature+0xc1a>
   11604:	1fd010ef          	jal	ra,13000 <FN_WriteStr>
   11608:	00003c97          	auipc	s9,0x3
   1160c:	a0cc8c93          	addi	s9,s9,-1524 # 14014 <test_B_data>
   11610:	00003d17          	auipc	s10,0x3
   11614:	a98d0d13          	addi	s10,s10,-1384 # 140a8 <test_B_res>
   11618:	000cae03          	lw	t3,0(s9)
   1161c:	00100d93          	li	s11,1
   11620:	01be1eb3          	sll	t4,t3,s11
   11624:	01be9f33          	sll	t5,t4,s11
   11628:	01bf1fb3          	sll	t6,t5,s11
   1162c:	01bf90b3          	sll	ra,t6,s11
   11630:	01b09133          	sll	sp,ra,s11
   11634:	01b111b3          	sll	gp,sp,s11
   11638:	01cd2023          	sw	t3,0(s10)
   1163c:	01dd2223          	sw	t4,4(s10)
   11640:	01ed2423          	sw	t5,8(s10)
   11644:	01fd2623          	sw	t6,12(s10)
   11648:	001d2823          	sw	ra,16(s10)
   1164c:	002d2a23          	sw	sp,20(s10)
   11650:	003d2c23          	sw	gp,24(s10)
   11654:	abcdf2b7          	lui	t0,0xabcdf
   11658:	f1028293          	addi	t0,t0,-240 # abcdef10 <_end+0xabcc9cb5>
   1165c:	085e0e63          	beq	t3,t0,116f8 <reset_vector+0x16ac>
   11660:	00003517          	auipc	a0,0x3
   11664:	6d350513          	addi	a0,a0,1747 # 14d33 <end_signature+0xc53>
   11668:	199010ef          	jal	ra,13000 <FN_WriteStr>
   1166c:	00003517          	auipc	a0,0x3
   11670:	6e250513          	addi	a0,a0,1762 # 14d4e <end_signature+0xc6e>
   11674:	18d010ef          	jal	ra,13000 <FN_WriteStr>
   11678:	00003517          	auipc	a0,0x3
   1167c:	6e550513          	addi	a0,a0,1765 # 14d5d <end_signature+0xc7d>
   11680:	181010ef          	jal	ra,13000 <FN_WriteStr>
   11684:	00003517          	auipc	a0,0x3
   11688:	6e150513          	addi	a0,a0,1761 # 14d65 <end_signature+0xc85>
   1168c:	175010ef          	jal	ra,13000 <FN_WriteStr>
   11690:	00003517          	auipc	a0,0x3
   11694:	6d950513          	addi	a0,a0,1753 # 14d69 <end_signature+0xc89>
   11698:	169010ef          	jal	ra,13000 <FN_WriteStr>
   1169c:	00003517          	auipc	a0,0x3
   116a0:	6d050513          	addi	a0,a0,1744 # 14d6c <end_signature+0xc8c>
   116a4:	15d010ef          	jal	ra,13000 <FN_WriteStr>
   116a8:	00003517          	auipc	a0,0x3
   116ac:	6c850513          	addi	a0,a0,1736 # 14d70 <end_signature+0xc90>
   116b0:	151010ef          	jal	ra,13000 <FN_WriteStr>
   116b4:	000e0513          	mv	a0,t3
   116b8:	165010ef          	jal	ra,1301c <FN_WriteA0>
   116bc:	00003517          	auipc	a0,0x3
   116c0:	6b650513          	addi	a0,a0,1718 # 14d72 <end_signature+0xc92>
   116c4:	13d010ef          	jal	ra,13000 <FN_WriteStr>
   116c8:	00003517          	auipc	a0,0x3
   116cc:	6b050513          	addi	a0,a0,1712 # 14d78 <end_signature+0xc98>
   116d0:	131010ef          	jal	ra,13000 <FN_WriteStr>
   116d4:	00003517          	auipc	a0,0x3
   116d8:	6af50513          	addi	a0,a0,1711 # 14d83 <end_signature+0xca3>
   116dc:	125010ef          	jal	ra,13000 <FN_WriteStr>
   116e0:	06400193          	li	gp,100
   116e4:	0000100f          	fence.i
   116e8:	00018063          	beqz	gp,116e8 <reset_vector+0x169c>
   116ec:	00119193          	slli	gp,gp,0x1
   116f0:	0011e193          	ori	gp,gp,1
   116f4:	00000073          	ecall
   116f8:	579be2b7          	lui	t0,0x579be
   116fc:	e2028293          	addi	t0,t0,-480 # 579bde20 <_end+0x579a8bc5>
   11700:	085e8e63          	beq	t4,t0,1179c <reset_vector+0x1750>
   11704:	00003517          	auipc	a0,0x3
   11708:	68150513          	addi	a0,a0,1665 # 14d85 <end_signature+0xca5>
   1170c:	0f5010ef          	jal	ra,13000 <FN_WriteStr>
   11710:	00003517          	auipc	a0,0x3
   11714:	69050513          	addi	a0,a0,1680 # 14da0 <end_signature+0xcc0>
   11718:	0e9010ef          	jal	ra,13000 <FN_WriteStr>
   1171c:	00003517          	auipc	a0,0x3
   11720:	69350513          	addi	a0,a0,1683 # 14daf <end_signature+0xccf>
   11724:	0dd010ef          	jal	ra,13000 <FN_WriteStr>
   11728:	00003517          	auipc	a0,0x3
   1172c:	68f50513          	addi	a0,a0,1679 # 14db7 <end_signature+0xcd7>
   11730:	0d1010ef          	jal	ra,13000 <FN_WriteStr>
   11734:	00003517          	auipc	a0,0x3
   11738:	68750513          	addi	a0,a0,1671 # 14dbb <end_signature+0xcdb>
   1173c:	0c5010ef          	jal	ra,13000 <FN_WriteStr>
   11740:	00003517          	auipc	a0,0x3
   11744:	67e50513          	addi	a0,a0,1662 # 14dbe <end_signature+0xcde>
   11748:	0b9010ef          	jal	ra,13000 <FN_WriteStr>
   1174c:	00003517          	auipc	a0,0x3
   11750:	67650513          	addi	a0,a0,1654 # 14dc2 <end_signature+0xce2>
   11754:	0ad010ef          	jal	ra,13000 <FN_WriteStr>
   11758:	000e8513          	mv	a0,t4
   1175c:	0c1010ef          	jal	ra,1301c <FN_WriteA0>
   11760:	00003517          	auipc	a0,0x3
   11764:	66450513          	addi	a0,a0,1636 # 14dc4 <end_signature+0xce4>
   11768:	099010ef          	jal	ra,13000 <FN_WriteStr>
   1176c:	00003517          	auipc	a0,0x3
   11770:	65e50513          	addi	a0,a0,1630 # 14dca <end_signature+0xcea>
   11774:	08d010ef          	jal	ra,13000 <FN_WriteStr>
   11778:	00003517          	auipc	a0,0x3
   1177c:	65d50513          	addi	a0,a0,1629 # 14dd5 <end_signature+0xcf5>
   11780:	081010ef          	jal	ra,13000 <FN_WriteStr>
   11784:	06400193          	li	gp,100
   11788:	0000100f          	fence.i
   1178c:	00018063          	beqz	gp,1178c <reset_vector+0x1740>
   11790:	00119193          	slli	gp,gp,0x1
   11794:	0011e193          	ori	gp,gp,1
   11798:	00000073          	ecall
   1179c:	af37c2b7          	lui	t0,0xaf37c
   117a0:	c4028293          	addi	t0,t0,-960 # af37bc40 <_end+0xaf3669e5>
   117a4:	085f0e63          	beq	t5,t0,11840 <reset_vector+0x17f4>
   117a8:	00003517          	auipc	a0,0x3
   117ac:	62f50513          	addi	a0,a0,1583 # 14dd7 <end_signature+0xcf7>
   117b0:	051010ef          	jal	ra,13000 <FN_WriteStr>
   117b4:	00003517          	auipc	a0,0x3
   117b8:	63e50513          	addi	a0,a0,1598 # 14df2 <end_signature+0xd12>
   117bc:	045010ef          	jal	ra,13000 <FN_WriteStr>
   117c0:	00003517          	auipc	a0,0x3
   117c4:	64150513          	addi	a0,a0,1601 # 14e01 <end_signature+0xd21>
   117c8:	039010ef          	jal	ra,13000 <FN_WriteStr>
   117cc:	00003517          	auipc	a0,0x3
   117d0:	63d50513          	addi	a0,a0,1597 # 14e09 <end_signature+0xd29>
   117d4:	02d010ef          	jal	ra,13000 <FN_WriteStr>
   117d8:	00003517          	auipc	a0,0x3
   117dc:	63550513          	addi	a0,a0,1589 # 14e0d <end_signature+0xd2d>
   117e0:	021010ef          	jal	ra,13000 <FN_WriteStr>
   117e4:	00003517          	auipc	a0,0x3
   117e8:	62c50513          	addi	a0,a0,1580 # 14e10 <end_signature+0xd30>
   117ec:	015010ef          	jal	ra,13000 <FN_WriteStr>
   117f0:	00003517          	auipc	a0,0x3
   117f4:	62450513          	addi	a0,a0,1572 # 14e14 <end_signature+0xd34>
   117f8:	009010ef          	jal	ra,13000 <FN_WriteStr>
   117fc:	000f0513          	mv	a0,t5
   11800:	01d010ef          	jal	ra,1301c <FN_WriteA0>
   11804:	00003517          	auipc	a0,0x3
   11808:	61250513          	addi	a0,a0,1554 # 14e16 <end_signature+0xd36>
   1180c:	7f4010ef          	jal	ra,13000 <FN_WriteStr>
   11810:	00003517          	auipc	a0,0x3
   11814:	60c50513          	addi	a0,a0,1548 # 14e1c <end_signature+0xd3c>
   11818:	7e8010ef          	jal	ra,13000 <FN_WriteStr>
   1181c:	00003517          	auipc	a0,0x3
   11820:	60b50513          	addi	a0,a0,1547 # 14e27 <end_signature+0xd47>
   11824:	7dc010ef          	jal	ra,13000 <FN_WriteStr>
   11828:	06400193          	li	gp,100
   1182c:	0000100f          	fence.i
   11830:	00018063          	beqz	gp,11830 <reset_vector+0x17e4>
   11834:	00119193          	slli	gp,gp,0x1
   11838:	0011e193          	ori	gp,gp,1
   1183c:	00000073          	ecall
   11840:	5e6f82b7          	lui	t0,0x5e6f8
   11844:	88028293          	addi	t0,t0,-1920 # 5e6f7880 <_end+0x5e6e2625>
   11848:	085f8e63          	beq	t6,t0,118e4 <reset_vector+0x1898>
   1184c:	00003517          	auipc	a0,0x3
   11850:	5dd50513          	addi	a0,a0,1501 # 14e29 <end_signature+0xd49>
   11854:	7ac010ef          	jal	ra,13000 <FN_WriteStr>
   11858:	00003517          	auipc	a0,0x3
   1185c:	5ec50513          	addi	a0,a0,1516 # 14e44 <end_signature+0xd64>
   11860:	7a0010ef          	jal	ra,13000 <FN_WriteStr>
   11864:	00003517          	auipc	a0,0x3
   11868:	5ef50513          	addi	a0,a0,1519 # 14e53 <end_signature+0xd73>
   1186c:	794010ef          	jal	ra,13000 <FN_WriteStr>
   11870:	00003517          	auipc	a0,0x3
   11874:	5eb50513          	addi	a0,a0,1515 # 14e5b <end_signature+0xd7b>
   11878:	788010ef          	jal	ra,13000 <FN_WriteStr>
   1187c:	00003517          	auipc	a0,0x3
   11880:	5e350513          	addi	a0,a0,1507 # 14e5f <end_signature+0xd7f>
   11884:	77c010ef          	jal	ra,13000 <FN_WriteStr>
   11888:	00003517          	auipc	a0,0x3
   1188c:	5da50513          	addi	a0,a0,1498 # 14e62 <end_signature+0xd82>
   11890:	770010ef          	jal	ra,13000 <FN_WriteStr>
   11894:	00003517          	auipc	a0,0x3
   11898:	5d250513          	addi	a0,a0,1490 # 14e66 <end_signature+0xd86>
   1189c:	764010ef          	jal	ra,13000 <FN_WriteStr>
   118a0:	000f8513          	mv	a0,t6
   118a4:	778010ef          	jal	ra,1301c <FN_WriteA0>
   118a8:	00003517          	auipc	a0,0x3
   118ac:	5c050513          	addi	a0,a0,1472 # 14e68 <end_signature+0xd88>
   118b0:	750010ef          	jal	ra,13000 <FN_WriteStr>
   118b4:	00003517          	auipc	a0,0x3
   118b8:	5ba50513          	addi	a0,a0,1466 # 14e6e <end_signature+0xd8e>
   118bc:	744010ef          	jal	ra,13000 <FN_WriteStr>
   118c0:	00003517          	auipc	a0,0x3
   118c4:	5b950513          	addi	a0,a0,1465 # 14e79 <end_signature+0xd99>
   118c8:	738010ef          	jal	ra,13000 <FN_WriteStr>
   118cc:	06400193          	li	gp,100
   118d0:	0000100f          	fence.i
   118d4:	00018063          	beqz	gp,118d4 <reset_vector+0x1888>
   118d8:	00119193          	slli	gp,gp,0x1
   118dc:	0011e193          	ori	gp,gp,1
   118e0:	00000073          	ecall
   118e4:	79bde2b7          	lui	t0,0x79bde
   118e8:	20028293          	addi	t0,t0,512 # 79bde200 <_end+0x79bc8fa5>
   118ec:	08510e63          	beq	sp,t0,11988 <reset_vector+0x193c>
   118f0:	00003517          	auipc	a0,0x3
   118f4:	58b50513          	addi	a0,a0,1419 # 14e7b <end_signature+0xd9b>
   118f8:	708010ef          	jal	ra,13000 <FN_WriteStr>
   118fc:	00003517          	auipc	a0,0x3
   11900:	59a50513          	addi	a0,a0,1434 # 14e96 <end_signature+0xdb6>
   11904:	6fc010ef          	jal	ra,13000 <FN_WriteStr>
   11908:	00003517          	auipc	a0,0x3
   1190c:	59d50513          	addi	a0,a0,1437 # 14ea5 <end_signature+0xdc5>
   11910:	6f0010ef          	jal	ra,13000 <FN_WriteStr>
   11914:	00003517          	auipc	a0,0x3
   11918:	59950513          	addi	a0,a0,1433 # 14ead <end_signature+0xdcd>
   1191c:	6e4010ef          	jal	ra,13000 <FN_WriteStr>
   11920:	00003517          	auipc	a0,0x3
   11924:	59150513          	addi	a0,a0,1425 # 14eb1 <end_signature+0xdd1>
   11928:	6d8010ef          	jal	ra,13000 <FN_WriteStr>
   1192c:	00003517          	auipc	a0,0x3
   11930:	58850513          	addi	a0,a0,1416 # 14eb4 <end_signature+0xdd4>
   11934:	6cc010ef          	jal	ra,13000 <FN_WriteStr>
   11938:	00003517          	auipc	a0,0x3
   1193c:	57f50513          	addi	a0,a0,1407 # 14eb7 <end_signature+0xdd7>
   11940:	6c0010ef          	jal	ra,13000 <FN_WriteStr>
   11944:	00010513          	mv	a0,sp
   11948:	6d4010ef          	jal	ra,1301c <FN_WriteA0>
   1194c:	00003517          	auipc	a0,0x3
   11950:	56d50513          	addi	a0,a0,1389 # 14eb9 <end_signature+0xdd9>
   11954:	6ac010ef          	jal	ra,13000 <FN_WriteStr>
   11958:	00003517          	auipc	a0,0x3
   1195c:	56750513          	addi	a0,a0,1383 # 14ebf <end_signature+0xddf>
   11960:	6a0010ef          	jal	ra,13000 <FN_WriteStr>
   11964:	00003517          	auipc	a0,0x3
   11968:	56650513          	addi	a0,a0,1382 # 14eca <end_signature+0xdea>
   1196c:	694010ef          	jal	ra,13000 <FN_WriteStr>
   11970:	06400193          	li	gp,100
   11974:	0000100f          	fence.i
   11978:	00018063          	beqz	gp,11978 <reset_vector+0x192c>
   1197c:	00119193          	slli	gp,gp,0x1
   11980:	0011e193          	ori	gp,gp,1
   11984:	00000073          	ecall
   11988:	f37bc2b7          	lui	t0,0xf37bc
   1198c:	40028293          	addi	t0,t0,1024 # f37bc400 <_end+0xf37a71a5>
   11990:	08518e63          	beq	gp,t0,11a2c <reset_vector+0x19e0>
   11994:	00003517          	auipc	a0,0x3
   11998:	53850513          	addi	a0,a0,1336 # 14ecc <end_signature+0xdec>
   1199c:	664010ef          	jal	ra,13000 <FN_WriteStr>
   119a0:	00003517          	auipc	a0,0x3
   119a4:	54750513          	addi	a0,a0,1351 # 14ee7 <end_signature+0xe07>
   119a8:	658010ef          	jal	ra,13000 <FN_WriteStr>
   119ac:	00003517          	auipc	a0,0x3
   119b0:	54a50513          	addi	a0,a0,1354 # 14ef6 <end_signature+0xe16>
   119b4:	64c010ef          	jal	ra,13000 <FN_WriteStr>
   119b8:	00003517          	auipc	a0,0x3
   119bc:	54650513          	addi	a0,a0,1350 # 14efe <end_signature+0xe1e>
   119c0:	640010ef          	jal	ra,13000 <FN_WriteStr>
   119c4:	00003517          	auipc	a0,0x3
   119c8:	53e50513          	addi	a0,a0,1342 # 14f02 <end_signature+0xe22>
   119cc:	634010ef          	jal	ra,13000 <FN_WriteStr>
   119d0:	00003517          	auipc	a0,0x3
   119d4:	53550513          	addi	a0,a0,1333 # 14f05 <end_signature+0xe25>
   119d8:	628010ef          	jal	ra,13000 <FN_WriteStr>
   119dc:	00003517          	auipc	a0,0x3
   119e0:	52c50513          	addi	a0,a0,1324 # 14f08 <end_signature+0xe28>
   119e4:	61c010ef          	jal	ra,13000 <FN_WriteStr>
   119e8:	00018513          	mv	a0,gp
   119ec:	630010ef          	jal	ra,1301c <FN_WriteA0>
   119f0:	00003517          	auipc	a0,0x3
   119f4:	51a50513          	addi	a0,a0,1306 # 14f0a <end_signature+0xe2a>
   119f8:	608010ef          	jal	ra,13000 <FN_WriteStr>
   119fc:	00003517          	auipc	a0,0x3
   11a00:	51450513          	addi	a0,a0,1300 # 14f10 <end_signature+0xe30>
   11a04:	5fc010ef          	jal	ra,13000 <FN_WriteStr>
   11a08:	00003517          	auipc	a0,0x3
   11a0c:	51350513          	addi	a0,a0,1299 # 14f1b <end_signature+0xe3b>
   11a10:	5f0010ef          	jal	ra,13000 <FN_WriteStr>
   11a14:	06400193          	li	gp,100
   11a18:	0000100f          	fence.i
   11a1c:	00018063          	beqz	gp,11a1c <reset_vector+0x19d0>
   11a20:	00119193          	slli	gp,gp,0x1
   11a24:	0011e193          	ori	gp,gp,1
   11a28:	00000073          	ecall
   11a2c:	00003517          	auipc	a0,0x3
   11a30:	4f150513          	addi	a0,a0,1265 # 14f1d <end_signature+0xe3d>
   11a34:	5cc010ef          	jal	ra,13000 <FN_WriteStr>
   11a38:	00003517          	auipc	a0,0x3
   11a3c:	50050513          	addi	a0,a0,1280 # 14f38 <end_signature+0xe58>
   11a40:	5c0010ef          	jal	ra,13000 <FN_WriteStr>
   11a44:	00002097          	auipc	ra,0x2
   11a48:	5d408093          	addi	ra,ra,1492 # 14018 <test_C_data>
   11a4c:	00002117          	auipc	sp,0x2
   11a50:	67810113          	addi	sp,sp,1656 # 140c4 <test_C_res>
   11a54:	0000a283          	lw	t0,0(ra)
   11a58:	00100d93          	li	s11,1
   11a5c:	01b29033          	sll	zero,t0,s11
   11a60:	00012023          	sw	zero,0(sp)
   11a64:	00000293          	li	t0,0
   11a68:	08500e63          	beq	zero,t0,11b04 <reset_vector+0x1ab8>
   11a6c:	00003517          	auipc	a0,0x3
   11a70:	4f350513          	addi	a0,a0,1267 # 14f5f <end_signature+0xe7f>
   11a74:	58c010ef          	jal	ra,13000 <FN_WriteStr>
   11a78:	00003517          	auipc	a0,0x3
   11a7c:	50250513          	addi	a0,a0,1282 # 14f7a <end_signature+0xe9a>
   11a80:	580010ef          	jal	ra,13000 <FN_WriteStr>
   11a84:	00003517          	auipc	a0,0x3
   11a88:	50550513          	addi	a0,a0,1285 # 14f89 <end_signature+0xea9>
   11a8c:	574010ef          	jal	ra,13000 <FN_WriteStr>
   11a90:	00003517          	auipc	a0,0x3
   11a94:	50150513          	addi	a0,a0,1281 # 14f91 <end_signature+0xeb1>
   11a98:	568010ef          	jal	ra,13000 <FN_WriteStr>
   11a9c:	00003517          	auipc	a0,0x3
   11aa0:	4f950513          	addi	a0,a0,1273 # 14f95 <end_signature+0xeb5>
   11aa4:	55c010ef          	jal	ra,13000 <FN_WriteStr>
   11aa8:	00003517          	auipc	a0,0x3
   11aac:	4f050513          	addi	a0,a0,1264 # 14f98 <end_signature+0xeb8>
   11ab0:	550010ef          	jal	ra,13000 <FN_WriteStr>
   11ab4:	00003517          	auipc	a0,0x3
   11ab8:	4e750513          	addi	a0,a0,1255 # 14f9b <end_signature+0xebb>
   11abc:	544010ef          	jal	ra,13000 <FN_WriteStr>
   11ac0:	00000513          	li	a0,0
   11ac4:	558010ef          	jal	ra,1301c <FN_WriteA0>
   11ac8:	00003517          	auipc	a0,0x3
   11acc:	4d550513          	addi	a0,a0,1237 # 14f9d <end_signature+0xebd>
   11ad0:	530010ef          	jal	ra,13000 <FN_WriteStr>
   11ad4:	00003517          	auipc	a0,0x3
   11ad8:	4cf50513          	addi	a0,a0,1231 # 14fa3 <end_signature+0xec3>
   11adc:	524010ef          	jal	ra,13000 <FN_WriteStr>
   11ae0:	00003517          	auipc	a0,0x3
   11ae4:	4ce50513          	addi	a0,a0,1230 # 14fae <end_signature+0xece>
   11ae8:	518010ef          	jal	ra,13000 <FN_WriteStr>
   11aec:	06400193          	li	gp,100
   11af0:	0000100f          	fence.i
   11af4:	00018063          	beqz	gp,11af4 <reset_vector+0x1aa8>
   11af8:	00119193          	slli	gp,gp,0x1
   11afc:	0011e193          	ori	gp,gp,1
   11b00:	00000073          	ecall
   11b04:	00003517          	auipc	a0,0x3
   11b08:	4ac50513          	addi	a0,a0,1196 # 14fb0 <end_signature+0xed0>
   11b0c:	4f4010ef          	jal	ra,13000 <FN_WriteStr>
   11b10:	00003517          	auipc	a0,0x3
   11b14:	4bb50513          	addi	a0,a0,1211 # 14fcb <end_signature+0xeeb>
   11b18:	4e8010ef          	jal	ra,13000 <FN_WriteStr>
   11b1c:	00002097          	auipc	ra,0x2
   11b20:	50008093          	addi	ra,ra,1280 # 1401c <test_D_data>
   11b24:	00002117          	auipc	sp,0x2
   11b28:	5a410113          	addi	sp,sp,1444 # 140c8 <test_D_res>
   11b2c:	0000a283          	lw	t0,0(ra)
   11b30:	00100d93          	li	s11,1
   11b34:	01b29033          	sll	zero,t0,s11
   11b38:	01b012b3          	sll	t0,zero,s11
   11b3c:	00012023          	sw	zero,0(sp)
   11b40:	00512223          	sw	t0,4(sp)
   11b44:	00000293          	li	t0,0
   11b48:	08500e63          	beq	zero,t0,11be4 <reset_vector+0x1b98>
   11b4c:	00003517          	auipc	a0,0x3
   11b50:	4af50513          	addi	a0,a0,1199 # 14ffb <end_signature+0xf1b>
   11b54:	4ac010ef          	jal	ra,13000 <FN_WriteStr>
   11b58:	00003517          	auipc	a0,0x3
   11b5c:	4be50513          	addi	a0,a0,1214 # 15016 <end_signature+0xf36>
   11b60:	4a0010ef          	jal	ra,13000 <FN_WriteStr>
   11b64:	00003517          	auipc	a0,0x3
   11b68:	4c150513          	addi	a0,a0,1217 # 15025 <end_signature+0xf45>
   11b6c:	494010ef          	jal	ra,13000 <FN_WriteStr>
   11b70:	00003517          	auipc	a0,0x3
   11b74:	4bd50513          	addi	a0,a0,1213 # 1502d <end_signature+0xf4d>
   11b78:	488010ef          	jal	ra,13000 <FN_WriteStr>
   11b7c:	00003517          	auipc	a0,0x3
   11b80:	4b550513          	addi	a0,a0,1205 # 15031 <end_signature+0xf51>
   11b84:	47c010ef          	jal	ra,13000 <FN_WriteStr>
   11b88:	00003517          	auipc	a0,0x3
   11b8c:	4ac50513          	addi	a0,a0,1196 # 15034 <end_signature+0xf54>
   11b90:	470010ef          	jal	ra,13000 <FN_WriteStr>
   11b94:	00003517          	auipc	a0,0x3
   11b98:	4a350513          	addi	a0,a0,1187 # 15037 <end_signature+0xf57>
   11b9c:	464010ef          	jal	ra,13000 <FN_WriteStr>
   11ba0:	00000513          	li	a0,0
   11ba4:	478010ef          	jal	ra,1301c <FN_WriteA0>
   11ba8:	00003517          	auipc	a0,0x3
   11bac:	49150513          	addi	a0,a0,1169 # 15039 <end_signature+0xf59>
   11bb0:	450010ef          	jal	ra,13000 <FN_WriteStr>
   11bb4:	00003517          	auipc	a0,0x3
   11bb8:	48b50513          	addi	a0,a0,1163 # 1503f <end_signature+0xf5f>
   11bbc:	444010ef          	jal	ra,13000 <FN_WriteStr>
   11bc0:	00003517          	auipc	a0,0x3
   11bc4:	48a50513          	addi	a0,a0,1162 # 1504a <end_signature+0xf6a>
   11bc8:	438010ef          	jal	ra,13000 <FN_WriteStr>
   11bcc:	06400193          	li	gp,100
   11bd0:	0000100f          	fence.i
   11bd4:	00018063          	beqz	gp,11bd4 <reset_vector+0x1b88>
   11bd8:	00119193          	slli	gp,gp,0x1
   11bdc:	0011e193          	ori	gp,gp,1
   11be0:	00000073          	ecall
   11be4:	00000293          	li	t0,0
   11be8:	08528e63          	beq	t0,t0,11c84 <reset_vector+0x1c38>
   11bec:	00003517          	auipc	a0,0x3
   11bf0:	46050513          	addi	a0,a0,1120 # 1504c <end_signature+0xf6c>
   11bf4:	40c010ef          	jal	ra,13000 <FN_WriteStr>
   11bf8:	00003517          	auipc	a0,0x3
   11bfc:	46f50513          	addi	a0,a0,1135 # 15067 <end_signature+0xf87>
   11c00:	400010ef          	jal	ra,13000 <FN_WriteStr>
   11c04:	00003517          	auipc	a0,0x3
   11c08:	47250513          	addi	a0,a0,1138 # 15076 <end_signature+0xf96>
   11c0c:	3f4010ef          	jal	ra,13000 <FN_WriteStr>
   11c10:	00003517          	auipc	a0,0x3
   11c14:	46e50513          	addi	a0,a0,1134 # 1507e <end_signature+0xf9e>
   11c18:	3e8010ef          	jal	ra,13000 <FN_WriteStr>
   11c1c:	00003517          	auipc	a0,0x3
   11c20:	46650513          	addi	a0,a0,1126 # 15082 <end_signature+0xfa2>
   11c24:	3dc010ef          	jal	ra,13000 <FN_WriteStr>
   11c28:	00003517          	auipc	a0,0x3
   11c2c:	45d50513          	addi	a0,a0,1117 # 15085 <end_signature+0xfa5>
   11c30:	3d0010ef          	jal	ra,13000 <FN_WriteStr>
   11c34:	00003517          	auipc	a0,0x3
   11c38:	45450513          	addi	a0,a0,1108 # 15088 <end_signature+0xfa8>
   11c3c:	3c4010ef          	jal	ra,13000 <FN_WriteStr>
   11c40:	00028513          	mv	a0,t0
   11c44:	3d8010ef          	jal	ra,1301c <FN_WriteA0>
   11c48:	00003517          	auipc	a0,0x3
   11c4c:	44250513          	addi	a0,a0,1090 # 1508a <end_signature+0xfaa>
   11c50:	3b0010ef          	jal	ra,13000 <FN_WriteStr>
   11c54:	00003517          	auipc	a0,0x3
   11c58:	43c50513          	addi	a0,a0,1084 # 15090 <end_signature+0xfb0>
   11c5c:	3a4010ef          	jal	ra,13000 <FN_WriteStr>
   11c60:	00003517          	auipc	a0,0x3
   11c64:	43b50513          	addi	a0,a0,1083 # 1509b <end_signature+0xfbb>
   11c68:	398010ef          	jal	ra,13000 <FN_WriteStr>
   11c6c:	06400193          	li	gp,100
   11c70:	0000100f          	fence.i
   11c74:	00018063          	beqz	gp,11c74 <reset_vector+0x1c28>
   11c78:	00119193          	slli	gp,gp,0x1
   11c7c:	0011e193          	ori	gp,gp,1
   11c80:	00000073          	ecall
   11c84:	00003517          	auipc	a0,0x3
   11c88:	41950513          	addi	a0,a0,1049 # 1509d <end_signature+0xfbd>
   11c8c:	374010ef          	jal	ra,13000 <FN_WriteStr>
   11c90:	00003517          	auipc	a0,0x3
   11c94:	42850513          	addi	a0,a0,1064 # 150b8 <end_signature+0xfd8>
   11c98:	368010ef          	jal	ra,13000 <FN_WriteStr>
   11c9c:	00002097          	auipc	ra,0x2
   11ca0:	38408093          	addi	ra,ra,900 # 14020 <test_E_data>
   11ca4:	00002117          	auipc	sp,0x2
   11ca8:	42c10113          	addi	sp,sp,1068 # 140d0 <test_E_res>
   11cac:	0000a183          	lw	gp,0(ra)
   11cb0:	10000237          	lui	tp,0x10000
   11cb4:	fe020213          	addi	tp,tp,-32 # fffffe0 <_end+0xffead85>
   11cb8:	100002b7          	lui	t0,0x10000
   11cbc:	fe128293          	addi	t0,t0,-31 # fffffe1 <_end+0xffead86>
   11cc0:	10000337          	lui	t1,0x10000
   11cc4:	fef30313          	addi	t1,t1,-17 # fffffef <_end+0xffead94>
   11cc8:	100003b7          	lui	t2,0x10000
   11ccc:	fff38393          	addi	t2,t2,-1 # fffffff <_end+0xffeada4>
   11cd0:	00419233          	sll	tp,gp,tp
   11cd4:	005192b3          	sll	t0,gp,t0
   11cd8:	00619333          	sll	t1,gp,t1
   11cdc:	007193b3          	sll	t2,gp,t2
   11ce0:	00412023          	sw	tp,0(sp)
   11ce4:	00512223          	sw	t0,4(sp)
   11ce8:	00612423          	sw	t1,8(sp)
   11cec:	00712623          	sw	t2,12(sp)
   11cf0:	876542b7          	lui	t0,0x87654
   11cf4:	32128293          	addi	t0,t0,801 # 87654321 <_end+0x8763f0c6>
   11cf8:	08520e63          	beq	tp,t0,11d94 <reset_vector+0x1d48>
   11cfc:	00003517          	auipc	a0,0x3
   11d00:	3f450513          	addi	a0,a0,1012 # 150f0 <end_signature+0x1010>
   11d04:	2fc010ef          	jal	ra,13000 <FN_WriteStr>
   11d08:	00003517          	auipc	a0,0x3
   11d0c:	40350513          	addi	a0,a0,1027 # 1510b <end_signature+0x102b>
   11d10:	2f0010ef          	jal	ra,13000 <FN_WriteStr>
   11d14:	00003517          	auipc	a0,0x3
   11d18:	40650513          	addi	a0,a0,1030 # 1511a <end_signature+0x103a>
   11d1c:	2e4010ef          	jal	ra,13000 <FN_WriteStr>
   11d20:	00003517          	auipc	a0,0x3
   11d24:	40250513          	addi	a0,a0,1026 # 15122 <end_signature+0x1042>
   11d28:	2d8010ef          	jal	ra,13000 <FN_WriteStr>
   11d2c:	00003517          	auipc	a0,0x3
   11d30:	3fa50513          	addi	a0,a0,1018 # 15126 <end_signature+0x1046>
   11d34:	2cc010ef          	jal	ra,13000 <FN_WriteStr>
   11d38:	00003517          	auipc	a0,0x3
   11d3c:	3f150513          	addi	a0,a0,1009 # 15129 <end_signature+0x1049>
   11d40:	2c0010ef          	jal	ra,13000 <FN_WriteStr>
   11d44:	00003517          	auipc	a0,0x3
   11d48:	3e850513          	addi	a0,a0,1000 # 1512c <end_signature+0x104c>
   11d4c:	2b4010ef          	jal	ra,13000 <FN_WriteStr>
   11d50:	00020513          	mv	a0,tp
   11d54:	2c8010ef          	jal	ra,1301c <FN_WriteA0>
   11d58:	00003517          	auipc	a0,0x3
   11d5c:	3d650513          	addi	a0,a0,982 # 1512e <end_signature+0x104e>
   11d60:	2a0010ef          	jal	ra,13000 <FN_WriteStr>
   11d64:	00003517          	auipc	a0,0x3
   11d68:	3d050513          	addi	a0,a0,976 # 15134 <end_signature+0x1054>
   11d6c:	294010ef          	jal	ra,13000 <FN_WriteStr>
   11d70:	00003517          	auipc	a0,0x3
   11d74:	3cf50513          	addi	a0,a0,975 # 1513f <end_signature+0x105f>
   11d78:	288010ef          	jal	ra,13000 <FN_WriteStr>
   11d7c:	06400193          	li	gp,100
   11d80:	0000100f          	fence.i
   11d84:	00018063          	beqz	gp,11d84 <reset_vector+0x1d38>
   11d88:	00119193          	slli	gp,gp,0x1
   11d8c:	0011e193          	ori	gp,gp,1
   11d90:	00000073          	ecall
   11d94:	a19082b7          	lui	t0,0xa1908
   11d98:	08528e63          	beq	t0,t0,11e34 <reset_vector+0x1de8>
   11d9c:	00003517          	auipc	a0,0x3
   11da0:	3a550513          	addi	a0,a0,933 # 15141 <end_signature+0x1061>
   11da4:	25c010ef          	jal	ra,13000 <FN_WriteStr>
   11da8:	00003517          	auipc	a0,0x3
   11dac:	3b450513          	addi	a0,a0,948 # 1515c <end_signature+0x107c>
   11db0:	250010ef          	jal	ra,13000 <FN_WriteStr>
   11db4:	00003517          	auipc	a0,0x3
   11db8:	3b750513          	addi	a0,a0,951 # 1516b <end_signature+0x108b>
   11dbc:	244010ef          	jal	ra,13000 <FN_WriteStr>
   11dc0:	00003517          	auipc	a0,0x3
   11dc4:	3b350513          	addi	a0,a0,947 # 15173 <end_signature+0x1093>
   11dc8:	238010ef          	jal	ra,13000 <FN_WriteStr>
   11dcc:	00003517          	auipc	a0,0x3
   11dd0:	3ab50513          	addi	a0,a0,939 # 15177 <end_signature+0x1097>
   11dd4:	22c010ef          	jal	ra,13000 <FN_WriteStr>
   11dd8:	00003517          	auipc	a0,0x3
   11ddc:	3a250513          	addi	a0,a0,930 # 1517a <end_signature+0x109a>
   11de0:	220010ef          	jal	ra,13000 <FN_WriteStr>
   11de4:	00003517          	auipc	a0,0x3
   11de8:	39950513          	addi	a0,a0,921 # 1517d <end_signature+0x109d>
   11dec:	214010ef          	jal	ra,13000 <FN_WriteStr>
   11df0:	00028513          	mv	a0,t0
   11df4:	228010ef          	jal	ra,1301c <FN_WriteA0>
   11df8:	00003517          	auipc	a0,0x3
   11dfc:	38750513          	addi	a0,a0,903 # 1517f <end_signature+0x109f>
   11e00:	200010ef          	jal	ra,13000 <FN_WriteStr>
   11e04:	00003517          	auipc	a0,0x3
   11e08:	38150513          	addi	a0,a0,897 # 15185 <end_signature+0x10a5>
   11e0c:	1f4010ef          	jal	ra,13000 <FN_WriteStr>
   11e10:	00003517          	auipc	a0,0x3
   11e14:	38050513          	addi	a0,a0,896 # 15190 <end_signature+0x10b0>
   11e18:	1e8010ef          	jal	ra,13000 <FN_WriteStr>
   11e1c:	06400193          	li	gp,100
   11e20:	0000100f          	fence.i
   11e24:	00018063          	beqz	gp,11e24 <reset_vector+0x1dd8>
   11e28:	00119193          	slli	gp,gp,0x1
   11e2c:	0011e193          	ori	gp,gp,1
   11e30:	00000073          	ecall
   11e34:	a19082b7          	lui	t0,0xa1908
   11e38:	08530e63          	beq	t1,t0,11ed4 <reset_vector+0x1e88>
   11e3c:	00003517          	auipc	a0,0x3
   11e40:	35650513          	addi	a0,a0,854 # 15192 <end_signature+0x10b2>
   11e44:	1bc010ef          	jal	ra,13000 <FN_WriteStr>
   11e48:	00003517          	auipc	a0,0x3
   11e4c:	36550513          	addi	a0,a0,869 # 151ad <end_signature+0x10cd>
   11e50:	1b0010ef          	jal	ra,13000 <FN_WriteStr>
   11e54:	00003517          	auipc	a0,0x3
   11e58:	36850513          	addi	a0,a0,872 # 151bc <end_signature+0x10dc>
   11e5c:	1a4010ef          	jal	ra,13000 <FN_WriteStr>
   11e60:	00003517          	auipc	a0,0x3
   11e64:	36450513          	addi	a0,a0,868 # 151c4 <end_signature+0x10e4>
   11e68:	198010ef          	jal	ra,13000 <FN_WriteStr>
   11e6c:	00003517          	auipc	a0,0x3
   11e70:	35c50513          	addi	a0,a0,860 # 151c8 <end_signature+0x10e8>
   11e74:	18c010ef          	jal	ra,13000 <FN_WriteStr>
   11e78:	00003517          	auipc	a0,0x3
   11e7c:	35350513          	addi	a0,a0,851 # 151cb <end_signature+0x10eb>
   11e80:	180010ef          	jal	ra,13000 <FN_WriteStr>
   11e84:	00003517          	auipc	a0,0x3
   11e88:	34a50513          	addi	a0,a0,842 # 151ce <end_signature+0x10ee>
   11e8c:	174010ef          	jal	ra,13000 <FN_WriteStr>
   11e90:	00030513          	mv	a0,t1
   11e94:	188010ef          	jal	ra,1301c <FN_WriteA0>
   11e98:	00003517          	auipc	a0,0x3
   11e9c:	33850513          	addi	a0,a0,824 # 151d0 <end_signature+0x10f0>
   11ea0:	160010ef          	jal	ra,13000 <FN_WriteStr>
   11ea4:	00003517          	auipc	a0,0x3
   11ea8:	33250513          	addi	a0,a0,818 # 151d6 <end_signature+0x10f6>
   11eac:	154010ef          	jal	ra,13000 <FN_WriteStr>
   11eb0:	00003517          	auipc	a0,0x3
   11eb4:	33150513          	addi	a0,a0,817 # 151e1 <end_signature+0x1101>
   11eb8:	148010ef          	jal	ra,13000 <FN_WriteStr>
   11ebc:	06400193          	li	gp,100
   11ec0:	0000100f          	fence.i
   11ec4:	00018063          	beqz	gp,11ec4 <reset_vector+0x1e78>
   11ec8:	00119193          	slli	gp,gp,0x1
   11ecc:	0011e193          	ori	gp,gp,1
   11ed0:	00000073          	ecall
   11ed4:	800002b7          	lui	t0,0x80000
   11ed8:	08538e63          	beq	t2,t0,11f74 <reset_vector+0x1f28>
   11edc:	00003517          	auipc	a0,0x3
   11ee0:	30750513          	addi	a0,a0,775 # 151e3 <end_signature+0x1103>
   11ee4:	11c010ef          	jal	ra,13000 <FN_WriteStr>
   11ee8:	00003517          	auipc	a0,0x3
   11eec:	31650513          	addi	a0,a0,790 # 151fe <end_signature+0x111e>
   11ef0:	110010ef          	jal	ra,13000 <FN_WriteStr>
   11ef4:	00003517          	auipc	a0,0x3
   11ef8:	31950513          	addi	a0,a0,793 # 1520d <end_signature+0x112d>
   11efc:	104010ef          	jal	ra,13000 <FN_WriteStr>
   11f00:	00003517          	auipc	a0,0x3
   11f04:	31550513          	addi	a0,a0,789 # 15215 <end_signature+0x1135>
   11f08:	0f8010ef          	jal	ra,13000 <FN_WriteStr>
   11f0c:	00003517          	auipc	a0,0x3
   11f10:	30d50513          	addi	a0,a0,781 # 15219 <end_signature+0x1139>
   11f14:	0ec010ef          	jal	ra,13000 <FN_WriteStr>
   11f18:	00003517          	auipc	a0,0x3
   11f1c:	30450513          	addi	a0,a0,772 # 1521c <end_signature+0x113c>
   11f20:	0e0010ef          	jal	ra,13000 <FN_WriteStr>
   11f24:	00003517          	auipc	a0,0x3
   11f28:	2fb50513          	addi	a0,a0,763 # 1521f <end_signature+0x113f>
   11f2c:	0d4010ef          	jal	ra,13000 <FN_WriteStr>
   11f30:	00038513          	mv	a0,t2
   11f34:	0e8010ef          	jal	ra,1301c <FN_WriteA0>
   11f38:	00003517          	auipc	a0,0x3
   11f3c:	2e950513          	addi	a0,a0,745 # 15221 <end_signature+0x1141>
   11f40:	0c0010ef          	jal	ra,13000 <FN_WriteStr>
   11f44:	00003517          	auipc	a0,0x3
   11f48:	2e350513          	addi	a0,a0,739 # 15227 <end_signature+0x1147>
   11f4c:	0b4010ef          	jal	ra,13000 <FN_WriteStr>
   11f50:	00003517          	auipc	a0,0x3
   11f54:	2e250513          	addi	a0,a0,738 # 15232 <end_signature+0x1152>
   11f58:	0a8010ef          	jal	ra,13000 <FN_WriteStr>
   11f5c:	06400193          	li	gp,100
   11f60:	0000100f          	fence.i
   11f64:	00018063          	beqz	gp,11f64 <reset_vector+0x1f18>
   11f68:	00119193          	slli	gp,gp,0x1
   11f6c:	0011e193          	ori	gp,gp,1
   11f70:	00000073          	ecall
   11f74:	00003517          	auipc	a0,0x3
   11f78:	2c050513          	addi	a0,a0,704 # 15234 <end_signature+0x1154>
   11f7c:	084010ef          	jal	ra,13000 <FN_WriteStr>
   11f80:	00003517          	auipc	a0,0x3
   11f84:	2cf50513          	addi	a0,a0,719 # 1524f <end_signature+0x116f>
   11f88:	078010ef          	jal	ra,13000 <FN_WriteStr>
   11f8c:	0000100f          	fence.i
   11f90:	00100193          	li	gp,1
   11f94:	00000073          	ecall
   11f98:	c0001073          	unimp
	...

Disassembly of section .tohost:

00012000 <tohost>:
	...

00012100 <fromhost>:
	...

Disassembly of section .text:

00013000 <FN_WriteStr>:
   13000:	00050293          	mv	t0,a0
   13004:	0002c503          	lbu	a0,0(t0) # 80000000 <_end+0x7ffeada5>
   13008:	00128293          	addi	t0,t0,1
   1300c:	00050663          	beqz	a0,13018 <FN_WriteStr+0x18>
   13010:	0005200b          	0x5200b
   13014:	ff1ff06f          	j	13004 <FN_WriteStr+0x4>
   13018:	00008067          	ret

0001301c <FN_WriteA0>:
   1301c:	00050293          	mv	t0,a0
   13020:	fff00513          	li	a0,-1
   13024:	01f55513          	srli	a0,a0,0x1f
   13028:	00155513          	srli	a0,a0,0x1
   1302c:	02051463          	bnez	a0,13054 <FN_WriteA0_64>

00013030 <FN_WriteA0_32>:
   13030:	00800313          	li	t1,8
   13034:	00439393          	slli	t2,t2,0x4
   13038:	00f2f513          	andi	a0,t0,15
   1303c:	0042d293          	srli	t0,t0,0x4
   13040:	00a3e3b3          	or	t2,t2,a0
   13044:	fff30313          	addi	t1,t1,-1
   13048:	fe0316e3          	bnez	t1,13034 <FN_WriteA0_32+0x4>
   1304c:	00800313          	li	t1,8
   13050:	0240006f          	j	13074 <FN_WriteA0_common>

00013054 <FN_WriteA0_64>:
   13054:	01000313          	li	t1,16
   13058:	00439393          	slli	t2,t2,0x4
   1305c:	00f2f513          	andi	a0,t0,15
   13060:	0042d293          	srli	t0,t0,0x4
   13064:	00a3e3b3          	or	t2,t2,a0
   13068:	fff30313          	addi	t1,t1,-1
   1306c:	fe0316e3          	bnez	t1,13058 <FN_WriteA0_64+0x4>
   13070:	01000313          	li	t1,16

00013074 <FN_WriteA0_common>:
   13074:	00a00293          	li	t0,10
   13078:	00f3f513          	andi	a0,t2,15
   1307c:	00554663          	blt	a0,t0,13088 <FN_WriteA0_common+0x14>
   13080:	05750513          	addi	a0,a0,87
   13084:	0080006f          	j	1308c <FN_WriteA0_common+0x18>
   13088:	03050513          	addi	a0,a0,48
   1308c:	0005200b          	0x5200b
   13090:	0043d393          	srli	t2,t2,0x4
   13094:	fff30313          	addi	t1,t1,-1
   13098:	fe0310e3          	bnez	t1,13078 <FN_WriteA0_common+0x4>
   1309c:	00008067          	ret

Disassembly of section .data:

00014000 <test_A1_data>:
   14000:	0000                	unimp
	...

00014004 <test_A2_data>:
   14004:	0001                	nop
	...

00014008 <test_A3_data>:
   14008:	ffff                	0xffff
   1400a:	ffff                	0xffff

0001400c <test_A4_data>:
   1400c:	ffff                	0xffff
   1400e:	7fff                	0x7fff

00014010 <test_A5_data>:
   14010:	0000                	unimp
   14012:	8000                	0x8000

00014014 <test_B_data>:
   14014:	ef10                	fsw	fa2,24(a4)
   14016:	abcd                	j	14608 <end_signature+0x528>

00014018 <test_C_data>:
   14018:	5678                	lw	a4,108(a2)
   1401a:	1234                	addi	a3,sp,296

0001401c <test_D_data>:
   1401c:	ba98                	fsd	fa4,48(a3)
   1401e:	fedc                	fsw	fa5,60(a3)

00014020 <test_E_data>:
   14020:	4321                	li	t1,8
   14022:	8765                	srai	a4,a4,0x19
	...

00014030 <begin_signature>:
   14030:	ffff                	0xffff
   14032:	ffff                	0xffff
   14034:	ffff                	0xffff
   14036:	ffff                	0xffff
   14038:	ffff                	0xffff
   1403a:	ffff                	0xffff
   1403c:	ffff                	0xffff
   1403e:	ffff                	0xffff
   14040:	ffff                	0xffff
   14042:	ffff                	0xffff
   14044:	ffff                	0xffff
   14046:	ffff                	0xffff

00014048 <test_A2_res>:
   14048:	ffff                	0xffff
   1404a:	ffff                	0xffff
   1404c:	ffff                	0xffff
   1404e:	ffff                	0xffff
   14050:	ffff                	0xffff
   14052:	ffff                	0xffff
   14054:	ffff                	0xffff
   14056:	ffff                	0xffff
   14058:	ffff                	0xffff
   1405a:	ffff                	0xffff
   1405c:	ffff                	0xffff
   1405e:	ffff                	0xffff

00014060 <test_A3_res>:
   14060:	ffff                	0xffff
   14062:	ffff                	0xffff
   14064:	ffff                	0xffff
   14066:	ffff                	0xffff
   14068:	ffff                	0xffff
   1406a:	ffff                	0xffff
   1406c:	ffff                	0xffff
   1406e:	ffff                	0xffff
   14070:	ffff                	0xffff
   14072:	ffff                	0xffff
   14074:	ffff                	0xffff
   14076:	ffff                	0xffff

00014078 <test_A4_res>:
   14078:	ffff                	0xffff
   1407a:	ffff                	0xffff
   1407c:	ffff                	0xffff
   1407e:	ffff                	0xffff
   14080:	ffff                	0xffff
   14082:	ffff                	0xffff
   14084:	ffff                	0xffff
   14086:	ffff                	0xffff
   14088:	ffff                	0xffff
   1408a:	ffff                	0xffff
   1408c:	ffff                	0xffff
   1408e:	ffff                	0xffff

00014090 <test_A5_res>:
   14090:	ffff                	0xffff
   14092:	ffff                	0xffff
   14094:	ffff                	0xffff
   14096:	ffff                	0xffff
   14098:	ffff                	0xffff
   1409a:	ffff                	0xffff
   1409c:	ffff                	0xffff
   1409e:	ffff                	0xffff
   140a0:	ffff                	0xffff
   140a2:	ffff                	0xffff
   140a4:	ffff                	0xffff
   140a6:	ffff                	0xffff

000140a8 <test_B_res>:
   140a8:	ffff                	0xffff
   140aa:	ffff                	0xffff
   140ac:	ffff                	0xffff
   140ae:	ffff                	0xffff
   140b0:	ffff                	0xffff
   140b2:	ffff                	0xffff
   140b4:	ffff                	0xffff
   140b6:	ffff                	0xffff
   140b8:	ffff                	0xffff
   140ba:	ffff                	0xffff
   140bc:	ffff                	0xffff
   140be:	ffff                	0xffff
   140c0:	ffff                	0xffff
   140c2:	ffff                	0xffff

000140c4 <test_C_res>:
   140c4:	ffff                	0xffff
   140c6:	ffff                	0xffff

000140c8 <test_D_res>:
   140c8:	ffff                	0xffff
   140ca:	ffff                	0xffff
   140cc:	ffff                	0xffff
   140ce:	ffff                	0xffff

000140d0 <test_E_res>:
   140d0:	ffff                	0xffff
   140d2:	ffff                	0xffff
   140d4:	ffff                	0xffff
   140d6:	ffff                	0xffff
   140d8:	ffff                	0xffff
   140da:	ffff                	0xffff
   140dc:	ffff                	0xffff
   140de:	ffff                	0xffff

Disassembly of section .data.string:

000140e0 <_end-0x117b>:
   140e0:	7341                	lui	t1,0xffff0
   140e2:	74726573          	csrrsi	a0,0x747,4
   140e6:	6f69                	lui	t5,0x1a
   140e8:	206e                	fld	ft0,216(sp)
   140ea:	6976                	flw	fs2,92(sp)
   140ec:	74616c6f          	jal	s8,2a832 <_end+0x155d7>
   140f0:	6f69                	lui	t5,0x1a
   140f2:	3a6e                	fld	fs4,248(sp)
   140f4:	6620                	flw	fs0,72(a2)
   140f6:	6c69                	lui	s8,0x1a
   140f8:	2065                	jal	141a0 <end_signature+0xc0>
   140fa:	7300                	flw	fs0,32(a4)
   140fc:	6372                	flw	ft6,28(sp)
   140fe:	532d492f          	0x532d492f
   14102:	4c4c                	lw	a1,28(s0)
   14104:	302d                	jal	1392e <FN_WriteA0_common+0x8ba>
   14106:	2e31                	jal	14422 <end_signature+0x342>
   14108:	202c0053          	fsgnj.s	ft0,fs8,ft2
   1410c:	696c                	flw	fa1,84(a0)
   1410e:	656e                	flw	fa0,216(sp)
   14110:	0020                	addi	s0,sp,8
   14112:	3134                	fld	fa3,96(a0)
   14114:	3a00                	fld	fs0,48(a2)
   14116:	0020                	addi	s0,sp,8
   14118:	3078                	fld	fa4,224(s0)
   1411a:	2800                	fld	fs0,16(s0)
   1411c:	2900                	fld	fs0,16(a0)
   1411e:	2120                	fld	fs0,64(a0)
   14120:	203d                	jal	1414e <end_signature+0x6e>
   14122:	3000                	fld	fs0,32(s0)
   14124:	3078                	fld	fa4,224(s0)
   14126:	3030                	fld	fa2,96(s0)
   14128:	3030                	fld	fa2,96(s0)
   1412a:	3030                	fld	fa2,96(s0)
   1412c:	0030                	addi	a2,sp,8
   1412e:	000a                	c.slli	zero,0x2
   14130:	65542023          	sw	s5,1600(s0)
   14134:	42207473          	csrrci	s0,0x422,0
   14138:	6765                	lui	a4,0x19
   1413a:	6e69                	lui	t3,0x1a
   1413c:	5220                	lw	s0,96(a2)
   1413e:	7365                	lui	t1,0xffff9
   14140:	7265                	lui	tp,0xffff9
   14142:	6576                	flw	fa0,92(sp)
   14144:	2064                	fld	fs1,192(s0)
   14146:	6572                	flw	fa0,28(sp)
   14148:	72207367          	0x72207367
   1414c:	2861                	jal	141e4 <end_signature+0x104>
   1414e:	3178                	fld	fa4,224(a0)
   14150:	2029                	jal	1415a <end_signature+0x7a>
   14152:	3061                	jal	139da <FN_WriteA0_common+0x966>
   14154:	7828                	flw	fa0,112(s0)
   14156:	3031                	jal	13962 <FN_WriteA0_common+0x8ee>
   14158:	2029                	jal	14162 <end_signature+0x82>
   1415a:	3074                	fld	fa3,224(s0)
   1415c:	7828                	flw	fa0,112(s0)
   1415e:	2935                	jal	1459a <end_signature+0x4ba>
   14160:	000a                	c.slli	zero,0x2
   14162:	65542023          	sw	s5,1600(s0)
   14166:	70207473          	csrrci	s0,0x702,0
   1416a:	7261                	lui	tp,0xffff8
   1416c:	2074                	fld	fa3,192(s0)
   1416e:	3141                	jal	13dee <FN_WriteA0_common+0xd7a>
   14170:	2d20                	fld	fs0,88(a0)
   14172:	6720                	flw	fs0,72(a4)
   14174:	6e65                	lui	t3,0x19
   14176:	7265                	lui	tp,0xffff9
   14178:	6c61                	lui	s8,0x18
   1417a:	7420                	flw	fs0,104(s0)
   1417c:	7365                	lui	t1,0xffff9
   1417e:	2074                	fld	fa3,192(s0)
   14180:	7620666f          	jal	a2,1a8e2 <_end+0x5687>
   14184:	6c61                	lui	s8,0x18
   14186:	6575                	lui	a0,0x1d
   14188:	3020                	fld	fs0,96(s0)
   1418a:	7720                	flw	fs0,104(a4)
   1418c:	7469                	lui	s0,0xffffa
   1418e:	2068                	fld	fa0,192(s0)
   14190:	2c30                	fld	fa2,88(s0)
   14192:	3120                	fld	fs0,96(a0)
   14194:	202c                	fld	fa1,64(s0)
   14196:	312d                	jal	13dc0 <FN_WriteA0_common+0xd4c>
   14198:	202c                	fld	fa1,64(s0)
   1419a:	494d                	li	s2,19
   1419c:	2c4e                	fld	fs8,208(sp)
   1419e:	4d20                	lw	s0,88(a0)
   141a0:	5841                	li	a6,-16
   141a2:	2820                	fld	fs0,80(s0)
   141a4:	6235                	lui	tp,0xd
   141a6:	7469                	lui	s0,0xffffa
   141a8:	2029                	jal	141b2 <end_signature+0xd2>
   141aa:	6572                	flw	fa0,28(sp)
   141ac:	74736967          	0x74736967
   141b0:	7265                	lui	tp,0xffff9
   141b2:	7620                	flw	fs0,104(a2)
   141b4:	6c61                	lui	s8,0x18
   141b6:	6575                	lui	a0,0x1d
   141b8:	41000a73          	0x41000a73
   141bc:	72657373          	csrrci	t1,0x726,10
   141c0:	6974                	flw	fa3,84(a0)
   141c2:	76206e6f          	jal	t3,1a924 <_end+0x56c9>
   141c6:	6f69                	lui	t5,0x1a
   141c8:	616c                	flw	fa1,68(a0)
   141ca:	6974                	flw	fa3,84(a0)
   141cc:	203a6e6f          	jal	t3,babce <_end+0xa5973>
   141d0:	6966                	flw	fs2,88(sp)
   141d2:	656c                	flw	fa1,76(a0)
   141d4:	0020                	addi	s0,sp,8
   141d6:	2f637273          	csrrci	tp,0x2f6,6
   141da:	2d49                	jal	1486c <end_signature+0x78c>
   141dc:	2d4c4c53          	0x2d4c4c53
   141e0:	3130                	fld	fa2,96(a0)
   141e2:	532e                	lw	t1,232(sp)
   141e4:	2c00                	fld	fs0,24(s0)
   141e6:	6c20                	flw	fs0,88(s0)
   141e8:	6e69                	lui	t3,0x1a
   141ea:	2065                	jal	14292 <end_signature+0x1b2>
   141ec:	3800                	fld	fs0,48(s0)
   141ee:	0030                	addi	a2,sp,8
   141f0:	203a                	fld	ft0,392(sp)
   141f2:	7800                	flw	fs0,48(s0)
   141f4:	00280033          	add	zero,a6,sp
   141f8:	2029                	jal	14202 <end_signature+0x122>
   141fa:	3d21                	jal	14012 <test_A5_data+0x2>
   141fc:	0020                	addi	s0,sp,8
   141fe:	7830                	flw	fa2,112(s0)
   14200:	3030                	fld	fa2,96(s0)
   14202:	3030                	fld	fa2,96(s0)
   14204:	3030                	fld	fa2,96(s0)
   14206:	3030                	fld	fa2,96(s0)
   14208:	0a00                	addi	s0,sp,272
   1420a:	4100                	lw	s0,0(a0)
   1420c:	72657373          	csrrci	t1,0x726,10
   14210:	6974                	flw	fa3,84(a0)
   14212:	76206e6f          	jal	t3,1a974 <_end+0x5719>
   14216:	6f69                	lui	t5,0x1a
   14218:	616c                	flw	fa1,68(a0)
   1421a:	6974                	flw	fa3,84(a0)
   1421c:	203a6e6f          	jal	t3,bac1e <_end+0xa59c3>
   14220:	6966                	flw	fs2,88(sp)
   14222:	656c                	flw	fa1,76(a0)
   14224:	0020                	addi	s0,sp,8
   14226:	2f637273          	csrrci	tp,0x2f6,6
   1422a:	2d49                	jal	148bc <end_signature+0x7dc>
   1422c:	2d4c4c53          	0x2d4c4c53
   14230:	3130                	fld	fa2,96(a0)
   14232:	532e                	lw	t1,232(sp)
   14234:	2c00                	fld	fs0,24(s0)
   14236:	6c20                	flw	fs0,88(s0)
   14238:	6e69                	lui	t3,0x1a
   1423a:	2065                	jal	142e2 <end_signature+0x202>
   1423c:	3800                	fld	fs0,48(s0)
   1423e:	0031                	c.nop	12
   14240:	203a                	fld	ft0,392(sp)
   14242:	7800                	flw	fs0,48(s0)
   14244:	0034                	addi	a3,sp,8
   14246:	0028                	addi	a0,sp,8
   14248:	2029                	jal	14252 <end_signature+0x172>
   1424a:	3d21                	jal	14062 <test_A3_res+0x2>
   1424c:	0020                	addi	s0,sp,8
   1424e:	7830                	flw	fa2,112(s0)
   14250:	3030                	fld	fa2,96(s0)
   14252:	3030                	fld	fa2,96(s0)
   14254:	3030                	fld	fa2,96(s0)
   14256:	3030                	fld	fa2,96(s0)
   14258:	0a00                	addi	s0,sp,272
   1425a:	4100                	lw	s0,0(a0)
   1425c:	72657373          	csrrci	t1,0x726,10
   14260:	6974                	flw	fa3,84(a0)
   14262:	76206e6f          	jal	t3,1a9c4 <_end+0x5769>
   14266:	6f69                	lui	t5,0x1a
   14268:	616c                	flw	fa1,68(a0)
   1426a:	6974                	flw	fa3,84(a0)
   1426c:	203a6e6f          	jal	t3,bac6e <_end+0xa5a13>
   14270:	6966                	flw	fs2,88(sp)
   14272:	656c                	flw	fa1,76(a0)
   14274:	0020                	addi	s0,sp,8
   14276:	2f637273          	csrrci	tp,0x2f6,6
   1427a:	2d49                	jal	1490c <end_signature+0x82c>
   1427c:	2d4c4c53          	0x2d4c4c53
   14280:	3130                	fld	fa2,96(a0)
   14282:	532e                	lw	t1,232(sp)
   14284:	2c00                	fld	fs0,24(s0)
   14286:	6c20                	flw	fs0,88(s0)
   14288:	6e69                	lui	t3,0x1a
   1428a:	2065                	jal	14332 <end_signature+0x252>
   1428c:	3800                	fld	fs0,48(s0)
   1428e:	0032                	c.slli	zero,0xc
   14290:	203a                	fld	ft0,392(sp)
   14292:	7800                	flw	fs0,48(s0)
   14294:	0035                	c.nop	13
   14296:	0028                	addi	a0,sp,8
   14298:	2029                	jal	142a2 <end_signature+0x1c2>
   1429a:	3d21                	jal	140b2 <test_B_res+0xa>
   1429c:	0020                	addi	s0,sp,8
   1429e:	7830                	flw	fa2,112(s0)
   142a0:	3030                	fld	fa2,96(s0)
   142a2:	3030                	fld	fa2,96(s0)
   142a4:	3030                	fld	fa2,96(s0)
   142a6:	3030                	fld	fa2,96(s0)
   142a8:	0a00                	addi	s0,sp,272
   142aa:	4100                	lw	s0,0(a0)
   142ac:	72657373          	csrrci	t1,0x726,10
   142b0:	6974                	flw	fa3,84(a0)
   142b2:	76206e6f          	jal	t3,1aa14 <_end+0x57b9>
   142b6:	6f69                	lui	t5,0x1a
   142b8:	616c                	flw	fa1,68(a0)
   142ba:	6974                	flw	fa3,84(a0)
   142bc:	203a6e6f          	jal	t3,bacbe <_end+0xa5a63>
   142c0:	6966                	flw	fs2,88(sp)
   142c2:	656c                	flw	fa1,76(a0)
   142c4:	0020                	addi	s0,sp,8
   142c6:	2f637273          	csrrci	tp,0x2f6,6
   142ca:	2d49                	jal	1495c <end_signature+0x87c>
   142cc:	2d4c4c53          	0x2d4c4c53
   142d0:	3130                	fld	fa2,96(a0)
   142d2:	532e                	lw	t1,232(sp)
   142d4:	2c00                	fld	fs0,24(s0)
   142d6:	6c20                	flw	fs0,88(s0)
   142d8:	6e69                	lui	t3,0x1a
   142da:	2065                	jal	14382 <end_signature+0x2a2>
   142dc:	3800                	fld	fs0,48(s0)
   142de:	203a0033          	0x203a0033
   142e2:	7800                	flw	fs0,48(s0)
   142e4:	0036                	c.slli	zero,0xd
   142e6:	0028                	addi	a0,sp,8
   142e8:	2029                	jal	142f2 <end_signature+0x212>
   142ea:	3d21                	jal	14102 <end_signature+0x22>
   142ec:	0020                	addi	s0,sp,8
   142ee:	7830                	flw	fa2,112(s0)
   142f0:	3030                	fld	fa2,96(s0)
   142f2:	3030                	fld	fa2,96(s0)
   142f4:	3030                	fld	fa2,96(s0)
   142f6:	3030                	fld	fa2,96(s0)
   142f8:	0a00                	addi	s0,sp,272
   142fa:	4100                	lw	s0,0(a0)
   142fc:	72657373          	csrrci	t1,0x726,10
   14300:	6974                	flw	fa3,84(a0)
   14302:	76206e6f          	jal	t3,1aa64 <_end+0x5809>
   14306:	6f69                	lui	t5,0x1a
   14308:	616c                	flw	fa1,68(a0)
   1430a:	6974                	flw	fa3,84(a0)
   1430c:	203a6e6f          	jal	t3,bad0e <_end+0xa5ab3>
   14310:	6966                	flw	fs2,88(sp)
   14312:	656c                	flw	fa1,76(a0)
   14314:	0020                	addi	s0,sp,8
   14316:	2f637273          	csrrci	tp,0x2f6,6
   1431a:	2d49                	jal	149ac <end_signature+0x8cc>
   1431c:	2d4c4c53          	0x2d4c4c53
   14320:	3130                	fld	fa2,96(a0)
   14322:	532e                	lw	t1,232(sp)
   14324:	2c00                	fld	fs0,24(s0)
   14326:	6c20                	flw	fs0,88(s0)
   14328:	6e69                	lui	t3,0x1a
   1432a:	2065                	jal	143d2 <end_signature+0x2f2>
   1432c:	3800                	fld	fs0,48(s0)
   1432e:	0034                	addi	a3,sp,8
   14330:	203a                	fld	ft0,392(sp)
   14332:	7800                	flw	fs0,48(s0)
   14334:	00280037          	lui	zero,0x280
   14338:	2029                	jal	14342 <end_signature+0x262>
   1433a:	3d21                	jal	14152 <end_signature+0x72>
   1433c:	0020                	addi	s0,sp,8
   1433e:	7830                	flw	fa2,112(s0)
   14340:	3030                	fld	fa2,96(s0)
   14342:	3030                	fld	fa2,96(s0)
   14344:	3030                	fld	fa2,96(s0)
   14346:	3030                	fld	fa2,96(s0)
   14348:	0a00                	addi	s0,sp,272
   1434a:	4100                	lw	s0,0(a0)
   1434c:	72657373          	csrrci	t1,0x726,10
   14350:	6974                	flw	fa3,84(a0)
   14352:	76206e6f          	jal	t3,1aab4 <_end+0x5859>
   14356:	6f69                	lui	t5,0x1a
   14358:	616c                	flw	fa1,68(a0)
   1435a:	6974                	flw	fa3,84(a0)
   1435c:	203a6e6f          	jal	t3,bad5e <_end+0xa5b03>
   14360:	6966                	flw	fs2,88(sp)
   14362:	656c                	flw	fa1,76(a0)
   14364:	0020                	addi	s0,sp,8
   14366:	2f637273          	csrrci	tp,0x2f6,6
   1436a:	2d49                	jal	149fc <end_signature+0x91c>
   1436c:	2d4c4c53          	0x2d4c4c53
   14370:	3130                	fld	fa2,96(a0)
   14372:	532e                	lw	t1,232(sp)
   14374:	2c00                	fld	fs0,24(s0)
   14376:	6c20                	flw	fs0,88(s0)
   14378:	6e69                	lui	t3,0x1a
   1437a:	2065                	jal	14422 <end_signature+0x342>
   1437c:	3800                	fld	fs0,48(s0)
   1437e:	0035                	c.nop	13
   14380:	203a                	fld	ft0,392(sp)
   14382:	7800                	flw	fs0,48(s0)
   14384:	0038                	addi	a4,sp,8
   14386:	0028                	addi	a0,sp,8
   14388:	2029                	jal	14392 <end_signature+0x2b2>
   1438a:	3d21                	jal	141a2 <end_signature+0xc2>
   1438c:	0020                	addi	s0,sp,8
   1438e:	7830                	flw	fa2,112(s0)
   14390:	3030                	fld	fa2,96(s0)
   14392:	3030                	fld	fa2,96(s0)
   14394:	3030                	fld	fa2,96(s0)
   14396:	3030                	fld	fa2,96(s0)
   14398:	0a00                	addi	s0,sp,272
   1439a:	2300                	fld	fs0,0(a4)
   1439c:	5420                	lw	s0,104(s0)
   1439e:	7365                	lui	t1,0xffff9
   143a0:	2074                	fld	fa3,192(s0)
   143a2:	6170                	flw	fa2,68(a0)
   143a4:	7472                	flw	fs0,60(sp)
   143a6:	4120                	lw	s0,64(a0)
   143a8:	2031                	jal	143b4 <end_signature+0x2d4>
   143aa:	2d20                	fld	fs0,88(a0)
   143ac:	4320                	lw	s0,64(a4)
   143ae:	6c706d6f          	jal	s10,1b274 <_end+0x6019>
   143b2:	7465                	lui	s0,0xffff9
   143b4:	0a65                	addi	s4,s4,25
   143b6:	2300                	fld	fs0,0(a4)
   143b8:	5420                	lw	s0,104(s0)
   143ba:	7365                	lui	t1,0xffff9
   143bc:	2074                	fld	fa3,192(s0)
   143be:	6170                	flw	fa2,68(a0)
   143c0:	7472                	flw	fs0,60(sp)
   143c2:	4120                	lw	s0,64(a0)
   143c4:	2032                	fld	ft0,264(sp)
   143c6:	202d                	jal	143f0 <end_signature+0x310>
   143c8:	656e6567          	0x656e6567
   143cc:	6172                	flw	ft2,28(sp)
   143ce:	206c                	fld	fa1,192(s0)
   143d0:	6574                	flw	fa3,76(a0)
   143d2:	6f207473          	csrrci	s0,0x6f2,0
   143d6:	2066                	fld	ft0,88(sp)
   143d8:	6176                	flw	ft2,92(sp)
   143da:	756c                	flw	fa1,108(a0)
   143dc:	2065                	jal	14484 <end_signature+0x3a4>
   143de:	2031                	jal	143ea <end_signature+0x30a>
   143e0:	68746977          	0x68746977
   143e4:	3020                	fld	fs0,96(s0)
   143e6:	202c                	fld	fa1,64(s0)
   143e8:	2c31                	jal	14604 <end_signature+0x524>
   143ea:	2d20                	fld	fs0,88(a0)
   143ec:	2c31                	jal	14608 <end_signature+0x528>
   143ee:	4d20                	lw	s0,88(a0)
   143f0:	4e49                	li	t3,18
   143f2:	202c                	fld	fa1,64(s0)
   143f4:	414d                	li	sp,19
   143f6:	2058                	fld	fa4,128(s0)
   143f8:	3528                	fld	fa0,104(a0)
   143fa:	6962                	flw	fs2,24(sp)
   143fc:	2974                	fld	fa3,208(a0)
   143fe:	7220                	flw	fs0,96(a2)
   14400:	6765                	lui	a4,0x19
   14402:	7369                	lui	t1,0xffffa
   14404:	6574                	flw	fa3,76(a0)
   14406:	2072                	fld	ft0,280(sp)
   14408:	6176                	flw	ft2,92(sp)
   1440a:	756c                	flw	fa1,108(a0)
   1440c:	7365                	lui	t1,0xffff9
   1440e:	000a                	c.slli	zero,0x2
   14410:	7341                	lui	t1,0xffff0
   14412:	74726573          	csrrsi	a0,0x747,4
   14416:	6f69                	lui	t5,0x1a
   14418:	206e                	fld	ft0,216(sp)
   1441a:	6976                	flw	fs2,92(sp)
   1441c:	74616c6f          	jal	s8,2ab62 <_end+0x15907>
   14420:	6f69                	lui	t5,0x1a
   14422:	3a6e                	fld	fs4,248(sp)
   14424:	6620                	flw	fs0,72(a2)
   14426:	6c69                	lui	s8,0x1a
   14428:	2065                	jal	144d0 <end_signature+0x3f0>
   1442a:	7300                	flw	fs0,32(a4)
   1442c:	6372                	flw	ft6,28(sp)
   1442e:	532d492f          	0x532d492f
   14432:	4c4c                	lw	a1,28(s0)
   14434:	302d                	jal	13c5e <FN_WriteA0_common+0xbea>
   14436:	2e31                	jal	14752 <end_signature+0x672>
   14438:	202c0053          	fsgnj.s	ft0,fs8,ft2
   1443c:	696c                	flw	fa1,84(a0)
   1443e:	656e                	flw	fa0,216(sp)
   14440:	0020                	addi	s0,sp,8
   14442:	3231                	jal	13d4e <FN_WriteA0_common+0xcda>
   14444:	0031                	c.nop	12
   14446:	203a                	fld	ft0,392(sp)
   14448:	7800                	flw	fs0,48(s0)
   1444a:	0038                	addi	a4,sp,8
   1444c:	0028                	addi	a0,sp,8
   1444e:	2029                	jal	14458 <end_signature+0x378>
   14450:	3d21                	jal	14268 <end_signature+0x188>
   14452:	0020                	addi	s0,sp,8
   14454:	7830                	flw	fa2,112(s0)
   14456:	3030                	fld	fa2,96(s0)
   14458:	3030                	fld	fa2,96(s0)
   1445a:	3030                	fld	fa2,96(s0)
   1445c:	3130                	fld	fa2,96(a0)
   1445e:	0a00                	addi	s0,sp,272
   14460:	4100                	lw	s0,0(a0)
   14462:	72657373          	csrrci	t1,0x726,10
   14466:	6974                	flw	fa3,84(a0)
   14468:	76206e6f          	jal	t3,1abca <_end+0x596f>
   1446c:	6f69                	lui	t5,0x1a
   1446e:	616c                	flw	fa1,68(a0)
   14470:	6974                	flw	fa3,84(a0)
   14472:	203a6e6f          	jal	t3,bae74 <_end+0xa5c19>
   14476:	6966                	flw	fs2,88(sp)
   14478:	656c                	flw	fa1,76(a0)
   1447a:	0020                	addi	s0,sp,8
   1447c:	2f637273          	csrrci	tp,0x2f6,6
   14480:	2d49                	jal	14b12 <end_signature+0xa32>
   14482:	2d4c4c53          	0x2d4c4c53
   14486:	3130                	fld	fa2,96(a0)
   14488:	532e                	lw	t1,232(sp)
   1448a:	2c00                	fld	fs0,24(s0)
   1448c:	6c20                	flw	fs0,88(s0)
   1448e:	6e69                	lui	t3,0x1a
   14490:	2065                	jal	14538 <end_signature+0x458>
   14492:	3100                	fld	fs0,32(a0)
   14494:	3232                	fld	ft4,296(sp)
   14496:	3a00                	fld	fs0,48(a2)
   14498:	0020                	addi	s0,sp,8
   1449a:	3978                	fld	fa4,240(a0)
   1449c:	2800                	fld	fs0,16(s0)
   1449e:	2900                	fld	fs0,16(a0)
   144a0:	2120                	fld	fs0,64(a0)
   144a2:	203d                	jal	144d0 <end_signature+0x3f0>
   144a4:	3000                	fld	fs0,32(s0)
   144a6:	3078                	fld	fa4,224(s0)
   144a8:	3030                	fld	fa2,96(s0)
   144aa:	3030                	fld	fa2,96(s0)
   144ac:	3030                	fld	fa2,96(s0)
   144ae:	0032                	c.slli	zero,0xc
   144b0:	000a                	c.slli	zero,0x2
   144b2:	7341                	lui	t1,0xffff0
   144b4:	74726573          	csrrsi	a0,0x747,4
   144b8:	6f69                	lui	t5,0x1a
   144ba:	206e                	fld	ft0,216(sp)
   144bc:	6976                	flw	fs2,92(sp)
   144be:	74616c6f          	jal	s8,2ac04 <_end+0x159a9>
   144c2:	6f69                	lui	t5,0x1a
   144c4:	3a6e                	fld	fs4,248(sp)
   144c6:	6620                	flw	fs0,72(a2)
   144c8:	6c69                	lui	s8,0x1a
   144ca:	2065                	jal	14572 <end_signature+0x492>
   144cc:	7300                	flw	fs0,32(a4)
   144ce:	6372                	flw	ft6,28(sp)
   144d0:	532d492f          	0x532d492f
   144d4:	4c4c                	lw	a1,28(s0)
   144d6:	302d                	jal	13d00 <FN_WriteA0_common+0xc8c>
   144d8:	2e31                	jal	147f4 <end_signature+0x714>
   144da:	202c0053          	fsgnj.s	ft0,fs8,ft2
   144de:	696c                	flw	fa1,84(a0)
   144e0:	656e                	flw	fa0,216(sp)
   144e2:	0020                	addi	s0,sp,8
   144e4:	3231                	jal	13df0 <FN_WriteA0_common+0xd7c>
   144e6:	0034                	addi	a3,sp,8
   144e8:	203a                	fld	ft0,392(sp)
   144ea:	7800                	flw	fs0,48(s0)
   144ec:	3131                	jal	140f8 <end_signature+0x18>
   144ee:	2800                	fld	fs0,16(s0)
   144f0:	2900                	fld	fs0,16(a0)
   144f2:	2120                	fld	fs0,64(a0)
   144f4:	203d                	jal	14522 <end_signature+0x442>
   144f6:	3000                	fld	fs0,32(s0)
   144f8:	3878                	fld	fa4,240(s0)
   144fa:	3030                	fld	fa2,96(s0)
   144fc:	3030                	fld	fa2,96(s0)
   144fe:	3030                	fld	fa2,96(s0)
   14500:	0030                	addi	a2,sp,8
   14502:	000a                	c.slli	zero,0x2
   14504:	7341                	lui	t1,0xffff0
   14506:	74726573          	csrrsi	a0,0x747,4
   1450a:	6f69                	lui	t5,0x1a
   1450c:	206e                	fld	ft0,216(sp)
   1450e:	6976                	flw	fs2,92(sp)
   14510:	74616c6f          	jal	s8,2ac56 <_end+0x159fb>
   14514:	6f69                	lui	t5,0x1a
   14516:	3a6e                	fld	fs4,248(sp)
   14518:	6620                	flw	fs0,72(a2)
   1451a:	6c69                	lui	s8,0x1a
   1451c:	2065                	jal	145c4 <end_signature+0x4e4>
   1451e:	7300                	flw	fs0,32(a4)
   14520:	6372                	flw	ft6,28(sp)
   14522:	532d492f          	0x532d492f
   14526:	4c4c                	lw	a1,28(s0)
   14528:	302d                	jal	13d52 <FN_WriteA0_common+0xcde>
   1452a:	2e31                	jal	14846 <end_signature+0x766>
   1452c:	202c0053          	fsgnj.s	ft0,fs8,ft2
   14530:	696c                	flw	fa1,84(a0)
   14532:	656e                	flw	fa0,216(sp)
   14534:	0020                	addi	s0,sp,8
   14536:	3231                	jal	13e42 <FN_WriteA0_common+0xdce>
   14538:	0035                	c.nop	13
   1453a:	203a                	fld	ft0,392(sp)
   1453c:	7800                	flw	fs0,48(s0)
   1453e:	3231                	jal	13e4a <FN_WriteA0_common+0xdd6>
   14540:	2800                	fld	fs0,16(s0)
   14542:	2900                	fld	fs0,16(a0)
   14544:	2120                	fld	fs0,64(a0)
   14546:	203d                	jal	14574 <end_signature+0x494>
   14548:	3000                	fld	fs0,32(s0)
   1454a:	3078                	fld	fa4,224(s0)
   1454c:	3030                	fld	fa2,96(s0)
   1454e:	3030                	fld	fa2,96(s0)
   14550:	3030                	fld	fa2,96(s0)
   14552:	0031                	c.nop	12
   14554:	000a                	c.slli	zero,0x2
   14556:	7341                	lui	t1,0xffff0
   14558:	74726573          	csrrsi	a0,0x747,4
   1455c:	6f69                	lui	t5,0x1a
   1455e:	206e                	fld	ft0,216(sp)
   14560:	6976                	flw	fs2,92(sp)
   14562:	74616c6f          	jal	s8,2aca8 <_end+0x15a4d>
   14566:	6f69                	lui	t5,0x1a
   14568:	3a6e                	fld	fs4,248(sp)
   1456a:	6620                	flw	fs0,72(a2)
   1456c:	6c69                	lui	s8,0x1a
   1456e:	2065                	jal	14616 <end_signature+0x536>
   14570:	7300                	flw	fs0,32(a4)
   14572:	6372                	flw	ft6,28(sp)
   14574:	532d492f          	0x532d492f
   14578:	4c4c                	lw	a1,28(s0)
   1457a:	302d                	jal	13da4 <FN_WriteA0_common+0xd30>
   1457c:	2e31                	jal	14898 <end_signature+0x7b8>
   1457e:	202c0053          	fsgnj.s	ft0,fs8,ft2
   14582:	696c                	flw	fa1,84(a0)
   14584:	656e                	flw	fa0,216(sp)
   14586:	0020                	addi	s0,sp,8
   14588:	3231                	jal	13e94 <FN_WriteA0_common+0xe20>
   1458a:	0036                	c.slli	zero,0xd
   1458c:	203a                	fld	ft0,392(sp)
   1458e:	7800                	flw	fs0,48(s0)
   14590:	3331                	jal	1429c <end_signature+0x1bc>
   14592:	2800                	fld	fs0,16(s0)
   14594:	2900                	fld	fs0,16(a0)
   14596:	2120                	fld	fs0,64(a0)
   14598:	203d                	jal	145c6 <end_signature+0x4e6>
   1459a:	3000                	fld	fs0,32(s0)
   1459c:	3078                	fld	fa4,224(s0)
   1459e:	3030                	fld	fa2,96(s0)
   145a0:	3031                	jal	13dac <FN_WriteA0_common+0xd38>
   145a2:	3030                	fld	fa2,96(s0)
   145a4:	0030                	addi	a2,sp,8
   145a6:	000a                	c.slli	zero,0x2
   145a8:	65542023          	sw	s5,1600(s0) # ffff9640 <_end+0xfffe43e5>
   145ac:	70207473          	csrrci	s0,0x702,0
   145b0:	7261                	lui	tp,0xffff8
   145b2:	2074                	fld	fa3,192(s0)
   145b4:	3241                	jal	13f34 <FN_WriteA0_common+0xec0>
   145b6:	2020                	fld	fs0,64(s0)
   145b8:	202d                	jal	145e2 <end_signature+0x502>
   145ba:	706d6f43          	fmadd.s	ft10,fs10,ft6,fa4,unknown
   145be:	656c                	flw	fa1,76(a0)
   145c0:	6574                	flw	fa3,76(a0)
   145c2:	000a                	c.slli	zero,0x2
   145c4:	65542023          	sw	s5,1600(s0)
   145c8:	70207473          	csrrci	s0,0x702,0
   145cc:	7261                	lui	tp,0xffff8
   145ce:	2074                	fld	fa3,192(s0)
   145d0:	3341                	jal	14350 <end_signature+0x270>
   145d2:	2d20                	fld	fs0,88(a0)
   145d4:	6720                	flw	fs0,72(a4)
   145d6:	6e65                	lui	t3,0x19
   145d8:	7265                	lui	tp,0xffff9
   145da:	6c61                	lui	s8,0x18
   145dc:	7420                	flw	fs0,104(s0)
   145de:	7365                	lui	t1,0xffff9
   145e0:	2074                	fld	fa3,192(s0)
   145e2:	7620666f          	jal	a2,1ad44 <_end+0x5ae9>
   145e6:	6c61                	lui	s8,0x18
   145e8:	6575                	lui	a0,0x1d
   145ea:	2d20                	fld	fs0,88(a0)
   145ec:	2031                	jal	145f8 <end_signature+0x518>
   145ee:	68746977          	0x68746977
   145f2:	3020                	fld	fs0,96(s0)
   145f4:	202c                	fld	fa1,64(s0)
   145f6:	2c31                	jal	14812 <end_signature+0x732>
   145f8:	2d20                	fld	fs0,88(a0)
   145fa:	2c31                	jal	14816 <end_signature+0x736>
   145fc:	4d20                	lw	s0,88(a0)
   145fe:	4e49                	li	t3,18
   14600:	202c                	fld	fa1,64(s0)
   14602:	414d                	li	sp,19
   14604:	2058                	fld	fa4,128(s0)
   14606:	3528                	fld	fa0,104(a0)
   14608:	6962                	flw	fs2,24(sp)
   1460a:	2974                	fld	fa3,208(a0)
   1460c:	7220                	flw	fs0,96(a2)
   1460e:	6765                	lui	a4,0x19
   14610:	7369                	lui	t1,0xffffa
   14612:	6574                	flw	fa3,76(a0)
   14614:	2072                	fld	ft0,280(sp)
   14616:	6176                	flw	ft2,92(sp)
   14618:	756c                	flw	fa1,108(a0)
   1461a:	7365                	lui	t1,0xffff9
   1461c:	000a                	c.slli	zero,0x2
   1461e:	7341                	lui	t1,0xffff0
   14620:	74726573          	csrrsi	a0,0x747,4
   14624:	6f69                	lui	t5,0x1a
   14626:	206e                	fld	ft0,216(sp)
   14628:	6976                	flw	fs2,92(sp)
   1462a:	74616c6f          	jal	s8,2ad70 <_end+0x15b15>
   1462e:	6f69                	lui	t5,0x1a
   14630:	3a6e                	fld	fs4,248(sp)
   14632:	6620                	flw	fs0,72(a2)
   14634:	6c69                	lui	s8,0x1a
   14636:	2065                	jal	146de <end_signature+0x5fe>
   14638:	7300                	flw	fs0,32(a4)
   1463a:	6372                	flw	ft6,28(sp)
   1463c:	532d492f          	0x532d492f
   14640:	4c4c                	lw	a1,28(s0)
   14642:	302d                	jal	13e6c <FN_WriteA0_common+0xdf8>
   14644:	2e31                	jal	14960 <end_signature+0x880>
   14646:	202c0053          	fsgnj.s	ft0,fs8,ft2
   1464a:	696c                	flw	fa1,84(a0)
   1464c:	656e                	flw	fa0,216(sp)
   1464e:	0020                	addi	s0,sp,8
   14650:	3631                	jal	1415c <end_signature+0x7c>
   14652:	0032                	c.slli	zero,0xc
   14654:	203a                	fld	ft0,392(sp)
   14656:	7800                	flw	fs0,48(s0)
   14658:	3331                	jal	14364 <end_signature+0x284>
   1465a:	2800                	fld	fs0,16(s0)
   1465c:	2900                	fld	fs0,16(a0)
   1465e:	2120                	fld	fs0,64(a0)
   14660:	203d                	jal	1468e <end_signature+0x5ae>
   14662:	3000                	fld	fs0,32(s0)
   14664:	4678                	lw	a4,76(a2)
   14666:	4646                	lw	a2,80(sp)
   14668:	4646                	lw	a2,80(sp)
   1466a:	4646                	lw	a2,80(sp)
   1466c:	0046                	c.slli	zero,0x11
   1466e:	000a                	c.slli	zero,0x2
   14670:	7341                	lui	t1,0xffff0
   14672:	74726573          	csrrsi	a0,0x747,4
   14676:	6f69                	lui	t5,0x1a
   14678:	206e                	fld	ft0,216(sp)
   1467a:	6976                	flw	fs2,92(sp)
   1467c:	74616c6f          	jal	s8,2adc2 <_end+0x15b67>
   14680:	6f69                	lui	t5,0x1a
   14682:	3a6e                	fld	fs4,248(sp)
   14684:	6620                	flw	fs0,72(a2)
   14686:	6c69                	lui	s8,0x1a
   14688:	2065                	jal	14730 <end_signature+0x650>
   1468a:	7300                	flw	fs0,32(a4)
   1468c:	6372                	flw	ft6,28(sp)
   1468e:	532d492f          	0x532d492f
   14692:	4c4c                	lw	a1,28(s0)
   14694:	302d                	jal	13ebe <FN_WriteA0_common+0xe4a>
   14696:	2e31                	jal	149b2 <end_signature+0x8d2>
   14698:	202c0053          	fsgnj.s	ft0,fs8,ft2
   1469c:	696c                	flw	fa1,84(a0)
   1469e:	656e                	flw	fa0,216(sp)
   146a0:	0020                	addi	s0,sp,8
   146a2:	3631                	jal	141ae <end_signature+0xce>
   146a4:	203a0033          	0x203a0033
   146a8:	7800                	flw	fs0,48(s0)
   146aa:	3431                	jal	140b6 <test_B_res+0xe>
   146ac:	2800                	fld	fs0,16(s0)
   146ae:	2900                	fld	fs0,16(a0)
   146b0:	2120                	fld	fs0,64(a0)
   146b2:	203d                	jal	146e0 <end_signature+0x600>
   146b4:	3000                	fld	fs0,32(s0)
   146b6:	4678                	lw	a4,76(a2)
   146b8:	4646                	lw	a2,80(sp)
   146ba:	4646                	lw	a2,80(sp)
   146bc:	4646                	lw	a2,80(sp)
   146be:	0045                	c.nop	17
   146c0:	000a                	c.slli	zero,0x2
   146c2:	7341                	lui	t1,0xffff0
   146c4:	74726573          	csrrsi	a0,0x747,4
   146c8:	6f69                	lui	t5,0x1a
   146ca:	206e                	fld	ft0,216(sp)
   146cc:	6976                	flw	fs2,92(sp)
   146ce:	74616c6f          	jal	s8,2ae14 <_end+0x15bb9>
   146d2:	6f69                	lui	t5,0x1a
   146d4:	3a6e                	fld	fs4,248(sp)
   146d6:	6620                	flw	fs0,72(a2)
   146d8:	6c69                	lui	s8,0x1a
   146da:	2065                	jal	14782 <end_signature+0x6a2>
   146dc:	7300                	flw	fs0,32(a4)
   146de:	6372                	flw	ft6,28(sp)
   146e0:	532d492f          	0x532d492f
   146e4:	4c4c                	lw	a1,28(s0)
   146e6:	302d                	jal	13f10 <FN_WriteA0_common+0xe9c>
   146e8:	2e31                	jal	14a04 <end_signature+0x924>
   146ea:	202c0053          	fsgnj.s	ft0,fs8,ft2
   146ee:	696c                	flw	fa1,84(a0)
   146f0:	656e                	flw	fa0,216(sp)
   146f2:	0020                	addi	s0,sp,8
   146f4:	3631                	jal	14200 <end_signature+0x120>
   146f6:	0034                	addi	a3,sp,8
   146f8:	203a                	fld	ft0,392(sp)
   146fa:	7800                	flw	fs0,48(s0)
   146fc:	3531                	jal	14508 <end_signature+0x428>
   146fe:	2800                	fld	fs0,16(s0)
   14700:	2900                	fld	fs0,16(a0)
   14702:	2120                	fld	fs0,64(a0)
   14704:	203d                	jal	14732 <end_signature+0x652>
   14706:	3000                	fld	fs0,32(s0)
   14708:	4678                	lw	a4,76(a2)
   1470a:	4646                	lw	a2,80(sp)
   1470c:	3846                	fld	fa6,112(sp)
   1470e:	3030                	fld	fa2,96(s0)
   14710:	0030                	addi	a2,sp,8
   14712:	000a                	c.slli	zero,0x2
   14714:	7341                	lui	t1,0xffff0
   14716:	74726573          	csrrsi	a0,0x747,4
   1471a:	6f69                	lui	t5,0x1a
   1471c:	206e                	fld	ft0,216(sp)
   1471e:	6976                	flw	fs2,92(sp)
   14720:	74616c6f          	jal	s8,2ae66 <_end+0x15c0b>
   14724:	6f69                	lui	t5,0x1a
   14726:	3a6e                	fld	fs4,248(sp)
   14728:	6620                	flw	fs0,72(a2)
   1472a:	6c69                	lui	s8,0x1a
   1472c:	2065                	jal	147d4 <end_signature+0x6f4>
   1472e:	7300                	flw	fs0,32(a4)
   14730:	6372                	flw	ft6,28(sp)
   14732:	532d492f          	0x532d492f
   14736:	4c4c                	lw	a1,28(s0)
   14738:	302d                	jal	13f62 <FN_WriteA0_common+0xeee>
   1473a:	2e31                	jal	14a56 <end_signature+0x976>
   1473c:	202c0053          	fsgnj.s	ft0,fs8,ft2
   14740:	696c                	flw	fa1,84(a0)
   14742:	656e                	flw	fa0,216(sp)
   14744:	0020                	addi	s0,sp,8
   14746:	3631                	jal	14252 <end_signature+0x172>
   14748:	0035                	c.nop	13
   1474a:	203a                	fld	ft0,392(sp)
   1474c:	7800                	flw	fs0,48(s0)
   1474e:	3631                	jal	1425a <end_signature+0x17a>
   14750:	2800                	fld	fs0,16(s0)
   14752:	2900                	fld	fs0,16(a0)
   14754:	2120                	fld	fs0,64(a0)
   14756:	203d                	jal	14784 <end_signature+0x6a4>
   14758:	3000                	fld	fs0,32(s0)
   1475a:	3878                	fld	fa4,240(s0)
   1475c:	3030                	fld	fa2,96(s0)
   1475e:	3030                	fld	fa2,96(s0)
   14760:	3030                	fld	fa2,96(s0)
   14762:	0030                	addi	a2,sp,8
   14764:	000a                	c.slli	zero,0x2
   14766:	7341                	lui	t1,0xffff0
   14768:	74726573          	csrrsi	a0,0x747,4
   1476c:	6f69                	lui	t5,0x1a
   1476e:	206e                	fld	ft0,216(sp)
   14770:	6976                	flw	fs2,92(sp)
   14772:	74616c6f          	jal	s8,2aeb8 <_end+0x15c5d>
   14776:	6f69                	lui	t5,0x1a
   14778:	3a6e                	fld	fs4,248(sp)
   1477a:	6620                	flw	fs0,72(a2)
   1477c:	6c69                	lui	s8,0x1a
   1477e:	2065                	jal	14826 <end_signature+0x746>
   14780:	7300                	flw	fs0,32(a4)
   14782:	6372                	flw	ft6,28(sp)
   14784:	532d492f          	0x532d492f
   14788:	4c4c                	lw	a1,28(s0)
   1478a:	302d                	jal	13fb4 <FN_WriteA0_common+0xf40>
   1478c:	2e31                	jal	14aa8 <end_signature+0x9c8>
   1478e:	202c0053          	fsgnj.s	ft0,fs8,ft2
   14792:	696c                	flw	fa1,84(a0)
   14794:	656e                	flw	fa0,216(sp)
   14796:	0020                	addi	s0,sp,8
   14798:	3631                	jal	142a4 <end_signature+0x1c4>
   1479a:	0036                	c.slli	zero,0xd
   1479c:	203a                	fld	ft0,392(sp)
   1479e:	7800                	flw	fs0,48(s0)
   147a0:	3731                	jal	146ac <end_signature+0x5cc>
   147a2:	2800                	fld	fs0,16(s0)
   147a4:	2900                	fld	fs0,16(a0)
   147a6:	2120                	fld	fs0,64(a0)
   147a8:	203d                	jal	147d6 <end_signature+0x6f6>
   147aa:	3000                	fld	fs0,32(s0)
   147ac:	4678                	lw	a4,76(a2)
   147ae:	4646                	lw	a2,80(sp)
   147b0:	4646                	lw	a2,80(sp)
   147b2:	4646                	lw	a2,80(sp)
   147b4:	0046                	c.slli	zero,0x11
   147b6:	000a                	c.slli	zero,0x2
   147b8:	7341                	lui	t1,0xffff0
   147ba:	74726573          	csrrsi	a0,0x747,4
   147be:	6f69                	lui	t5,0x1a
   147c0:	206e                	fld	ft0,216(sp)
   147c2:	6976                	flw	fs2,92(sp)
   147c4:	74616c6f          	jal	s8,2af0a <_end+0x15caf>
   147c8:	6f69                	lui	t5,0x1a
   147ca:	3a6e                	fld	fs4,248(sp)
   147cc:	6620                	flw	fs0,72(a2)
   147ce:	6c69                	lui	s8,0x1a
   147d0:	2065                	jal	14878 <end_signature+0x798>
   147d2:	7300                	flw	fs0,32(a4)
   147d4:	6372                	flw	ft6,28(sp)
   147d6:	532d492f          	0x532d492f
   147da:	4c4c                	lw	a1,28(s0)
   147dc:	302d                	jal	14006 <test_A2_data+0x2>
   147de:	2e31                	jal	14afa <end_signature+0xa1a>
   147e0:	202c0053          	fsgnj.s	ft0,fs8,ft2
   147e4:	696c                	flw	fa1,84(a0)
   147e6:	656e                	flw	fa0,216(sp)
   147e8:	0020                	addi	s0,sp,8
   147ea:	3631                	jal	142f6 <end_signature+0x216>
   147ec:	203a0037          	lui	zero,0x203a0
   147f0:	7800                	flw	fs0,48(s0)
   147f2:	3831                	jal	1400e <test_A4_data+0x2>
   147f4:	2800                	fld	fs0,16(s0)
   147f6:	2900                	fld	fs0,16(a0)
   147f8:	2120                	fld	fs0,64(a0)
   147fa:	203d                	jal	14828 <end_signature+0x748>
   147fc:	3000                	fld	fs0,32(s0)
   147fe:	4678                	lw	a4,76(a2)
   14800:	4646                	lw	a2,80(sp)
   14802:	3046                	fld	ft0,112(sp)
   14804:	3030                	fld	fa2,96(s0)
   14806:	0030                	addi	a2,sp,8
   14808:	000a                	c.slli	zero,0x2
   1480a:	65542023          	sw	s5,1600(s0)
   1480e:	70207473          	csrrci	s0,0x702,0
   14812:	7261                	lui	tp,0xffff8
   14814:	2074                	fld	fa3,192(s0)
   14816:	3341                	jal	14596 <end_signature+0x4b6>
   14818:	2020                	fld	fs0,64(s0)
   1481a:	202d                	jal	14844 <end_signature+0x764>
   1481c:	706d6f43          	fmadd.s	ft10,fs10,ft6,fa4,unknown
   14820:	656c                	flw	fa1,76(a0)
   14822:	6574                	flw	fa3,76(a0)
   14824:	000a                	c.slli	zero,0x2
   14826:	65542023          	sw	s5,1600(s0)
   1482a:	70207473          	csrrci	s0,0x702,0
   1482e:	7261                	lui	tp,0xffff8
   14830:	2074                	fld	fa3,192(s0)
   14832:	3441                	jal	142b2 <end_signature+0x1d2>
   14834:	2d20                	fld	fs0,88(a0)
   14836:	6720                	flw	fs0,72(a4)
   14838:	6e65                	lui	t3,0x19
   1483a:	7265                	lui	tp,0xffff9
   1483c:	6c61                	lui	s8,0x18
   1483e:	7420                	flw	fs0,104(s0)
   14840:	7365                	lui	t1,0xffff9
   14842:	2074                	fld	fa3,192(s0)
   14844:	7620666f          	jal	a2,1afa6 <_end+0x5d4b>
   14848:	6c61                	lui	s8,0x18
   1484a:	6575                	lui	a0,0x1d
   1484c:	3020                	fld	fs0,96(s0)
   1484e:	3778                	fld	fa4,232(a4)
   14850:	4646                	lw	a2,80(sp)
   14852:	4646                	lw	a2,80(sp)
   14854:	4646                	lw	a2,80(sp)
   14856:	2046                	fld	ft0,80(sp)
   14858:	68746977          	0x68746977
   1485c:	3020                	fld	fs0,96(s0)
   1485e:	202c                	fld	fa1,64(s0)
   14860:	2c31                	jal	14a7c <end_signature+0x99c>
   14862:	2d20                	fld	fs0,88(a0)
   14864:	2c31                	jal	14a80 <end_signature+0x9a0>
   14866:	4d20                	lw	s0,88(a0)
   14868:	4e49                	li	t3,18
   1486a:	202c                	fld	fa1,64(s0)
   1486c:	414d                	li	sp,19
   1486e:	2058                	fld	fa4,128(s0)
   14870:	3528                	fld	fa0,104(a0)
   14872:	6962                	flw	fs2,24(sp)
   14874:	2974                	fld	fa3,208(a0)
   14876:	7220                	flw	fs0,96(a2)
   14878:	6765                	lui	a4,0x19
   1487a:	7369                	lui	t1,0xffffa
   1487c:	6574                	flw	fa3,76(a0)
   1487e:	2072                	fld	ft0,280(sp)
   14880:	6176                	flw	ft2,92(sp)
   14882:	756c                	flw	fa1,108(a0)
   14884:	7365                	lui	t1,0xffff9
   14886:	000a                	c.slli	zero,0x2
   14888:	7341                	lui	t1,0xffff0
   1488a:	74726573          	csrrsi	a0,0x747,4
   1488e:	6f69                	lui	t5,0x1a
   14890:	206e                	fld	ft0,216(sp)
   14892:	6976                	flw	fs2,92(sp)
   14894:	74616c6f          	jal	s8,2afda <_end+0x15d7f>
   14898:	6f69                	lui	t5,0x1a
   1489a:	3a6e                	fld	fs4,248(sp)
   1489c:	6620                	flw	fs0,72(a2)
   1489e:	6c69                	lui	s8,0x1a
   148a0:	2065                	jal	14948 <end_signature+0x868>
   148a2:	7300                	flw	fs0,32(a4)
   148a4:	6372                	flw	ft6,28(sp)
   148a6:	532d492f          	0x532d492f
   148aa:	4c4c                	lw	a1,28(s0)
   148ac:	302d                	jal	140d6 <test_E_res+0x6>
   148ae:	2e31                	jal	14bca <end_signature+0xaea>
   148b0:	202c0053          	fsgnj.s	ft0,fs8,ft2
   148b4:	696c                	flw	fa1,84(a0)
   148b6:	656e                	flw	fa0,216(sp)
   148b8:	0020                	addi	s0,sp,8
   148ba:	3032                	fld	ft0,296(sp)
   148bc:	203a0033          	0x203a0033
   148c0:	7800                	flw	fs0,48(s0)
   148c2:	3831                	jal	140de <test_E_res+0xe>
   148c4:	2800                	fld	fs0,16(s0)
   148c6:	2900                	fld	fs0,16(a0)
   148c8:	2120                	fld	fs0,64(a0)
   148ca:	203d                	jal	148f8 <end_signature+0x818>
   148cc:	3000                	fld	fs0,32(s0)
   148ce:	3778                	fld	fa4,232(a4)
   148d0:	4646                	lw	a2,80(sp)
   148d2:	4646                	lw	a2,80(sp)
   148d4:	4646                	lw	a2,80(sp)
   148d6:	0046                	c.slli	zero,0x11
   148d8:	000a                	c.slli	zero,0x2
   148da:	7341                	lui	t1,0xffff0
   148dc:	74726573          	csrrsi	a0,0x747,4
   148e0:	6f69                	lui	t5,0x1a
   148e2:	206e                	fld	ft0,216(sp)
   148e4:	6976                	flw	fs2,92(sp)
   148e6:	74616c6f          	jal	s8,2b02c <_end+0x15dd1>
   148ea:	6f69                	lui	t5,0x1a
   148ec:	3a6e                	fld	fs4,248(sp)
   148ee:	6620                	flw	fs0,72(a2)
   148f0:	6c69                	lui	s8,0x1a
   148f2:	2065                	jal	1499a <end_signature+0x8ba>
   148f4:	7300                	flw	fs0,32(a4)
   148f6:	6372                	flw	ft6,28(sp)
   148f8:	532d492f          	0x532d492f
   148fc:	4c4c                	lw	a1,28(s0)
   148fe:	302d                	jal	14128 <end_signature+0x48>
   14900:	2e31                	jal	14c1c <end_signature+0xb3c>
   14902:	202c0053          	fsgnj.s	ft0,fs8,ft2
   14906:	696c                	flw	fa1,84(a0)
   14908:	656e                	flw	fa0,216(sp)
   1490a:	0020                	addi	s0,sp,8
   1490c:	3032                	fld	ft0,296(sp)
   1490e:	0034                	addi	a3,sp,8
   14910:	203a                	fld	ft0,392(sp)
   14912:	7800                	flw	fs0,48(s0)
   14914:	3931                	jal	14530 <end_signature+0x450>
   14916:	2800                	fld	fs0,16(s0)
   14918:	2900                	fld	fs0,16(a0)
   1491a:	2120                	fld	fs0,64(a0)
   1491c:	203d                	jal	1494a <end_signature+0x86a>
   1491e:	3000                	fld	fs0,32(s0)
   14920:	4678                	lw	a4,76(a2)
   14922:	4646                	lw	a2,80(sp)
   14924:	4646                	lw	a2,80(sp)
   14926:	4646                	lw	a2,80(sp)
   14928:	0045                	c.nop	17
   1492a:	000a                	c.slli	zero,0x2
   1492c:	7341                	lui	t1,0xffff0
   1492e:	74726573          	csrrsi	a0,0x747,4
   14932:	6f69                	lui	t5,0x1a
   14934:	206e                	fld	ft0,216(sp)
   14936:	6976                	flw	fs2,92(sp)
   14938:	74616c6f          	jal	s8,2b07e <_end+0x15e23>
   1493c:	6f69                	lui	t5,0x1a
   1493e:	3a6e                	fld	fs4,248(sp)
   14940:	6620                	flw	fs0,72(a2)
   14942:	6c69                	lui	s8,0x1a
   14944:	2065                	jal	149ec <end_signature+0x90c>
   14946:	7300                	flw	fs0,32(a4)
   14948:	6372                	flw	ft6,28(sp)
   1494a:	532d492f          	0x532d492f
   1494e:	4c4c                	lw	a1,28(s0)
   14950:	302d                	jal	1417a <end_signature+0x9a>
   14952:	2e31                	jal	14c6e <end_signature+0xb8e>
   14954:	202c0053          	fsgnj.s	ft0,fs8,ft2
   14958:	696c                	flw	fa1,84(a0)
   1495a:	656e                	flw	fa0,216(sp)
   1495c:	0020                	addi	s0,sp,8
   1495e:	3032                	fld	ft0,296(sp)
   14960:	0035                	c.nop	13
   14962:	203a                	fld	ft0,392(sp)
   14964:	7800                	flw	fs0,48(s0)
   14966:	3032                	fld	ft0,296(sp)
   14968:	2800                	fld	fs0,16(s0)
   1496a:	2900                	fld	fs0,16(a0)
   1496c:	2120                	fld	fs0,64(a0)
   1496e:	203d                	jal	1499c <end_signature+0x8bc>
   14970:	3000                	fld	fs0,32(s0)
   14972:	4678                	lw	a4,76(a2)
   14974:	4646                	lw	a2,80(sp)
   14976:	3846                	fld	fa6,112(sp)
   14978:	3030                	fld	fa2,96(s0)
   1497a:	0030                	addi	a2,sp,8
   1497c:	000a                	c.slli	zero,0x2
   1497e:	7341                	lui	t1,0xffff0
   14980:	74726573          	csrrsi	a0,0x747,4
   14984:	6f69                	lui	t5,0x1a
   14986:	206e                	fld	ft0,216(sp)
   14988:	6976                	flw	fs2,92(sp)
   1498a:	74616c6f          	jal	s8,2b0d0 <_end+0x15e75>
   1498e:	6f69                	lui	t5,0x1a
   14990:	3a6e                	fld	fs4,248(sp)
   14992:	6620                	flw	fs0,72(a2)
   14994:	6c69                	lui	s8,0x1a
   14996:	2065                	jal	14a3e <end_signature+0x95e>
   14998:	7300                	flw	fs0,32(a4)
   1499a:	6372                	flw	ft6,28(sp)
   1499c:	532d492f          	0x532d492f
   149a0:	4c4c                	lw	a1,28(s0)
   149a2:	302d                	jal	141cc <end_signature+0xec>
   149a4:	2e31                	jal	14cc0 <end_signature+0xbe0>
   149a6:	202c0053          	fsgnj.s	ft0,fs8,ft2
   149aa:	696c                	flw	fa1,84(a0)
   149ac:	656e                	flw	fa0,216(sp)
   149ae:	0020                	addi	s0,sp,8
   149b0:	3032                	fld	ft0,296(sp)
   149b2:	0036                	c.slli	zero,0xd
   149b4:	203a                	fld	ft0,392(sp)
   149b6:	7800                	flw	fs0,48(s0)
   149b8:	3132                	fld	ft2,296(sp)
   149ba:	2800                	fld	fs0,16(s0)
   149bc:	2900                	fld	fs0,16(a0)
   149be:	2120                	fld	fs0,64(a0)
   149c0:	203d                	jal	149ee <end_signature+0x90e>
   149c2:	3000                	fld	fs0,32(s0)
   149c4:	3878                	fld	fa4,240(s0)
   149c6:	3030                	fld	fa2,96(s0)
   149c8:	3030                	fld	fa2,96(s0)
   149ca:	3030                	fld	fa2,96(s0)
   149cc:	0030                	addi	a2,sp,8
   149ce:	000a                	c.slli	zero,0x2
   149d0:	7341                	lui	t1,0xffff0
   149d2:	74726573          	csrrsi	a0,0x747,4
   149d6:	6f69                	lui	t5,0x1a
   149d8:	206e                	fld	ft0,216(sp)
   149da:	6976                	flw	fs2,92(sp)
   149dc:	74616c6f          	jal	s8,2b122 <_end+0x15ec7>
   149e0:	6f69                	lui	t5,0x1a
   149e2:	3a6e                	fld	fs4,248(sp)
   149e4:	6620                	flw	fs0,72(a2)
   149e6:	6c69                	lui	s8,0x1a
   149e8:	2065                	jal	14a90 <end_signature+0x9b0>
   149ea:	7300                	flw	fs0,32(a4)
   149ec:	6372                	flw	ft6,28(sp)
   149ee:	532d492f          	0x532d492f
   149f2:	4c4c                	lw	a1,28(s0)
   149f4:	302d                	jal	1421e <end_signature+0x13e>
   149f6:	2e31                	jal	14d12 <end_signature+0xc32>
   149f8:	202c0053          	fsgnj.s	ft0,fs8,ft2
   149fc:	696c                	flw	fa1,84(a0)
   149fe:	656e                	flw	fa0,216(sp)
   14a00:	0020                	addi	s0,sp,8
   14a02:	3032                	fld	ft0,296(sp)
   14a04:	203a0037          	lui	zero,0x203a0
   14a08:	7800                	flw	fs0,48(s0)
   14a0a:	3232                	fld	ft4,296(sp)
   14a0c:	2800                	fld	fs0,16(s0)
   14a0e:	2900                	fld	fs0,16(a0)
   14a10:	2120                	fld	fs0,64(a0)
   14a12:	203d                	jal	14a40 <end_signature+0x960>
   14a14:	3000                	fld	fs0,32(s0)
   14a16:	3778                	fld	fa4,232(a4)
   14a18:	4646                	lw	a2,80(sp)
   14a1a:	4646                	lw	a2,80(sp)
   14a1c:	4646                	lw	a2,80(sp)
   14a1e:	0046                	c.slli	zero,0x11
   14a20:	000a                	c.slli	zero,0x2
   14a22:	7341                	lui	t1,0xffff0
   14a24:	74726573          	csrrsi	a0,0x747,4
   14a28:	6f69                	lui	t5,0x1a
   14a2a:	206e                	fld	ft0,216(sp)
   14a2c:	6976                	flw	fs2,92(sp)
   14a2e:	74616c6f          	jal	s8,2b174 <_end+0x15f19>
   14a32:	6f69                	lui	t5,0x1a
   14a34:	3a6e                	fld	fs4,248(sp)
   14a36:	6620                	flw	fs0,72(a2)
   14a38:	6c69                	lui	s8,0x1a
   14a3a:	2065                	jal	14ae2 <end_signature+0xa02>
   14a3c:	7300                	flw	fs0,32(a4)
   14a3e:	6372                	flw	ft6,28(sp)
   14a40:	532d492f          	0x532d492f
   14a44:	4c4c                	lw	a1,28(s0)
   14a46:	302d                	jal	14270 <end_signature+0x190>
   14a48:	2e31                	jal	14d64 <end_signature+0xc84>
   14a4a:	202c0053          	fsgnj.s	ft0,fs8,ft2
   14a4e:	696c                	flw	fa1,84(a0)
   14a50:	656e                	flw	fa0,216(sp)
   14a52:	0020                	addi	s0,sp,8
   14a54:	3032                	fld	ft0,296(sp)
   14a56:	0038                	addi	a4,sp,8
   14a58:	203a                	fld	ft0,392(sp)
   14a5a:	7800                	flw	fs0,48(s0)
   14a5c:	3332                	fld	ft6,296(sp)
   14a5e:	2800                	fld	fs0,16(s0)
   14a60:	2900                	fld	fs0,16(a0)
   14a62:	2120                	fld	fs0,64(a0)
   14a64:	203d                	jal	14a92 <end_signature+0x9b2>
   14a66:	3000                	fld	fs0,32(s0)
   14a68:	4678                	lw	a4,76(a2)
   14a6a:	4646                	lw	a2,80(sp)
   14a6c:	3046                	fld	ft0,112(sp)
   14a6e:	3030                	fld	fa2,96(s0)
   14a70:	0030                	addi	a2,sp,8
   14a72:	000a                	c.slli	zero,0x2
   14a74:	65542023          	sw	s5,1600(s0)
   14a78:	70207473          	csrrci	s0,0x702,0
   14a7c:	7261                	lui	tp,0xffff8
   14a7e:	2074                	fld	fa3,192(s0)
   14a80:	3441                	jal	14500 <end_signature+0x420>
   14a82:	2020                	fld	fs0,64(s0)
   14a84:	202d                	jal	14aae <end_signature+0x9ce>
   14a86:	706d6f43          	fmadd.s	ft10,fs10,ft6,fa4,unknown
   14a8a:	656c                	flw	fa1,76(a0)
   14a8c:	6574                	flw	fa3,76(a0)
   14a8e:	000a                	c.slli	zero,0x2
   14a90:	65542023          	sw	s5,1600(s0)
   14a94:	70207473          	csrrci	s0,0x702,0
   14a98:	7261                	lui	tp,0xffff8
   14a9a:	2074                	fld	fa3,192(s0)
   14a9c:	3541                	jal	1491c <end_signature+0x83c>
   14a9e:	2d20                	fld	fs0,88(a0)
   14aa0:	6720                	flw	fs0,72(a4)
   14aa2:	6e65                	lui	t3,0x19
   14aa4:	7265                	lui	tp,0xffff9
   14aa6:	6c61                	lui	s8,0x18
   14aa8:	7420                	flw	fs0,104(s0)
   14aaa:	7365                	lui	t1,0xffff9
   14aac:	2074                	fld	fa3,192(s0)
   14aae:	7620666f          	jal	a2,1b210 <_end+0x5fb5>
   14ab2:	6c61                	lui	s8,0x18
   14ab4:	6575                	lui	a0,0x1d
   14ab6:	3020                	fld	fs0,96(s0)
   14ab8:	3878                	fld	fa4,240(s0)
   14aba:	3030                	fld	fa2,96(s0)
   14abc:	3030                	fld	fa2,96(s0)
   14abe:	3030                	fld	fa2,96(s0)
   14ac0:	2030                	fld	fa2,64(s0)
   14ac2:	68746977          	0x68746977
   14ac6:	3020                	fld	fs0,96(s0)
   14ac8:	202c                	fld	fa1,64(s0)
   14aca:	2c31                	jal	14ce6 <end_signature+0xc06>
   14acc:	2d20                	fld	fs0,88(a0)
   14ace:	2c31                	jal	14cea <end_signature+0xc0a>
   14ad0:	4d20                	lw	s0,88(a0)
   14ad2:	4e49                	li	t3,18
   14ad4:	202c                	fld	fa1,64(s0)
   14ad6:	414d                	li	sp,19
   14ad8:	2058                	fld	fa4,128(s0)
   14ada:	3528                	fld	fa0,104(a0)
   14adc:	6962                	flw	fs2,24(sp)
   14ade:	2974                	fld	fa3,208(a0)
   14ae0:	7220                	flw	fs0,96(a2)
   14ae2:	6765                	lui	a4,0x19
   14ae4:	7369                	lui	t1,0xffffa
   14ae6:	6574                	flw	fa3,76(a0)
   14ae8:	2072                	fld	ft0,280(sp)
   14aea:	6176                	flw	ft2,92(sp)
   14aec:	756c                	flw	fa1,108(a0)
   14aee:	7365                	lui	t1,0xffff9
   14af0:	000a                	c.slli	zero,0x2
   14af2:	7341                	lui	t1,0xffff0
   14af4:	74726573          	csrrsi	a0,0x747,4
   14af8:	6f69                	lui	t5,0x1a
   14afa:	206e                	fld	ft0,216(sp)
   14afc:	6976                	flw	fs2,92(sp)
   14afe:	74616c6f          	jal	s8,2b244 <_end+0x15fe9>
   14b02:	6f69                	lui	t5,0x1a
   14b04:	3a6e                	fld	fs4,248(sp)
   14b06:	6620                	flw	fs0,72(a2)
   14b08:	6c69                	lui	s8,0x1a
   14b0a:	2065                	jal	14bb2 <end_signature+0xad2>
   14b0c:	7300                	flw	fs0,32(a4)
   14b0e:	6372                	flw	ft6,28(sp)
   14b10:	532d492f          	0x532d492f
   14b14:	4c4c                	lw	a1,28(s0)
   14b16:	302d                	jal	14340 <end_signature+0x260>
   14b18:	2e31                	jal	14e34 <end_signature+0xd54>
   14b1a:	202c0053          	fsgnj.s	ft0,fs8,ft2
   14b1e:	696c                	flw	fa1,84(a0)
   14b20:	656e                	flw	fa0,216(sp)
   14b22:	0020                	addi	s0,sp,8
   14b24:	3432                	fld	fs0,296(sp)
   14b26:	0034                	addi	a3,sp,8
   14b28:	203a                	fld	ft0,392(sp)
   14b2a:	7800                	flw	fs0,48(s0)
   14b2c:	3332                	fld	ft6,296(sp)
   14b2e:	2800                	fld	fs0,16(s0)
   14b30:	2900                	fld	fs0,16(a0)
   14b32:	2120                	fld	fs0,64(a0)
   14b34:	203d                	jal	14b62 <end_signature+0xa82>
   14b36:	3000                	fld	fs0,32(s0)
   14b38:	3878                	fld	fa4,240(s0)
   14b3a:	3030                	fld	fa2,96(s0)
   14b3c:	3030                	fld	fa2,96(s0)
   14b3e:	3030                	fld	fa2,96(s0)
   14b40:	0030                	addi	a2,sp,8
   14b42:	000a                	c.slli	zero,0x2
   14b44:	7341                	lui	t1,0xffff0
   14b46:	74726573          	csrrsi	a0,0x747,4
   14b4a:	6f69                	lui	t5,0x1a
   14b4c:	206e                	fld	ft0,216(sp)
   14b4e:	6976                	flw	fs2,92(sp)
   14b50:	74616c6f          	jal	s8,2b296 <_end+0x1603b>
   14b54:	6f69                	lui	t5,0x1a
   14b56:	3a6e                	fld	fs4,248(sp)
   14b58:	6620                	flw	fs0,72(a2)
   14b5a:	6c69                	lui	s8,0x1a
   14b5c:	2065                	jal	14c04 <end_signature+0xb24>
   14b5e:	7300                	flw	fs0,32(a4)
   14b60:	6372                	flw	ft6,28(sp)
   14b62:	532d492f          	0x532d492f
   14b66:	4c4c                	lw	a1,28(s0)
   14b68:	302d                	jal	14392 <end_signature+0x2b2>
   14b6a:	2e31                	jal	14e86 <end_signature+0xda6>
   14b6c:	202c0053          	fsgnj.s	ft0,fs8,ft2
   14b70:	696c                	flw	fa1,84(a0)
   14b72:	656e                	flw	fa0,216(sp)
   14b74:	0020                	addi	s0,sp,8
   14b76:	3432                	fld	fs0,296(sp)
   14b78:	0035                	c.nop	13
   14b7a:	203a                	fld	ft0,392(sp)
   14b7c:	7800                	flw	fs0,48(s0)
   14b7e:	3432                	fld	fs0,296(sp)
   14b80:	2800                	fld	fs0,16(s0)
   14b82:	2900                	fld	fs0,16(a0)
   14b84:	2120                	fld	fs0,64(a0)
   14b86:	203d                	jal	14bb4 <end_signature+0xad4>
   14b88:	3000                	fld	fs0,32(s0)
   14b8a:	3078                	fld	fa4,224(s0)
   14b8c:	3030                	fld	fa2,96(s0)
   14b8e:	3030                	fld	fa2,96(s0)
   14b90:	3030                	fld	fa2,96(s0)
   14b92:	0030                	addi	a2,sp,8
   14b94:	000a                	c.slli	zero,0x2
   14b96:	7341                	lui	t1,0xffff0
   14b98:	74726573          	csrrsi	a0,0x747,4
   14b9c:	6f69                	lui	t5,0x1a
   14b9e:	206e                	fld	ft0,216(sp)
   14ba0:	6976                	flw	fs2,92(sp)
   14ba2:	74616c6f          	jal	s8,2b2e8 <_end+0x1608d>
   14ba6:	6f69                	lui	t5,0x1a
   14ba8:	3a6e                	fld	fs4,248(sp)
   14baa:	6620                	flw	fs0,72(a2)
   14bac:	6c69                	lui	s8,0x1a
   14bae:	2065                	jal	14c56 <end_signature+0xb76>
   14bb0:	7300                	flw	fs0,32(a4)
   14bb2:	6372                	flw	ft6,28(sp)
   14bb4:	532d492f          	0x532d492f
   14bb8:	4c4c                	lw	a1,28(s0)
   14bba:	302d                	jal	143e4 <end_signature+0x304>
   14bbc:	2e31                	jal	14ed8 <end_signature+0xdf8>
   14bbe:	202c0053          	fsgnj.s	ft0,fs8,ft2
   14bc2:	696c                	flw	fa1,84(a0)
   14bc4:	656e                	flw	fa0,216(sp)
   14bc6:	0020                	addi	s0,sp,8
   14bc8:	3432                	fld	fs0,296(sp)
   14bca:	0036                	c.slli	zero,0xd
   14bcc:	203a                	fld	ft0,392(sp)
   14bce:	7800                	flw	fs0,48(s0)
   14bd0:	3532                	fld	fa0,296(sp)
   14bd2:	2800                	fld	fs0,16(s0)
   14bd4:	2900                	fld	fs0,16(a0)
   14bd6:	2120                	fld	fs0,64(a0)
   14bd8:	203d                	jal	14c06 <end_signature+0xb26>
   14bda:	3000                	fld	fs0,32(s0)
   14bdc:	3078                	fld	fa4,224(s0)
   14bde:	3030                	fld	fa2,96(s0)
   14be0:	3030                	fld	fa2,96(s0)
   14be2:	3030                	fld	fa2,96(s0)
   14be4:	0030                	addi	a2,sp,8
   14be6:	000a                	c.slli	zero,0x2
   14be8:	7341                	lui	t1,0xffff0
   14bea:	74726573          	csrrsi	a0,0x747,4
   14bee:	6f69                	lui	t5,0x1a
   14bf0:	206e                	fld	ft0,216(sp)
   14bf2:	6976                	flw	fs2,92(sp)
   14bf4:	74616c6f          	jal	s8,2b33a <_end+0x160df>
   14bf8:	6f69                	lui	t5,0x1a
   14bfa:	3a6e                	fld	fs4,248(sp)
   14bfc:	6620                	flw	fs0,72(a2)
   14bfe:	6c69                	lui	s8,0x1a
   14c00:	2065                	jal	14ca8 <end_signature+0xbc8>
   14c02:	7300                	flw	fs0,32(a4)
   14c04:	6372                	flw	ft6,28(sp)
   14c06:	532d492f          	0x532d492f
   14c0a:	4c4c                	lw	a1,28(s0)
   14c0c:	302d                	jal	14436 <end_signature+0x356>
   14c0e:	2e31                	jal	14f2a <end_signature+0xe4a>
   14c10:	202c0053          	fsgnj.s	ft0,fs8,ft2
   14c14:	696c                	flw	fa1,84(a0)
   14c16:	656e                	flw	fa0,216(sp)
   14c18:	0020                	addi	s0,sp,8
   14c1a:	3432                	fld	fs0,296(sp)
   14c1c:	203a0037          	lui	zero,0x203a0
   14c20:	7800                	flw	fs0,48(s0)
   14c22:	3632                	fld	fa2,296(sp)
   14c24:	2800                	fld	fs0,16(s0)
   14c26:	2900                	fld	fs0,16(a0)
   14c28:	2120                	fld	fs0,64(a0)
   14c2a:	203d                	jal	14c58 <end_signature+0xb78>
   14c2c:	3000                	fld	fs0,32(s0)
   14c2e:	3078                	fld	fa4,224(s0)
   14c30:	3030                	fld	fa2,96(s0)
   14c32:	3030                	fld	fa2,96(s0)
   14c34:	3030                	fld	fa2,96(s0)
   14c36:	0030                	addi	a2,sp,8
   14c38:	000a                	c.slli	zero,0x2
   14c3a:	7341                	lui	t1,0xffff0
   14c3c:	74726573          	csrrsi	a0,0x747,4
   14c40:	6f69                	lui	t5,0x1a
   14c42:	206e                	fld	ft0,216(sp)
   14c44:	6976                	flw	fs2,92(sp)
   14c46:	74616c6f          	jal	s8,2b38c <_end+0x16131>
   14c4a:	6f69                	lui	t5,0x1a
   14c4c:	3a6e                	fld	fs4,248(sp)
   14c4e:	6620                	flw	fs0,72(a2)
   14c50:	6c69                	lui	s8,0x1a
   14c52:	2065                	jal	14cfa <end_signature+0xc1a>
   14c54:	7300                	flw	fs0,32(a4)
   14c56:	6372                	flw	ft6,28(sp)
   14c58:	532d492f          	0x532d492f
   14c5c:	4c4c                	lw	a1,28(s0)
   14c5e:	302d                	jal	14488 <end_signature+0x3a8>
   14c60:	2e31                	jal	14f7c <end_signature+0xe9c>
   14c62:	202c0053          	fsgnj.s	ft0,fs8,ft2
   14c66:	696c                	flw	fa1,84(a0)
   14c68:	656e                	flw	fa0,216(sp)
   14c6a:	0020                	addi	s0,sp,8
   14c6c:	3432                	fld	fs0,296(sp)
   14c6e:	0038                	addi	a4,sp,8
   14c70:	203a                	fld	ft0,392(sp)
   14c72:	7800                	flw	fs0,48(s0)
   14c74:	3732                	fld	fa4,296(sp)
   14c76:	2800                	fld	fs0,16(s0)
   14c78:	2900                	fld	fs0,16(a0)
   14c7a:	2120                	fld	fs0,64(a0)
   14c7c:	203d                	jal	14caa <end_signature+0xbca>
   14c7e:	3000                	fld	fs0,32(s0)
   14c80:	3878                	fld	fa4,240(s0)
   14c82:	3030                	fld	fa2,96(s0)
   14c84:	3030                	fld	fa2,96(s0)
   14c86:	3030                	fld	fa2,96(s0)
   14c88:	0030                	addi	a2,sp,8
   14c8a:	000a                	c.slli	zero,0x2
   14c8c:	7341                	lui	t1,0xffff0
   14c8e:	74726573          	csrrsi	a0,0x747,4
   14c92:	6f69                	lui	t5,0x1a
   14c94:	206e                	fld	ft0,216(sp)
   14c96:	6976                	flw	fs2,92(sp)
   14c98:	74616c6f          	jal	s8,2b3de <_end+0x16183>
   14c9c:	6f69                	lui	t5,0x1a
   14c9e:	3a6e                	fld	fs4,248(sp)
   14ca0:	6620                	flw	fs0,72(a2)
   14ca2:	6c69                	lui	s8,0x1a
   14ca4:	2065                	jal	14d4c <end_signature+0xc6c>
   14ca6:	7300                	flw	fs0,32(a4)
   14ca8:	6372                	flw	ft6,28(sp)
   14caa:	532d492f          	0x532d492f
   14cae:	4c4c                	lw	a1,28(s0)
   14cb0:	302d                	jal	144da <end_signature+0x3fa>
   14cb2:	2e31                	jal	14fce <end_signature+0xeee>
   14cb4:	202c0053          	fsgnj.s	ft0,fs8,ft2
   14cb8:	696c                	flw	fa1,84(a0)
   14cba:	656e                	flw	fa0,216(sp)
   14cbc:	0020                	addi	s0,sp,8
   14cbe:	3432                	fld	fs0,296(sp)
   14cc0:	0039                	c.nop	14
   14cc2:	203a                	fld	ft0,392(sp)
   14cc4:	7800                	flw	fs0,48(s0)
   14cc6:	3832                	fld	fa6,296(sp)
   14cc8:	2800                	fld	fs0,16(s0)
   14cca:	2900                	fld	fs0,16(a0)
   14ccc:	2120                	fld	fs0,64(a0)
   14cce:	203d                	jal	14cfc <end_signature+0xc1c>
   14cd0:	3000                	fld	fs0,32(s0)
   14cd2:	3078                	fld	fa4,224(s0)
   14cd4:	3030                	fld	fa2,96(s0)
   14cd6:	3030                	fld	fa2,96(s0)
   14cd8:	3030                	fld	fa2,96(s0)
   14cda:	0030                	addi	a2,sp,8
   14cdc:	000a                	c.slli	zero,0x2
   14cde:	65542023          	sw	s5,1600(s0)
   14ce2:	70207473          	csrrci	s0,0x702,0
   14ce6:	7261                	lui	tp,0xffff8
   14ce8:	2074                	fld	fa3,192(s0)
   14cea:	3541                	jal	14b6a <end_signature+0xa8a>
   14cec:	2020                	fld	fs0,64(s0)
   14cee:	202d                	jal	14d18 <end_signature+0xc38>
   14cf0:	706d6f43          	fmadd.s	ft10,fs10,ft6,fa4,unknown
   14cf4:	656c                	flw	fa1,76(a0)
   14cf6:	6574                	flw	fa3,76(a0)
   14cf8:	000a                	c.slli	zero,0x2
   14cfa:	65542023          	sw	s5,1600(s0)
   14cfe:	70207473          	csrrci	s0,0x702,0
   14d02:	7261                	lui	tp,0xffff8
   14d04:	2074                	fld	fa3,192(s0)
   14d06:	2042                	fld	ft0,16(sp)
   14d08:	202d                	jal	14d32 <end_signature+0xc52>
   14d0a:	6574                	flw	fa3,76(a0)
   14d0c:	6e697473          	csrrci	s0,0x6e6,18
   14d10:	6f662067          	0x6f662067
   14d14:	7772                	flw	fa4,60(sp)
   14d16:	7261                	lui	tp,0xffff8
   14d18:	6964                	flw	fs1,84(a0)
   14d1a:	676e                	flw	fa4,216(sp)
   14d1c:	6220                	flw	fs0,64(a2)
   14d1e:	7465                	lui	s0,0xffff9
   14d20:	6e656577          	0x6e656577
   14d24:	6920                	flw	fs0,80(a0)
   14d26:	736e                	flw	ft6,248(sp)
   14d28:	7274                	flw	fa3,100(a2)
   14d2a:	6375                	lui	t1,0x1d
   14d2c:	6974                	flw	fa3,84(a0)
   14d2e:	0a736e6f          	jal	t3,4b5d4 <_end+0x36379>
   14d32:	4100                	lw	s0,0(a0)
   14d34:	72657373          	csrrci	t1,0x726,10
   14d38:	6974                	flw	fa3,84(a0)
   14d3a:	76206e6f          	jal	t3,1b49c <_end+0x6241>
   14d3e:	6f69                	lui	t5,0x1a
   14d40:	616c                	flw	fa1,68(a0)
   14d42:	6974                	flw	fa3,84(a0)
   14d44:	203a6e6f          	jal	t3,bb746 <_end+0xa64eb>
   14d48:	6966                	flw	fs2,88(sp)
   14d4a:	656c                	flw	fa1,76(a0)
   14d4c:	0020                	addi	s0,sp,8
   14d4e:	2f637273          	csrrci	tp,0x2f6,6
   14d52:	2d49                	jal	153e4 <_end+0x189>
   14d54:	2d4c4c53          	0x2d4c4c53
   14d58:	3130                	fld	fa2,96(a0)
   14d5a:	532e                	lw	t1,232(sp)
   14d5c:	2c00                	fld	fs0,24(s0)
   14d5e:	6c20                	flw	fs0,88(s0)
   14d60:	6e69                	lui	t3,0x1a
   14d62:	2065                	jal	14e0a <end_signature+0xd2a>
   14d64:	3200                	fld	fs0,32(a2)
   14d66:	3338                	fld	fa4,96(a4)
   14d68:	3a00                	fld	fs0,48(a2)
   14d6a:	0020                	addi	s0,sp,8
   14d6c:	3278                	fld	fa4,224(a2)
   14d6e:	0038                	addi	a4,sp,8
   14d70:	0028                	addi	a0,sp,8
   14d72:	2029                	jal	14d7c <end_signature+0xc9c>
   14d74:	3d21                	jal	14b8c <end_signature+0xaac>
   14d76:	0020                	addi	s0,sp,8
   14d78:	7830                	flw	fa2,112(s0)
   14d7a:	4241                	li	tp,16
   14d7c:	46454443          	fmadd.q	fs0,fa0,ft4,fs0,rmm
   14d80:	3031                	jal	1458c <end_signature+0x4ac>
   14d82:	0a00                	addi	s0,sp,272
   14d84:	4100                	lw	s0,0(a0)
   14d86:	72657373          	csrrci	t1,0x726,10
   14d8a:	6974                	flw	fa3,84(a0)
   14d8c:	76206e6f          	jal	t3,1b4ee <_end+0x6293>
   14d90:	6f69                	lui	t5,0x1a
   14d92:	616c                	flw	fa1,68(a0)
   14d94:	6974                	flw	fa3,84(a0)
   14d96:	203a6e6f          	jal	t3,bb798 <_end+0xa653d>
   14d9a:	6966                	flw	fs2,88(sp)
   14d9c:	656c                	flw	fa1,76(a0)
   14d9e:	0020                	addi	s0,sp,8
   14da0:	2f637273          	csrrci	tp,0x2f6,6
   14da4:	2d49                	jal	15436 <_end+0x1db>
   14da6:	2d4c4c53          	0x2d4c4c53
   14daa:	3130                	fld	fa2,96(a0)
   14dac:	532e                	lw	t1,232(sp)
   14dae:	2c00                	fld	fs0,24(s0)
   14db0:	6c20                	flw	fs0,88(s0)
   14db2:	6e69                	lui	t3,0x1a
   14db4:	2065                	jal	14e5c <end_signature+0xd7c>
   14db6:	3200                	fld	fs0,32(a2)
   14db8:	3438                	fld	fa4,104(s0)
   14dba:	3a00                	fld	fs0,48(a2)
   14dbc:	0020                	addi	s0,sp,8
   14dbe:	3278                	fld	fa4,224(a2)
   14dc0:	0039                	c.nop	14
   14dc2:	0028                	addi	a0,sp,8
   14dc4:	2029                	jal	14dce <end_signature+0xcee>
   14dc6:	3d21                	jal	14bde <end_signature+0xafe>
   14dc8:	0020                	addi	s0,sp,8
   14dca:	7830                	flw	fa2,112(s0)
   14dcc:	3735                	jal	14cf8 <end_signature+0xc18>
   14dce:	4239                	li	tp,14
   14dd0:	4544                	lw	s1,12(a0)
   14dd2:	3032                	fld	ft0,296(sp)
   14dd4:	0a00                	addi	s0,sp,272
   14dd6:	4100                	lw	s0,0(a0)
   14dd8:	72657373          	csrrci	t1,0x726,10
   14ddc:	6974                	flw	fa3,84(a0)
   14dde:	76206e6f          	jal	t3,1b540 <_end+0x62e5>
   14de2:	6f69                	lui	t5,0x1a
   14de4:	616c                	flw	fa1,68(a0)
   14de6:	6974                	flw	fa3,84(a0)
   14de8:	203a6e6f          	jal	t3,bb7ea <_end+0xa658f>
   14dec:	6966                	flw	fs2,88(sp)
   14dee:	656c                	flw	fa1,76(a0)
   14df0:	0020                	addi	s0,sp,8
   14df2:	2f637273          	csrrci	tp,0x2f6,6
   14df6:	2d49                	jal	15488 <_end+0x22d>
   14df8:	2d4c4c53          	0x2d4c4c53
   14dfc:	3130                	fld	fa2,96(a0)
   14dfe:	532e                	lw	t1,232(sp)
   14e00:	2c00                	fld	fs0,24(s0)
   14e02:	6c20                	flw	fs0,88(s0)
   14e04:	6e69                	lui	t3,0x1a
   14e06:	2065                	jal	14eae <end_signature+0xdce>
   14e08:	3200                	fld	fs0,32(a2)
   14e0a:	3538                	fld	fa4,104(a0)
   14e0c:	3a00                	fld	fs0,48(a2)
   14e0e:	0020                	addi	s0,sp,8
   14e10:	3378                	fld	fa4,224(a4)
   14e12:	0030                	addi	a2,sp,8
   14e14:	0028                	addi	a0,sp,8
   14e16:	2029                	jal	14e20 <end_signature+0xd40>
   14e18:	3d21                	jal	14c30 <end_signature+0xb50>
   14e1a:	0020                	addi	s0,sp,8
   14e1c:	7830                	flw	fa2,112(s0)
   14e1e:	4641                	li	a2,16
   14e20:	43423733          	0x43423733
   14e24:	3034                	fld	fa3,96(s0)
   14e26:	0a00                	addi	s0,sp,272
   14e28:	4100                	lw	s0,0(a0)
   14e2a:	72657373          	csrrci	t1,0x726,10
   14e2e:	6974                	flw	fa3,84(a0)
   14e30:	76206e6f          	jal	t3,1b592 <_end+0x6337>
   14e34:	6f69                	lui	t5,0x1a
   14e36:	616c                	flw	fa1,68(a0)
   14e38:	6974                	flw	fa3,84(a0)
   14e3a:	203a6e6f          	jal	t3,bb83c <_end+0xa65e1>
   14e3e:	6966                	flw	fs2,88(sp)
   14e40:	656c                	flw	fa1,76(a0)
   14e42:	0020                	addi	s0,sp,8
   14e44:	2f637273          	csrrci	tp,0x2f6,6
   14e48:	2d49                	jal	154da <_end+0x27f>
   14e4a:	2d4c4c53          	0x2d4c4c53
   14e4e:	3130                	fld	fa2,96(a0)
   14e50:	532e                	lw	t1,232(sp)
   14e52:	2c00                	fld	fs0,24(s0)
   14e54:	6c20                	flw	fs0,88(s0)
   14e56:	6e69                	lui	t3,0x1a
   14e58:	2065                	jal	14f00 <end_signature+0xe20>
   14e5a:	3200                	fld	fs0,32(a2)
   14e5c:	3638                	fld	fa4,104(a2)
   14e5e:	3a00                	fld	fs0,48(a2)
   14e60:	0020                	addi	s0,sp,8
   14e62:	3378                	fld	fa4,224(a4)
   14e64:	0031                	c.nop	12
   14e66:	0028                	addi	a0,sp,8
   14e68:	2029                	jal	14e72 <end_signature+0xd92>
   14e6a:	3d21                	jal	14c82 <end_signature+0xba2>
   14e6c:	0020                	addi	s0,sp,8
   14e6e:	7830                	flw	fa2,112(s0)
   14e70:	4535                	li	a0,13
   14e72:	4636                	lw	a2,76(sp)
   14e74:	30383837          	lui	a6,0x30383
   14e78:	0a00                	addi	s0,sp,272
   14e7a:	4100                	lw	s0,0(a0)
   14e7c:	72657373          	csrrci	t1,0x726,10
   14e80:	6974                	flw	fa3,84(a0)
   14e82:	76206e6f          	jal	t3,1b5e4 <_end+0x6389>
   14e86:	6f69                	lui	t5,0x1a
   14e88:	616c                	flw	fa1,68(a0)
   14e8a:	6974                	flw	fa3,84(a0)
   14e8c:	203a6e6f          	jal	t3,bb88e <_end+0xa6633>
   14e90:	6966                	flw	fs2,88(sp)
   14e92:	656c                	flw	fa1,76(a0)
   14e94:	0020                	addi	s0,sp,8
   14e96:	2f637273          	csrrci	tp,0x2f6,6
   14e9a:	2d49                	jal	1552c <_end+0x2d1>
   14e9c:	2d4c4c53          	0x2d4c4c53
   14ea0:	3130                	fld	fa2,96(a0)
   14ea2:	532e                	lw	t1,232(sp)
   14ea4:	2c00                	fld	fs0,24(s0)
   14ea6:	6c20                	flw	fs0,88(s0)
   14ea8:	6e69                	lui	t3,0x1a
   14eaa:	2065                	jal	14f52 <end_signature+0xe72>
   14eac:	3200                	fld	fs0,32(a2)
   14eae:	3838                	fld	fa4,112(s0)
   14eb0:	3a00                	fld	fs0,48(a2)
   14eb2:	0020                	addi	s0,sp,8
   14eb4:	3278                	fld	fa4,224(a2)
   14eb6:	2800                	fld	fs0,16(s0)
   14eb8:	2900                	fld	fs0,16(a0)
   14eba:	2120                	fld	fs0,64(a0)
   14ebc:	203d                	jal	14eea <end_signature+0xe0a>
   14ebe:	3000                	fld	fs0,32(s0)
   14ec0:	3778                	fld	fa4,232(a4)
   14ec2:	4239                	li	tp,14
   14ec4:	4544                	lw	s1,12(a0)
   14ec6:	3032                	fld	ft0,296(sp)
   14ec8:	0030                	addi	a2,sp,8
   14eca:	000a                	c.slli	zero,0x2
   14ecc:	7341                	lui	t1,0xffff0
   14ece:	74726573          	csrrsi	a0,0x747,4
   14ed2:	6f69                	lui	t5,0x1a
   14ed4:	206e                	fld	ft0,216(sp)
   14ed6:	6976                	flw	fs2,92(sp)
   14ed8:	74616c6f          	jal	s8,2b61e <_end+0x163c3>
   14edc:	6f69                	lui	t5,0x1a
   14ede:	3a6e                	fld	fs4,248(sp)
   14ee0:	6620                	flw	fs0,72(a2)
   14ee2:	6c69                	lui	s8,0x1a
   14ee4:	2065                	jal	14f8c <end_signature+0xeac>
   14ee6:	7300                	flw	fs0,32(a4)
   14ee8:	6372                	flw	ft6,28(sp)
   14eea:	532d492f          	0x532d492f
   14eee:	4c4c                	lw	a1,28(s0)
   14ef0:	302d                	jal	1471a <end_signature+0x63a>
   14ef2:	2e31                	jal	1520e <end_signature+0x112e>
   14ef4:	202c0053          	fsgnj.s	ft0,fs8,ft2
   14ef8:	696c                	flw	fa1,84(a0)
   14efa:	656e                	flw	fa0,216(sp)
   14efc:	0020                	addi	s0,sp,8
   14efe:	3832                	fld	fa6,296(sp)
   14f00:	0039                	c.nop	14
   14f02:	203a                	fld	ft0,392(sp)
   14f04:	7800                	flw	fs0,48(s0)
   14f06:	00280033          	add	zero,a6,sp
   14f0a:	2029                	jal	14f14 <end_signature+0xe34>
   14f0c:	3d21                	jal	14d24 <end_signature+0xc44>
   14f0e:	0020                	addi	s0,sp,8
   14f10:	7830                	flw	fa2,112(s0)
   14f12:	3346                	fld	ft6,112(sp)
   14f14:	34434237          	lui	tp,0x34434
   14f18:	3030                	fld	fa2,96(s0)
   14f1a:	0a00                	addi	s0,sp,272
   14f1c:	2300                	fld	fs0,0(a4)
   14f1e:	5420                	lw	s0,104(s0)
   14f20:	7365                	lui	t1,0xffff9
   14f22:	2074                	fld	fa3,192(s0)
   14f24:	6170                	flw	fa2,68(a0)
   14f26:	7472                	flw	fs0,60(sp)
   14f28:	4220                	lw	s0,64(a2)
   14f2a:	2020                	fld	fs0,64(s0)
   14f2c:	202d                	jal	14f56 <end_signature+0xe76>
   14f2e:	706d6f43          	fmadd.s	ft10,fs10,ft6,fa4,unknown
   14f32:	656c                	flw	fa1,76(a0)
   14f34:	6574                	flw	fa3,76(a0)
   14f36:	000a                	c.slli	zero,0x2
   14f38:	65542023          	sw	s5,1600(s0) # ffff9640 <_end+0xfffe43e5>
   14f3c:	70207473          	csrrci	s0,0x702,0
   14f40:	7261                	lui	tp,0xffff8
   14f42:	2074                	fld	fa3,192(s0)
   14f44:	202d2043          	fmadd.s	ft0,fs10,ft2,ft4,rdn
   14f48:	6574                	flw	fa3,76(a0)
   14f4a:	6e697473          	csrrci	s0,0x6e6,18
   14f4e:	72772067          	0x72772067
   14f52:	7469                	lui	s0,0xffffa
   14f54:	6e69                	lui	t3,0x1a
   14f56:	6f742067          	0x6f742067
   14f5a:	7820                	flw	fs0,112(s0)
   14f5c:	0a30                	addi	a2,sp,280
   14f5e:	4100                	lw	s0,0(a0)
   14f60:	72657373          	csrrci	t1,0x726,10
   14f64:	6974                	flw	fa3,84(a0)
   14f66:	76206e6f          	jal	t3,1b6c8 <_end+0x646d>
   14f6a:	6f69                	lui	t5,0x1a
   14f6c:	616c                	flw	fa1,68(a0)
   14f6e:	6974                	flw	fa3,84(a0)
   14f70:	203a6e6f          	jal	t3,bb972 <_end+0xa6717>
   14f74:	6966                	flw	fs2,88(sp)
   14f76:	656c                	flw	fa1,76(a0)
   14f78:	0020                	addi	s0,sp,8
   14f7a:	2f637273          	csrrci	tp,0x2f6,6
   14f7e:	2d49                	jal	15610 <_end+0x3b5>
   14f80:	2d4c4c53          	0x2d4c4c53
   14f84:	3130                	fld	fa2,96(a0)
   14f86:	532e                	lw	t1,232(sp)
   14f88:	2c00                	fld	fs0,24(s0)
   14f8a:	6c20                	flw	fs0,88(s0)
   14f8c:	6e69                	lui	t3,0x1a
   14f8e:	2065                	jal	15036 <end_signature+0xf56>
   14f90:	3300                	fld	fs0,32(a4)
   14f92:	3231                	jal	1489e <end_signature+0x7be>
   14f94:	3a00                	fld	fs0,48(a2)
   14f96:	0020                	addi	s0,sp,8
   14f98:	3078                	fld	fa4,224(s0)
   14f9a:	2800                	fld	fs0,16(s0)
   14f9c:	2900                	fld	fs0,16(a0)
   14f9e:	2120                	fld	fs0,64(a0)
   14fa0:	203d                	jal	14fce <end_signature+0xeee>
   14fa2:	3000                	fld	fs0,32(s0)
   14fa4:	3078                	fld	fa4,224(s0)
   14fa6:	3030                	fld	fa2,96(s0)
   14fa8:	3030                	fld	fa2,96(s0)
   14faa:	3030                	fld	fa2,96(s0)
   14fac:	0030                	addi	a2,sp,8
   14fae:	000a                	c.slli	zero,0x2
   14fb0:	65542023          	sw	s5,1600(s0) # ffffa640 <_end+0xfffe53e5>
   14fb4:	70207473          	csrrci	s0,0x702,0
   14fb8:	7261                	lui	tp,0xffff8
   14fba:	2074                	fld	fa3,192(s0)
   14fbc:	2d202043          	0x2d202043
   14fc0:	4320                	lw	s0,64(a4)
   14fc2:	6c706d6f          	jal	s10,1be88 <_end+0x6c2d>
   14fc6:	7465                	lui	s0,0xffff9
   14fc8:	0a65                	addi	s4,s4,25
   14fca:	2300                	fld	fs0,0(a4)
   14fcc:	5420                	lw	s0,104(s0)
   14fce:	7365                	lui	t1,0xffff9
   14fd0:	2074                	fld	fa3,192(s0)
   14fd2:	6170                	flw	fa2,68(a0)
   14fd4:	7472                	flw	fs0,60(sp)
   14fd6:	4420                	lw	s0,72(s0)
   14fd8:	2d20                	fld	fs0,88(a0)
   14fda:	7420                	flw	fs0,104(s0)
   14fdc:	7365                	lui	t1,0xffff9
   14fde:	6974                	flw	fa3,84(a0)
   14fe0:	676e                	flw	fa4,216(sp)
   14fe2:	6620                	flw	fs0,72(a2)
   14fe4:	6177726f          	jal	tp,8cdfa <_end+0x77b9f>
   14fe8:	6472                	flw	fs0,28(sp)
   14fea:	6e69                	lui	t3,0x1a
   14fec:	68742067          	0x68742067
   14ff0:	6f72                	flw	ft10,28(sp)
   14ff2:	6775                	lui	a4,0x1d
   14ff4:	7468                	flw	fa0,108(s0)
   14ff6:	7820                	flw	fs0,112(s0)
   14ff8:	0a30                	addi	a2,sp,280
   14ffa:	4100                	lw	s0,0(a0)
   14ffc:	72657373          	csrrci	t1,0x726,10
   15000:	6974                	flw	fa3,84(a0)
   15002:	76206e6f          	jal	t3,1b764 <_end+0x6509>
   15006:	6f69                	lui	t5,0x1a
   15008:	616c                	flw	fa1,68(a0)
   1500a:	6974                	flw	fa3,84(a0)
   1500c:	203a6e6f          	jal	t3,bba0e <_end+0xa67b3>
   15010:	6966                	flw	fs2,88(sp)
   15012:	656c                	flw	fa1,76(a0)
   15014:	0020                	addi	s0,sp,8
   15016:	2f637273          	csrrci	tp,0x2f6,6
   1501a:	2d49                	jal	156ac <_end+0x451>
   1501c:	2d4c4c53          	0x2d4c4c53
   15020:	3130                	fld	fa2,96(a0)
   15022:	532e                	lw	t1,232(sp)
   15024:	2c00                	fld	fs0,24(s0)
   15026:	6c20                	flw	fs0,88(s0)
   15028:	6e69                	lui	t3,0x1a
   1502a:	2065                	jal	150d2 <end_signature+0xff2>
   1502c:	3300                	fld	fs0,32(a4)
   1502e:	3a003733          	0x3a003733
   15032:	0020                	addi	s0,sp,8
   15034:	3078                	fld	fa4,224(s0)
   15036:	2800                	fld	fs0,16(s0)
   15038:	2900                	fld	fs0,16(a0)
   1503a:	2120                	fld	fs0,64(a0)
   1503c:	203d                	jal	1506a <end_signature+0xf8a>
   1503e:	3000                	fld	fs0,32(s0)
   15040:	3078                	fld	fa4,224(s0)
   15042:	3030                	fld	fa2,96(s0)
   15044:	3030                	fld	fa2,96(s0)
   15046:	3030                	fld	fa2,96(s0)
   15048:	0030                	addi	a2,sp,8
   1504a:	000a                	c.slli	zero,0x2
   1504c:	7341                	lui	t1,0xffff0
   1504e:	74726573          	csrrsi	a0,0x747,4
   15052:	6f69                	lui	t5,0x1a
   15054:	206e                	fld	ft0,216(sp)
   15056:	6976                	flw	fs2,92(sp)
   15058:	74616c6f          	jal	s8,2b79e <_end+0x16543>
   1505c:	6f69                	lui	t5,0x1a
   1505e:	3a6e                	fld	fs4,248(sp)
   15060:	6620                	flw	fs0,72(a2)
   15062:	6c69                	lui	s8,0x1a
   15064:	2065                	jal	1510c <end_signature+0x102c>
   15066:	7300                	flw	fs0,32(a4)
   15068:	6372                	flw	ft6,28(sp)
   1506a:	532d492f          	0x532d492f
   1506e:	4c4c                	lw	a1,28(s0)
   15070:	302d                	jal	1489a <end_signature+0x7ba>
   15072:	2e31                	jal	1538e <_end+0x133>
   15074:	202c0053          	fsgnj.s	ft0,fs8,ft2
   15078:	696c                	flw	fa1,84(a0)
   1507a:	656e                	flw	fa0,216(sp)
   1507c:	0020                	addi	s0,sp,8
   1507e:	00383333          	sltu	t1,a6,gp
   15082:	203a                	fld	ft0,392(sp)
   15084:	7800                	flw	fs0,48(s0)
   15086:	0035                	c.nop	13
   15088:	0028                	addi	a0,sp,8
   1508a:	2029                	jal	15094 <end_signature+0xfb4>
   1508c:	3d21                	jal	14ea4 <end_signature+0xdc4>
   1508e:	0020                	addi	s0,sp,8
   15090:	7830                	flw	fa2,112(s0)
   15092:	3030                	fld	fa2,96(s0)
   15094:	3030                	fld	fa2,96(s0)
   15096:	3030                	fld	fa2,96(s0)
   15098:	3030                	fld	fa2,96(s0)
   1509a:	0a00                	addi	s0,sp,272
   1509c:	2300                	fld	fs0,0(a4)
   1509e:	5420                	lw	s0,104(s0)
   150a0:	7365                	lui	t1,0xffff9
   150a2:	2074                	fld	fa3,192(s0)
   150a4:	6170                	flw	fa2,68(a0)
   150a6:	7472                	flw	fs0,60(sp)
   150a8:	4420                	lw	s0,72(s0)
   150aa:	2020                	fld	fs0,64(s0)
   150ac:	202d                	jal	150d6 <end_signature+0xff6>
   150ae:	706d6f43          	fmadd.s	ft10,fs10,ft6,fa4,unknown
   150b2:	656c                	flw	fa1,76(a0)
   150b4:	6574                	flw	fa3,76(a0)
   150b6:	000a                	c.slli	zero,0x2
   150b8:	65542023          	sw	s5,1600(s0) # ffff9640 <_end+0xfffe43e5>
   150bc:	70207473          	csrrci	s0,0x702,0
   150c0:	7261                	lui	tp,0xffff8
   150c2:	2074                	fld	fa3,192(s0)
   150c4:	2045                	jal	15164 <end_signature+0x1084>
   150c6:	202d                	jal	150f0 <end_signature+0x1010>
   150c8:	6574                	flw	fa3,76(a0)
   150ca:	6e697473          	csrrci	s0,0x6e6,18
   150ce:	68732067          	0x68732067
   150d2:	6669                	lui	a2,0x1a
   150d4:	2074                	fld	fa3,192(s0)
   150d6:	7962                	flw	fs2,56(sp)
   150d8:	7620                	flw	fs0,104(a2)
   150da:	6c61                	lui	s8,0x18
   150dc:	6575                	lui	a0,0x1d
   150de:	6720                	flw	fs0,72(a4)
   150e0:	6572                	flw	fa0,28(sp)
   150e2:	7461                	lui	s0,0xffff8
   150e4:	7265                	lui	tp,0xffff9
   150e6:	7420                	flw	fs0,104(s0)
   150e8:	6168                	flw	fa0,68(a0)
   150ea:	206e                	fld	ft0,216(sp)
   150ec:	000a3133          	sltu	sp,s4,zero
   150f0:	7341                	lui	t1,0xffff0
   150f2:	74726573          	csrrsi	a0,0x747,4
   150f6:	6f69                	lui	t5,0x1a
   150f8:	206e                	fld	ft0,216(sp)
   150fa:	6976                	flw	fs2,92(sp)
   150fc:	74616c6f          	jal	s8,2b842 <_end+0x165e7>
   15100:	6f69                	lui	t5,0x1a
   15102:	3a6e                	fld	fs4,248(sp)
   15104:	6620                	flw	fs0,72(a2)
   15106:	6c69                	lui	s8,0x1a
   15108:	2065                	jal	151b0 <end_signature+0x10d0>
   1510a:	7300                	flw	fs0,32(a4)
   1510c:	6372                	flw	ft6,28(sp)
   1510e:	532d492f          	0x532d492f
   15112:	4c4c                	lw	a1,28(s0)
   15114:	302d                	jal	1493e <end_signature+0x85e>
   15116:	2e31                	jal	15432 <_end+0x1d7>
   15118:	202c0053          	fsgnj.s	ft0,fs8,ft2
   1511c:	696c                	flw	fa1,84(a0)
   1511e:	656e                	flw	fa0,216(sp)
   15120:	0020                	addi	s0,sp,8
   15122:	00303733          	snez	a4,gp
   15126:	203a                	fld	ft0,392(sp)
   15128:	7800                	flw	fs0,48(s0)
   1512a:	0034                	addi	a3,sp,8
   1512c:	0028                	addi	a0,sp,8
   1512e:	2029                	jal	15138 <end_signature+0x1058>
   15130:	3d21                	jal	14f48 <end_signature+0xe68>
   15132:	0020                	addi	s0,sp,8
   15134:	7830                	flw	fa2,112(s0)
   15136:	3738                	fld	fa4,104(a4)
   15138:	3536                	fld	fa0,360(sp)
   1513a:	3334                	fld	fa3,96(a4)
   1513c:	3132                	fld	ft2,296(sp)
   1513e:	0a00                	addi	s0,sp,272
   15140:	4100                	lw	s0,0(a0)
   15142:	72657373          	csrrci	t1,0x726,10
   15146:	6974                	flw	fa3,84(a0)
   15148:	76206e6f          	jal	t3,1b8aa <_end+0x664f>
   1514c:	6f69                	lui	t5,0x1a
   1514e:	616c                	flw	fa1,68(a0)
   15150:	6974                	flw	fa3,84(a0)
   15152:	203a6e6f          	jal	t3,bbb54 <_end+0xa68f9>
   15156:	6966                	flw	fs2,88(sp)
   15158:	656c                	flw	fa1,76(a0)
   1515a:	0020                	addi	s0,sp,8
   1515c:	2f637273          	csrrci	tp,0x2f6,6
   15160:	2d49                	jal	157f2 <_end+0x597>
   15162:	2d4c4c53          	0x2d4c4c53
   15166:	3130                	fld	fa2,96(a0)
   15168:	532e                	lw	t1,232(sp)
   1516a:	2c00                	fld	fs0,24(s0)
   1516c:	6c20                	flw	fs0,88(s0)
   1516e:	6e69                	lui	t3,0x1a
   15170:	2065                	jal	15218 <end_signature+0x1138>
   15172:	3300                	fld	fs0,32(a4)
   15174:	3a003137          	lui	sp,0x3a003
   15178:	0020                	addi	s0,sp,8
   1517a:	3578                	fld	fa4,232(a0)
   1517c:	2800                	fld	fs0,16(s0)
   1517e:	2900                	fld	fs0,16(a0)
   15180:	2120                	fld	fs0,64(a0)
   15182:	203d                	jal	151b0 <end_signature+0x10d0>
   15184:	3000                	fld	fs0,32(s0)
   15186:	4178                	lw	a4,68(a0)
   15188:	3931                	jal	14da4 <end_signature+0xcc4>
   1518a:	3830                	fld	fa2,112(s0)
   1518c:	3030                	fld	fa2,96(s0)
   1518e:	0030                	addi	a2,sp,8
   15190:	000a                	c.slli	zero,0x2
   15192:	7341                	lui	t1,0xffff0
   15194:	74726573          	csrrsi	a0,0x747,4
   15198:	6f69                	lui	t5,0x1a
   1519a:	206e                	fld	ft0,216(sp)
   1519c:	6976                	flw	fs2,92(sp)
   1519e:	74616c6f          	jal	s8,2b8e4 <_end+0x16689>
   151a2:	6f69                	lui	t5,0x1a
   151a4:	3a6e                	fld	fs4,248(sp)
   151a6:	6620                	flw	fs0,72(a2)
   151a8:	6c69                	lui	s8,0x1a
   151aa:	2065                	jal	15252 <end_signature+0x1172>
   151ac:	7300                	flw	fs0,32(a4)
   151ae:	6372                	flw	ft6,28(sp)
   151b0:	532d492f          	0x532d492f
   151b4:	4c4c                	lw	a1,28(s0)
   151b6:	302d                	jal	149e0 <end_signature+0x900>
   151b8:	2e31                	jal	154d4 <_end+0x279>
   151ba:	202c0053          	fsgnj.s	ft0,fs8,ft2
   151be:	696c                	flw	fa1,84(a0)
   151c0:	656e                	flw	fa0,216(sp)
   151c2:	0020                	addi	s0,sp,8
   151c4:	00323733          	sltu	a4,tp,gp
   151c8:	203a                	fld	ft0,392(sp)
   151ca:	7800                	flw	fs0,48(s0)
   151cc:	0036                	c.slli	zero,0xd
   151ce:	0028                	addi	a0,sp,8
   151d0:	2029                	jal	151da <end_signature+0x10fa>
   151d2:	3d21                	jal	14fea <end_signature+0xf0a>
   151d4:	0020                	addi	s0,sp,8
   151d6:	7830                	flw	fa2,112(s0)
   151d8:	3141                	jal	14e58 <end_signature+0xd78>
   151da:	3039                	jal	149e8 <end_signature+0x908>
   151dc:	3038                	fld	fa4,96(s0)
   151de:	3030                	fld	fa2,96(s0)
   151e0:	0a00                	addi	s0,sp,272
   151e2:	4100                	lw	s0,0(a0)
   151e4:	72657373          	csrrci	t1,0x726,10
   151e8:	6974                	flw	fa3,84(a0)
   151ea:	76206e6f          	jal	t3,1b94c <_end+0x66f1>
   151ee:	6f69                	lui	t5,0x1a
   151f0:	616c                	flw	fa1,68(a0)
   151f2:	6974                	flw	fa3,84(a0)
   151f4:	203a6e6f          	jal	t3,bbbf6 <_end+0xa699b>
   151f8:	6966                	flw	fs2,88(sp)
   151fa:	656c                	flw	fa1,76(a0)
   151fc:	0020                	addi	s0,sp,8
   151fe:	2f637273          	csrrci	tp,0x2f6,6
   15202:	2d49                	jal	15894 <_end+0x639>
   15204:	2d4c4c53          	0x2d4c4c53
   15208:	3130                	fld	fa2,96(a0)
   1520a:	532e                	lw	t1,232(sp)
   1520c:	2c00                	fld	fs0,24(s0)
   1520e:	6c20                	flw	fs0,88(s0)
   15210:	6e69                	lui	t3,0x1a
   15212:	2065                	jal	152ba <_end+0x5f>
   15214:	3300                	fld	fs0,32(a4)
   15216:	3a003337          	lui	t1,0x3a003
   1521a:	0020                	addi	s0,sp,8
   1521c:	3778                	fld	fa4,232(a4)
   1521e:	2800                	fld	fs0,16(s0)
   15220:	2900                	fld	fs0,16(a0)
   15222:	2120                	fld	fs0,64(a0)
   15224:	203d                	jal	15252 <end_signature+0x1172>
   15226:	3000                	fld	fs0,32(s0)
   15228:	3878                	fld	fa4,240(s0)
   1522a:	3030                	fld	fa2,96(s0)
   1522c:	3030                	fld	fa2,96(s0)
   1522e:	3030                	fld	fa2,96(s0)
   15230:	0030                	addi	a2,sp,8
   15232:	000a                	c.slli	zero,0x2
   15234:	65542023          	sw	s5,1600(s0) # ffff8640 <_end+0xfffe33e5>
   15238:	70207473          	csrrci	s0,0x702,0
   1523c:	7261                	lui	tp,0xffff8
   1523e:	2074                	fld	fa3,192(s0)
   15240:	2045                	jal	152e0 <_end+0x85>
   15242:	2d20                	fld	fs0,88(a0)
   15244:	4320                	lw	s0,64(a4)
   15246:	6c706d6f          	jal	s10,1c10c <_end+0x6eb1>
   1524a:	7465                	lui	s0,0xffff9
   1524c:	0a65                	addi	s4,s4,25
   1524e:	2300                	fld	fs0,0(a4)
   15250:	5420                	lw	s0,104(s0)
   15252:	7365                	lui	t1,0xffff9
   15254:	2074                	fld	fa3,192(s0)
   15256:	6e45                	lui	t3,0x11
   15258:	0a64                	addi	s1,sp,284
	...
