
/home/benselfridge/riscv-compliance/work//I-SRL-01.elf:     file format elf32-littleriscv


Disassembly of section .text.init:

00010000 <_start>:
   10000:	04c0006f          	j	1004c <reset_vector>

00010004 <trap_vector>:
   10004:	34202f73          	csrr	t5,mcause
   10008:	00800f93          	li	t6,8
   1000c:	03ff0a63          	beq	t5,t6,10040 <write_tohost>
   10010:	00900f93          	li	t6,9
   10014:	03ff0663          	beq	t5,t6,10040 <write_tohost>
   10018:	00b00f93          	li	t6,11
   1001c:	03ff0263          	beq	t5,t6,10040 <write_tohost>
   10020:	ffff0f17          	auipc	t5,0xffff0
   10024:	fe0f0f13          	addi	t5,t5,-32 # 0 <_start-0x10000>
   10028:	000f0463          	beqz	t5,10030 <trap_vector+0x2c>
   1002c:	000f0067          	jr	t5
   10030:	34202f73          	csrr	t5,mcause
   10034:	000f5463          	bgez	t5,1003c <handle_exception>
   10038:	0040006f          	j	1003c <handle_exception>

0001003c <handle_exception>:
   1003c:	5391e193          	ori	gp,gp,1337

00010040 <write_tohost>:
   10040:	00003f17          	auipc	t5,0x3
   10044:	fc3f2023          	sw	gp,-64(t5) # 13000 <tohost>
   10048:	ff9ff06f          	j	10040 <write_tohost>

0001004c <reset_vector>:
   1004c:	f1402573          	csrr	a0,mhartid
   10050:	00051063          	bnez	a0,10050 <reset_vector+0x4>
   10054:	00000297          	auipc	t0,0x0
   10058:	01028293          	addi	t0,t0,16 # 10064 <reset_vector+0x18>
   1005c:	30529073          	csrw	mtvec,t0
   10060:	18005073          	csrwi	satp,0
   10064:	00000297          	auipc	t0,0x0
   10068:	01c28293          	addi	t0,t0,28 # 10080 <reset_vector+0x34>
   1006c:	30529073          	csrw	mtvec,t0
   10070:	fff00293          	li	t0,-1
   10074:	3b029073          	csrw	pmpaddr0,t0
   10078:	01f00293          	li	t0,31
   1007c:	3a029073          	csrw	pmpcfg0,t0
   10080:	00000297          	auipc	t0,0x0
   10084:	01828293          	addi	t0,t0,24 # 10098 <reset_vector+0x4c>
   10088:	30529073          	csrw	mtvec,t0
   1008c:	30205073          	csrwi	medeleg,0
   10090:	30305073          	csrwi	mideleg,0
   10094:	30405073          	csrwi	mie,0
   10098:	00000193          	li	gp,0
   1009c:	00000297          	auipc	t0,0x0
   100a0:	f6828293          	addi	t0,t0,-152 # 10004 <trap_vector>
   100a4:	30529073          	csrw	mtvec,t0
   100a8:	00100513          	li	a0,1
   100ac:	01f51513          	slli	a0,a0,0x1f
   100b0:	00054863          	bltz	a0,100c0 <reset_vector+0x74>
   100b4:	0000100f          	fence.i
   100b8:	00100193          	li	gp,1
   100bc:	00000073          	ecall
   100c0:	ffff0297          	auipc	t0,0xffff0
   100c4:	f4028293          	addi	t0,t0,-192 # 0 <_start-0x10000>
   100c8:	00028e63          	beqz	t0,100e4 <reset_vector+0x98>
   100cc:	10529073          	csrw	stvec,t0
   100d0:	0000b2b7          	lui	t0,0xb
   100d4:	10928293          	addi	t0,t0,265 # b109 <_start-0x4ef7>
   100d8:	30229073          	csrw	medeleg,t0
   100dc:	30202373          	csrr	t1,medeleg
   100e0:	f4629ee3          	bne	t0,t1,1003c <handle_exception>
   100e4:	30005073          	csrwi	mstatus,0
   100e8:	00002537          	lui	a0,0x2
   100ec:	80050513          	addi	a0,a0,-2048 # 1800 <_start-0xe800>
   100f0:	30052073          	csrs	mstatus,a0
   100f4:	00000297          	auipc	t0,0x0
   100f8:	01428293          	addi	t0,t0,20 # 10108 <reset_vector+0xbc>
   100fc:	34129073          	csrw	mepc,t0
   10100:	f1402573          	csrr	a0,mhartid
   10104:	30200073          	mret
   10108:	00000293          	li	t0,0
   1010c:	08500e63          	beq	zero,t0,101a8 <reset_vector+0x15c>
   10110:	00005517          	auipc	a0,0x5
   10114:	fd050513          	addi	a0,a0,-48 # 150e0 <end_signature>
   10118:	6e9030ef          	jal	ra,14000 <FN_WriteStr>
   1011c:	00005517          	auipc	a0,0x5
   10120:	fdf50513          	addi	a0,a0,-33 # 150fb <end_signature+0x1b>
   10124:	6dd030ef          	jal	ra,14000 <FN_WriteStr>
   10128:	00005517          	auipc	a0,0x5
   1012c:	fe250513          	addi	a0,a0,-30 # 1510a <end_signature+0x2a>
   10130:	6d1030ef          	jal	ra,14000 <FN_WriteStr>
   10134:	00005517          	auipc	a0,0x5
   10138:	fde50513          	addi	a0,a0,-34 # 15112 <end_signature+0x32>
   1013c:	6c5030ef          	jal	ra,14000 <FN_WriteStr>
   10140:	00005517          	auipc	a0,0x5
   10144:	fd550513          	addi	a0,a0,-43 # 15115 <end_signature+0x35>
   10148:	6b9030ef          	jal	ra,14000 <FN_WriteStr>
   1014c:	00005517          	auipc	a0,0x5
   10150:	fcc50513          	addi	a0,a0,-52 # 15118 <end_signature+0x38>
   10154:	6ad030ef          	jal	ra,14000 <FN_WriteStr>
   10158:	00005517          	auipc	a0,0x5
   1015c:	fc350513          	addi	a0,a0,-61 # 1511b <end_signature+0x3b>
   10160:	6a1030ef          	jal	ra,14000 <FN_WriteStr>
   10164:	00000513          	li	a0,0
   10168:	6b5030ef          	jal	ra,1401c <FN_WriteA0>
   1016c:	00005517          	auipc	a0,0x5
   10170:	fb150513          	addi	a0,a0,-79 # 1511d <end_signature+0x3d>
   10174:	68d030ef          	jal	ra,14000 <FN_WriteStr>
   10178:	00005517          	auipc	a0,0x5
   1017c:	fab50513          	addi	a0,a0,-85 # 15123 <end_signature+0x43>
   10180:	681030ef          	jal	ra,14000 <FN_WriteStr>
   10184:	00005517          	auipc	a0,0x5
   10188:	faa50513          	addi	a0,a0,-86 # 1512e <end_signature+0x4e>
   1018c:	675030ef          	jal	ra,14000 <FN_WriteStr>
   10190:	06400193          	li	gp,100
   10194:	0000100f          	fence.i
   10198:	00018063          	beqz	gp,10198 <reset_vector+0x14c>
   1019c:	00119193          	slli	gp,gp,0x1
   101a0:	0011e193          	ori	gp,gp,1
   101a4:	00000073          	ecall
   101a8:	00005517          	auipc	a0,0x5
   101ac:	f8850513          	addi	a0,a0,-120 # 15130 <end_signature+0x50>
   101b0:	651030ef          	jal	ra,14000 <FN_WriteStr>
   101b4:	00005517          	auipc	a0,0x5
   101b8:	fae50513          	addi	a0,a0,-82 # 15162 <end_signature+0x82>
   101bc:	645030ef          	jal	ra,14000 <FN_WriteStr>
   101c0:	00005097          	auipc	ra,0x5
   101c4:	e4008093          	addi	ra,ra,-448 # 15000 <test_A1_data>
   101c8:	00005117          	auipc	sp,0x5
   101cc:	e6810113          	addi	sp,sp,-408 # 15030 <begin_signature>
   101d0:	0000a183          	lw	gp,0(ra)
   101d4:	00100213          	li	tp,1
   101d8:	00f00293          	li	t0,15
   101dc:	01f00313          	li	t1,31
   101e0:	00000393          	li	t2,0
   101e4:	01000413          	li	s0,16
   101e8:	0041d233          	srl	tp,gp,tp
   101ec:	0051d2b3          	srl	t0,gp,t0
   101f0:	0061d333          	srl	t1,gp,t1
   101f4:	0071d3b3          	srl	t2,gp,t2
   101f8:	0081d433          	srl	s0,gp,s0
   101fc:	00312023          	sw	gp,0(sp)
   10200:	00412223          	sw	tp,4(sp)
   10204:	00512423          	sw	t0,8(sp)
   10208:	00612623          	sw	t1,12(sp)
   1020c:	00712823          	sw	t2,16(sp)
   10210:	00812a23          	sw	s0,20(sp)
   10214:	fff00013          	li	zero,-1
   10218:	00000293          	li	t0,0
   1021c:	08518e63          	beq	gp,t0,102b8 <reset_vector+0x26c>
   10220:	00005517          	auipc	a0,0x5
   10224:	f9b50513          	addi	a0,a0,-101 # 151bb <end_signature+0xdb>
   10228:	5d9030ef          	jal	ra,14000 <FN_WriteStr>
   1022c:	00005517          	auipc	a0,0x5
   10230:	faa50513          	addi	a0,a0,-86 # 151d6 <end_signature+0xf6>
   10234:	5cd030ef          	jal	ra,14000 <FN_WriteStr>
   10238:	00005517          	auipc	a0,0x5
   1023c:	fad50513          	addi	a0,a0,-83 # 151e5 <end_signature+0x105>
   10240:	5c1030ef          	jal	ra,14000 <FN_WriteStr>
   10244:	00005517          	auipc	a0,0x5
   10248:	fa950513          	addi	a0,a0,-87 # 151ed <end_signature+0x10d>
   1024c:	5b5030ef          	jal	ra,14000 <FN_WriteStr>
   10250:	00005517          	auipc	a0,0x5
   10254:	fa050513          	addi	a0,a0,-96 # 151f0 <end_signature+0x110>
   10258:	5a9030ef          	jal	ra,14000 <FN_WriteStr>
   1025c:	00005517          	auipc	a0,0x5
   10260:	f9750513          	addi	a0,a0,-105 # 151f3 <end_signature+0x113>
   10264:	59d030ef          	jal	ra,14000 <FN_WriteStr>
   10268:	00005517          	auipc	a0,0x5
   1026c:	f8e50513          	addi	a0,a0,-114 # 151f6 <end_signature+0x116>
   10270:	591030ef          	jal	ra,14000 <FN_WriteStr>
   10274:	00018513          	mv	a0,gp
   10278:	5a5030ef          	jal	ra,1401c <FN_WriteA0>
   1027c:	00005517          	auipc	a0,0x5
   10280:	f7c50513          	addi	a0,a0,-132 # 151f8 <end_signature+0x118>
   10284:	57d030ef          	jal	ra,14000 <FN_WriteStr>
   10288:	00005517          	auipc	a0,0x5
   1028c:	f7650513          	addi	a0,a0,-138 # 151fe <end_signature+0x11e>
   10290:	571030ef          	jal	ra,14000 <FN_WriteStr>
   10294:	00005517          	auipc	a0,0x5
   10298:	f7550513          	addi	a0,a0,-139 # 15209 <end_signature+0x129>
   1029c:	565030ef          	jal	ra,14000 <FN_WriteStr>
   102a0:	06400193          	li	gp,100
   102a4:	0000100f          	fence.i
   102a8:	00018063          	beqz	gp,102a8 <reset_vector+0x25c>
   102ac:	00119193          	slli	gp,gp,0x1
   102b0:	0011e193          	ori	gp,gp,1
   102b4:	00000073          	ecall
   102b8:	00000293          	li	t0,0
   102bc:	08520e63          	beq	tp,t0,10358 <reset_vector+0x30c>
   102c0:	00005517          	auipc	a0,0x5
   102c4:	f4b50513          	addi	a0,a0,-181 # 1520b <end_signature+0x12b>
   102c8:	539030ef          	jal	ra,14000 <FN_WriteStr>
   102cc:	00005517          	auipc	a0,0x5
   102d0:	f5a50513          	addi	a0,a0,-166 # 15226 <end_signature+0x146>
   102d4:	52d030ef          	jal	ra,14000 <FN_WriteStr>
   102d8:	00005517          	auipc	a0,0x5
   102dc:	f5d50513          	addi	a0,a0,-163 # 15235 <end_signature+0x155>
   102e0:	521030ef          	jal	ra,14000 <FN_WriteStr>
   102e4:	00005517          	auipc	a0,0x5
   102e8:	f5950513          	addi	a0,a0,-167 # 1523d <end_signature+0x15d>
   102ec:	515030ef          	jal	ra,14000 <FN_WriteStr>
   102f0:	00005517          	auipc	a0,0x5
   102f4:	f5050513          	addi	a0,a0,-176 # 15240 <end_signature+0x160>
   102f8:	509030ef          	jal	ra,14000 <FN_WriteStr>
   102fc:	00005517          	auipc	a0,0x5
   10300:	f4750513          	addi	a0,a0,-185 # 15243 <end_signature+0x163>
   10304:	4fd030ef          	jal	ra,14000 <FN_WriteStr>
   10308:	00005517          	auipc	a0,0x5
   1030c:	f3e50513          	addi	a0,a0,-194 # 15246 <end_signature+0x166>
   10310:	4f1030ef          	jal	ra,14000 <FN_WriteStr>
   10314:	00020513          	mv	a0,tp
   10318:	505030ef          	jal	ra,1401c <FN_WriteA0>
   1031c:	00005517          	auipc	a0,0x5
   10320:	f2c50513          	addi	a0,a0,-212 # 15248 <end_signature+0x168>
   10324:	4dd030ef          	jal	ra,14000 <FN_WriteStr>
   10328:	00005517          	auipc	a0,0x5
   1032c:	f2650513          	addi	a0,a0,-218 # 1524e <end_signature+0x16e>
   10330:	4d1030ef          	jal	ra,14000 <FN_WriteStr>
   10334:	00005517          	auipc	a0,0x5
   10338:	f2550513          	addi	a0,a0,-219 # 15259 <end_signature+0x179>
   1033c:	4c5030ef          	jal	ra,14000 <FN_WriteStr>
   10340:	06400193          	li	gp,100
   10344:	0000100f          	fence.i
   10348:	00018063          	beqz	gp,10348 <reset_vector+0x2fc>
   1034c:	00119193          	slli	gp,gp,0x1
   10350:	0011e193          	ori	gp,gp,1
   10354:	00000073          	ecall
   10358:	00000293          	li	t0,0
   1035c:	08528e63          	beq	t0,t0,103f8 <reset_vector+0x3ac>
   10360:	00005517          	auipc	a0,0x5
   10364:	efb50513          	addi	a0,a0,-261 # 1525b <end_signature+0x17b>
   10368:	499030ef          	jal	ra,14000 <FN_WriteStr>
   1036c:	00005517          	auipc	a0,0x5
   10370:	f0a50513          	addi	a0,a0,-246 # 15276 <end_signature+0x196>
   10374:	48d030ef          	jal	ra,14000 <FN_WriteStr>
   10378:	00005517          	auipc	a0,0x5
   1037c:	f0d50513          	addi	a0,a0,-243 # 15285 <end_signature+0x1a5>
   10380:	481030ef          	jal	ra,14000 <FN_WriteStr>
   10384:	00005517          	auipc	a0,0x5
   10388:	f0950513          	addi	a0,a0,-247 # 1528d <end_signature+0x1ad>
   1038c:	475030ef          	jal	ra,14000 <FN_WriteStr>
   10390:	00005517          	auipc	a0,0x5
   10394:	f0050513          	addi	a0,a0,-256 # 15290 <end_signature+0x1b0>
   10398:	469030ef          	jal	ra,14000 <FN_WriteStr>
   1039c:	00005517          	auipc	a0,0x5
   103a0:	ef750513          	addi	a0,a0,-265 # 15293 <end_signature+0x1b3>
   103a4:	45d030ef          	jal	ra,14000 <FN_WriteStr>
   103a8:	00005517          	auipc	a0,0x5
   103ac:	eee50513          	addi	a0,a0,-274 # 15296 <end_signature+0x1b6>
   103b0:	451030ef          	jal	ra,14000 <FN_WriteStr>
   103b4:	00028513          	mv	a0,t0
   103b8:	465030ef          	jal	ra,1401c <FN_WriteA0>
   103bc:	00005517          	auipc	a0,0x5
   103c0:	edc50513          	addi	a0,a0,-292 # 15298 <end_signature+0x1b8>
   103c4:	43d030ef          	jal	ra,14000 <FN_WriteStr>
   103c8:	00005517          	auipc	a0,0x5
   103cc:	ed650513          	addi	a0,a0,-298 # 1529e <end_signature+0x1be>
   103d0:	431030ef          	jal	ra,14000 <FN_WriteStr>
   103d4:	00005517          	auipc	a0,0x5
   103d8:	ed550513          	addi	a0,a0,-299 # 152a9 <end_signature+0x1c9>
   103dc:	425030ef          	jal	ra,14000 <FN_WriteStr>
   103e0:	06400193          	li	gp,100
   103e4:	0000100f          	fence.i
   103e8:	00018063          	beqz	gp,103e8 <reset_vector+0x39c>
   103ec:	00119193          	slli	gp,gp,0x1
   103f0:	0011e193          	ori	gp,gp,1
   103f4:	00000073          	ecall
   103f8:	00000293          	li	t0,0
   103fc:	08530e63          	beq	t1,t0,10498 <reset_vector+0x44c>
   10400:	00005517          	auipc	a0,0x5
   10404:	eab50513          	addi	a0,a0,-341 # 152ab <end_signature+0x1cb>
   10408:	3f9030ef          	jal	ra,14000 <FN_WriteStr>
   1040c:	00005517          	auipc	a0,0x5
   10410:	eba50513          	addi	a0,a0,-326 # 152c6 <end_signature+0x1e6>
   10414:	3ed030ef          	jal	ra,14000 <FN_WriteStr>
   10418:	00005517          	auipc	a0,0x5
   1041c:	ebd50513          	addi	a0,a0,-323 # 152d5 <end_signature+0x1f5>
   10420:	3e1030ef          	jal	ra,14000 <FN_WriteStr>
   10424:	00005517          	auipc	a0,0x5
   10428:	eb950513          	addi	a0,a0,-327 # 152dd <end_signature+0x1fd>
   1042c:	3d5030ef          	jal	ra,14000 <FN_WriteStr>
   10430:	00005517          	auipc	a0,0x5
   10434:	eb050513          	addi	a0,a0,-336 # 152e0 <end_signature+0x200>
   10438:	3c9030ef          	jal	ra,14000 <FN_WriteStr>
   1043c:	00005517          	auipc	a0,0x5
   10440:	ea750513          	addi	a0,a0,-345 # 152e3 <end_signature+0x203>
   10444:	3bd030ef          	jal	ra,14000 <FN_WriteStr>
   10448:	00005517          	auipc	a0,0x5
   1044c:	e9e50513          	addi	a0,a0,-354 # 152e6 <end_signature+0x206>
   10450:	3b1030ef          	jal	ra,14000 <FN_WriteStr>
   10454:	00030513          	mv	a0,t1
   10458:	3c5030ef          	jal	ra,1401c <FN_WriteA0>
   1045c:	00005517          	auipc	a0,0x5
   10460:	e8c50513          	addi	a0,a0,-372 # 152e8 <end_signature+0x208>
   10464:	39d030ef          	jal	ra,14000 <FN_WriteStr>
   10468:	00005517          	auipc	a0,0x5
   1046c:	e8650513          	addi	a0,a0,-378 # 152ee <end_signature+0x20e>
   10470:	391030ef          	jal	ra,14000 <FN_WriteStr>
   10474:	00005517          	auipc	a0,0x5
   10478:	e8550513          	addi	a0,a0,-379 # 152f9 <end_signature+0x219>
   1047c:	385030ef          	jal	ra,14000 <FN_WriteStr>
   10480:	06400193          	li	gp,100
   10484:	0000100f          	fence.i
   10488:	00018063          	beqz	gp,10488 <reset_vector+0x43c>
   1048c:	00119193          	slli	gp,gp,0x1
   10490:	0011e193          	ori	gp,gp,1
   10494:	00000073          	ecall
   10498:	00000293          	li	t0,0
   1049c:	08538e63          	beq	t2,t0,10538 <reset_vector+0x4ec>
   104a0:	00005517          	auipc	a0,0x5
   104a4:	e5b50513          	addi	a0,a0,-421 # 152fb <end_signature+0x21b>
   104a8:	359030ef          	jal	ra,14000 <FN_WriteStr>
   104ac:	00005517          	auipc	a0,0x5
   104b0:	e6a50513          	addi	a0,a0,-406 # 15316 <end_signature+0x236>
   104b4:	34d030ef          	jal	ra,14000 <FN_WriteStr>
   104b8:	00005517          	auipc	a0,0x5
   104bc:	e6d50513          	addi	a0,a0,-403 # 15325 <end_signature+0x245>
   104c0:	341030ef          	jal	ra,14000 <FN_WriteStr>
   104c4:	00005517          	auipc	a0,0x5
   104c8:	e6950513          	addi	a0,a0,-407 # 1532d <end_signature+0x24d>
   104cc:	335030ef          	jal	ra,14000 <FN_WriteStr>
   104d0:	00005517          	auipc	a0,0x5
   104d4:	e6050513          	addi	a0,a0,-416 # 15330 <end_signature+0x250>
   104d8:	329030ef          	jal	ra,14000 <FN_WriteStr>
   104dc:	00005517          	auipc	a0,0x5
   104e0:	e5750513          	addi	a0,a0,-425 # 15333 <end_signature+0x253>
   104e4:	31d030ef          	jal	ra,14000 <FN_WriteStr>
   104e8:	00005517          	auipc	a0,0x5
   104ec:	e4e50513          	addi	a0,a0,-434 # 15336 <end_signature+0x256>
   104f0:	311030ef          	jal	ra,14000 <FN_WriteStr>
   104f4:	00038513          	mv	a0,t2
   104f8:	325030ef          	jal	ra,1401c <FN_WriteA0>
   104fc:	00005517          	auipc	a0,0x5
   10500:	e3c50513          	addi	a0,a0,-452 # 15338 <end_signature+0x258>
   10504:	2fd030ef          	jal	ra,14000 <FN_WriteStr>
   10508:	00005517          	auipc	a0,0x5
   1050c:	e3650513          	addi	a0,a0,-458 # 1533e <end_signature+0x25e>
   10510:	2f1030ef          	jal	ra,14000 <FN_WriteStr>
   10514:	00005517          	auipc	a0,0x5
   10518:	e3550513          	addi	a0,a0,-459 # 15349 <end_signature+0x269>
   1051c:	2e5030ef          	jal	ra,14000 <FN_WriteStr>
   10520:	06400193          	li	gp,100
   10524:	0000100f          	fence.i
   10528:	00018063          	beqz	gp,10528 <reset_vector+0x4dc>
   1052c:	00119193          	slli	gp,gp,0x1
   10530:	0011e193          	ori	gp,gp,1
   10534:	00000073          	ecall
   10538:	00000293          	li	t0,0
   1053c:	08540e63          	beq	s0,t0,105d8 <reset_vector+0x58c>
   10540:	00005517          	auipc	a0,0x5
   10544:	e0b50513          	addi	a0,a0,-501 # 1534b <end_signature+0x26b>
   10548:	2b9030ef          	jal	ra,14000 <FN_WriteStr>
   1054c:	00005517          	auipc	a0,0x5
   10550:	e1a50513          	addi	a0,a0,-486 # 15366 <end_signature+0x286>
   10554:	2ad030ef          	jal	ra,14000 <FN_WriteStr>
   10558:	00005517          	auipc	a0,0x5
   1055c:	e1d50513          	addi	a0,a0,-483 # 15375 <end_signature+0x295>
   10560:	2a1030ef          	jal	ra,14000 <FN_WriteStr>
   10564:	00005517          	auipc	a0,0x5
   10568:	e1950513          	addi	a0,a0,-487 # 1537d <end_signature+0x29d>
   1056c:	295030ef          	jal	ra,14000 <FN_WriteStr>
   10570:	00005517          	auipc	a0,0x5
   10574:	e1050513          	addi	a0,a0,-496 # 15380 <end_signature+0x2a0>
   10578:	289030ef          	jal	ra,14000 <FN_WriteStr>
   1057c:	00005517          	auipc	a0,0x5
   10580:	e0750513          	addi	a0,a0,-505 # 15383 <end_signature+0x2a3>
   10584:	27d030ef          	jal	ra,14000 <FN_WriteStr>
   10588:	00005517          	auipc	a0,0x5
   1058c:	dfe50513          	addi	a0,a0,-514 # 15386 <end_signature+0x2a6>
   10590:	271030ef          	jal	ra,14000 <FN_WriteStr>
   10594:	00040513          	mv	a0,s0
   10598:	285030ef          	jal	ra,1401c <FN_WriteA0>
   1059c:	00005517          	auipc	a0,0x5
   105a0:	dec50513          	addi	a0,a0,-532 # 15388 <end_signature+0x2a8>
   105a4:	25d030ef          	jal	ra,14000 <FN_WriteStr>
   105a8:	00005517          	auipc	a0,0x5
   105ac:	de650513          	addi	a0,a0,-538 # 1538e <end_signature+0x2ae>
   105b0:	251030ef          	jal	ra,14000 <FN_WriteStr>
   105b4:	00005517          	auipc	a0,0x5
   105b8:	de550513          	addi	a0,a0,-539 # 15399 <end_signature+0x2b9>
   105bc:	245030ef          	jal	ra,14000 <FN_WriteStr>
   105c0:	06400193          	li	gp,100
   105c4:	0000100f          	fence.i
   105c8:	00018063          	beqz	gp,105c8 <reset_vector+0x57c>
   105cc:	00119193          	slli	gp,gp,0x1
   105d0:	0011e193          	ori	gp,gp,1
   105d4:	00000073          	ecall
   105d8:	00005517          	auipc	a0,0x5
   105dc:	dc350513          	addi	a0,a0,-573 # 1539b <end_signature+0x2bb>
   105e0:	221030ef          	jal	ra,14000 <FN_WriteStr>
   105e4:	00005517          	auipc	a0,0x5
   105e8:	dd350513          	addi	a0,a0,-557 # 153b7 <end_signature+0x2d7>
   105ec:	215030ef          	jal	ra,14000 <FN_WriteStr>
   105f0:	00005097          	auipc	ra,0x5
   105f4:	a1408093          	addi	ra,ra,-1516 # 15004 <test_A2_data>
   105f8:	00005117          	auipc	sp,0x5
   105fc:	a5010113          	addi	sp,sp,-1456 # 15048 <test_A2_res>
   10600:	0000a403          	lw	s0,0(ra)
   10604:	00100493          	li	s1,1
   10608:	00f00513          	li	a0,15
   1060c:	01f00593          	li	a1,31
   10610:	00000613          	li	a2,0
   10614:	01000693          	li	a3,16
   10618:	009454b3          	srl	s1,s0,s1
   1061c:	00a45533          	srl	a0,s0,a0
   10620:	00b455b3          	srl	a1,s0,a1
   10624:	00c45633          	srl	a2,s0,a2
   10628:	00d456b3          	srl	a3,s0,a3
   1062c:	00812023          	sw	s0,0(sp)
   10630:	00912223          	sw	s1,4(sp)
   10634:	00a12423          	sw	a0,8(sp)
   10638:	00b12623          	sw	a1,12(sp)
   1063c:	00c12823          	sw	a2,16(sp)
   10640:	00d12a23          	sw	a3,20(sp)
   10644:	00100293          	li	t0,1
   10648:	08540e63          	beq	s0,t0,106e4 <reset_vector+0x698>
   1064c:	00005517          	auipc	a0,0x5
   10650:	dc450513          	addi	a0,a0,-572 # 15410 <end_signature+0x330>
   10654:	1ad030ef          	jal	ra,14000 <FN_WriteStr>
   10658:	00005517          	auipc	a0,0x5
   1065c:	dd350513          	addi	a0,a0,-557 # 1542b <end_signature+0x34b>
   10660:	1a1030ef          	jal	ra,14000 <FN_WriteStr>
   10664:	00005517          	auipc	a0,0x5
   10668:	dd650513          	addi	a0,a0,-554 # 1543a <end_signature+0x35a>
   1066c:	195030ef          	jal	ra,14000 <FN_WriteStr>
   10670:	00005517          	auipc	a0,0x5
   10674:	dd250513          	addi	a0,a0,-558 # 15442 <end_signature+0x362>
   10678:	189030ef          	jal	ra,14000 <FN_WriteStr>
   1067c:	00005517          	auipc	a0,0x5
   10680:	dca50513          	addi	a0,a0,-566 # 15446 <end_signature+0x366>
   10684:	17d030ef          	jal	ra,14000 <FN_WriteStr>
   10688:	00005517          	auipc	a0,0x5
   1068c:	dc150513          	addi	a0,a0,-575 # 15449 <end_signature+0x369>
   10690:	171030ef          	jal	ra,14000 <FN_WriteStr>
   10694:	00005517          	auipc	a0,0x5
   10698:	db850513          	addi	a0,a0,-584 # 1544c <end_signature+0x36c>
   1069c:	165030ef          	jal	ra,14000 <FN_WriteStr>
   106a0:	00040513          	mv	a0,s0
   106a4:	179030ef          	jal	ra,1401c <FN_WriteA0>
   106a8:	00005517          	auipc	a0,0x5
   106ac:	da650513          	addi	a0,a0,-602 # 1544e <end_signature+0x36e>
   106b0:	151030ef          	jal	ra,14000 <FN_WriteStr>
   106b4:	00005517          	auipc	a0,0x5
   106b8:	da050513          	addi	a0,a0,-608 # 15454 <end_signature+0x374>
   106bc:	145030ef          	jal	ra,14000 <FN_WriteStr>
   106c0:	00005517          	auipc	a0,0x5
   106c4:	d9f50513          	addi	a0,a0,-609 # 1545f <end_signature+0x37f>
   106c8:	139030ef          	jal	ra,14000 <FN_WriteStr>
   106cc:	06400193          	li	gp,100
   106d0:	0000100f          	fence.i
   106d4:	00018063          	beqz	gp,106d4 <reset_vector+0x688>
   106d8:	00119193          	slli	gp,gp,0x1
   106dc:	0011e193          	ori	gp,gp,1
   106e0:	00000073          	ecall
   106e4:	00000293          	li	t0,0
   106e8:	08548e63          	beq	s1,t0,10784 <reset_vector+0x738>
   106ec:	00005517          	auipc	a0,0x5
   106f0:	d7550513          	addi	a0,a0,-651 # 15461 <end_signature+0x381>
   106f4:	10d030ef          	jal	ra,14000 <FN_WriteStr>
   106f8:	00005517          	auipc	a0,0x5
   106fc:	d8450513          	addi	a0,a0,-636 # 1547c <end_signature+0x39c>
   10700:	101030ef          	jal	ra,14000 <FN_WriteStr>
   10704:	00005517          	auipc	a0,0x5
   10708:	d8750513          	addi	a0,a0,-633 # 1548b <end_signature+0x3ab>
   1070c:	0f5030ef          	jal	ra,14000 <FN_WriteStr>
   10710:	00005517          	auipc	a0,0x5
   10714:	d8350513          	addi	a0,a0,-637 # 15493 <end_signature+0x3b3>
   10718:	0e9030ef          	jal	ra,14000 <FN_WriteStr>
   1071c:	00005517          	auipc	a0,0x5
   10720:	d7b50513          	addi	a0,a0,-645 # 15497 <end_signature+0x3b7>
   10724:	0dd030ef          	jal	ra,14000 <FN_WriteStr>
   10728:	00005517          	auipc	a0,0x5
   1072c:	d7250513          	addi	a0,a0,-654 # 1549a <end_signature+0x3ba>
   10730:	0d1030ef          	jal	ra,14000 <FN_WriteStr>
   10734:	00005517          	auipc	a0,0x5
   10738:	d6950513          	addi	a0,a0,-663 # 1549d <end_signature+0x3bd>
   1073c:	0c5030ef          	jal	ra,14000 <FN_WriteStr>
   10740:	00048513          	mv	a0,s1
   10744:	0d9030ef          	jal	ra,1401c <FN_WriteA0>
   10748:	00005517          	auipc	a0,0x5
   1074c:	d5750513          	addi	a0,a0,-681 # 1549f <end_signature+0x3bf>
   10750:	0b1030ef          	jal	ra,14000 <FN_WriteStr>
   10754:	00005517          	auipc	a0,0x5
   10758:	d5150513          	addi	a0,a0,-687 # 154a5 <end_signature+0x3c5>
   1075c:	0a5030ef          	jal	ra,14000 <FN_WriteStr>
   10760:	00005517          	auipc	a0,0x5
   10764:	d5050513          	addi	a0,a0,-688 # 154b0 <end_signature+0x3d0>
   10768:	099030ef          	jal	ra,14000 <FN_WriteStr>
   1076c:	06400193          	li	gp,100
   10770:	0000100f          	fence.i
   10774:	00018063          	beqz	gp,10774 <reset_vector+0x728>
   10778:	00119193          	slli	gp,gp,0x1
   1077c:	0011e193          	ori	gp,gp,1
   10780:	00000073          	ecall
   10784:	00000293          	li	t0,0
   10788:	08550e63          	beq	a0,t0,10824 <reset_vector+0x7d8>
   1078c:	00005517          	auipc	a0,0x5
   10790:	d2650513          	addi	a0,a0,-730 # 154b2 <end_signature+0x3d2>
   10794:	06d030ef          	jal	ra,14000 <FN_WriteStr>
   10798:	00005517          	auipc	a0,0x5
   1079c:	d3550513          	addi	a0,a0,-715 # 154cd <end_signature+0x3ed>
   107a0:	061030ef          	jal	ra,14000 <FN_WriteStr>
   107a4:	00005517          	auipc	a0,0x5
   107a8:	d3850513          	addi	a0,a0,-712 # 154dc <end_signature+0x3fc>
   107ac:	055030ef          	jal	ra,14000 <FN_WriteStr>
   107b0:	00005517          	auipc	a0,0x5
   107b4:	d3450513          	addi	a0,a0,-716 # 154e4 <end_signature+0x404>
   107b8:	049030ef          	jal	ra,14000 <FN_WriteStr>
   107bc:	00005517          	auipc	a0,0x5
   107c0:	d2c50513          	addi	a0,a0,-724 # 154e8 <end_signature+0x408>
   107c4:	03d030ef          	jal	ra,14000 <FN_WriteStr>
   107c8:	00005517          	auipc	a0,0x5
   107cc:	d2350513          	addi	a0,a0,-733 # 154eb <end_signature+0x40b>
   107d0:	031030ef          	jal	ra,14000 <FN_WriteStr>
   107d4:	00005517          	auipc	a0,0x5
   107d8:	d1b50513          	addi	a0,a0,-741 # 154ef <end_signature+0x40f>
   107dc:	025030ef          	jal	ra,14000 <FN_WriteStr>
   107e0:	00050513          	mv	a0,a0
   107e4:	039030ef          	jal	ra,1401c <FN_WriteA0>
   107e8:	00005517          	auipc	a0,0x5
   107ec:	d0950513          	addi	a0,a0,-759 # 154f1 <end_signature+0x411>
   107f0:	011030ef          	jal	ra,14000 <FN_WriteStr>
   107f4:	00005517          	auipc	a0,0x5
   107f8:	d0350513          	addi	a0,a0,-765 # 154f7 <end_signature+0x417>
   107fc:	005030ef          	jal	ra,14000 <FN_WriteStr>
   10800:	00005517          	auipc	a0,0x5
   10804:	d0250513          	addi	a0,a0,-766 # 15502 <end_signature+0x422>
   10808:	7f8030ef          	jal	ra,14000 <FN_WriteStr>
   1080c:	06400193          	li	gp,100
   10810:	0000100f          	fence.i
   10814:	00018063          	beqz	gp,10814 <reset_vector+0x7c8>
   10818:	00119193          	slli	gp,gp,0x1
   1081c:	0011e193          	ori	gp,gp,1
   10820:	00000073          	ecall
   10824:	00000293          	li	t0,0
   10828:	08558e63          	beq	a1,t0,108c4 <reset_vector+0x878>
   1082c:	00005517          	auipc	a0,0x5
   10830:	cd850513          	addi	a0,a0,-808 # 15504 <end_signature+0x424>
   10834:	7cc030ef          	jal	ra,14000 <FN_WriteStr>
   10838:	00005517          	auipc	a0,0x5
   1083c:	ce750513          	addi	a0,a0,-793 # 1551f <end_signature+0x43f>
   10840:	7c0030ef          	jal	ra,14000 <FN_WriteStr>
   10844:	00005517          	auipc	a0,0x5
   10848:	cea50513          	addi	a0,a0,-790 # 1552e <end_signature+0x44e>
   1084c:	7b4030ef          	jal	ra,14000 <FN_WriteStr>
   10850:	00005517          	auipc	a0,0x5
   10854:	ce650513          	addi	a0,a0,-794 # 15536 <end_signature+0x456>
   10858:	7a8030ef          	jal	ra,14000 <FN_WriteStr>
   1085c:	00005517          	auipc	a0,0x5
   10860:	cde50513          	addi	a0,a0,-802 # 1553a <end_signature+0x45a>
   10864:	79c030ef          	jal	ra,14000 <FN_WriteStr>
   10868:	00005517          	auipc	a0,0x5
   1086c:	cd550513          	addi	a0,a0,-811 # 1553d <end_signature+0x45d>
   10870:	790030ef          	jal	ra,14000 <FN_WriteStr>
   10874:	00005517          	auipc	a0,0x5
   10878:	ccd50513          	addi	a0,a0,-819 # 15541 <end_signature+0x461>
   1087c:	784030ef          	jal	ra,14000 <FN_WriteStr>
   10880:	00058513          	mv	a0,a1
   10884:	798030ef          	jal	ra,1401c <FN_WriteA0>
   10888:	00005517          	auipc	a0,0x5
   1088c:	cbb50513          	addi	a0,a0,-837 # 15543 <end_signature+0x463>
   10890:	770030ef          	jal	ra,14000 <FN_WriteStr>
   10894:	00005517          	auipc	a0,0x5
   10898:	cb550513          	addi	a0,a0,-843 # 15549 <end_signature+0x469>
   1089c:	764030ef          	jal	ra,14000 <FN_WriteStr>
   108a0:	00005517          	auipc	a0,0x5
   108a4:	cb450513          	addi	a0,a0,-844 # 15554 <end_signature+0x474>
   108a8:	758030ef          	jal	ra,14000 <FN_WriteStr>
   108ac:	06400193          	li	gp,100
   108b0:	0000100f          	fence.i
   108b4:	00018063          	beqz	gp,108b4 <reset_vector+0x868>
   108b8:	00119193          	slli	gp,gp,0x1
   108bc:	0011e193          	ori	gp,gp,1
   108c0:	00000073          	ecall
   108c4:	00100293          	li	t0,1
   108c8:	08560e63          	beq	a2,t0,10964 <reset_vector+0x918>
   108cc:	00005517          	auipc	a0,0x5
   108d0:	c8a50513          	addi	a0,a0,-886 # 15556 <end_signature+0x476>
   108d4:	72c030ef          	jal	ra,14000 <FN_WriteStr>
   108d8:	00005517          	auipc	a0,0x5
   108dc:	c9950513          	addi	a0,a0,-871 # 15571 <end_signature+0x491>
   108e0:	720030ef          	jal	ra,14000 <FN_WriteStr>
   108e4:	00005517          	auipc	a0,0x5
   108e8:	c9c50513          	addi	a0,a0,-868 # 15580 <end_signature+0x4a0>
   108ec:	714030ef          	jal	ra,14000 <FN_WriteStr>
   108f0:	00005517          	auipc	a0,0x5
   108f4:	c9850513          	addi	a0,a0,-872 # 15588 <end_signature+0x4a8>
   108f8:	708030ef          	jal	ra,14000 <FN_WriteStr>
   108fc:	00005517          	auipc	a0,0x5
   10900:	c9050513          	addi	a0,a0,-880 # 1558c <end_signature+0x4ac>
   10904:	6fc030ef          	jal	ra,14000 <FN_WriteStr>
   10908:	00005517          	auipc	a0,0x5
   1090c:	c8750513          	addi	a0,a0,-889 # 1558f <end_signature+0x4af>
   10910:	6f0030ef          	jal	ra,14000 <FN_WriteStr>
   10914:	00005517          	auipc	a0,0x5
   10918:	c7f50513          	addi	a0,a0,-897 # 15593 <end_signature+0x4b3>
   1091c:	6e4030ef          	jal	ra,14000 <FN_WriteStr>
   10920:	00060513          	mv	a0,a2
   10924:	6f8030ef          	jal	ra,1401c <FN_WriteA0>
   10928:	00005517          	auipc	a0,0x5
   1092c:	c6d50513          	addi	a0,a0,-915 # 15595 <end_signature+0x4b5>
   10930:	6d0030ef          	jal	ra,14000 <FN_WriteStr>
   10934:	00005517          	auipc	a0,0x5
   10938:	c6750513          	addi	a0,a0,-921 # 1559b <end_signature+0x4bb>
   1093c:	6c4030ef          	jal	ra,14000 <FN_WriteStr>
   10940:	00005517          	auipc	a0,0x5
   10944:	c6650513          	addi	a0,a0,-922 # 155a6 <end_signature+0x4c6>
   10948:	6b8030ef          	jal	ra,14000 <FN_WriteStr>
   1094c:	06400193          	li	gp,100
   10950:	0000100f          	fence.i
   10954:	00018063          	beqz	gp,10954 <reset_vector+0x908>
   10958:	00119193          	slli	gp,gp,0x1
   1095c:	0011e193          	ori	gp,gp,1
   10960:	00000073          	ecall
   10964:	00000293          	li	t0,0
   10968:	08568e63          	beq	a3,t0,10a04 <reset_vector+0x9b8>
   1096c:	00005517          	auipc	a0,0x5
   10970:	c3c50513          	addi	a0,a0,-964 # 155a8 <end_signature+0x4c8>
   10974:	68c030ef          	jal	ra,14000 <FN_WriteStr>
   10978:	00005517          	auipc	a0,0x5
   1097c:	c4b50513          	addi	a0,a0,-949 # 155c3 <end_signature+0x4e3>
   10980:	680030ef          	jal	ra,14000 <FN_WriteStr>
   10984:	00005517          	auipc	a0,0x5
   10988:	c4e50513          	addi	a0,a0,-946 # 155d2 <end_signature+0x4f2>
   1098c:	674030ef          	jal	ra,14000 <FN_WriteStr>
   10990:	00005517          	auipc	a0,0x5
   10994:	c4a50513          	addi	a0,a0,-950 # 155da <end_signature+0x4fa>
   10998:	668030ef          	jal	ra,14000 <FN_WriteStr>
   1099c:	00005517          	auipc	a0,0x5
   109a0:	c4250513          	addi	a0,a0,-958 # 155de <end_signature+0x4fe>
   109a4:	65c030ef          	jal	ra,14000 <FN_WriteStr>
   109a8:	00005517          	auipc	a0,0x5
   109ac:	c3950513          	addi	a0,a0,-967 # 155e1 <end_signature+0x501>
   109b0:	650030ef          	jal	ra,14000 <FN_WriteStr>
   109b4:	00005517          	auipc	a0,0x5
   109b8:	c3150513          	addi	a0,a0,-975 # 155e5 <end_signature+0x505>
   109bc:	644030ef          	jal	ra,14000 <FN_WriteStr>
   109c0:	00068513          	mv	a0,a3
   109c4:	658030ef          	jal	ra,1401c <FN_WriteA0>
   109c8:	00005517          	auipc	a0,0x5
   109cc:	c1f50513          	addi	a0,a0,-993 # 155e7 <end_signature+0x507>
   109d0:	630030ef          	jal	ra,14000 <FN_WriteStr>
   109d4:	00005517          	auipc	a0,0x5
   109d8:	c1950513          	addi	a0,a0,-999 # 155ed <end_signature+0x50d>
   109dc:	624030ef          	jal	ra,14000 <FN_WriteStr>
   109e0:	00005517          	auipc	a0,0x5
   109e4:	c1850513          	addi	a0,a0,-1000 # 155f8 <end_signature+0x518>
   109e8:	618030ef          	jal	ra,14000 <FN_WriteStr>
   109ec:	06400193          	li	gp,100
   109f0:	0000100f          	fence.i
   109f4:	00018063          	beqz	gp,109f4 <reset_vector+0x9a8>
   109f8:	00119193          	slli	gp,gp,0x1
   109fc:	0011e193          	ori	gp,gp,1
   10a00:	00000073          	ecall
   10a04:	00005517          	auipc	a0,0x5
   10a08:	bf650513          	addi	a0,a0,-1034 # 155fa <end_signature+0x51a>
   10a0c:	5f4030ef          	jal	ra,14000 <FN_WriteStr>
   10a10:	00005517          	auipc	a0,0x5
   10a14:	c0650513          	addi	a0,a0,-1018 # 15616 <end_signature+0x536>
   10a18:	5e8030ef          	jal	ra,14000 <FN_WriteStr>
   10a1c:	00004097          	auipc	ra,0x4
   10a20:	5ec08093          	addi	ra,ra,1516 # 15008 <test_A3_data>
   10a24:	00004117          	auipc	sp,0x4
   10a28:	63c10113          	addi	sp,sp,1596 # 15060 <test_A3_res>
   10a2c:	0000a683          	lw	a3,0(ra)
   10a30:	00100713          	li	a4,1
   10a34:	00f00793          	li	a5,15
   10a38:	01f00813          	li	a6,31
   10a3c:	00000893          	li	a7,0
   10a40:	01000913          	li	s2,16
   10a44:	00e6d733          	srl	a4,a3,a4
   10a48:	00f6d7b3          	srl	a5,a3,a5
   10a4c:	0106d833          	srl	a6,a3,a6
   10a50:	0116d8b3          	srl	a7,a3,a7
   10a54:	0126d933          	srl	s2,a3,s2
   10a58:	00d12023          	sw	a3,0(sp)
   10a5c:	00e12223          	sw	a4,4(sp)
   10a60:	00f12423          	sw	a5,8(sp)
   10a64:	01012623          	sw	a6,12(sp)
   10a68:	01112823          	sw	a7,16(sp)
   10a6c:	01212a23          	sw	s2,20(sp)
   10a70:	fff00293          	li	t0,-1
   10a74:	08568e63          	beq	a3,t0,10b10 <reset_vector+0xac4>
   10a78:	00005517          	auipc	a0,0x5
   10a7c:	bf850513          	addi	a0,a0,-1032 # 15670 <end_signature+0x590>
   10a80:	580030ef          	jal	ra,14000 <FN_WriteStr>
   10a84:	00005517          	auipc	a0,0x5
   10a88:	c0750513          	addi	a0,a0,-1017 # 1568b <end_signature+0x5ab>
   10a8c:	574030ef          	jal	ra,14000 <FN_WriteStr>
   10a90:	00005517          	auipc	a0,0x5
   10a94:	c0a50513          	addi	a0,a0,-1014 # 1569a <end_signature+0x5ba>
   10a98:	568030ef          	jal	ra,14000 <FN_WriteStr>
   10a9c:	00005517          	auipc	a0,0x5
   10aa0:	c0650513          	addi	a0,a0,-1018 # 156a2 <end_signature+0x5c2>
   10aa4:	55c030ef          	jal	ra,14000 <FN_WriteStr>
   10aa8:	00005517          	auipc	a0,0x5
   10aac:	bfe50513          	addi	a0,a0,-1026 # 156a6 <end_signature+0x5c6>
   10ab0:	550030ef          	jal	ra,14000 <FN_WriteStr>
   10ab4:	00005517          	auipc	a0,0x5
   10ab8:	bf550513          	addi	a0,a0,-1035 # 156a9 <end_signature+0x5c9>
   10abc:	544030ef          	jal	ra,14000 <FN_WriteStr>
   10ac0:	00005517          	auipc	a0,0x5
   10ac4:	bed50513          	addi	a0,a0,-1043 # 156ad <end_signature+0x5cd>
   10ac8:	538030ef          	jal	ra,14000 <FN_WriteStr>
   10acc:	00068513          	mv	a0,a3
   10ad0:	54c030ef          	jal	ra,1401c <FN_WriteA0>
   10ad4:	00005517          	auipc	a0,0x5
   10ad8:	bdb50513          	addi	a0,a0,-1061 # 156af <end_signature+0x5cf>
   10adc:	524030ef          	jal	ra,14000 <FN_WriteStr>
   10ae0:	00005517          	auipc	a0,0x5
   10ae4:	bd550513          	addi	a0,a0,-1067 # 156b5 <end_signature+0x5d5>
   10ae8:	518030ef          	jal	ra,14000 <FN_WriteStr>
   10aec:	00005517          	auipc	a0,0x5
   10af0:	bd450513          	addi	a0,a0,-1068 # 156c0 <end_signature+0x5e0>
   10af4:	50c030ef          	jal	ra,14000 <FN_WriteStr>
   10af8:	06400193          	li	gp,100
   10afc:	0000100f          	fence.i
   10b00:	00018063          	beqz	gp,10b00 <reset_vector+0xab4>
   10b04:	00119193          	slli	gp,gp,0x1
   10b08:	0011e193          	ori	gp,gp,1
   10b0c:	00000073          	ecall
   10b10:	800002b7          	lui	t0,0x80000
   10b14:	fff28293          	addi	t0,t0,-1 # 7fffffff <_end+0x7ffe9d52>
   10b18:	08570e63          	beq	a4,t0,10bb4 <reset_vector+0xb68>
   10b1c:	00005517          	auipc	a0,0x5
   10b20:	ba650513          	addi	a0,a0,-1114 # 156c2 <end_signature+0x5e2>
   10b24:	4dc030ef          	jal	ra,14000 <FN_WriteStr>
   10b28:	00005517          	auipc	a0,0x5
   10b2c:	bb550513          	addi	a0,a0,-1099 # 156dd <end_signature+0x5fd>
   10b30:	4d0030ef          	jal	ra,14000 <FN_WriteStr>
   10b34:	00005517          	auipc	a0,0x5
   10b38:	bb850513          	addi	a0,a0,-1096 # 156ec <end_signature+0x60c>
   10b3c:	4c4030ef          	jal	ra,14000 <FN_WriteStr>
   10b40:	00005517          	auipc	a0,0x5
   10b44:	bb450513          	addi	a0,a0,-1100 # 156f4 <end_signature+0x614>
   10b48:	4b8030ef          	jal	ra,14000 <FN_WriteStr>
   10b4c:	00005517          	auipc	a0,0x5
   10b50:	bac50513          	addi	a0,a0,-1108 # 156f8 <end_signature+0x618>
   10b54:	4ac030ef          	jal	ra,14000 <FN_WriteStr>
   10b58:	00005517          	auipc	a0,0x5
   10b5c:	ba350513          	addi	a0,a0,-1117 # 156fb <end_signature+0x61b>
   10b60:	4a0030ef          	jal	ra,14000 <FN_WriteStr>
   10b64:	00005517          	auipc	a0,0x5
   10b68:	b9b50513          	addi	a0,a0,-1125 # 156ff <end_signature+0x61f>
   10b6c:	494030ef          	jal	ra,14000 <FN_WriteStr>
   10b70:	00070513          	mv	a0,a4
   10b74:	4a8030ef          	jal	ra,1401c <FN_WriteA0>
   10b78:	00005517          	auipc	a0,0x5
   10b7c:	b8950513          	addi	a0,a0,-1143 # 15701 <end_signature+0x621>
   10b80:	480030ef          	jal	ra,14000 <FN_WriteStr>
   10b84:	00005517          	auipc	a0,0x5
   10b88:	b8350513          	addi	a0,a0,-1149 # 15707 <end_signature+0x627>
   10b8c:	474030ef          	jal	ra,14000 <FN_WriteStr>
   10b90:	00005517          	auipc	a0,0x5
   10b94:	b8250513          	addi	a0,a0,-1150 # 15712 <end_signature+0x632>
   10b98:	468030ef          	jal	ra,14000 <FN_WriteStr>
   10b9c:	06400193          	li	gp,100
   10ba0:	0000100f          	fence.i
   10ba4:	00018063          	beqz	gp,10ba4 <reset_vector+0xb58>
   10ba8:	00119193          	slli	gp,gp,0x1
   10bac:	0011e193          	ori	gp,gp,1
   10bb0:	00000073          	ecall
   10bb4:	000202b7          	lui	t0,0x20
   10bb8:	fff28293          	addi	t0,t0,-1 # 1ffff <_end+0x9d52>
   10bbc:	08578e63          	beq	a5,t0,10c58 <reset_vector+0xc0c>
   10bc0:	00005517          	auipc	a0,0x5
   10bc4:	b5450513          	addi	a0,a0,-1196 # 15714 <end_signature+0x634>
   10bc8:	438030ef          	jal	ra,14000 <FN_WriteStr>
   10bcc:	00005517          	auipc	a0,0x5
   10bd0:	b6350513          	addi	a0,a0,-1181 # 1572f <end_signature+0x64f>
   10bd4:	42c030ef          	jal	ra,14000 <FN_WriteStr>
   10bd8:	00005517          	auipc	a0,0x5
   10bdc:	b6650513          	addi	a0,a0,-1178 # 1573e <end_signature+0x65e>
   10be0:	420030ef          	jal	ra,14000 <FN_WriteStr>
   10be4:	00005517          	auipc	a0,0x5
   10be8:	b6250513          	addi	a0,a0,-1182 # 15746 <end_signature+0x666>
   10bec:	414030ef          	jal	ra,14000 <FN_WriteStr>
   10bf0:	00005517          	auipc	a0,0x5
   10bf4:	b5a50513          	addi	a0,a0,-1190 # 1574a <end_signature+0x66a>
   10bf8:	408030ef          	jal	ra,14000 <FN_WriteStr>
   10bfc:	00005517          	auipc	a0,0x5
   10c00:	b5150513          	addi	a0,a0,-1199 # 1574d <end_signature+0x66d>
   10c04:	3fc030ef          	jal	ra,14000 <FN_WriteStr>
   10c08:	00005517          	auipc	a0,0x5
   10c0c:	b4950513          	addi	a0,a0,-1207 # 15751 <end_signature+0x671>
   10c10:	3f0030ef          	jal	ra,14000 <FN_WriteStr>
   10c14:	00078513          	mv	a0,a5
   10c18:	404030ef          	jal	ra,1401c <FN_WriteA0>
   10c1c:	00005517          	auipc	a0,0x5
   10c20:	b3750513          	addi	a0,a0,-1225 # 15753 <end_signature+0x673>
   10c24:	3dc030ef          	jal	ra,14000 <FN_WriteStr>
   10c28:	00005517          	auipc	a0,0x5
   10c2c:	b3150513          	addi	a0,a0,-1231 # 15759 <end_signature+0x679>
   10c30:	3d0030ef          	jal	ra,14000 <FN_WriteStr>
   10c34:	00005517          	auipc	a0,0x5
   10c38:	b3050513          	addi	a0,a0,-1232 # 15764 <end_signature+0x684>
   10c3c:	3c4030ef          	jal	ra,14000 <FN_WriteStr>
   10c40:	06400193          	li	gp,100
   10c44:	0000100f          	fence.i
   10c48:	00018063          	beqz	gp,10c48 <reset_vector+0xbfc>
   10c4c:	00119193          	slli	gp,gp,0x1
   10c50:	0011e193          	ori	gp,gp,1
   10c54:	00000073          	ecall
   10c58:	00100293          	li	t0,1
   10c5c:	08580e63          	beq	a6,t0,10cf8 <reset_vector+0xcac>
   10c60:	00005517          	auipc	a0,0x5
   10c64:	b0650513          	addi	a0,a0,-1274 # 15766 <end_signature+0x686>
   10c68:	398030ef          	jal	ra,14000 <FN_WriteStr>
   10c6c:	00005517          	auipc	a0,0x5
   10c70:	b1550513          	addi	a0,a0,-1259 # 15781 <end_signature+0x6a1>
   10c74:	38c030ef          	jal	ra,14000 <FN_WriteStr>
   10c78:	00005517          	auipc	a0,0x5
   10c7c:	b1850513          	addi	a0,a0,-1256 # 15790 <end_signature+0x6b0>
   10c80:	380030ef          	jal	ra,14000 <FN_WriteStr>
   10c84:	00005517          	auipc	a0,0x5
   10c88:	b1450513          	addi	a0,a0,-1260 # 15798 <end_signature+0x6b8>
   10c8c:	374030ef          	jal	ra,14000 <FN_WriteStr>
   10c90:	00005517          	auipc	a0,0x5
   10c94:	b0c50513          	addi	a0,a0,-1268 # 1579c <end_signature+0x6bc>
   10c98:	368030ef          	jal	ra,14000 <FN_WriteStr>
   10c9c:	00005517          	auipc	a0,0x5
   10ca0:	b0350513          	addi	a0,a0,-1277 # 1579f <end_signature+0x6bf>
   10ca4:	35c030ef          	jal	ra,14000 <FN_WriteStr>
   10ca8:	00005517          	auipc	a0,0x5
   10cac:	afb50513          	addi	a0,a0,-1285 # 157a3 <end_signature+0x6c3>
   10cb0:	350030ef          	jal	ra,14000 <FN_WriteStr>
   10cb4:	00080513          	mv	a0,a6
   10cb8:	364030ef          	jal	ra,1401c <FN_WriteA0>
   10cbc:	00005517          	auipc	a0,0x5
   10cc0:	ae950513          	addi	a0,a0,-1303 # 157a5 <end_signature+0x6c5>
   10cc4:	33c030ef          	jal	ra,14000 <FN_WriteStr>
   10cc8:	00005517          	auipc	a0,0x5
   10ccc:	ae350513          	addi	a0,a0,-1309 # 157ab <end_signature+0x6cb>
   10cd0:	330030ef          	jal	ra,14000 <FN_WriteStr>
   10cd4:	00005517          	auipc	a0,0x5
   10cd8:	ae250513          	addi	a0,a0,-1310 # 157b6 <end_signature+0x6d6>
   10cdc:	324030ef          	jal	ra,14000 <FN_WriteStr>
   10ce0:	06400193          	li	gp,100
   10ce4:	0000100f          	fence.i
   10ce8:	00018063          	beqz	gp,10ce8 <reset_vector+0xc9c>
   10cec:	00119193          	slli	gp,gp,0x1
   10cf0:	0011e193          	ori	gp,gp,1
   10cf4:	00000073          	ecall
   10cf8:	fff00293          	li	t0,-1
   10cfc:	08588e63          	beq	a7,t0,10d98 <reset_vector+0xd4c>
   10d00:	00005517          	auipc	a0,0x5
   10d04:	ab850513          	addi	a0,a0,-1352 # 157b8 <end_signature+0x6d8>
   10d08:	2f8030ef          	jal	ra,14000 <FN_WriteStr>
   10d0c:	00005517          	auipc	a0,0x5
   10d10:	ac750513          	addi	a0,a0,-1337 # 157d3 <end_signature+0x6f3>
   10d14:	2ec030ef          	jal	ra,14000 <FN_WriteStr>
   10d18:	00005517          	auipc	a0,0x5
   10d1c:	aca50513          	addi	a0,a0,-1334 # 157e2 <end_signature+0x702>
   10d20:	2e0030ef          	jal	ra,14000 <FN_WriteStr>
   10d24:	00005517          	auipc	a0,0x5
   10d28:	ac650513          	addi	a0,a0,-1338 # 157ea <end_signature+0x70a>
   10d2c:	2d4030ef          	jal	ra,14000 <FN_WriteStr>
   10d30:	00005517          	auipc	a0,0x5
   10d34:	abe50513          	addi	a0,a0,-1346 # 157ee <end_signature+0x70e>
   10d38:	2c8030ef          	jal	ra,14000 <FN_WriteStr>
   10d3c:	00005517          	auipc	a0,0x5
   10d40:	ab550513          	addi	a0,a0,-1355 # 157f1 <end_signature+0x711>
   10d44:	2bc030ef          	jal	ra,14000 <FN_WriteStr>
   10d48:	00005517          	auipc	a0,0x5
   10d4c:	aad50513          	addi	a0,a0,-1363 # 157f5 <end_signature+0x715>
   10d50:	2b0030ef          	jal	ra,14000 <FN_WriteStr>
   10d54:	00088513          	mv	a0,a7
   10d58:	2c4030ef          	jal	ra,1401c <FN_WriteA0>
   10d5c:	00005517          	auipc	a0,0x5
   10d60:	a9b50513          	addi	a0,a0,-1381 # 157f7 <end_signature+0x717>
   10d64:	29c030ef          	jal	ra,14000 <FN_WriteStr>
   10d68:	00005517          	auipc	a0,0x5
   10d6c:	a9550513          	addi	a0,a0,-1387 # 157fd <end_signature+0x71d>
   10d70:	290030ef          	jal	ra,14000 <FN_WriteStr>
   10d74:	00005517          	auipc	a0,0x5
   10d78:	a9450513          	addi	a0,a0,-1388 # 15808 <end_signature+0x728>
   10d7c:	284030ef          	jal	ra,14000 <FN_WriteStr>
   10d80:	06400193          	li	gp,100
   10d84:	0000100f          	fence.i
   10d88:	00018063          	beqz	gp,10d88 <reset_vector+0xd3c>
   10d8c:	00119193          	slli	gp,gp,0x1
   10d90:	0011e193          	ori	gp,gp,1
   10d94:	00000073          	ecall
   10d98:	000102b7          	lui	t0,0x10
   10d9c:	fff28293          	addi	t0,t0,-1 # ffff <_start-0x1>
   10da0:	08590e63          	beq	s2,t0,10e3c <reset_vector+0xdf0>
   10da4:	00005517          	auipc	a0,0x5
   10da8:	a6650513          	addi	a0,a0,-1434 # 1580a <end_signature+0x72a>
   10dac:	254030ef          	jal	ra,14000 <FN_WriteStr>
   10db0:	00005517          	auipc	a0,0x5
   10db4:	a7550513          	addi	a0,a0,-1419 # 15825 <end_signature+0x745>
   10db8:	248030ef          	jal	ra,14000 <FN_WriteStr>
   10dbc:	00005517          	auipc	a0,0x5
   10dc0:	a7850513          	addi	a0,a0,-1416 # 15834 <end_signature+0x754>
   10dc4:	23c030ef          	jal	ra,14000 <FN_WriteStr>
   10dc8:	00005517          	auipc	a0,0x5
   10dcc:	a7450513          	addi	a0,a0,-1420 # 1583c <end_signature+0x75c>
   10dd0:	230030ef          	jal	ra,14000 <FN_WriteStr>
   10dd4:	00005517          	auipc	a0,0x5
   10dd8:	a6c50513          	addi	a0,a0,-1428 # 15840 <end_signature+0x760>
   10ddc:	224030ef          	jal	ra,14000 <FN_WriteStr>
   10de0:	00005517          	auipc	a0,0x5
   10de4:	a6350513          	addi	a0,a0,-1437 # 15843 <end_signature+0x763>
   10de8:	218030ef          	jal	ra,14000 <FN_WriteStr>
   10dec:	00005517          	auipc	a0,0x5
   10df0:	a5b50513          	addi	a0,a0,-1445 # 15847 <end_signature+0x767>
   10df4:	20c030ef          	jal	ra,14000 <FN_WriteStr>
   10df8:	00090513          	mv	a0,s2
   10dfc:	220030ef          	jal	ra,1401c <FN_WriteA0>
   10e00:	00005517          	auipc	a0,0x5
   10e04:	a4950513          	addi	a0,a0,-1463 # 15849 <end_signature+0x769>
   10e08:	1f8030ef          	jal	ra,14000 <FN_WriteStr>
   10e0c:	00005517          	auipc	a0,0x5
   10e10:	a4350513          	addi	a0,a0,-1469 # 1584f <end_signature+0x76f>
   10e14:	1ec030ef          	jal	ra,14000 <FN_WriteStr>
   10e18:	00005517          	auipc	a0,0x5
   10e1c:	a4250513          	addi	a0,a0,-1470 # 1585a <end_signature+0x77a>
   10e20:	1e0030ef          	jal	ra,14000 <FN_WriteStr>
   10e24:	06400193          	li	gp,100
   10e28:	0000100f          	fence.i
   10e2c:	00018063          	beqz	gp,10e2c <reset_vector+0xde0>
   10e30:	00119193          	slli	gp,gp,0x1
   10e34:	0011e193          	ori	gp,gp,1
   10e38:	00000073          	ecall
   10e3c:	00005517          	auipc	a0,0x5
   10e40:	a2050513          	addi	a0,a0,-1504 # 1585c <end_signature+0x77c>
   10e44:	1bc030ef          	jal	ra,14000 <FN_WriteStr>
   10e48:	00005517          	auipc	a0,0x5
   10e4c:	a3050513          	addi	a0,a0,-1488 # 15878 <end_signature+0x798>
   10e50:	1b0030ef          	jal	ra,14000 <FN_WriteStr>
   10e54:	00004617          	auipc	a2,0x4
   10e58:	1b860613          	addi	a2,a2,440 # 1500c <test_A4_data>
   10e5c:	00004697          	auipc	a3,0x4
   10e60:	21c68693          	addi	a3,a3,540 # 15078 <test_A4_res>
   10e64:	00062903          	lw	s2,0(a2)
   10e68:	00100993          	li	s3,1
   10e6c:	00f00a13          	li	s4,15
   10e70:	01f00a93          	li	s5,31
   10e74:	00000b13          	li	s6,0
   10e78:	01000b93          	li	s7,16
   10e7c:	013959b3          	srl	s3,s2,s3
   10e80:	01495a33          	srl	s4,s2,s4
   10e84:	01595ab3          	srl	s5,s2,s5
   10e88:	01695b33          	srl	s6,s2,s6
   10e8c:	01795bb3          	srl	s7,s2,s7
   10e90:	0126a023          	sw	s2,0(a3)
   10e94:	0136a223          	sw	s3,4(a3)
   10e98:	0146a423          	sw	s4,8(a3)
   10e9c:	0156a623          	sw	s5,12(a3)
   10ea0:	0166a823          	sw	s6,16(a3)
   10ea4:	0176aa23          	sw	s7,20(a3)
   10ea8:	800002b7          	lui	t0,0x80000
   10eac:	fff28293          	addi	t0,t0,-1 # 7fffffff <_end+0x7ffe9d52>
   10eb0:	08590e63          	beq	s2,t0,10f4c <reset_vector+0xf00>
   10eb4:	00005517          	auipc	a0,0x5
   10eb8:	a2650513          	addi	a0,a0,-1498 # 158da <end_signature+0x7fa>
   10ebc:	144030ef          	jal	ra,14000 <FN_WriteStr>
   10ec0:	00005517          	auipc	a0,0x5
   10ec4:	a3550513          	addi	a0,a0,-1483 # 158f5 <end_signature+0x815>
   10ec8:	138030ef          	jal	ra,14000 <FN_WriteStr>
   10ecc:	00005517          	auipc	a0,0x5
   10ed0:	a3850513          	addi	a0,a0,-1480 # 15904 <end_signature+0x824>
   10ed4:	12c030ef          	jal	ra,14000 <FN_WriteStr>
   10ed8:	00005517          	auipc	a0,0x5
   10edc:	a3450513          	addi	a0,a0,-1484 # 1590c <end_signature+0x82c>
   10ee0:	120030ef          	jal	ra,14000 <FN_WriteStr>
   10ee4:	00005517          	auipc	a0,0x5
   10ee8:	a2c50513          	addi	a0,a0,-1492 # 15910 <end_signature+0x830>
   10eec:	114030ef          	jal	ra,14000 <FN_WriteStr>
   10ef0:	00005517          	auipc	a0,0x5
   10ef4:	a2350513          	addi	a0,a0,-1501 # 15913 <end_signature+0x833>
   10ef8:	108030ef          	jal	ra,14000 <FN_WriteStr>
   10efc:	00005517          	auipc	a0,0x5
   10f00:	a1b50513          	addi	a0,a0,-1509 # 15917 <end_signature+0x837>
   10f04:	0fc030ef          	jal	ra,14000 <FN_WriteStr>
   10f08:	00090513          	mv	a0,s2
   10f0c:	110030ef          	jal	ra,1401c <FN_WriteA0>
   10f10:	00005517          	auipc	a0,0x5
   10f14:	a0950513          	addi	a0,a0,-1527 # 15919 <end_signature+0x839>
   10f18:	0e8030ef          	jal	ra,14000 <FN_WriteStr>
   10f1c:	00005517          	auipc	a0,0x5
   10f20:	a0350513          	addi	a0,a0,-1533 # 1591f <end_signature+0x83f>
   10f24:	0dc030ef          	jal	ra,14000 <FN_WriteStr>
   10f28:	00005517          	auipc	a0,0x5
   10f2c:	a0250513          	addi	a0,a0,-1534 # 1592a <end_signature+0x84a>
   10f30:	0d0030ef          	jal	ra,14000 <FN_WriteStr>
   10f34:	06400193          	li	gp,100
   10f38:	0000100f          	fence.i
   10f3c:	00018063          	beqz	gp,10f3c <reset_vector+0xef0>
   10f40:	00119193          	slli	gp,gp,0x1
   10f44:	0011e193          	ori	gp,gp,1
   10f48:	00000073          	ecall
   10f4c:	400002b7          	lui	t0,0x40000
   10f50:	fff28293          	addi	t0,t0,-1 # 3fffffff <_end+0x3ffe9d52>
   10f54:	08598e63          	beq	s3,t0,10ff0 <reset_vector+0xfa4>
   10f58:	00005517          	auipc	a0,0x5
   10f5c:	9d450513          	addi	a0,a0,-1580 # 1592c <end_signature+0x84c>
   10f60:	0a0030ef          	jal	ra,14000 <FN_WriteStr>
   10f64:	00005517          	auipc	a0,0x5
   10f68:	9e350513          	addi	a0,a0,-1565 # 15947 <end_signature+0x867>
   10f6c:	094030ef          	jal	ra,14000 <FN_WriteStr>
   10f70:	00005517          	auipc	a0,0x5
   10f74:	9e650513          	addi	a0,a0,-1562 # 15956 <end_signature+0x876>
   10f78:	088030ef          	jal	ra,14000 <FN_WriteStr>
   10f7c:	00005517          	auipc	a0,0x5
   10f80:	9e250513          	addi	a0,a0,-1566 # 1595e <end_signature+0x87e>
   10f84:	07c030ef          	jal	ra,14000 <FN_WriteStr>
   10f88:	00005517          	auipc	a0,0x5
   10f8c:	9da50513          	addi	a0,a0,-1574 # 15962 <end_signature+0x882>
   10f90:	070030ef          	jal	ra,14000 <FN_WriteStr>
   10f94:	00005517          	auipc	a0,0x5
   10f98:	9d150513          	addi	a0,a0,-1583 # 15965 <end_signature+0x885>
   10f9c:	064030ef          	jal	ra,14000 <FN_WriteStr>
   10fa0:	00005517          	auipc	a0,0x5
   10fa4:	9c950513          	addi	a0,a0,-1591 # 15969 <end_signature+0x889>
   10fa8:	058030ef          	jal	ra,14000 <FN_WriteStr>
   10fac:	00098513          	mv	a0,s3
   10fb0:	06c030ef          	jal	ra,1401c <FN_WriteA0>
   10fb4:	00005517          	auipc	a0,0x5
   10fb8:	9b750513          	addi	a0,a0,-1609 # 1596b <end_signature+0x88b>
   10fbc:	044030ef          	jal	ra,14000 <FN_WriteStr>
   10fc0:	00005517          	auipc	a0,0x5
   10fc4:	9b150513          	addi	a0,a0,-1615 # 15971 <end_signature+0x891>
   10fc8:	038030ef          	jal	ra,14000 <FN_WriteStr>
   10fcc:	00005517          	auipc	a0,0x5
   10fd0:	9b050513          	addi	a0,a0,-1616 # 1597c <end_signature+0x89c>
   10fd4:	02c030ef          	jal	ra,14000 <FN_WriteStr>
   10fd8:	06400193          	li	gp,100
   10fdc:	0000100f          	fence.i
   10fe0:	00018063          	beqz	gp,10fe0 <reset_vector+0xf94>
   10fe4:	00119193          	slli	gp,gp,0x1
   10fe8:	0011e193          	ori	gp,gp,1
   10fec:	00000073          	ecall
   10ff0:	000102b7          	lui	t0,0x10
   10ff4:	fff28293          	addi	t0,t0,-1 # ffff <_start-0x1>
   10ff8:	085a0e63          	beq	s4,t0,11094 <reset_vector+0x1048>
   10ffc:	00005517          	auipc	a0,0x5
   11000:	98250513          	addi	a0,a0,-1662 # 1597e <end_signature+0x89e>
   11004:	7fd020ef          	jal	ra,14000 <FN_WriteStr>
   11008:	00005517          	auipc	a0,0x5
   1100c:	99150513          	addi	a0,a0,-1647 # 15999 <end_signature+0x8b9>
   11010:	7f1020ef          	jal	ra,14000 <FN_WriteStr>
   11014:	00005517          	auipc	a0,0x5
   11018:	99450513          	addi	a0,a0,-1644 # 159a8 <end_signature+0x8c8>
   1101c:	7e5020ef          	jal	ra,14000 <FN_WriteStr>
   11020:	00005517          	auipc	a0,0x5
   11024:	99050513          	addi	a0,a0,-1648 # 159b0 <end_signature+0x8d0>
   11028:	7d9020ef          	jal	ra,14000 <FN_WriteStr>
   1102c:	00005517          	auipc	a0,0x5
   11030:	98850513          	addi	a0,a0,-1656 # 159b4 <end_signature+0x8d4>
   11034:	7cd020ef          	jal	ra,14000 <FN_WriteStr>
   11038:	00005517          	auipc	a0,0x5
   1103c:	97f50513          	addi	a0,a0,-1665 # 159b7 <end_signature+0x8d7>
   11040:	7c1020ef          	jal	ra,14000 <FN_WriteStr>
   11044:	00005517          	auipc	a0,0x5
   11048:	97750513          	addi	a0,a0,-1673 # 159bb <end_signature+0x8db>
   1104c:	7b5020ef          	jal	ra,14000 <FN_WriteStr>
   11050:	000a0513          	mv	a0,s4
   11054:	7c9020ef          	jal	ra,1401c <FN_WriteA0>
   11058:	00005517          	auipc	a0,0x5
   1105c:	96550513          	addi	a0,a0,-1691 # 159bd <end_signature+0x8dd>
   11060:	7a1020ef          	jal	ra,14000 <FN_WriteStr>
   11064:	00005517          	auipc	a0,0x5
   11068:	95f50513          	addi	a0,a0,-1697 # 159c3 <end_signature+0x8e3>
   1106c:	795020ef          	jal	ra,14000 <FN_WriteStr>
   11070:	00005517          	auipc	a0,0x5
   11074:	95e50513          	addi	a0,a0,-1698 # 159ce <end_signature+0x8ee>
   11078:	789020ef          	jal	ra,14000 <FN_WriteStr>
   1107c:	06400193          	li	gp,100
   11080:	0000100f          	fence.i
   11084:	00018063          	beqz	gp,11084 <reset_vector+0x1038>
   11088:	00119193          	slli	gp,gp,0x1
   1108c:	0011e193          	ori	gp,gp,1
   11090:	00000073          	ecall
   11094:	00000293          	li	t0,0
   11098:	085a8e63          	beq	s5,t0,11134 <reset_vector+0x10e8>
   1109c:	00005517          	auipc	a0,0x5
   110a0:	93450513          	addi	a0,a0,-1740 # 159d0 <end_signature+0x8f0>
   110a4:	75d020ef          	jal	ra,14000 <FN_WriteStr>
   110a8:	00005517          	auipc	a0,0x5
   110ac:	94350513          	addi	a0,a0,-1725 # 159eb <end_signature+0x90b>
   110b0:	751020ef          	jal	ra,14000 <FN_WriteStr>
   110b4:	00005517          	auipc	a0,0x5
   110b8:	94650513          	addi	a0,a0,-1722 # 159fa <end_signature+0x91a>
   110bc:	745020ef          	jal	ra,14000 <FN_WriteStr>
   110c0:	00005517          	auipc	a0,0x5
   110c4:	94250513          	addi	a0,a0,-1726 # 15a02 <end_signature+0x922>
   110c8:	739020ef          	jal	ra,14000 <FN_WriteStr>
   110cc:	00005517          	auipc	a0,0x5
   110d0:	93a50513          	addi	a0,a0,-1734 # 15a06 <end_signature+0x926>
   110d4:	72d020ef          	jal	ra,14000 <FN_WriteStr>
   110d8:	00005517          	auipc	a0,0x5
   110dc:	93150513          	addi	a0,a0,-1743 # 15a09 <end_signature+0x929>
   110e0:	721020ef          	jal	ra,14000 <FN_WriteStr>
   110e4:	00005517          	auipc	a0,0x5
   110e8:	92950513          	addi	a0,a0,-1751 # 15a0d <end_signature+0x92d>
   110ec:	715020ef          	jal	ra,14000 <FN_WriteStr>
   110f0:	000a8513          	mv	a0,s5
   110f4:	729020ef          	jal	ra,1401c <FN_WriteA0>
   110f8:	00005517          	auipc	a0,0x5
   110fc:	91750513          	addi	a0,a0,-1769 # 15a0f <end_signature+0x92f>
   11100:	701020ef          	jal	ra,14000 <FN_WriteStr>
   11104:	00005517          	auipc	a0,0x5
   11108:	91150513          	addi	a0,a0,-1775 # 15a15 <end_signature+0x935>
   1110c:	6f5020ef          	jal	ra,14000 <FN_WriteStr>
   11110:	00005517          	auipc	a0,0x5
   11114:	91050513          	addi	a0,a0,-1776 # 15a20 <end_signature+0x940>
   11118:	6e9020ef          	jal	ra,14000 <FN_WriteStr>
   1111c:	06400193          	li	gp,100
   11120:	0000100f          	fence.i
   11124:	00018063          	beqz	gp,11124 <reset_vector+0x10d8>
   11128:	00119193          	slli	gp,gp,0x1
   1112c:	0011e193          	ori	gp,gp,1
   11130:	00000073          	ecall
   11134:	800002b7          	lui	t0,0x80000
   11138:	fff28293          	addi	t0,t0,-1 # 7fffffff <_end+0x7ffe9d52>
   1113c:	085b0e63          	beq	s6,t0,111d8 <reset_vector+0x118c>
   11140:	00005517          	auipc	a0,0x5
   11144:	8e250513          	addi	a0,a0,-1822 # 15a22 <end_signature+0x942>
   11148:	6b9020ef          	jal	ra,14000 <FN_WriteStr>
   1114c:	00005517          	auipc	a0,0x5
   11150:	8f150513          	addi	a0,a0,-1807 # 15a3d <end_signature+0x95d>
   11154:	6ad020ef          	jal	ra,14000 <FN_WriteStr>
   11158:	00005517          	auipc	a0,0x5
   1115c:	8f450513          	addi	a0,a0,-1804 # 15a4c <end_signature+0x96c>
   11160:	6a1020ef          	jal	ra,14000 <FN_WriteStr>
   11164:	00005517          	auipc	a0,0x5
   11168:	8f050513          	addi	a0,a0,-1808 # 15a54 <end_signature+0x974>
   1116c:	695020ef          	jal	ra,14000 <FN_WriteStr>
   11170:	00005517          	auipc	a0,0x5
   11174:	8e850513          	addi	a0,a0,-1816 # 15a58 <end_signature+0x978>
   11178:	689020ef          	jal	ra,14000 <FN_WriteStr>
   1117c:	00005517          	auipc	a0,0x5
   11180:	8df50513          	addi	a0,a0,-1825 # 15a5b <end_signature+0x97b>
   11184:	67d020ef          	jal	ra,14000 <FN_WriteStr>
   11188:	00005517          	auipc	a0,0x5
   1118c:	8d750513          	addi	a0,a0,-1833 # 15a5f <end_signature+0x97f>
   11190:	671020ef          	jal	ra,14000 <FN_WriteStr>
   11194:	000b0513          	mv	a0,s6
   11198:	685020ef          	jal	ra,1401c <FN_WriteA0>
   1119c:	00005517          	auipc	a0,0x5
   111a0:	8c550513          	addi	a0,a0,-1851 # 15a61 <end_signature+0x981>
   111a4:	65d020ef          	jal	ra,14000 <FN_WriteStr>
   111a8:	00005517          	auipc	a0,0x5
   111ac:	8bf50513          	addi	a0,a0,-1857 # 15a67 <end_signature+0x987>
   111b0:	651020ef          	jal	ra,14000 <FN_WriteStr>
   111b4:	00005517          	auipc	a0,0x5
   111b8:	8be50513          	addi	a0,a0,-1858 # 15a72 <end_signature+0x992>
   111bc:	645020ef          	jal	ra,14000 <FN_WriteStr>
   111c0:	06400193          	li	gp,100
   111c4:	0000100f          	fence.i
   111c8:	00018063          	beqz	gp,111c8 <reset_vector+0x117c>
   111cc:	00119193          	slli	gp,gp,0x1
   111d0:	0011e193          	ori	gp,gp,1
   111d4:	00000073          	ecall
   111d8:	000082b7          	lui	t0,0x8
   111dc:	fff28293          	addi	t0,t0,-1 # 7fff <_start-0x8001>
   111e0:	085b8e63          	beq	s7,t0,1127c <reset_vector+0x1230>
   111e4:	00005517          	auipc	a0,0x5
   111e8:	89050513          	addi	a0,a0,-1904 # 15a74 <end_signature+0x994>
   111ec:	615020ef          	jal	ra,14000 <FN_WriteStr>
   111f0:	00005517          	auipc	a0,0x5
   111f4:	89f50513          	addi	a0,a0,-1889 # 15a8f <end_signature+0x9af>
   111f8:	609020ef          	jal	ra,14000 <FN_WriteStr>
   111fc:	00005517          	auipc	a0,0x5
   11200:	8a250513          	addi	a0,a0,-1886 # 15a9e <end_signature+0x9be>
   11204:	5fd020ef          	jal	ra,14000 <FN_WriteStr>
   11208:	00005517          	auipc	a0,0x5
   1120c:	89e50513          	addi	a0,a0,-1890 # 15aa6 <end_signature+0x9c6>
   11210:	5f1020ef          	jal	ra,14000 <FN_WriteStr>
   11214:	00005517          	auipc	a0,0x5
   11218:	89650513          	addi	a0,a0,-1898 # 15aaa <end_signature+0x9ca>
   1121c:	5e5020ef          	jal	ra,14000 <FN_WriteStr>
   11220:	00005517          	auipc	a0,0x5
   11224:	88d50513          	addi	a0,a0,-1907 # 15aad <end_signature+0x9cd>
   11228:	5d9020ef          	jal	ra,14000 <FN_WriteStr>
   1122c:	00005517          	auipc	a0,0x5
   11230:	88550513          	addi	a0,a0,-1915 # 15ab1 <end_signature+0x9d1>
   11234:	5cd020ef          	jal	ra,14000 <FN_WriteStr>
   11238:	000b8513          	mv	a0,s7
   1123c:	5e1020ef          	jal	ra,1401c <FN_WriteA0>
   11240:	00005517          	auipc	a0,0x5
   11244:	87350513          	addi	a0,a0,-1933 # 15ab3 <end_signature+0x9d3>
   11248:	5b9020ef          	jal	ra,14000 <FN_WriteStr>
   1124c:	00005517          	auipc	a0,0x5
   11250:	86d50513          	addi	a0,a0,-1939 # 15ab9 <end_signature+0x9d9>
   11254:	5ad020ef          	jal	ra,14000 <FN_WriteStr>
   11258:	00005517          	auipc	a0,0x5
   1125c:	86c50513          	addi	a0,a0,-1940 # 15ac4 <end_signature+0x9e4>
   11260:	5a1020ef          	jal	ra,14000 <FN_WriteStr>
   11264:	06400193          	li	gp,100
   11268:	0000100f          	fence.i
   1126c:	00018063          	beqz	gp,1126c <reset_vector+0x1220>
   11270:	00119193          	slli	gp,gp,0x1
   11274:	0011e193          	ori	gp,gp,1
   11278:	00000073          	ecall
   1127c:	00005517          	auipc	a0,0x5
   11280:	84a50513          	addi	a0,a0,-1974 # 15ac6 <end_signature+0x9e6>
   11284:	57d020ef          	jal	ra,14000 <FN_WriteStr>
   11288:	00005517          	auipc	a0,0x5
   1128c:	85a50513          	addi	a0,a0,-1958 # 15ae2 <end_signature+0xa02>
   11290:	571020ef          	jal	ra,14000 <FN_WriteStr>
   11294:	00004617          	auipc	a2,0x4
   11298:	d7c60613          	addi	a2,a2,-644 # 15010 <test_A5_data>
   1129c:	00004697          	auipc	a3,0x4
   112a0:	df468693          	addi	a3,a3,-524 # 15090 <test_A5_res>
   112a4:	00062b83          	lw	s7,0(a2)
   112a8:	00100c13          	li	s8,1
   112ac:	00f00c93          	li	s9,15
   112b0:	01f00d13          	li	s10,31
   112b4:	00000d93          	li	s11,0
   112b8:	01000e13          	li	t3,16
   112bc:	018bdc33          	srl	s8,s7,s8
   112c0:	019bdcb3          	srl	s9,s7,s9
   112c4:	01abdd33          	srl	s10,s7,s10
   112c8:	01bbddb3          	srl	s11,s7,s11
   112cc:	01cbde33          	srl	t3,s7,t3
   112d0:	0176a023          	sw	s7,0(a3)
   112d4:	0186a223          	sw	s8,4(a3)
   112d8:	0196a423          	sw	s9,8(a3)
   112dc:	01a6a623          	sw	s10,12(a3)
   112e0:	01b6a823          	sw	s11,16(a3)
   112e4:	01c6aa23          	sw	t3,20(a3)
   112e8:	800002b7          	lui	t0,0x80000
   112ec:	085b8e63          	beq	s7,t0,11388 <reset_vector+0x133c>
   112f0:	00005517          	auipc	a0,0x5
   112f4:	85450513          	addi	a0,a0,-1964 # 15b44 <end_signature+0xa64>
   112f8:	509020ef          	jal	ra,14000 <FN_WriteStr>
   112fc:	00005517          	auipc	a0,0x5
   11300:	86350513          	addi	a0,a0,-1949 # 15b5f <end_signature+0xa7f>
   11304:	4fd020ef          	jal	ra,14000 <FN_WriteStr>
   11308:	00005517          	auipc	a0,0x5
   1130c:	86650513          	addi	a0,a0,-1946 # 15b6e <end_signature+0xa8e>
   11310:	4f1020ef          	jal	ra,14000 <FN_WriteStr>
   11314:	00005517          	auipc	a0,0x5
   11318:	86250513          	addi	a0,a0,-1950 # 15b76 <end_signature+0xa96>
   1131c:	4e5020ef          	jal	ra,14000 <FN_WriteStr>
   11320:	00005517          	auipc	a0,0x5
   11324:	85a50513          	addi	a0,a0,-1958 # 15b7a <end_signature+0xa9a>
   11328:	4d9020ef          	jal	ra,14000 <FN_WriteStr>
   1132c:	00005517          	auipc	a0,0x5
   11330:	85150513          	addi	a0,a0,-1967 # 15b7d <end_signature+0xa9d>
   11334:	4cd020ef          	jal	ra,14000 <FN_WriteStr>
   11338:	00005517          	auipc	a0,0x5
   1133c:	84950513          	addi	a0,a0,-1975 # 15b81 <end_signature+0xaa1>
   11340:	4c1020ef          	jal	ra,14000 <FN_WriteStr>
   11344:	000b8513          	mv	a0,s7
   11348:	4d5020ef          	jal	ra,1401c <FN_WriteA0>
   1134c:	00005517          	auipc	a0,0x5
   11350:	83750513          	addi	a0,a0,-1993 # 15b83 <end_signature+0xaa3>
   11354:	4ad020ef          	jal	ra,14000 <FN_WriteStr>
   11358:	00005517          	auipc	a0,0x5
   1135c:	83150513          	addi	a0,a0,-1999 # 15b89 <end_signature+0xaa9>
   11360:	4a1020ef          	jal	ra,14000 <FN_WriteStr>
   11364:	00005517          	auipc	a0,0x5
   11368:	83050513          	addi	a0,a0,-2000 # 15b94 <end_signature+0xab4>
   1136c:	495020ef          	jal	ra,14000 <FN_WriteStr>
   11370:	06400193          	li	gp,100
   11374:	0000100f          	fence.i
   11378:	00018063          	beqz	gp,11378 <reset_vector+0x132c>
   1137c:	00119193          	slli	gp,gp,0x1
   11380:	0011e193          	ori	gp,gp,1
   11384:	00000073          	ecall
   11388:	400002b7          	lui	t0,0x40000
   1138c:	085c0e63          	beq	s8,t0,11428 <reset_vector+0x13dc>
   11390:	00005517          	auipc	a0,0x5
   11394:	80650513          	addi	a0,a0,-2042 # 15b96 <end_signature+0xab6>
   11398:	469020ef          	jal	ra,14000 <FN_WriteStr>
   1139c:	00005517          	auipc	a0,0x5
   113a0:	81550513          	addi	a0,a0,-2027 # 15bb1 <end_signature+0xad1>
   113a4:	45d020ef          	jal	ra,14000 <FN_WriteStr>
   113a8:	00005517          	auipc	a0,0x5
   113ac:	81850513          	addi	a0,a0,-2024 # 15bc0 <end_signature+0xae0>
   113b0:	451020ef          	jal	ra,14000 <FN_WriteStr>
   113b4:	00005517          	auipc	a0,0x5
   113b8:	81450513          	addi	a0,a0,-2028 # 15bc8 <end_signature+0xae8>
   113bc:	445020ef          	jal	ra,14000 <FN_WriteStr>
   113c0:	00005517          	auipc	a0,0x5
   113c4:	80c50513          	addi	a0,a0,-2036 # 15bcc <end_signature+0xaec>
   113c8:	439020ef          	jal	ra,14000 <FN_WriteStr>
   113cc:	00005517          	auipc	a0,0x5
   113d0:	80350513          	addi	a0,a0,-2045 # 15bcf <end_signature+0xaef>
   113d4:	42d020ef          	jal	ra,14000 <FN_WriteStr>
   113d8:	00004517          	auipc	a0,0x4
   113dc:	7fb50513          	addi	a0,a0,2043 # 15bd3 <end_signature+0xaf3>
   113e0:	421020ef          	jal	ra,14000 <FN_WriteStr>
   113e4:	000c0513          	mv	a0,s8
   113e8:	435020ef          	jal	ra,1401c <FN_WriteA0>
   113ec:	00004517          	auipc	a0,0x4
   113f0:	7e950513          	addi	a0,a0,2025 # 15bd5 <end_signature+0xaf5>
   113f4:	40d020ef          	jal	ra,14000 <FN_WriteStr>
   113f8:	00004517          	auipc	a0,0x4
   113fc:	7e350513          	addi	a0,a0,2019 # 15bdb <end_signature+0xafb>
   11400:	401020ef          	jal	ra,14000 <FN_WriteStr>
   11404:	00004517          	auipc	a0,0x4
   11408:	7e250513          	addi	a0,a0,2018 # 15be6 <end_signature+0xb06>
   1140c:	3f5020ef          	jal	ra,14000 <FN_WriteStr>
   11410:	06400193          	li	gp,100
   11414:	0000100f          	fence.i
   11418:	00018063          	beqz	gp,11418 <reset_vector+0x13cc>
   1141c:	00119193          	slli	gp,gp,0x1
   11420:	0011e193          	ori	gp,gp,1
   11424:	00000073          	ecall
   11428:	000102b7          	lui	t0,0x10
   1142c:	085c8e63          	beq	s9,t0,114c8 <reset_vector+0x147c>
   11430:	00004517          	auipc	a0,0x4
   11434:	7b850513          	addi	a0,a0,1976 # 15be8 <end_signature+0xb08>
   11438:	3c9020ef          	jal	ra,14000 <FN_WriteStr>
   1143c:	00004517          	auipc	a0,0x4
   11440:	7c750513          	addi	a0,a0,1991 # 15c03 <end_signature+0xb23>
   11444:	3bd020ef          	jal	ra,14000 <FN_WriteStr>
   11448:	00004517          	auipc	a0,0x4
   1144c:	7ca50513          	addi	a0,a0,1994 # 15c12 <end_signature+0xb32>
   11450:	3b1020ef          	jal	ra,14000 <FN_WriteStr>
   11454:	00004517          	auipc	a0,0x4
   11458:	7c650513          	addi	a0,a0,1990 # 15c1a <end_signature+0xb3a>
   1145c:	3a5020ef          	jal	ra,14000 <FN_WriteStr>
   11460:	00004517          	auipc	a0,0x4
   11464:	7be50513          	addi	a0,a0,1982 # 15c1e <end_signature+0xb3e>
   11468:	399020ef          	jal	ra,14000 <FN_WriteStr>
   1146c:	00004517          	auipc	a0,0x4
   11470:	7b550513          	addi	a0,a0,1973 # 15c21 <end_signature+0xb41>
   11474:	38d020ef          	jal	ra,14000 <FN_WriteStr>
   11478:	00004517          	auipc	a0,0x4
   1147c:	7ad50513          	addi	a0,a0,1965 # 15c25 <end_signature+0xb45>
   11480:	381020ef          	jal	ra,14000 <FN_WriteStr>
   11484:	000c8513          	mv	a0,s9
   11488:	395020ef          	jal	ra,1401c <FN_WriteA0>
   1148c:	00004517          	auipc	a0,0x4
   11490:	79b50513          	addi	a0,a0,1947 # 15c27 <end_signature+0xb47>
   11494:	36d020ef          	jal	ra,14000 <FN_WriteStr>
   11498:	00004517          	auipc	a0,0x4
   1149c:	79550513          	addi	a0,a0,1941 # 15c2d <end_signature+0xb4d>
   114a0:	361020ef          	jal	ra,14000 <FN_WriteStr>
   114a4:	00004517          	auipc	a0,0x4
   114a8:	79450513          	addi	a0,a0,1940 # 15c38 <end_signature+0xb58>
   114ac:	355020ef          	jal	ra,14000 <FN_WriteStr>
   114b0:	06400193          	li	gp,100
   114b4:	0000100f          	fence.i
   114b8:	00018063          	beqz	gp,114b8 <reset_vector+0x146c>
   114bc:	00119193          	slli	gp,gp,0x1
   114c0:	0011e193          	ori	gp,gp,1
   114c4:	00000073          	ecall
   114c8:	00100293          	li	t0,1
   114cc:	085d0e63          	beq	s10,t0,11568 <reset_vector+0x151c>
   114d0:	00004517          	auipc	a0,0x4
   114d4:	76a50513          	addi	a0,a0,1898 # 15c3a <end_signature+0xb5a>
   114d8:	329020ef          	jal	ra,14000 <FN_WriteStr>
   114dc:	00004517          	auipc	a0,0x4
   114e0:	77950513          	addi	a0,a0,1913 # 15c55 <end_signature+0xb75>
   114e4:	31d020ef          	jal	ra,14000 <FN_WriteStr>
   114e8:	00004517          	auipc	a0,0x4
   114ec:	77c50513          	addi	a0,a0,1916 # 15c64 <end_signature+0xb84>
   114f0:	311020ef          	jal	ra,14000 <FN_WriteStr>
   114f4:	00004517          	auipc	a0,0x4
   114f8:	77850513          	addi	a0,a0,1912 # 15c6c <end_signature+0xb8c>
   114fc:	305020ef          	jal	ra,14000 <FN_WriteStr>
   11500:	00004517          	auipc	a0,0x4
   11504:	77050513          	addi	a0,a0,1904 # 15c70 <end_signature+0xb90>
   11508:	2f9020ef          	jal	ra,14000 <FN_WriteStr>
   1150c:	00004517          	auipc	a0,0x4
   11510:	76750513          	addi	a0,a0,1895 # 15c73 <end_signature+0xb93>
   11514:	2ed020ef          	jal	ra,14000 <FN_WriteStr>
   11518:	00004517          	auipc	a0,0x4
   1151c:	75f50513          	addi	a0,a0,1887 # 15c77 <end_signature+0xb97>
   11520:	2e1020ef          	jal	ra,14000 <FN_WriteStr>
   11524:	000d0513          	mv	a0,s10
   11528:	2f5020ef          	jal	ra,1401c <FN_WriteA0>
   1152c:	00004517          	auipc	a0,0x4
   11530:	74d50513          	addi	a0,a0,1869 # 15c79 <end_signature+0xb99>
   11534:	2cd020ef          	jal	ra,14000 <FN_WriteStr>
   11538:	00004517          	auipc	a0,0x4
   1153c:	74750513          	addi	a0,a0,1863 # 15c7f <end_signature+0xb9f>
   11540:	2c1020ef          	jal	ra,14000 <FN_WriteStr>
   11544:	00004517          	auipc	a0,0x4
   11548:	74650513          	addi	a0,a0,1862 # 15c8a <end_signature+0xbaa>
   1154c:	2b5020ef          	jal	ra,14000 <FN_WriteStr>
   11550:	06400193          	li	gp,100
   11554:	0000100f          	fence.i
   11558:	00018063          	beqz	gp,11558 <reset_vector+0x150c>
   1155c:	00119193          	slli	gp,gp,0x1
   11560:	0011e193          	ori	gp,gp,1
   11564:	00000073          	ecall
   11568:	800002b7          	lui	t0,0x80000
   1156c:	085d8e63          	beq	s11,t0,11608 <reset_vector+0x15bc>
   11570:	00004517          	auipc	a0,0x4
   11574:	71c50513          	addi	a0,a0,1820 # 15c8c <end_signature+0xbac>
   11578:	289020ef          	jal	ra,14000 <FN_WriteStr>
   1157c:	00004517          	auipc	a0,0x4
   11580:	72b50513          	addi	a0,a0,1835 # 15ca7 <end_signature+0xbc7>
   11584:	27d020ef          	jal	ra,14000 <FN_WriteStr>
   11588:	00004517          	auipc	a0,0x4
   1158c:	72e50513          	addi	a0,a0,1838 # 15cb6 <end_signature+0xbd6>
   11590:	271020ef          	jal	ra,14000 <FN_WriteStr>
   11594:	00004517          	auipc	a0,0x4
   11598:	72a50513          	addi	a0,a0,1834 # 15cbe <end_signature+0xbde>
   1159c:	265020ef          	jal	ra,14000 <FN_WriteStr>
   115a0:	00004517          	auipc	a0,0x4
   115a4:	72250513          	addi	a0,a0,1826 # 15cc2 <end_signature+0xbe2>
   115a8:	259020ef          	jal	ra,14000 <FN_WriteStr>
   115ac:	00004517          	auipc	a0,0x4
   115b0:	71950513          	addi	a0,a0,1817 # 15cc5 <end_signature+0xbe5>
   115b4:	24d020ef          	jal	ra,14000 <FN_WriteStr>
   115b8:	00004517          	auipc	a0,0x4
   115bc:	71150513          	addi	a0,a0,1809 # 15cc9 <end_signature+0xbe9>
   115c0:	241020ef          	jal	ra,14000 <FN_WriteStr>
   115c4:	000d8513          	mv	a0,s11
   115c8:	255020ef          	jal	ra,1401c <FN_WriteA0>
   115cc:	00004517          	auipc	a0,0x4
   115d0:	6ff50513          	addi	a0,a0,1791 # 15ccb <end_signature+0xbeb>
   115d4:	22d020ef          	jal	ra,14000 <FN_WriteStr>
   115d8:	00004517          	auipc	a0,0x4
   115dc:	6f950513          	addi	a0,a0,1785 # 15cd1 <end_signature+0xbf1>
   115e0:	221020ef          	jal	ra,14000 <FN_WriteStr>
   115e4:	00004517          	auipc	a0,0x4
   115e8:	6f850513          	addi	a0,a0,1784 # 15cdc <end_signature+0xbfc>
   115ec:	215020ef          	jal	ra,14000 <FN_WriteStr>
   115f0:	06400193          	li	gp,100
   115f4:	0000100f          	fence.i
   115f8:	00018063          	beqz	gp,115f8 <reset_vector+0x15ac>
   115fc:	00119193          	slli	gp,gp,0x1
   11600:	0011e193          	ori	gp,gp,1
   11604:	00000073          	ecall
   11608:	000082b7          	lui	t0,0x8
   1160c:	085e0e63          	beq	t3,t0,116a8 <reset_vector+0x165c>
   11610:	00004517          	auipc	a0,0x4
   11614:	6ce50513          	addi	a0,a0,1742 # 15cde <end_signature+0xbfe>
   11618:	1e9020ef          	jal	ra,14000 <FN_WriteStr>
   1161c:	00004517          	auipc	a0,0x4
   11620:	6dd50513          	addi	a0,a0,1757 # 15cf9 <end_signature+0xc19>
   11624:	1dd020ef          	jal	ra,14000 <FN_WriteStr>
   11628:	00004517          	auipc	a0,0x4
   1162c:	6e050513          	addi	a0,a0,1760 # 15d08 <end_signature+0xc28>
   11630:	1d1020ef          	jal	ra,14000 <FN_WriteStr>
   11634:	00004517          	auipc	a0,0x4
   11638:	6dc50513          	addi	a0,a0,1756 # 15d10 <end_signature+0xc30>
   1163c:	1c5020ef          	jal	ra,14000 <FN_WriteStr>
   11640:	00004517          	auipc	a0,0x4
   11644:	6d450513          	addi	a0,a0,1748 # 15d14 <end_signature+0xc34>
   11648:	1b9020ef          	jal	ra,14000 <FN_WriteStr>
   1164c:	00004517          	auipc	a0,0x4
   11650:	6cb50513          	addi	a0,a0,1739 # 15d17 <end_signature+0xc37>
   11654:	1ad020ef          	jal	ra,14000 <FN_WriteStr>
   11658:	00004517          	auipc	a0,0x4
   1165c:	6c350513          	addi	a0,a0,1731 # 15d1b <end_signature+0xc3b>
   11660:	1a1020ef          	jal	ra,14000 <FN_WriteStr>
   11664:	000e0513          	mv	a0,t3
   11668:	1b5020ef          	jal	ra,1401c <FN_WriteA0>
   1166c:	00004517          	auipc	a0,0x4
   11670:	6b150513          	addi	a0,a0,1713 # 15d1d <end_signature+0xc3d>
   11674:	18d020ef          	jal	ra,14000 <FN_WriteStr>
   11678:	00004517          	auipc	a0,0x4
   1167c:	6ab50513          	addi	a0,a0,1707 # 15d23 <end_signature+0xc43>
   11680:	181020ef          	jal	ra,14000 <FN_WriteStr>
   11684:	00004517          	auipc	a0,0x4
   11688:	6aa50513          	addi	a0,a0,1706 # 15d2e <end_signature+0xc4e>
   1168c:	175020ef          	jal	ra,14000 <FN_WriteStr>
   11690:	06400193          	li	gp,100
   11694:	0000100f          	fence.i
   11698:	00018063          	beqz	gp,11698 <reset_vector+0x164c>
   1169c:	00119193          	slli	gp,gp,0x1
   116a0:	0011e193          	ori	gp,gp,1
   116a4:	00000073          	ecall
   116a8:	00004517          	auipc	a0,0x4
   116ac:	68850513          	addi	a0,a0,1672 # 15d30 <end_signature+0xc50>
   116b0:	151020ef          	jal	ra,14000 <FN_WriteStr>
   116b4:	00004517          	auipc	a0,0x4
   116b8:	69850513          	addi	a0,a0,1688 # 15d4c <end_signature+0xc6c>
   116bc:	145020ef          	jal	ra,14000 <FN_WriteStr>
   116c0:	00004c97          	auipc	s9,0x4
   116c4:	954c8c93          	addi	s9,s9,-1708 # 15014 <test_B_data>
   116c8:	00004d17          	auipc	s10,0x4
   116cc:	9e0d0d13          	addi	s10,s10,-1568 # 150a8 <test_B_res>
   116d0:	000cae03          	lw	t3,0(s9)
   116d4:	00100d93          	li	s11,1
   116d8:	01be5eb3          	srl	t4,t3,s11
   116dc:	01bedf33          	srl	t5,t4,s11
   116e0:	01bf5fb3          	srl	t6,t5,s11
   116e4:	01bfd0b3          	srl	ra,t6,s11
   116e8:	01b0d133          	srl	sp,ra,s11
   116ec:	01b151b3          	srl	gp,sp,s11
   116f0:	01cd2023          	sw	t3,0(s10)
   116f4:	01dd2223          	sw	t4,4(s10)
   116f8:	01ed2423          	sw	t5,8(s10)
   116fc:	01fd2623          	sw	t6,12(s10)
   11700:	001d2823          	sw	ra,16(s10)
   11704:	002d2a23          	sw	sp,20(s10)
   11708:	003d2c23          	sw	gp,24(s10)
   1170c:	abcdf2b7          	lui	t0,0xabcdf
   11710:	f1028293          	addi	t0,t0,-240 # abcdef10 <_end+0xabcc8c63>
   11714:	085e0e63          	beq	t3,t0,117b0 <reset_vector+0x1764>
   11718:	00004517          	auipc	a0,0x4
   1171c:	66d50513          	addi	a0,a0,1645 # 15d85 <end_signature+0xca5>
   11720:	0e1020ef          	jal	ra,14000 <FN_WriteStr>
   11724:	00004517          	auipc	a0,0x4
   11728:	67c50513          	addi	a0,a0,1660 # 15da0 <end_signature+0xcc0>
   1172c:	0d5020ef          	jal	ra,14000 <FN_WriteStr>
   11730:	00004517          	auipc	a0,0x4
   11734:	67f50513          	addi	a0,a0,1663 # 15daf <end_signature+0xccf>
   11738:	0c9020ef          	jal	ra,14000 <FN_WriteStr>
   1173c:	00004517          	auipc	a0,0x4
   11740:	67b50513          	addi	a0,a0,1659 # 15db7 <end_signature+0xcd7>
   11744:	0bd020ef          	jal	ra,14000 <FN_WriteStr>
   11748:	00004517          	auipc	a0,0x4
   1174c:	67350513          	addi	a0,a0,1651 # 15dbb <end_signature+0xcdb>
   11750:	0b1020ef          	jal	ra,14000 <FN_WriteStr>
   11754:	00004517          	auipc	a0,0x4
   11758:	66a50513          	addi	a0,a0,1642 # 15dbe <end_signature+0xcde>
   1175c:	0a5020ef          	jal	ra,14000 <FN_WriteStr>
   11760:	00004517          	auipc	a0,0x4
   11764:	66250513          	addi	a0,a0,1634 # 15dc2 <end_signature+0xce2>
   11768:	099020ef          	jal	ra,14000 <FN_WriteStr>
   1176c:	000e0513          	mv	a0,t3
   11770:	0ad020ef          	jal	ra,1401c <FN_WriteA0>
   11774:	00004517          	auipc	a0,0x4
   11778:	65050513          	addi	a0,a0,1616 # 15dc4 <end_signature+0xce4>
   1177c:	085020ef          	jal	ra,14000 <FN_WriteStr>
   11780:	00004517          	auipc	a0,0x4
   11784:	64a50513          	addi	a0,a0,1610 # 15dca <end_signature+0xcea>
   11788:	079020ef          	jal	ra,14000 <FN_WriteStr>
   1178c:	00004517          	auipc	a0,0x4
   11790:	64950513          	addi	a0,a0,1609 # 15dd5 <end_signature+0xcf5>
   11794:	06d020ef          	jal	ra,14000 <FN_WriteStr>
   11798:	06400193          	li	gp,100
   1179c:	0000100f          	fence.i
   117a0:	00018063          	beqz	gp,117a0 <reset_vector+0x1754>
   117a4:	00119193          	slli	gp,gp,0x1
   117a8:	0011e193          	ori	gp,gp,1
   117ac:	00000073          	ecall
   117b0:	55e6f2b7          	lui	t0,0x55e6f
   117b4:	78828293          	addi	t0,t0,1928 # 55e6f788 <_end+0x55e594db>
   117b8:	085e8e63          	beq	t4,t0,11854 <reset_vector+0x1808>
   117bc:	00004517          	auipc	a0,0x4
   117c0:	61b50513          	addi	a0,a0,1563 # 15dd7 <end_signature+0xcf7>
   117c4:	03d020ef          	jal	ra,14000 <FN_WriteStr>
   117c8:	00004517          	auipc	a0,0x4
   117cc:	62a50513          	addi	a0,a0,1578 # 15df2 <end_signature+0xd12>
   117d0:	031020ef          	jal	ra,14000 <FN_WriteStr>
   117d4:	00004517          	auipc	a0,0x4
   117d8:	62d50513          	addi	a0,a0,1581 # 15e01 <end_signature+0xd21>
   117dc:	025020ef          	jal	ra,14000 <FN_WriteStr>
   117e0:	00004517          	auipc	a0,0x4
   117e4:	62950513          	addi	a0,a0,1577 # 15e09 <end_signature+0xd29>
   117e8:	019020ef          	jal	ra,14000 <FN_WriteStr>
   117ec:	00004517          	auipc	a0,0x4
   117f0:	62150513          	addi	a0,a0,1569 # 15e0d <end_signature+0xd2d>
   117f4:	00d020ef          	jal	ra,14000 <FN_WriteStr>
   117f8:	00004517          	auipc	a0,0x4
   117fc:	61850513          	addi	a0,a0,1560 # 15e10 <end_signature+0xd30>
   11800:	001020ef          	jal	ra,14000 <FN_WriteStr>
   11804:	00004517          	auipc	a0,0x4
   11808:	61050513          	addi	a0,a0,1552 # 15e14 <end_signature+0xd34>
   1180c:	7f4020ef          	jal	ra,14000 <FN_WriteStr>
   11810:	000e8513          	mv	a0,t4
   11814:	009020ef          	jal	ra,1401c <FN_WriteA0>
   11818:	00004517          	auipc	a0,0x4
   1181c:	5fe50513          	addi	a0,a0,1534 # 15e16 <end_signature+0xd36>
   11820:	7e0020ef          	jal	ra,14000 <FN_WriteStr>
   11824:	00004517          	auipc	a0,0x4
   11828:	5f850513          	addi	a0,a0,1528 # 15e1c <end_signature+0xd3c>
   1182c:	7d4020ef          	jal	ra,14000 <FN_WriteStr>
   11830:	00004517          	auipc	a0,0x4
   11834:	5f750513          	addi	a0,a0,1527 # 15e27 <end_signature+0xd47>
   11838:	7c8020ef          	jal	ra,14000 <FN_WriteStr>
   1183c:	06400193          	li	gp,100
   11840:	0000100f          	fence.i
   11844:	00018063          	beqz	gp,11844 <reset_vector+0x17f8>
   11848:	00119193          	slli	gp,gp,0x1
   1184c:	0011e193          	ori	gp,gp,1
   11850:	00000073          	ecall
   11854:	2af382b7          	lui	t0,0x2af38
   11858:	bc428293          	addi	t0,t0,-1084 # 2af37bc4 <_end+0x2af21917>
   1185c:	085f0e63          	beq	t5,t0,118f8 <reset_vector+0x18ac>
   11860:	00004517          	auipc	a0,0x4
   11864:	5c950513          	addi	a0,a0,1481 # 15e29 <end_signature+0xd49>
   11868:	798020ef          	jal	ra,14000 <FN_WriteStr>
   1186c:	00004517          	auipc	a0,0x4
   11870:	5d850513          	addi	a0,a0,1496 # 15e44 <end_signature+0xd64>
   11874:	78c020ef          	jal	ra,14000 <FN_WriteStr>
   11878:	00004517          	auipc	a0,0x4
   1187c:	5db50513          	addi	a0,a0,1499 # 15e53 <end_signature+0xd73>
   11880:	780020ef          	jal	ra,14000 <FN_WriteStr>
   11884:	00004517          	auipc	a0,0x4
   11888:	5d750513          	addi	a0,a0,1495 # 15e5b <end_signature+0xd7b>
   1188c:	774020ef          	jal	ra,14000 <FN_WriteStr>
   11890:	00004517          	auipc	a0,0x4
   11894:	5cf50513          	addi	a0,a0,1487 # 15e5f <end_signature+0xd7f>
   11898:	768020ef          	jal	ra,14000 <FN_WriteStr>
   1189c:	00004517          	auipc	a0,0x4
   118a0:	5c650513          	addi	a0,a0,1478 # 15e62 <end_signature+0xd82>
   118a4:	75c020ef          	jal	ra,14000 <FN_WriteStr>
   118a8:	00004517          	auipc	a0,0x4
   118ac:	5be50513          	addi	a0,a0,1470 # 15e66 <end_signature+0xd86>
   118b0:	750020ef          	jal	ra,14000 <FN_WriteStr>
   118b4:	000f0513          	mv	a0,t5
   118b8:	764020ef          	jal	ra,1401c <FN_WriteA0>
   118bc:	00004517          	auipc	a0,0x4
   118c0:	5ac50513          	addi	a0,a0,1452 # 15e68 <end_signature+0xd88>
   118c4:	73c020ef          	jal	ra,14000 <FN_WriteStr>
   118c8:	00004517          	auipc	a0,0x4
   118cc:	5a650513          	addi	a0,a0,1446 # 15e6e <end_signature+0xd8e>
   118d0:	730020ef          	jal	ra,14000 <FN_WriteStr>
   118d4:	00004517          	auipc	a0,0x4
   118d8:	5a550513          	addi	a0,a0,1445 # 15e79 <end_signature+0xd99>
   118dc:	724020ef          	jal	ra,14000 <FN_WriteStr>
   118e0:	06400193          	li	gp,100
   118e4:	0000100f          	fence.i
   118e8:	00018063          	beqz	gp,118e8 <reset_vector+0x189c>
   118ec:	00119193          	slli	gp,gp,0x1
   118f0:	0011e193          	ori	gp,gp,1
   118f4:	00000073          	ecall
   118f8:	1579c2b7          	lui	t0,0x1579c
   118fc:	de228293          	addi	t0,t0,-542 # 1579bde2 <_end+0x15785b35>
   11900:	085f8e63          	beq	t6,t0,1199c <reset_vector+0x1950>
   11904:	00004517          	auipc	a0,0x4
   11908:	57750513          	addi	a0,a0,1399 # 15e7b <end_signature+0xd9b>
   1190c:	6f4020ef          	jal	ra,14000 <FN_WriteStr>
   11910:	00004517          	auipc	a0,0x4
   11914:	58650513          	addi	a0,a0,1414 # 15e96 <end_signature+0xdb6>
   11918:	6e8020ef          	jal	ra,14000 <FN_WriteStr>
   1191c:	00004517          	auipc	a0,0x4
   11920:	58950513          	addi	a0,a0,1417 # 15ea5 <end_signature+0xdc5>
   11924:	6dc020ef          	jal	ra,14000 <FN_WriteStr>
   11928:	00004517          	auipc	a0,0x4
   1192c:	58550513          	addi	a0,a0,1413 # 15ead <end_signature+0xdcd>
   11930:	6d0020ef          	jal	ra,14000 <FN_WriteStr>
   11934:	00004517          	auipc	a0,0x4
   11938:	57d50513          	addi	a0,a0,1405 # 15eb1 <end_signature+0xdd1>
   1193c:	6c4020ef          	jal	ra,14000 <FN_WriteStr>
   11940:	00004517          	auipc	a0,0x4
   11944:	57450513          	addi	a0,a0,1396 # 15eb4 <end_signature+0xdd4>
   11948:	6b8020ef          	jal	ra,14000 <FN_WriteStr>
   1194c:	00004517          	auipc	a0,0x4
   11950:	56c50513          	addi	a0,a0,1388 # 15eb8 <end_signature+0xdd8>
   11954:	6ac020ef          	jal	ra,14000 <FN_WriteStr>
   11958:	000f8513          	mv	a0,t6
   1195c:	6c0020ef          	jal	ra,1401c <FN_WriteA0>
   11960:	00004517          	auipc	a0,0x4
   11964:	55a50513          	addi	a0,a0,1370 # 15eba <end_signature+0xdda>
   11968:	698020ef          	jal	ra,14000 <FN_WriteStr>
   1196c:	00004517          	auipc	a0,0x4
   11970:	55450513          	addi	a0,a0,1364 # 15ec0 <end_signature+0xde0>
   11974:	68c020ef          	jal	ra,14000 <FN_WriteStr>
   11978:	00004517          	auipc	a0,0x4
   1197c:	55350513          	addi	a0,a0,1363 # 15ecb <end_signature+0xdeb>
   11980:	680020ef          	jal	ra,14000 <FN_WriteStr>
   11984:	06400193          	li	gp,100
   11988:	0000100f          	fence.i
   1198c:	00018063          	beqz	gp,1198c <reset_vector+0x1940>
   11990:	00119193          	slli	gp,gp,0x1
   11994:	0011e193          	ori	gp,gp,1
   11998:	00000073          	ecall
   1199c:	055e72b7          	lui	t0,0x55e7
   119a0:	f7828293          	addi	t0,t0,-136 # 55e6f78 <_end+0x55d0ccb>
   119a4:	08510e63          	beq	sp,t0,11a40 <reset_vector+0x19f4>
   119a8:	00004517          	auipc	a0,0x4
   119ac:	52550513          	addi	a0,a0,1317 # 15ecd <end_signature+0xded>
   119b0:	650020ef          	jal	ra,14000 <FN_WriteStr>
   119b4:	00004517          	auipc	a0,0x4
   119b8:	53450513          	addi	a0,a0,1332 # 15ee8 <end_signature+0xe08>
   119bc:	644020ef          	jal	ra,14000 <FN_WriteStr>
   119c0:	00004517          	auipc	a0,0x4
   119c4:	53750513          	addi	a0,a0,1335 # 15ef7 <end_signature+0xe17>
   119c8:	638020ef          	jal	ra,14000 <FN_WriteStr>
   119cc:	00004517          	auipc	a0,0x4
   119d0:	53350513          	addi	a0,a0,1331 # 15eff <end_signature+0xe1f>
   119d4:	62c020ef          	jal	ra,14000 <FN_WriteStr>
   119d8:	00004517          	auipc	a0,0x4
   119dc:	52b50513          	addi	a0,a0,1323 # 15f03 <end_signature+0xe23>
   119e0:	620020ef          	jal	ra,14000 <FN_WriteStr>
   119e4:	00004517          	auipc	a0,0x4
   119e8:	52250513          	addi	a0,a0,1314 # 15f06 <end_signature+0xe26>
   119ec:	614020ef          	jal	ra,14000 <FN_WriteStr>
   119f0:	00004517          	auipc	a0,0x4
   119f4:	51950513          	addi	a0,a0,1305 # 15f09 <end_signature+0xe29>
   119f8:	608020ef          	jal	ra,14000 <FN_WriteStr>
   119fc:	00010513          	mv	a0,sp
   11a00:	61c020ef          	jal	ra,1401c <FN_WriteA0>
   11a04:	00004517          	auipc	a0,0x4
   11a08:	50750513          	addi	a0,a0,1287 # 15f0b <end_signature+0xe2b>
   11a0c:	5f4020ef          	jal	ra,14000 <FN_WriteStr>
   11a10:	00004517          	auipc	a0,0x4
   11a14:	50150513          	addi	a0,a0,1281 # 15f11 <end_signature+0xe31>
   11a18:	5e8020ef          	jal	ra,14000 <FN_WriteStr>
   11a1c:	00004517          	auipc	a0,0x4
   11a20:	50050513          	addi	a0,a0,1280 # 15f1c <end_signature+0xe3c>
   11a24:	5dc020ef          	jal	ra,14000 <FN_WriteStr>
   11a28:	06400193          	li	gp,100
   11a2c:	0000100f          	fence.i
   11a30:	00018063          	beqz	gp,11a30 <reset_vector+0x19e4>
   11a34:	00119193          	slli	gp,gp,0x1
   11a38:	0011e193          	ori	gp,gp,1
   11a3c:	00000073          	ecall
   11a40:	02af32b7          	lui	t0,0x2af3
   11a44:	7bc28293          	addi	t0,t0,1980 # 2af37bc <_end+0x2add50f>
   11a48:	08518e63          	beq	gp,t0,11ae4 <reset_vector+0x1a98>
   11a4c:	00004517          	auipc	a0,0x4
   11a50:	4d250513          	addi	a0,a0,1234 # 15f1e <end_signature+0xe3e>
   11a54:	5ac020ef          	jal	ra,14000 <FN_WriteStr>
   11a58:	00004517          	auipc	a0,0x4
   11a5c:	4e150513          	addi	a0,a0,1249 # 15f39 <end_signature+0xe59>
   11a60:	5a0020ef          	jal	ra,14000 <FN_WriteStr>
   11a64:	00004517          	auipc	a0,0x4
   11a68:	4e450513          	addi	a0,a0,1252 # 15f48 <end_signature+0xe68>
   11a6c:	594020ef          	jal	ra,14000 <FN_WriteStr>
   11a70:	00004517          	auipc	a0,0x4
   11a74:	4e050513          	addi	a0,a0,1248 # 15f50 <end_signature+0xe70>
   11a78:	588020ef          	jal	ra,14000 <FN_WriteStr>
   11a7c:	00004517          	auipc	a0,0x4
   11a80:	4d850513          	addi	a0,a0,1240 # 15f54 <end_signature+0xe74>
   11a84:	57c020ef          	jal	ra,14000 <FN_WriteStr>
   11a88:	00004517          	auipc	a0,0x4
   11a8c:	4cf50513          	addi	a0,a0,1231 # 15f57 <end_signature+0xe77>
   11a90:	570020ef          	jal	ra,14000 <FN_WriteStr>
   11a94:	00004517          	auipc	a0,0x4
   11a98:	4c650513          	addi	a0,a0,1222 # 15f5a <end_signature+0xe7a>
   11a9c:	564020ef          	jal	ra,14000 <FN_WriteStr>
   11aa0:	00018513          	mv	a0,gp
   11aa4:	578020ef          	jal	ra,1401c <FN_WriteA0>
   11aa8:	00004517          	auipc	a0,0x4
   11aac:	4b450513          	addi	a0,a0,1204 # 15f5c <end_signature+0xe7c>
   11ab0:	550020ef          	jal	ra,14000 <FN_WriteStr>
   11ab4:	00004517          	auipc	a0,0x4
   11ab8:	4ae50513          	addi	a0,a0,1198 # 15f62 <end_signature+0xe82>
   11abc:	544020ef          	jal	ra,14000 <FN_WriteStr>
   11ac0:	00004517          	auipc	a0,0x4
   11ac4:	4ad50513          	addi	a0,a0,1197 # 15f6d <end_signature+0xe8d>
   11ac8:	538020ef          	jal	ra,14000 <FN_WriteStr>
   11acc:	06400193          	li	gp,100
   11ad0:	0000100f          	fence.i
   11ad4:	00018063          	beqz	gp,11ad4 <reset_vector+0x1a88>
   11ad8:	00119193          	slli	gp,gp,0x1
   11adc:	0011e193          	ori	gp,gp,1
   11ae0:	00000073          	ecall
   11ae4:	00004517          	auipc	a0,0x4
   11ae8:	48b50513          	addi	a0,a0,1163 # 15f6f <end_signature+0xe8f>
   11aec:	514020ef          	jal	ra,14000 <FN_WriteStr>
   11af0:	00004517          	auipc	a0,0x4
   11af4:	49a50513          	addi	a0,a0,1178 # 15f8a <end_signature+0xeaa>
   11af8:	508020ef          	jal	ra,14000 <FN_WriteStr>
   11afc:	00003097          	auipc	ra,0x3
   11b00:	51c08093          	addi	ra,ra,1308 # 15018 <test_C_data>
   11b04:	00003117          	auipc	sp,0x3
   11b08:	5c010113          	addi	sp,sp,1472 # 150c4 <test_C_res>
   11b0c:	0000a283          	lw	t0,0(ra)
   11b10:	00100d93          	li	s11,1
   11b14:	01b2d033          	srl	zero,t0,s11
   11b18:	00012023          	sw	zero,0(sp)
   11b1c:	00000293          	li	t0,0
   11b20:	08500e63          	beq	zero,t0,11bbc <reset_vector+0x1b70>
   11b24:	00004517          	auipc	a0,0x4
   11b28:	48d50513          	addi	a0,a0,1165 # 15fb1 <end_signature+0xed1>
   11b2c:	4d4020ef          	jal	ra,14000 <FN_WriteStr>
   11b30:	00004517          	auipc	a0,0x4
   11b34:	49c50513          	addi	a0,a0,1180 # 15fcc <end_signature+0xeec>
   11b38:	4c8020ef          	jal	ra,14000 <FN_WriteStr>
   11b3c:	00004517          	auipc	a0,0x4
   11b40:	49f50513          	addi	a0,a0,1183 # 15fdb <end_signature+0xefb>
   11b44:	4bc020ef          	jal	ra,14000 <FN_WriteStr>
   11b48:	00004517          	auipc	a0,0x4
   11b4c:	49b50513          	addi	a0,a0,1179 # 15fe3 <end_signature+0xf03>
   11b50:	4b0020ef          	jal	ra,14000 <FN_WriteStr>
   11b54:	00004517          	auipc	a0,0x4
   11b58:	49350513          	addi	a0,a0,1171 # 15fe7 <end_signature+0xf07>
   11b5c:	4a4020ef          	jal	ra,14000 <FN_WriteStr>
   11b60:	00004517          	auipc	a0,0x4
   11b64:	48a50513          	addi	a0,a0,1162 # 15fea <end_signature+0xf0a>
   11b68:	498020ef          	jal	ra,14000 <FN_WriteStr>
   11b6c:	00004517          	auipc	a0,0x4
   11b70:	48150513          	addi	a0,a0,1153 # 15fed <end_signature+0xf0d>
   11b74:	48c020ef          	jal	ra,14000 <FN_WriteStr>
   11b78:	00000513          	li	a0,0
   11b7c:	4a0020ef          	jal	ra,1401c <FN_WriteA0>
   11b80:	00004517          	auipc	a0,0x4
   11b84:	46f50513          	addi	a0,a0,1135 # 15fef <end_signature+0xf0f>
   11b88:	478020ef          	jal	ra,14000 <FN_WriteStr>
   11b8c:	00004517          	auipc	a0,0x4
   11b90:	46950513          	addi	a0,a0,1129 # 15ff5 <end_signature+0xf15>
   11b94:	46c020ef          	jal	ra,14000 <FN_WriteStr>
   11b98:	00004517          	auipc	a0,0x4
   11b9c:	46850513          	addi	a0,a0,1128 # 16000 <end_signature+0xf20>
   11ba0:	460020ef          	jal	ra,14000 <FN_WriteStr>
   11ba4:	06400193          	li	gp,100
   11ba8:	0000100f          	fence.i
   11bac:	00018063          	beqz	gp,11bac <reset_vector+0x1b60>
   11bb0:	00119193          	slli	gp,gp,0x1
   11bb4:	0011e193          	ori	gp,gp,1
   11bb8:	00000073          	ecall
   11bbc:	00004517          	auipc	a0,0x4
   11bc0:	44650513          	addi	a0,a0,1094 # 16002 <end_signature+0xf22>
   11bc4:	43c020ef          	jal	ra,14000 <FN_WriteStr>
   11bc8:	00004517          	auipc	a0,0x4
   11bcc:	45550513          	addi	a0,a0,1109 # 1601d <end_signature+0xf3d>
   11bd0:	430020ef          	jal	ra,14000 <FN_WriteStr>
   11bd4:	00003097          	auipc	ra,0x3
   11bd8:	44808093          	addi	ra,ra,1096 # 1501c <test_D_data>
   11bdc:	00003117          	auipc	sp,0x3
   11be0:	4ec10113          	addi	sp,sp,1260 # 150c8 <test_D_res>
   11be4:	0000a283          	lw	t0,0(ra)
   11be8:	00100d93          	li	s11,1
   11bec:	01b2d033          	srl	zero,t0,s11
   11bf0:	01b052b3          	srl	t0,zero,s11
   11bf4:	00012023          	sw	zero,0(sp)
   11bf8:	00512223          	sw	t0,4(sp)
   11bfc:	00000293          	li	t0,0
   11c00:	08500e63          	beq	zero,t0,11c9c <reset_vector+0x1c50>
   11c04:	00004517          	auipc	a0,0x4
   11c08:	44950513          	addi	a0,a0,1097 # 1604d <end_signature+0xf6d>
   11c0c:	3f4020ef          	jal	ra,14000 <FN_WriteStr>
   11c10:	00004517          	auipc	a0,0x4
   11c14:	45850513          	addi	a0,a0,1112 # 16068 <end_signature+0xf88>
   11c18:	3e8020ef          	jal	ra,14000 <FN_WriteStr>
   11c1c:	00004517          	auipc	a0,0x4
   11c20:	45b50513          	addi	a0,a0,1115 # 16077 <end_signature+0xf97>
   11c24:	3dc020ef          	jal	ra,14000 <FN_WriteStr>
   11c28:	00004517          	auipc	a0,0x4
   11c2c:	45750513          	addi	a0,a0,1111 # 1607f <end_signature+0xf9f>
   11c30:	3d0020ef          	jal	ra,14000 <FN_WriteStr>
   11c34:	00004517          	auipc	a0,0x4
   11c38:	44f50513          	addi	a0,a0,1103 # 16083 <end_signature+0xfa3>
   11c3c:	3c4020ef          	jal	ra,14000 <FN_WriteStr>
   11c40:	00004517          	auipc	a0,0x4
   11c44:	44650513          	addi	a0,a0,1094 # 16086 <end_signature+0xfa6>
   11c48:	3b8020ef          	jal	ra,14000 <FN_WriteStr>
   11c4c:	00004517          	auipc	a0,0x4
   11c50:	43d50513          	addi	a0,a0,1085 # 16089 <end_signature+0xfa9>
   11c54:	3ac020ef          	jal	ra,14000 <FN_WriteStr>
   11c58:	00000513          	li	a0,0
   11c5c:	3c0020ef          	jal	ra,1401c <FN_WriteA0>
   11c60:	00004517          	auipc	a0,0x4
   11c64:	42b50513          	addi	a0,a0,1067 # 1608b <end_signature+0xfab>
   11c68:	398020ef          	jal	ra,14000 <FN_WriteStr>
   11c6c:	00004517          	auipc	a0,0x4
   11c70:	42550513          	addi	a0,a0,1061 # 16091 <end_signature+0xfb1>
   11c74:	38c020ef          	jal	ra,14000 <FN_WriteStr>
   11c78:	00004517          	auipc	a0,0x4
   11c7c:	42450513          	addi	a0,a0,1060 # 1609c <end_signature+0xfbc>
   11c80:	380020ef          	jal	ra,14000 <FN_WriteStr>
   11c84:	06400193          	li	gp,100
   11c88:	0000100f          	fence.i
   11c8c:	00018063          	beqz	gp,11c8c <reset_vector+0x1c40>
   11c90:	00119193          	slli	gp,gp,0x1
   11c94:	0011e193          	ori	gp,gp,1
   11c98:	00000073          	ecall
   11c9c:	00000293          	li	t0,0
   11ca0:	08528e63          	beq	t0,t0,11d3c <reset_vector+0x1cf0>
   11ca4:	00004517          	auipc	a0,0x4
   11ca8:	3fa50513          	addi	a0,a0,1018 # 1609e <end_signature+0xfbe>
   11cac:	354020ef          	jal	ra,14000 <FN_WriteStr>
   11cb0:	00004517          	auipc	a0,0x4
   11cb4:	40950513          	addi	a0,a0,1033 # 160b9 <end_signature+0xfd9>
   11cb8:	348020ef          	jal	ra,14000 <FN_WriteStr>
   11cbc:	00004517          	auipc	a0,0x4
   11cc0:	40c50513          	addi	a0,a0,1036 # 160c8 <end_signature+0xfe8>
   11cc4:	33c020ef          	jal	ra,14000 <FN_WriteStr>
   11cc8:	00004517          	auipc	a0,0x4
   11ccc:	40850513          	addi	a0,a0,1032 # 160d0 <end_signature+0xff0>
   11cd0:	330020ef          	jal	ra,14000 <FN_WriteStr>
   11cd4:	00004517          	auipc	a0,0x4
   11cd8:	40050513          	addi	a0,a0,1024 # 160d4 <end_signature+0xff4>
   11cdc:	324020ef          	jal	ra,14000 <FN_WriteStr>
   11ce0:	00004517          	auipc	a0,0x4
   11ce4:	3f750513          	addi	a0,a0,1015 # 160d7 <end_signature+0xff7>
   11ce8:	318020ef          	jal	ra,14000 <FN_WriteStr>
   11cec:	00004517          	auipc	a0,0x4
   11cf0:	3ee50513          	addi	a0,a0,1006 # 160da <end_signature+0xffa>
   11cf4:	30c020ef          	jal	ra,14000 <FN_WriteStr>
   11cf8:	00028513          	mv	a0,t0
   11cfc:	320020ef          	jal	ra,1401c <FN_WriteA0>
   11d00:	00004517          	auipc	a0,0x4
   11d04:	3dc50513          	addi	a0,a0,988 # 160dc <end_signature+0xffc>
   11d08:	2f8020ef          	jal	ra,14000 <FN_WriteStr>
   11d0c:	00004517          	auipc	a0,0x4
   11d10:	3d650513          	addi	a0,a0,982 # 160e2 <end_signature+0x1002>
   11d14:	2ec020ef          	jal	ra,14000 <FN_WriteStr>
   11d18:	00004517          	auipc	a0,0x4
   11d1c:	3d550513          	addi	a0,a0,981 # 160ed <end_signature+0x100d>
   11d20:	2e0020ef          	jal	ra,14000 <FN_WriteStr>
   11d24:	06400193          	li	gp,100
   11d28:	0000100f          	fence.i
   11d2c:	00018063          	beqz	gp,11d2c <reset_vector+0x1ce0>
   11d30:	00119193          	slli	gp,gp,0x1
   11d34:	0011e193          	ori	gp,gp,1
   11d38:	00000073          	ecall
   11d3c:	00004517          	auipc	a0,0x4
   11d40:	3b350513          	addi	a0,a0,947 # 160ef <end_signature+0x100f>
   11d44:	2bc020ef          	jal	ra,14000 <FN_WriteStr>
   11d48:	00004517          	auipc	a0,0x4
   11d4c:	3c250513          	addi	a0,a0,962 # 1610a <end_signature+0x102a>
   11d50:	2b0020ef          	jal	ra,14000 <FN_WriteStr>
   11d54:	00003097          	auipc	ra,0x3
   11d58:	2cc08093          	addi	ra,ra,716 # 15020 <test_E_data>
   11d5c:	00003117          	auipc	sp,0x3
   11d60:	37410113          	addi	sp,sp,884 # 150d0 <test_E_res>
   11d64:	0000a183          	lw	gp,0(ra)
   11d68:	10000237          	lui	tp,0x10000
   11d6c:	fe020213          	addi	tp,tp,-32 # fffffe0 <_end+0xffe9d33>
   11d70:	100002b7          	lui	t0,0x10000
   11d74:	fe128293          	addi	t0,t0,-31 # fffffe1 <_end+0xffe9d34>
   11d78:	10000337          	lui	t1,0x10000
   11d7c:	fef30313          	addi	t1,t1,-17 # fffffef <_end+0xffe9d42>
   11d80:	100003b7          	lui	t2,0x10000
   11d84:	fff38393          	addi	t2,t2,-1 # fffffff <_end+0xffe9d52>
   11d88:	0041d233          	srl	tp,gp,tp
   11d8c:	0051d2b3          	srl	t0,gp,t0
   11d90:	0061d333          	srl	t1,gp,t1
   11d94:	0071d3b3          	srl	t2,gp,t2
   11d98:	00412023          	sw	tp,0(sp)
   11d9c:	00512223          	sw	t0,4(sp)
   11da0:	00612423          	sw	t1,8(sp)
   11da4:	00712623          	sw	t2,12(sp)
   11da8:	876542b7          	lui	t0,0x87654
   11dac:	32128293          	addi	t0,t0,801 # 87654321 <_end+0x8763e074>
   11db0:	08520e63          	beq	tp,t0,11e4c <reset_vector+0x1e00>
   11db4:	00004517          	auipc	a0,0x4
   11db8:	38e50513          	addi	a0,a0,910 # 16142 <end_signature+0x1062>
   11dbc:	244020ef          	jal	ra,14000 <FN_WriteStr>
   11dc0:	00004517          	auipc	a0,0x4
   11dc4:	39d50513          	addi	a0,a0,925 # 1615d <end_signature+0x107d>
   11dc8:	238020ef          	jal	ra,14000 <FN_WriteStr>
   11dcc:	00004517          	auipc	a0,0x4
   11dd0:	3a050513          	addi	a0,a0,928 # 1616c <end_signature+0x108c>
   11dd4:	22c020ef          	jal	ra,14000 <FN_WriteStr>
   11dd8:	00004517          	auipc	a0,0x4
   11ddc:	39c50513          	addi	a0,a0,924 # 16174 <end_signature+0x1094>
   11de0:	220020ef          	jal	ra,14000 <FN_WriteStr>
   11de4:	00004517          	auipc	a0,0x4
   11de8:	39450513          	addi	a0,a0,916 # 16178 <end_signature+0x1098>
   11dec:	214020ef          	jal	ra,14000 <FN_WriteStr>
   11df0:	00004517          	auipc	a0,0x4
   11df4:	38b50513          	addi	a0,a0,907 # 1617b <end_signature+0x109b>
   11df8:	208020ef          	jal	ra,14000 <FN_WriteStr>
   11dfc:	00004517          	auipc	a0,0x4
   11e00:	38250513          	addi	a0,a0,898 # 1617e <end_signature+0x109e>
   11e04:	1fc020ef          	jal	ra,14000 <FN_WriteStr>
   11e08:	00020513          	mv	a0,tp
   11e0c:	210020ef          	jal	ra,1401c <FN_WriteA0>
   11e10:	00004517          	auipc	a0,0x4
   11e14:	37050513          	addi	a0,a0,880 # 16180 <end_signature+0x10a0>
   11e18:	1e8020ef          	jal	ra,14000 <FN_WriteStr>
   11e1c:	00004517          	auipc	a0,0x4
   11e20:	36a50513          	addi	a0,a0,874 # 16186 <end_signature+0x10a6>
   11e24:	1dc020ef          	jal	ra,14000 <FN_WriteStr>
   11e28:	00004517          	auipc	a0,0x4
   11e2c:	36950513          	addi	a0,a0,873 # 16191 <end_signature+0x10b1>
   11e30:	1d0020ef          	jal	ra,14000 <FN_WriteStr>
   11e34:	06400193          	li	gp,100
   11e38:	0000100f          	fence.i
   11e3c:	00018063          	beqz	gp,11e3c <reset_vector+0x1df0>
   11e40:	00119193          	slli	gp,gp,0x1
   11e44:	0011e193          	ori	gp,gp,1
   11e48:	00000073          	ecall
   11e4c:	00000293          	li	t0,0
   11e50:	08528e63          	beq	t0,t0,11eec <reset_vector+0x1ea0>
   11e54:	00004517          	auipc	a0,0x4
   11e58:	33f50513          	addi	a0,a0,831 # 16193 <end_signature+0x10b3>
   11e5c:	1a4020ef          	jal	ra,14000 <FN_WriteStr>
   11e60:	00004517          	auipc	a0,0x4
   11e64:	34e50513          	addi	a0,a0,846 # 161ae <end_signature+0x10ce>
   11e68:	198020ef          	jal	ra,14000 <FN_WriteStr>
   11e6c:	00004517          	auipc	a0,0x4
   11e70:	35150513          	addi	a0,a0,849 # 161bd <end_signature+0x10dd>
   11e74:	18c020ef          	jal	ra,14000 <FN_WriteStr>
   11e78:	00004517          	auipc	a0,0x4
   11e7c:	34d50513          	addi	a0,a0,845 # 161c5 <end_signature+0x10e5>
   11e80:	180020ef          	jal	ra,14000 <FN_WriteStr>
   11e84:	00004517          	auipc	a0,0x4
   11e88:	34550513          	addi	a0,a0,837 # 161c9 <end_signature+0x10e9>
   11e8c:	174020ef          	jal	ra,14000 <FN_WriteStr>
   11e90:	00004517          	auipc	a0,0x4
   11e94:	33c50513          	addi	a0,a0,828 # 161cc <end_signature+0x10ec>
   11e98:	168020ef          	jal	ra,14000 <FN_WriteStr>
   11e9c:	00004517          	auipc	a0,0x4
   11ea0:	33350513          	addi	a0,a0,819 # 161cf <end_signature+0x10ef>
   11ea4:	15c020ef          	jal	ra,14000 <FN_WriteStr>
   11ea8:	00028513          	mv	a0,t0
   11eac:	170020ef          	jal	ra,1401c <FN_WriteA0>
   11eb0:	00004517          	auipc	a0,0x4
   11eb4:	32150513          	addi	a0,a0,801 # 161d1 <end_signature+0x10f1>
   11eb8:	148020ef          	jal	ra,14000 <FN_WriteStr>
   11ebc:	00004517          	auipc	a0,0x4
   11ec0:	31b50513          	addi	a0,a0,795 # 161d7 <end_signature+0x10f7>
   11ec4:	13c020ef          	jal	ra,14000 <FN_WriteStr>
   11ec8:	00004517          	auipc	a0,0x4
   11ecc:	31a50513          	addi	a0,a0,794 # 161e2 <end_signature+0x1102>
   11ed0:	130020ef          	jal	ra,14000 <FN_WriteStr>
   11ed4:	06400193          	li	gp,100
   11ed8:	0000100f          	fence.i
   11edc:	00018063          	beqz	gp,11edc <reset_vector+0x1e90>
   11ee0:	00119193          	slli	gp,gp,0x1
   11ee4:	0011e193          	ori	gp,gp,1
   11ee8:	00000073          	ecall
   11eec:	000112b7          	lui	t0,0x11
   11ef0:	eca28293          	addi	t0,t0,-310 # 10eca <reset_vector+0xe7e>
   11ef4:	08530e63          	beq	t1,t0,11f90 <reset_vector+0x1f44>
   11ef8:	00004517          	auipc	a0,0x4
   11efc:	2ec50513          	addi	a0,a0,748 # 161e4 <end_signature+0x1104>
   11f00:	100020ef          	jal	ra,14000 <FN_WriteStr>
   11f04:	00004517          	auipc	a0,0x4
   11f08:	2fb50513          	addi	a0,a0,763 # 161ff <end_signature+0x111f>
   11f0c:	0f4020ef          	jal	ra,14000 <FN_WriteStr>
   11f10:	00004517          	auipc	a0,0x4
   11f14:	2fe50513          	addi	a0,a0,766 # 1620e <end_signature+0x112e>
   11f18:	0e8020ef          	jal	ra,14000 <FN_WriteStr>
   11f1c:	00004517          	auipc	a0,0x4
   11f20:	2fa50513          	addi	a0,a0,762 # 16216 <end_signature+0x1136>
   11f24:	0dc020ef          	jal	ra,14000 <FN_WriteStr>
   11f28:	00004517          	auipc	a0,0x4
   11f2c:	2f250513          	addi	a0,a0,754 # 1621a <end_signature+0x113a>
   11f30:	0d0020ef          	jal	ra,14000 <FN_WriteStr>
   11f34:	00004517          	auipc	a0,0x4
   11f38:	2e950513          	addi	a0,a0,745 # 1621d <end_signature+0x113d>
   11f3c:	0c4020ef          	jal	ra,14000 <FN_WriteStr>
   11f40:	00004517          	auipc	a0,0x4
   11f44:	2e050513          	addi	a0,a0,736 # 16220 <end_signature+0x1140>
   11f48:	0b8020ef          	jal	ra,14000 <FN_WriteStr>
   11f4c:	00030513          	mv	a0,t1
   11f50:	0cc020ef          	jal	ra,1401c <FN_WriteA0>
   11f54:	00004517          	auipc	a0,0x4
   11f58:	2ce50513          	addi	a0,a0,718 # 16222 <end_signature+0x1142>
   11f5c:	0a4020ef          	jal	ra,14000 <FN_WriteStr>
   11f60:	00004517          	auipc	a0,0x4
   11f64:	2c850513          	addi	a0,a0,712 # 16228 <end_signature+0x1148>
   11f68:	098020ef          	jal	ra,14000 <FN_WriteStr>
   11f6c:	00004517          	auipc	a0,0x4
   11f70:	2c750513          	addi	a0,a0,711 # 16233 <end_signature+0x1153>
   11f74:	08c020ef          	jal	ra,14000 <FN_WriteStr>
   11f78:	06400193          	li	gp,100
   11f7c:	0000100f          	fence.i
   11f80:	00018063          	beqz	gp,11f80 <reset_vector+0x1f34>
   11f84:	00119193          	slli	gp,gp,0x1
   11f88:	0011e193          	ori	gp,gp,1
   11f8c:	00000073          	ecall
   11f90:	00100293          	li	t0,1
   11f94:	08538e63          	beq	t2,t0,12030 <reset_vector+0x1fe4>
   11f98:	00004517          	auipc	a0,0x4
   11f9c:	29d50513          	addi	a0,a0,669 # 16235 <end_signature+0x1155>
   11fa0:	060020ef          	jal	ra,14000 <FN_WriteStr>
   11fa4:	00004517          	auipc	a0,0x4
   11fa8:	2ac50513          	addi	a0,a0,684 # 16250 <end_signature+0x1170>
   11fac:	054020ef          	jal	ra,14000 <FN_WriteStr>
   11fb0:	00004517          	auipc	a0,0x4
   11fb4:	2af50513          	addi	a0,a0,687 # 1625f <end_signature+0x117f>
   11fb8:	048020ef          	jal	ra,14000 <FN_WriteStr>
   11fbc:	00004517          	auipc	a0,0x4
   11fc0:	2ab50513          	addi	a0,a0,683 # 16267 <end_signature+0x1187>
   11fc4:	03c020ef          	jal	ra,14000 <FN_WriteStr>
   11fc8:	00004517          	auipc	a0,0x4
   11fcc:	2a350513          	addi	a0,a0,675 # 1626b <end_signature+0x118b>
   11fd0:	030020ef          	jal	ra,14000 <FN_WriteStr>
   11fd4:	00004517          	auipc	a0,0x4
   11fd8:	29a50513          	addi	a0,a0,666 # 1626e <end_signature+0x118e>
   11fdc:	024020ef          	jal	ra,14000 <FN_WriteStr>
   11fe0:	00004517          	auipc	a0,0x4
   11fe4:	29150513          	addi	a0,a0,657 # 16271 <end_signature+0x1191>
   11fe8:	018020ef          	jal	ra,14000 <FN_WriteStr>
   11fec:	00038513          	mv	a0,t2
   11ff0:	02c020ef          	jal	ra,1401c <FN_WriteA0>
   11ff4:	00004517          	auipc	a0,0x4
   11ff8:	27f50513          	addi	a0,a0,639 # 16273 <end_signature+0x1193>
   11ffc:	004020ef          	jal	ra,14000 <FN_WriteStr>
   12000:	00004517          	auipc	a0,0x4
   12004:	27950513          	addi	a0,a0,633 # 16279 <end_signature+0x1199>
   12008:	7f9010ef          	jal	ra,14000 <FN_WriteStr>
   1200c:	00004517          	auipc	a0,0x4
   12010:	27850513          	addi	a0,a0,632 # 16284 <end_signature+0x11a4>
   12014:	7ed010ef          	jal	ra,14000 <FN_WriteStr>
   12018:	06400193          	li	gp,100
   1201c:	0000100f          	fence.i
   12020:	00018063          	beqz	gp,12020 <reset_vector+0x1fd4>
   12024:	00119193          	slli	gp,gp,0x1
   12028:	0011e193          	ori	gp,gp,1
   1202c:	00000073          	ecall
   12030:	00004517          	auipc	a0,0x4
   12034:	25650513          	addi	a0,a0,598 # 16286 <end_signature+0x11a6>
   12038:	7c9010ef          	jal	ra,14000 <FN_WriteStr>
   1203c:	00004517          	auipc	a0,0x4
   12040:	26550513          	addi	a0,a0,613 # 162a1 <end_signature+0x11c1>
   12044:	7bd010ef          	jal	ra,14000 <FN_WriteStr>
   12048:	0000100f          	fence.i
   1204c:	00100193          	li	gp,1
   12050:	00000073          	ecall
   12054:	c0001073          	unimp
	...

Disassembly of section .tohost:

00013000 <tohost>:
	...

00013100 <fromhost>:
	...

Disassembly of section .text:

00014000 <FN_WriteStr>:
   14000:	00050293          	mv	t0,a0
   14004:	0002c503          	lbu	a0,0(t0)
   14008:	00128293          	addi	t0,t0,1
   1400c:	00050663          	beqz	a0,14018 <FN_WriteStr+0x18>
   14010:	0005200b          	0x5200b
   14014:	ff1ff06f          	j	14004 <FN_WriteStr+0x4>
   14018:	00008067          	ret

0001401c <FN_WriteA0>:
   1401c:	00050293          	mv	t0,a0
   14020:	fff00513          	li	a0,-1
   14024:	01f55513          	srli	a0,a0,0x1f
   14028:	00155513          	srli	a0,a0,0x1
   1402c:	02051463          	bnez	a0,14054 <FN_WriteA0_64>

00014030 <FN_WriteA0_32>:
   14030:	00800313          	li	t1,8
   14034:	00439393          	slli	t2,t2,0x4
   14038:	00f2f513          	andi	a0,t0,15
   1403c:	0042d293          	srli	t0,t0,0x4
   14040:	00a3e3b3          	or	t2,t2,a0
   14044:	fff30313          	addi	t1,t1,-1
   14048:	fe0316e3          	bnez	t1,14034 <FN_WriteA0_32+0x4>
   1404c:	00800313          	li	t1,8
   14050:	0240006f          	j	14074 <FN_WriteA0_common>

00014054 <FN_WriteA0_64>:
   14054:	01000313          	li	t1,16
   14058:	00439393          	slli	t2,t2,0x4
   1405c:	00f2f513          	andi	a0,t0,15
   14060:	0042d293          	srli	t0,t0,0x4
   14064:	00a3e3b3          	or	t2,t2,a0
   14068:	fff30313          	addi	t1,t1,-1
   1406c:	fe0316e3          	bnez	t1,14058 <FN_WriteA0_64+0x4>
   14070:	01000313          	li	t1,16

00014074 <FN_WriteA0_common>:
   14074:	00a00293          	li	t0,10
   14078:	00f3f513          	andi	a0,t2,15
   1407c:	00554663          	blt	a0,t0,14088 <FN_WriteA0_common+0x14>
   14080:	05750513          	addi	a0,a0,87
   14084:	0080006f          	j	1408c <FN_WriteA0_common+0x18>
   14088:	03050513          	addi	a0,a0,48
   1408c:	0005200b          	0x5200b
   14090:	0043d393          	srli	t2,t2,0x4
   14094:	fff30313          	addi	t1,t1,-1
   14098:	fe0310e3          	bnez	t1,14078 <FN_WriteA0_common+0x4>
   1409c:	00008067          	ret
