
/home/benselfridge/riscv-compliance/work//I-SRLI-01.elf:     file format elf32-littleriscv


Disassembly of section .text.init:

00010000 <_start>:
   10000:	04c0006f          	j	1004c <reset_vector>

00010004 <trap_vector>:
   10004:	34202f73          	csrr	t5,mcause
   10008:	00800f93          	li	t6,8
   1000c:	03ff0a63          	beq	t5,t6,10040 <write_tohost>
   10010:	00900f93          	li	t6,9
   10014:	03ff0663          	beq	t5,t6,10040 <write_tohost>
   10018:	00b00f93          	li	t6,11
   1001c:	03ff0263          	beq	t5,t6,10040 <write_tohost>
   10020:	ffff0f17          	auipc	t5,0xffff0
   10024:	fe0f0f13          	addi	t5,t5,-32 # 0 <_start-0x10000>
   10028:	000f0463          	beqz	t5,10030 <trap_vector+0x2c>
   1002c:	000f0067          	jr	t5
   10030:	34202f73          	csrr	t5,mcause
   10034:	000f5463          	bgez	t5,1003c <handle_exception>
   10038:	0040006f          	j	1003c <handle_exception>

0001003c <handle_exception>:
   1003c:	5391e193          	ori	gp,gp,1337

00010040 <write_tohost>:
   10040:	00002f17          	auipc	t5,0x2
   10044:	fc3f2023          	sw	gp,-64(t5) # 12000 <tohost>
   10048:	ff9ff06f          	j	10040 <write_tohost>

0001004c <reset_vector>:
   1004c:	f1402573          	csrr	a0,mhartid
   10050:	00051063          	bnez	a0,10050 <reset_vector+0x4>
   10054:	00000297          	auipc	t0,0x0
   10058:	01028293          	addi	t0,t0,16 # 10064 <reset_vector+0x18>
   1005c:	30529073          	csrw	mtvec,t0
   10060:	18005073          	csrwi	satp,0
   10064:	00000297          	auipc	t0,0x0
   10068:	01c28293          	addi	t0,t0,28 # 10080 <reset_vector+0x34>
   1006c:	30529073          	csrw	mtvec,t0
   10070:	fff00293          	li	t0,-1
   10074:	3b029073          	csrw	pmpaddr0,t0
   10078:	01f00293          	li	t0,31
   1007c:	3a029073          	csrw	pmpcfg0,t0
   10080:	00000297          	auipc	t0,0x0
   10084:	01828293          	addi	t0,t0,24 # 10098 <reset_vector+0x4c>
   10088:	30529073          	csrw	mtvec,t0
   1008c:	30205073          	csrwi	medeleg,0
   10090:	30305073          	csrwi	mideleg,0
   10094:	30405073          	csrwi	mie,0
   10098:	00000193          	li	gp,0
   1009c:	00000297          	auipc	t0,0x0
   100a0:	f6828293          	addi	t0,t0,-152 # 10004 <trap_vector>
   100a4:	30529073          	csrw	mtvec,t0
   100a8:	00100513          	li	a0,1
   100ac:	01f51513          	slli	a0,a0,0x1f
   100b0:	00054863          	bltz	a0,100c0 <reset_vector+0x74>
   100b4:	0000100f          	fence.i
   100b8:	00100193          	li	gp,1
   100bc:	00000073          	ecall
   100c0:	ffff0297          	auipc	t0,0xffff0
   100c4:	f4028293          	addi	t0,t0,-192 # 0 <_start-0x10000>
   100c8:	00028e63          	beqz	t0,100e4 <reset_vector+0x98>
   100cc:	10529073          	csrw	stvec,t0
   100d0:	0000b2b7          	lui	t0,0xb
   100d4:	10928293          	addi	t0,t0,265 # b109 <_start-0x4ef7>
   100d8:	30229073          	csrw	medeleg,t0
   100dc:	30202373          	csrr	t1,medeleg
   100e0:	f4629ee3          	bne	t0,t1,1003c <handle_exception>
   100e4:	30005073          	csrwi	mstatus,0
   100e8:	00002537          	lui	a0,0x2
   100ec:	80050513          	addi	a0,a0,-2048 # 1800 <_start-0xe800>
   100f0:	30052073          	csrs	mstatus,a0
   100f4:	00000297          	auipc	t0,0x0
   100f8:	01428293          	addi	t0,t0,20 # 10108 <reset_vector+0xbc>
   100fc:	34129073          	csrw	mepc,t0
   10100:	f1402573          	csrr	a0,mhartid
   10104:	30200073          	mret
   10108:	00000293          	li	t0,0
   1010c:	08500e63          	beq	zero,t0,101a8 <reset_vector+0x15c>
   10110:	00004517          	auipc	a0,0x4
   10114:	fb050513          	addi	a0,a0,-80 # 140c0 <end_signature>
   10118:	6e9020ef          	jal	ra,13000 <FN_WriteStr>
   1011c:	00004517          	auipc	a0,0x4
   10120:	fbf50513          	addi	a0,a0,-65 # 140db <end_signature+0x1b>
   10124:	6dd020ef          	jal	ra,13000 <FN_WriteStr>
   10128:	00004517          	auipc	a0,0x4
   1012c:	fc350513          	addi	a0,a0,-61 # 140eb <end_signature+0x2b>
   10130:	6d1020ef          	jal	ra,13000 <FN_WriteStr>
   10134:	00004517          	auipc	a0,0x4
   10138:	fbf50513          	addi	a0,a0,-65 # 140f3 <end_signature+0x33>
   1013c:	6c5020ef          	jal	ra,13000 <FN_WriteStr>
   10140:	00004517          	auipc	a0,0x4
   10144:	fb650513          	addi	a0,a0,-74 # 140f6 <end_signature+0x36>
   10148:	6b9020ef          	jal	ra,13000 <FN_WriteStr>
   1014c:	00004517          	auipc	a0,0x4
   10150:	fad50513          	addi	a0,a0,-83 # 140f9 <end_signature+0x39>
   10154:	6ad020ef          	jal	ra,13000 <FN_WriteStr>
   10158:	00004517          	auipc	a0,0x4
   1015c:	fa450513          	addi	a0,a0,-92 # 140fc <end_signature+0x3c>
   10160:	6a1020ef          	jal	ra,13000 <FN_WriteStr>
   10164:	00000513          	li	a0,0
   10168:	6b5020ef          	jal	ra,1301c <FN_WriteA0>
   1016c:	00004517          	auipc	a0,0x4
   10170:	f9250513          	addi	a0,a0,-110 # 140fe <end_signature+0x3e>
   10174:	68d020ef          	jal	ra,13000 <FN_WriteStr>
   10178:	00004517          	auipc	a0,0x4
   1017c:	f8c50513          	addi	a0,a0,-116 # 14104 <end_signature+0x44>
   10180:	681020ef          	jal	ra,13000 <FN_WriteStr>
   10184:	00004517          	auipc	a0,0x4
   10188:	f8b50513          	addi	a0,a0,-117 # 1410f <end_signature+0x4f>
   1018c:	675020ef          	jal	ra,13000 <FN_WriteStr>
   10190:	06400193          	li	gp,100
   10194:	0000100f          	fence.i
   10198:	00018063          	beqz	gp,10198 <reset_vector+0x14c>
   1019c:	00119193          	slli	gp,gp,0x1
   101a0:	0011e193          	ori	gp,gp,1
   101a4:	00000073          	ecall
   101a8:	00004517          	auipc	a0,0x4
   101ac:	f6950513          	addi	a0,a0,-151 # 14111 <end_signature+0x51>
   101b0:	651020ef          	jal	ra,13000 <FN_WriteStr>
   101b4:	00004517          	auipc	a0,0x4
   101b8:	f8f50513          	addi	a0,a0,-113 # 14143 <end_signature+0x83>
   101bc:	645020ef          	jal	ra,13000 <FN_WriteStr>
   101c0:	00004097          	auipc	ra,0x4
   101c4:	e4008093          	addi	ra,ra,-448 # 14000 <test_A1_data>
   101c8:	00004117          	auipc	sp,0x4
   101cc:	e5810113          	addi	sp,sp,-424 # 14020 <begin_signature>
   101d0:	0000a183          	lw	gp,0(ra)
   101d4:	0011d213          	srli	tp,gp,0x1
   101d8:	00f1d293          	srli	t0,gp,0xf
   101dc:	01f1d313          	srli	t1,gp,0x1f
   101e0:	0001d393          	srli	t2,gp,0x0
   101e4:	0101d413          	srli	s0,gp,0x10
   101e8:	00312023          	sw	gp,0(sp)
   101ec:	00412223          	sw	tp,4(sp)
   101f0:	00512423          	sw	t0,8(sp)
   101f4:	00612623          	sw	t1,12(sp)
   101f8:	00712823          	sw	t2,16(sp)
   101fc:	00812a23          	sw	s0,20(sp)
   10200:	fff00013          	li	zero,-1
   10204:	00000293          	li	t0,0
   10208:	08518e63          	beq	gp,t0,102a4 <reset_vector+0x258>
   1020c:	00004517          	auipc	a0,0x4
   10210:	f8a50513          	addi	a0,a0,-118 # 14196 <end_signature+0xd6>
   10214:	5ed020ef          	jal	ra,13000 <FN_WriteStr>
   10218:	00004517          	auipc	a0,0x4
   1021c:	f9950513          	addi	a0,a0,-103 # 141b1 <end_signature+0xf1>
   10220:	5e1020ef          	jal	ra,13000 <FN_WriteStr>
   10224:	00004517          	auipc	a0,0x4
   10228:	f9d50513          	addi	a0,a0,-99 # 141c1 <end_signature+0x101>
   1022c:	5d5020ef          	jal	ra,13000 <FN_WriteStr>
   10230:	00004517          	auipc	a0,0x4
   10234:	f9950513          	addi	a0,a0,-103 # 141c9 <end_signature+0x109>
   10238:	5c9020ef          	jal	ra,13000 <FN_WriteStr>
   1023c:	00004517          	auipc	a0,0x4
   10240:	f9050513          	addi	a0,a0,-112 # 141cc <end_signature+0x10c>
   10244:	5bd020ef          	jal	ra,13000 <FN_WriteStr>
   10248:	00004517          	auipc	a0,0x4
   1024c:	f8750513          	addi	a0,a0,-121 # 141cf <end_signature+0x10f>
   10250:	5b1020ef          	jal	ra,13000 <FN_WriteStr>
   10254:	00004517          	auipc	a0,0x4
   10258:	f7e50513          	addi	a0,a0,-130 # 141d2 <end_signature+0x112>
   1025c:	5a5020ef          	jal	ra,13000 <FN_WriteStr>
   10260:	00018513          	mv	a0,gp
   10264:	5b9020ef          	jal	ra,1301c <FN_WriteA0>
   10268:	00004517          	auipc	a0,0x4
   1026c:	f6c50513          	addi	a0,a0,-148 # 141d4 <end_signature+0x114>
   10270:	591020ef          	jal	ra,13000 <FN_WriteStr>
   10274:	00004517          	auipc	a0,0x4
   10278:	f6650513          	addi	a0,a0,-154 # 141da <end_signature+0x11a>
   1027c:	585020ef          	jal	ra,13000 <FN_WriteStr>
   10280:	00004517          	auipc	a0,0x4
   10284:	f6550513          	addi	a0,a0,-155 # 141e5 <end_signature+0x125>
   10288:	579020ef          	jal	ra,13000 <FN_WriteStr>
   1028c:	06400193          	li	gp,100
   10290:	0000100f          	fence.i
   10294:	00018063          	beqz	gp,10294 <reset_vector+0x248>
   10298:	00119193          	slli	gp,gp,0x1
   1029c:	0011e193          	ori	gp,gp,1
   102a0:	00000073          	ecall
   102a4:	00000293          	li	t0,0
   102a8:	08520e63          	beq	tp,t0,10344 <reset_vector+0x2f8>
   102ac:	00004517          	auipc	a0,0x4
   102b0:	f3b50513          	addi	a0,a0,-197 # 141e7 <end_signature+0x127>
   102b4:	54d020ef          	jal	ra,13000 <FN_WriteStr>
   102b8:	00004517          	auipc	a0,0x4
   102bc:	f4a50513          	addi	a0,a0,-182 # 14202 <end_signature+0x142>
   102c0:	541020ef          	jal	ra,13000 <FN_WriteStr>
   102c4:	00004517          	auipc	a0,0x4
   102c8:	f4e50513          	addi	a0,a0,-178 # 14212 <end_signature+0x152>
   102cc:	535020ef          	jal	ra,13000 <FN_WriteStr>
   102d0:	00004517          	auipc	a0,0x4
   102d4:	f4a50513          	addi	a0,a0,-182 # 1421a <end_signature+0x15a>
   102d8:	529020ef          	jal	ra,13000 <FN_WriteStr>
   102dc:	00004517          	auipc	a0,0x4
   102e0:	f4150513          	addi	a0,a0,-191 # 1421d <end_signature+0x15d>
   102e4:	51d020ef          	jal	ra,13000 <FN_WriteStr>
   102e8:	00004517          	auipc	a0,0x4
   102ec:	f3850513          	addi	a0,a0,-200 # 14220 <end_signature+0x160>
   102f0:	511020ef          	jal	ra,13000 <FN_WriteStr>
   102f4:	00004517          	auipc	a0,0x4
   102f8:	f2f50513          	addi	a0,a0,-209 # 14223 <end_signature+0x163>
   102fc:	505020ef          	jal	ra,13000 <FN_WriteStr>
   10300:	00020513          	mv	a0,tp
   10304:	519020ef          	jal	ra,1301c <FN_WriteA0>
   10308:	00004517          	auipc	a0,0x4
   1030c:	f1d50513          	addi	a0,a0,-227 # 14225 <end_signature+0x165>
   10310:	4f1020ef          	jal	ra,13000 <FN_WriteStr>
   10314:	00004517          	auipc	a0,0x4
   10318:	f1750513          	addi	a0,a0,-233 # 1422b <end_signature+0x16b>
   1031c:	4e5020ef          	jal	ra,13000 <FN_WriteStr>
   10320:	00004517          	auipc	a0,0x4
   10324:	f1650513          	addi	a0,a0,-234 # 14236 <end_signature+0x176>
   10328:	4d9020ef          	jal	ra,13000 <FN_WriteStr>
   1032c:	06400193          	li	gp,100
   10330:	0000100f          	fence.i
   10334:	00018063          	beqz	gp,10334 <reset_vector+0x2e8>
   10338:	00119193          	slli	gp,gp,0x1
   1033c:	0011e193          	ori	gp,gp,1
   10340:	00000073          	ecall
   10344:	00000293          	li	t0,0
   10348:	08528e63          	beq	t0,t0,103e4 <reset_vector+0x398>
   1034c:	00004517          	auipc	a0,0x4
   10350:	eec50513          	addi	a0,a0,-276 # 14238 <end_signature+0x178>
   10354:	4ad020ef          	jal	ra,13000 <FN_WriteStr>
   10358:	00004517          	auipc	a0,0x4
   1035c:	efb50513          	addi	a0,a0,-261 # 14253 <end_signature+0x193>
   10360:	4a1020ef          	jal	ra,13000 <FN_WriteStr>
   10364:	00004517          	auipc	a0,0x4
   10368:	eff50513          	addi	a0,a0,-257 # 14263 <end_signature+0x1a3>
   1036c:	495020ef          	jal	ra,13000 <FN_WriteStr>
   10370:	00004517          	auipc	a0,0x4
   10374:	efb50513          	addi	a0,a0,-261 # 1426b <end_signature+0x1ab>
   10378:	489020ef          	jal	ra,13000 <FN_WriteStr>
   1037c:	00004517          	auipc	a0,0x4
   10380:	ef250513          	addi	a0,a0,-270 # 1426e <end_signature+0x1ae>
   10384:	47d020ef          	jal	ra,13000 <FN_WriteStr>
   10388:	00004517          	auipc	a0,0x4
   1038c:	ee950513          	addi	a0,a0,-279 # 14271 <end_signature+0x1b1>
   10390:	471020ef          	jal	ra,13000 <FN_WriteStr>
   10394:	00004517          	auipc	a0,0x4
   10398:	ee050513          	addi	a0,a0,-288 # 14274 <end_signature+0x1b4>
   1039c:	465020ef          	jal	ra,13000 <FN_WriteStr>
   103a0:	00028513          	mv	a0,t0
   103a4:	479020ef          	jal	ra,1301c <FN_WriteA0>
   103a8:	00004517          	auipc	a0,0x4
   103ac:	ece50513          	addi	a0,a0,-306 # 14276 <end_signature+0x1b6>
   103b0:	451020ef          	jal	ra,13000 <FN_WriteStr>
   103b4:	00004517          	auipc	a0,0x4
   103b8:	ec850513          	addi	a0,a0,-312 # 1427c <end_signature+0x1bc>
   103bc:	445020ef          	jal	ra,13000 <FN_WriteStr>
   103c0:	00004517          	auipc	a0,0x4
   103c4:	ec750513          	addi	a0,a0,-313 # 14287 <end_signature+0x1c7>
   103c8:	439020ef          	jal	ra,13000 <FN_WriteStr>
   103cc:	06400193          	li	gp,100
   103d0:	0000100f          	fence.i
   103d4:	00018063          	beqz	gp,103d4 <reset_vector+0x388>
   103d8:	00119193          	slli	gp,gp,0x1
   103dc:	0011e193          	ori	gp,gp,1
   103e0:	00000073          	ecall
   103e4:	00000293          	li	t0,0
   103e8:	08530e63          	beq	t1,t0,10484 <reset_vector+0x438>
   103ec:	00004517          	auipc	a0,0x4
   103f0:	e9d50513          	addi	a0,a0,-355 # 14289 <end_signature+0x1c9>
   103f4:	40d020ef          	jal	ra,13000 <FN_WriteStr>
   103f8:	00004517          	auipc	a0,0x4
   103fc:	eac50513          	addi	a0,a0,-340 # 142a4 <end_signature+0x1e4>
   10400:	401020ef          	jal	ra,13000 <FN_WriteStr>
   10404:	00004517          	auipc	a0,0x4
   10408:	eb050513          	addi	a0,a0,-336 # 142b4 <end_signature+0x1f4>
   1040c:	3f5020ef          	jal	ra,13000 <FN_WriteStr>
   10410:	00004517          	auipc	a0,0x4
   10414:	eac50513          	addi	a0,a0,-340 # 142bc <end_signature+0x1fc>
   10418:	3e9020ef          	jal	ra,13000 <FN_WriteStr>
   1041c:	00004517          	auipc	a0,0x4
   10420:	ea350513          	addi	a0,a0,-349 # 142bf <end_signature+0x1ff>
   10424:	3dd020ef          	jal	ra,13000 <FN_WriteStr>
   10428:	00004517          	auipc	a0,0x4
   1042c:	e9a50513          	addi	a0,a0,-358 # 142c2 <end_signature+0x202>
   10430:	3d1020ef          	jal	ra,13000 <FN_WriteStr>
   10434:	00004517          	auipc	a0,0x4
   10438:	e9150513          	addi	a0,a0,-367 # 142c5 <end_signature+0x205>
   1043c:	3c5020ef          	jal	ra,13000 <FN_WriteStr>
   10440:	00030513          	mv	a0,t1
   10444:	3d9020ef          	jal	ra,1301c <FN_WriteA0>
   10448:	00004517          	auipc	a0,0x4
   1044c:	e7f50513          	addi	a0,a0,-385 # 142c7 <end_signature+0x207>
   10450:	3b1020ef          	jal	ra,13000 <FN_WriteStr>
   10454:	00004517          	auipc	a0,0x4
   10458:	e7950513          	addi	a0,a0,-391 # 142cd <end_signature+0x20d>
   1045c:	3a5020ef          	jal	ra,13000 <FN_WriteStr>
   10460:	00004517          	auipc	a0,0x4
   10464:	e7850513          	addi	a0,a0,-392 # 142d8 <end_signature+0x218>
   10468:	399020ef          	jal	ra,13000 <FN_WriteStr>
   1046c:	06400193          	li	gp,100
   10470:	0000100f          	fence.i
   10474:	00018063          	beqz	gp,10474 <reset_vector+0x428>
   10478:	00119193          	slli	gp,gp,0x1
   1047c:	0011e193          	ori	gp,gp,1
   10480:	00000073          	ecall
   10484:	00000293          	li	t0,0
   10488:	08538e63          	beq	t2,t0,10524 <reset_vector+0x4d8>
   1048c:	00004517          	auipc	a0,0x4
   10490:	e4e50513          	addi	a0,a0,-434 # 142da <end_signature+0x21a>
   10494:	36d020ef          	jal	ra,13000 <FN_WriteStr>
   10498:	00004517          	auipc	a0,0x4
   1049c:	e5d50513          	addi	a0,a0,-419 # 142f5 <end_signature+0x235>
   104a0:	361020ef          	jal	ra,13000 <FN_WriteStr>
   104a4:	00004517          	auipc	a0,0x4
   104a8:	e6150513          	addi	a0,a0,-415 # 14305 <end_signature+0x245>
   104ac:	355020ef          	jal	ra,13000 <FN_WriteStr>
   104b0:	00004517          	auipc	a0,0x4
   104b4:	e5d50513          	addi	a0,a0,-419 # 1430d <end_signature+0x24d>
   104b8:	349020ef          	jal	ra,13000 <FN_WriteStr>
   104bc:	00004517          	auipc	a0,0x4
   104c0:	e5450513          	addi	a0,a0,-428 # 14310 <end_signature+0x250>
   104c4:	33d020ef          	jal	ra,13000 <FN_WriteStr>
   104c8:	00004517          	auipc	a0,0x4
   104cc:	e4b50513          	addi	a0,a0,-437 # 14313 <end_signature+0x253>
   104d0:	331020ef          	jal	ra,13000 <FN_WriteStr>
   104d4:	00004517          	auipc	a0,0x4
   104d8:	e4250513          	addi	a0,a0,-446 # 14316 <end_signature+0x256>
   104dc:	325020ef          	jal	ra,13000 <FN_WriteStr>
   104e0:	00038513          	mv	a0,t2
   104e4:	339020ef          	jal	ra,1301c <FN_WriteA0>
   104e8:	00004517          	auipc	a0,0x4
   104ec:	e3050513          	addi	a0,a0,-464 # 14318 <end_signature+0x258>
   104f0:	311020ef          	jal	ra,13000 <FN_WriteStr>
   104f4:	00004517          	auipc	a0,0x4
   104f8:	e2a50513          	addi	a0,a0,-470 # 1431e <end_signature+0x25e>
   104fc:	305020ef          	jal	ra,13000 <FN_WriteStr>
   10500:	00004517          	auipc	a0,0x4
   10504:	e2950513          	addi	a0,a0,-471 # 14329 <end_signature+0x269>
   10508:	2f9020ef          	jal	ra,13000 <FN_WriteStr>
   1050c:	06400193          	li	gp,100
   10510:	0000100f          	fence.i
   10514:	00018063          	beqz	gp,10514 <reset_vector+0x4c8>
   10518:	00119193          	slli	gp,gp,0x1
   1051c:	0011e193          	ori	gp,gp,1
   10520:	00000073          	ecall
   10524:	00000293          	li	t0,0
   10528:	08540e63          	beq	s0,t0,105c4 <reset_vector+0x578>
   1052c:	00004517          	auipc	a0,0x4
   10530:	dff50513          	addi	a0,a0,-513 # 1432b <end_signature+0x26b>
   10534:	2cd020ef          	jal	ra,13000 <FN_WriteStr>
   10538:	00004517          	auipc	a0,0x4
   1053c:	e0e50513          	addi	a0,a0,-498 # 14346 <end_signature+0x286>
   10540:	2c1020ef          	jal	ra,13000 <FN_WriteStr>
   10544:	00004517          	auipc	a0,0x4
   10548:	e1250513          	addi	a0,a0,-494 # 14356 <end_signature+0x296>
   1054c:	2b5020ef          	jal	ra,13000 <FN_WriteStr>
   10550:	00004517          	auipc	a0,0x4
   10554:	e0e50513          	addi	a0,a0,-498 # 1435e <end_signature+0x29e>
   10558:	2a9020ef          	jal	ra,13000 <FN_WriteStr>
   1055c:	00004517          	auipc	a0,0x4
   10560:	e0550513          	addi	a0,a0,-507 # 14361 <end_signature+0x2a1>
   10564:	29d020ef          	jal	ra,13000 <FN_WriteStr>
   10568:	00004517          	auipc	a0,0x4
   1056c:	dfc50513          	addi	a0,a0,-516 # 14364 <end_signature+0x2a4>
   10570:	291020ef          	jal	ra,13000 <FN_WriteStr>
   10574:	00004517          	auipc	a0,0x4
   10578:	df350513          	addi	a0,a0,-525 # 14367 <end_signature+0x2a7>
   1057c:	285020ef          	jal	ra,13000 <FN_WriteStr>
   10580:	00040513          	mv	a0,s0
   10584:	299020ef          	jal	ra,1301c <FN_WriteA0>
   10588:	00004517          	auipc	a0,0x4
   1058c:	de150513          	addi	a0,a0,-543 # 14369 <end_signature+0x2a9>
   10590:	271020ef          	jal	ra,13000 <FN_WriteStr>
   10594:	00004517          	auipc	a0,0x4
   10598:	ddb50513          	addi	a0,a0,-549 # 1436f <end_signature+0x2af>
   1059c:	265020ef          	jal	ra,13000 <FN_WriteStr>
   105a0:	00004517          	auipc	a0,0x4
   105a4:	dda50513          	addi	a0,a0,-550 # 1437a <end_signature+0x2ba>
   105a8:	259020ef          	jal	ra,13000 <FN_WriteStr>
   105ac:	06400193          	li	gp,100
   105b0:	0000100f          	fence.i
   105b4:	00018063          	beqz	gp,105b4 <reset_vector+0x568>
   105b8:	00119193          	slli	gp,gp,0x1
   105bc:	0011e193          	ori	gp,gp,1
   105c0:	00000073          	ecall
   105c4:	00004517          	auipc	a0,0x4
   105c8:	db850513          	addi	a0,a0,-584 # 1437c <end_signature+0x2bc>
   105cc:	235020ef          	jal	ra,13000 <FN_WriteStr>
   105d0:	00004517          	auipc	a0,0x4
   105d4:	dc850513          	addi	a0,a0,-568 # 14398 <end_signature+0x2d8>
   105d8:	229020ef          	jal	ra,13000 <FN_WriteStr>
   105dc:	00004097          	auipc	ra,0x4
   105e0:	a2808093          	addi	ra,ra,-1496 # 14004 <test_A2_data>
   105e4:	00004117          	auipc	sp,0x4
   105e8:	a5410113          	addi	sp,sp,-1452 # 14038 <test_A2_res>
   105ec:	0000a403          	lw	s0,0(ra)
   105f0:	00145493          	srli	s1,s0,0x1
   105f4:	00f45513          	srli	a0,s0,0xf
   105f8:	01f45593          	srli	a1,s0,0x1f
   105fc:	00045613          	srli	a2,s0,0x0
   10600:	01045693          	srli	a3,s0,0x10
   10604:	00812023          	sw	s0,0(sp)
   10608:	00912223          	sw	s1,4(sp)
   1060c:	00a12423          	sw	a0,8(sp)
   10610:	00b12623          	sw	a1,12(sp)
   10614:	00c12823          	sw	a2,16(sp)
   10618:	00d12a23          	sw	a3,20(sp)
   1061c:	00100293          	li	t0,1
   10620:	08540e63          	beq	s0,t0,106bc <reset_vector+0x670>
   10624:	00004517          	auipc	a0,0x4
   10628:	dc750513          	addi	a0,a0,-569 # 143eb <end_signature+0x32b>
   1062c:	1d5020ef          	jal	ra,13000 <FN_WriteStr>
   10630:	00004517          	auipc	a0,0x4
   10634:	dd650513          	addi	a0,a0,-554 # 14406 <end_signature+0x346>
   10638:	1c9020ef          	jal	ra,13000 <FN_WriteStr>
   1063c:	00004517          	auipc	a0,0x4
   10640:	dda50513          	addi	a0,a0,-550 # 14416 <end_signature+0x356>
   10644:	1bd020ef          	jal	ra,13000 <FN_WriteStr>
   10648:	00004517          	auipc	a0,0x4
   1064c:	dd650513          	addi	a0,a0,-554 # 1441e <end_signature+0x35e>
   10650:	1b1020ef          	jal	ra,13000 <FN_WriteStr>
   10654:	00004517          	auipc	a0,0x4
   10658:	dce50513          	addi	a0,a0,-562 # 14422 <end_signature+0x362>
   1065c:	1a5020ef          	jal	ra,13000 <FN_WriteStr>
   10660:	00004517          	auipc	a0,0x4
   10664:	dc550513          	addi	a0,a0,-571 # 14425 <end_signature+0x365>
   10668:	199020ef          	jal	ra,13000 <FN_WriteStr>
   1066c:	00004517          	auipc	a0,0x4
   10670:	dbc50513          	addi	a0,a0,-580 # 14428 <end_signature+0x368>
   10674:	18d020ef          	jal	ra,13000 <FN_WriteStr>
   10678:	00040513          	mv	a0,s0
   1067c:	1a1020ef          	jal	ra,1301c <FN_WriteA0>
   10680:	00004517          	auipc	a0,0x4
   10684:	daa50513          	addi	a0,a0,-598 # 1442a <end_signature+0x36a>
   10688:	179020ef          	jal	ra,13000 <FN_WriteStr>
   1068c:	00004517          	auipc	a0,0x4
   10690:	da450513          	addi	a0,a0,-604 # 14430 <end_signature+0x370>
   10694:	16d020ef          	jal	ra,13000 <FN_WriteStr>
   10698:	00004517          	auipc	a0,0x4
   1069c:	da350513          	addi	a0,a0,-605 # 1443b <end_signature+0x37b>
   106a0:	161020ef          	jal	ra,13000 <FN_WriteStr>
   106a4:	06400193          	li	gp,100
   106a8:	0000100f          	fence.i
   106ac:	00018063          	beqz	gp,106ac <reset_vector+0x660>
   106b0:	00119193          	slli	gp,gp,0x1
   106b4:	0011e193          	ori	gp,gp,1
   106b8:	00000073          	ecall
   106bc:	00000293          	li	t0,0
   106c0:	08548e63          	beq	s1,t0,1075c <reset_vector+0x710>
   106c4:	00004517          	auipc	a0,0x4
   106c8:	d7950513          	addi	a0,a0,-647 # 1443d <end_signature+0x37d>
   106cc:	135020ef          	jal	ra,13000 <FN_WriteStr>
   106d0:	00004517          	auipc	a0,0x4
   106d4:	d8850513          	addi	a0,a0,-632 # 14458 <end_signature+0x398>
   106d8:	129020ef          	jal	ra,13000 <FN_WriteStr>
   106dc:	00004517          	auipc	a0,0x4
   106e0:	d8c50513          	addi	a0,a0,-628 # 14468 <end_signature+0x3a8>
   106e4:	11d020ef          	jal	ra,13000 <FN_WriteStr>
   106e8:	00004517          	auipc	a0,0x4
   106ec:	d8850513          	addi	a0,a0,-632 # 14470 <end_signature+0x3b0>
   106f0:	111020ef          	jal	ra,13000 <FN_WriteStr>
   106f4:	00004517          	auipc	a0,0x4
   106f8:	d8050513          	addi	a0,a0,-640 # 14474 <end_signature+0x3b4>
   106fc:	105020ef          	jal	ra,13000 <FN_WriteStr>
   10700:	00004517          	auipc	a0,0x4
   10704:	d7750513          	addi	a0,a0,-649 # 14477 <end_signature+0x3b7>
   10708:	0f9020ef          	jal	ra,13000 <FN_WriteStr>
   1070c:	00004517          	auipc	a0,0x4
   10710:	d6e50513          	addi	a0,a0,-658 # 1447a <end_signature+0x3ba>
   10714:	0ed020ef          	jal	ra,13000 <FN_WriteStr>
   10718:	00048513          	mv	a0,s1
   1071c:	101020ef          	jal	ra,1301c <FN_WriteA0>
   10720:	00004517          	auipc	a0,0x4
   10724:	d5c50513          	addi	a0,a0,-676 # 1447c <end_signature+0x3bc>
   10728:	0d9020ef          	jal	ra,13000 <FN_WriteStr>
   1072c:	00004517          	auipc	a0,0x4
   10730:	d5650513          	addi	a0,a0,-682 # 14482 <end_signature+0x3c2>
   10734:	0cd020ef          	jal	ra,13000 <FN_WriteStr>
   10738:	00004517          	auipc	a0,0x4
   1073c:	d5550513          	addi	a0,a0,-683 # 1448d <end_signature+0x3cd>
   10740:	0c1020ef          	jal	ra,13000 <FN_WriteStr>
   10744:	06400193          	li	gp,100
   10748:	0000100f          	fence.i
   1074c:	00018063          	beqz	gp,1074c <reset_vector+0x700>
   10750:	00119193          	slli	gp,gp,0x1
   10754:	0011e193          	ori	gp,gp,1
   10758:	00000073          	ecall
   1075c:	00000293          	li	t0,0
   10760:	08550e63          	beq	a0,t0,107fc <reset_vector+0x7b0>
   10764:	00004517          	auipc	a0,0x4
   10768:	d2b50513          	addi	a0,a0,-725 # 1448f <end_signature+0x3cf>
   1076c:	095020ef          	jal	ra,13000 <FN_WriteStr>
   10770:	00004517          	auipc	a0,0x4
   10774:	d3a50513          	addi	a0,a0,-710 # 144aa <end_signature+0x3ea>
   10778:	089020ef          	jal	ra,13000 <FN_WriteStr>
   1077c:	00004517          	auipc	a0,0x4
   10780:	d3e50513          	addi	a0,a0,-706 # 144ba <end_signature+0x3fa>
   10784:	07d020ef          	jal	ra,13000 <FN_WriteStr>
   10788:	00004517          	auipc	a0,0x4
   1078c:	d3a50513          	addi	a0,a0,-710 # 144c2 <end_signature+0x402>
   10790:	071020ef          	jal	ra,13000 <FN_WriteStr>
   10794:	00004517          	auipc	a0,0x4
   10798:	d3250513          	addi	a0,a0,-718 # 144c6 <end_signature+0x406>
   1079c:	065020ef          	jal	ra,13000 <FN_WriteStr>
   107a0:	00004517          	auipc	a0,0x4
   107a4:	d2950513          	addi	a0,a0,-727 # 144c9 <end_signature+0x409>
   107a8:	059020ef          	jal	ra,13000 <FN_WriteStr>
   107ac:	00004517          	auipc	a0,0x4
   107b0:	d2150513          	addi	a0,a0,-735 # 144cd <end_signature+0x40d>
   107b4:	04d020ef          	jal	ra,13000 <FN_WriteStr>
   107b8:	00050513          	mv	a0,a0
   107bc:	061020ef          	jal	ra,1301c <FN_WriteA0>
   107c0:	00004517          	auipc	a0,0x4
   107c4:	d0f50513          	addi	a0,a0,-753 # 144cf <end_signature+0x40f>
   107c8:	039020ef          	jal	ra,13000 <FN_WriteStr>
   107cc:	00004517          	auipc	a0,0x4
   107d0:	d0950513          	addi	a0,a0,-759 # 144d5 <end_signature+0x415>
   107d4:	02d020ef          	jal	ra,13000 <FN_WriteStr>
   107d8:	00004517          	auipc	a0,0x4
   107dc:	d0850513          	addi	a0,a0,-760 # 144e0 <end_signature+0x420>
   107e0:	021020ef          	jal	ra,13000 <FN_WriteStr>
   107e4:	06400193          	li	gp,100
   107e8:	0000100f          	fence.i
   107ec:	00018063          	beqz	gp,107ec <reset_vector+0x7a0>
   107f0:	00119193          	slli	gp,gp,0x1
   107f4:	0011e193          	ori	gp,gp,1
   107f8:	00000073          	ecall
   107fc:	00000293          	li	t0,0
   10800:	08558e63          	beq	a1,t0,1089c <reset_vector+0x850>
   10804:	00004517          	auipc	a0,0x4
   10808:	cde50513          	addi	a0,a0,-802 # 144e2 <end_signature+0x422>
   1080c:	7f4020ef          	jal	ra,13000 <FN_WriteStr>
   10810:	00004517          	auipc	a0,0x4
   10814:	ced50513          	addi	a0,a0,-787 # 144fd <end_signature+0x43d>
   10818:	7e8020ef          	jal	ra,13000 <FN_WriteStr>
   1081c:	00004517          	auipc	a0,0x4
   10820:	cf150513          	addi	a0,a0,-783 # 1450d <end_signature+0x44d>
   10824:	7dc020ef          	jal	ra,13000 <FN_WriteStr>
   10828:	00004517          	auipc	a0,0x4
   1082c:	ced50513          	addi	a0,a0,-787 # 14515 <end_signature+0x455>
   10830:	7d0020ef          	jal	ra,13000 <FN_WriteStr>
   10834:	00004517          	auipc	a0,0x4
   10838:	ce550513          	addi	a0,a0,-795 # 14519 <end_signature+0x459>
   1083c:	7c4020ef          	jal	ra,13000 <FN_WriteStr>
   10840:	00004517          	auipc	a0,0x4
   10844:	cdc50513          	addi	a0,a0,-804 # 1451c <end_signature+0x45c>
   10848:	7b8020ef          	jal	ra,13000 <FN_WriteStr>
   1084c:	00004517          	auipc	a0,0x4
   10850:	cd450513          	addi	a0,a0,-812 # 14520 <end_signature+0x460>
   10854:	7ac020ef          	jal	ra,13000 <FN_WriteStr>
   10858:	00058513          	mv	a0,a1
   1085c:	7c0020ef          	jal	ra,1301c <FN_WriteA0>
   10860:	00004517          	auipc	a0,0x4
   10864:	cc250513          	addi	a0,a0,-830 # 14522 <end_signature+0x462>
   10868:	798020ef          	jal	ra,13000 <FN_WriteStr>
   1086c:	00004517          	auipc	a0,0x4
   10870:	cbc50513          	addi	a0,a0,-836 # 14528 <end_signature+0x468>
   10874:	78c020ef          	jal	ra,13000 <FN_WriteStr>
   10878:	00004517          	auipc	a0,0x4
   1087c:	cbb50513          	addi	a0,a0,-837 # 14533 <end_signature+0x473>
   10880:	780020ef          	jal	ra,13000 <FN_WriteStr>
   10884:	06400193          	li	gp,100
   10888:	0000100f          	fence.i
   1088c:	00018063          	beqz	gp,1088c <reset_vector+0x840>
   10890:	00119193          	slli	gp,gp,0x1
   10894:	0011e193          	ori	gp,gp,1
   10898:	00000073          	ecall
   1089c:	00100293          	li	t0,1
   108a0:	08560e63          	beq	a2,t0,1093c <reset_vector+0x8f0>
   108a4:	00004517          	auipc	a0,0x4
   108a8:	c9150513          	addi	a0,a0,-879 # 14535 <end_signature+0x475>
   108ac:	754020ef          	jal	ra,13000 <FN_WriteStr>
   108b0:	00004517          	auipc	a0,0x4
   108b4:	ca050513          	addi	a0,a0,-864 # 14550 <end_signature+0x490>
   108b8:	748020ef          	jal	ra,13000 <FN_WriteStr>
   108bc:	00004517          	auipc	a0,0x4
   108c0:	ca450513          	addi	a0,a0,-860 # 14560 <end_signature+0x4a0>
   108c4:	73c020ef          	jal	ra,13000 <FN_WriteStr>
   108c8:	00004517          	auipc	a0,0x4
   108cc:	ca050513          	addi	a0,a0,-864 # 14568 <end_signature+0x4a8>
   108d0:	730020ef          	jal	ra,13000 <FN_WriteStr>
   108d4:	00004517          	auipc	a0,0x4
   108d8:	c9850513          	addi	a0,a0,-872 # 1456c <end_signature+0x4ac>
   108dc:	724020ef          	jal	ra,13000 <FN_WriteStr>
   108e0:	00004517          	auipc	a0,0x4
   108e4:	c8f50513          	addi	a0,a0,-881 # 1456f <end_signature+0x4af>
   108e8:	718020ef          	jal	ra,13000 <FN_WriteStr>
   108ec:	00004517          	auipc	a0,0x4
   108f0:	c8750513          	addi	a0,a0,-889 # 14573 <end_signature+0x4b3>
   108f4:	70c020ef          	jal	ra,13000 <FN_WriteStr>
   108f8:	00060513          	mv	a0,a2
   108fc:	720020ef          	jal	ra,1301c <FN_WriteA0>
   10900:	00004517          	auipc	a0,0x4
   10904:	c7550513          	addi	a0,a0,-907 # 14575 <end_signature+0x4b5>
   10908:	6f8020ef          	jal	ra,13000 <FN_WriteStr>
   1090c:	00004517          	auipc	a0,0x4
   10910:	c6f50513          	addi	a0,a0,-913 # 1457b <end_signature+0x4bb>
   10914:	6ec020ef          	jal	ra,13000 <FN_WriteStr>
   10918:	00004517          	auipc	a0,0x4
   1091c:	c6e50513          	addi	a0,a0,-914 # 14586 <end_signature+0x4c6>
   10920:	6e0020ef          	jal	ra,13000 <FN_WriteStr>
   10924:	06400193          	li	gp,100
   10928:	0000100f          	fence.i
   1092c:	00018063          	beqz	gp,1092c <reset_vector+0x8e0>
   10930:	00119193          	slli	gp,gp,0x1
   10934:	0011e193          	ori	gp,gp,1
   10938:	00000073          	ecall
   1093c:	00000293          	li	t0,0
   10940:	08568e63          	beq	a3,t0,109dc <reset_vector+0x990>
   10944:	00004517          	auipc	a0,0x4
   10948:	c4450513          	addi	a0,a0,-956 # 14588 <end_signature+0x4c8>
   1094c:	6b4020ef          	jal	ra,13000 <FN_WriteStr>
   10950:	00004517          	auipc	a0,0x4
   10954:	c5350513          	addi	a0,a0,-941 # 145a3 <end_signature+0x4e3>
   10958:	6a8020ef          	jal	ra,13000 <FN_WriteStr>
   1095c:	00004517          	auipc	a0,0x4
   10960:	c5750513          	addi	a0,a0,-937 # 145b3 <end_signature+0x4f3>
   10964:	69c020ef          	jal	ra,13000 <FN_WriteStr>
   10968:	00004517          	auipc	a0,0x4
   1096c:	c5350513          	addi	a0,a0,-941 # 145bb <end_signature+0x4fb>
   10970:	690020ef          	jal	ra,13000 <FN_WriteStr>
   10974:	00004517          	auipc	a0,0x4
   10978:	c4b50513          	addi	a0,a0,-949 # 145bf <end_signature+0x4ff>
   1097c:	684020ef          	jal	ra,13000 <FN_WriteStr>
   10980:	00004517          	auipc	a0,0x4
   10984:	c4250513          	addi	a0,a0,-958 # 145c2 <end_signature+0x502>
   10988:	678020ef          	jal	ra,13000 <FN_WriteStr>
   1098c:	00004517          	auipc	a0,0x4
   10990:	c3a50513          	addi	a0,a0,-966 # 145c6 <end_signature+0x506>
   10994:	66c020ef          	jal	ra,13000 <FN_WriteStr>
   10998:	00068513          	mv	a0,a3
   1099c:	680020ef          	jal	ra,1301c <FN_WriteA0>
   109a0:	00004517          	auipc	a0,0x4
   109a4:	c2850513          	addi	a0,a0,-984 # 145c8 <end_signature+0x508>
   109a8:	658020ef          	jal	ra,13000 <FN_WriteStr>
   109ac:	00004517          	auipc	a0,0x4
   109b0:	c2250513          	addi	a0,a0,-990 # 145ce <end_signature+0x50e>
   109b4:	64c020ef          	jal	ra,13000 <FN_WriteStr>
   109b8:	00004517          	auipc	a0,0x4
   109bc:	c2150513          	addi	a0,a0,-991 # 145d9 <end_signature+0x519>
   109c0:	640020ef          	jal	ra,13000 <FN_WriteStr>
   109c4:	06400193          	li	gp,100
   109c8:	0000100f          	fence.i
   109cc:	00018063          	beqz	gp,109cc <reset_vector+0x980>
   109d0:	00119193          	slli	gp,gp,0x1
   109d4:	0011e193          	ori	gp,gp,1
   109d8:	00000073          	ecall
   109dc:	00004517          	auipc	a0,0x4
   109e0:	bff50513          	addi	a0,a0,-1025 # 145db <end_signature+0x51b>
   109e4:	61c020ef          	jal	ra,13000 <FN_WriteStr>
   109e8:	00004517          	auipc	a0,0x4
   109ec:	c0f50513          	addi	a0,a0,-1009 # 145f7 <end_signature+0x537>
   109f0:	610020ef          	jal	ra,13000 <FN_WriteStr>
   109f4:	00003097          	auipc	ra,0x3
   109f8:	61408093          	addi	ra,ra,1556 # 14008 <test_A3_data>
   109fc:	00003117          	auipc	sp,0x3
   10a00:	65410113          	addi	sp,sp,1620 # 14050 <test_A3_res>
   10a04:	0000a683          	lw	a3,0(ra)
   10a08:	0016d713          	srli	a4,a3,0x1
   10a0c:	00f6d793          	srli	a5,a3,0xf
   10a10:	01f6d813          	srli	a6,a3,0x1f
   10a14:	0006d893          	srli	a7,a3,0x0
   10a18:	0106d913          	srli	s2,a3,0x10
   10a1c:	00d12023          	sw	a3,0(sp)
   10a20:	00e12223          	sw	a4,4(sp)
   10a24:	00f12423          	sw	a5,8(sp)
   10a28:	01012623          	sw	a6,12(sp)
   10a2c:	01112823          	sw	a7,16(sp)
   10a30:	01212a23          	sw	s2,20(sp)
   10a34:	fff00293          	li	t0,-1
   10a38:	08568e63          	beq	a3,t0,10ad4 <reset_vector+0xa88>
   10a3c:	00004517          	auipc	a0,0x4
   10a40:	c0f50513          	addi	a0,a0,-1009 # 1464b <end_signature+0x58b>
   10a44:	5bc020ef          	jal	ra,13000 <FN_WriteStr>
   10a48:	00004517          	auipc	a0,0x4
   10a4c:	c1e50513          	addi	a0,a0,-994 # 14666 <end_signature+0x5a6>
   10a50:	5b0020ef          	jal	ra,13000 <FN_WriteStr>
   10a54:	00004517          	auipc	a0,0x4
   10a58:	c2250513          	addi	a0,a0,-990 # 14676 <end_signature+0x5b6>
   10a5c:	5a4020ef          	jal	ra,13000 <FN_WriteStr>
   10a60:	00004517          	auipc	a0,0x4
   10a64:	c1e50513          	addi	a0,a0,-994 # 1467e <end_signature+0x5be>
   10a68:	598020ef          	jal	ra,13000 <FN_WriteStr>
   10a6c:	00004517          	auipc	a0,0x4
   10a70:	c1650513          	addi	a0,a0,-1002 # 14682 <end_signature+0x5c2>
   10a74:	58c020ef          	jal	ra,13000 <FN_WriteStr>
   10a78:	00004517          	auipc	a0,0x4
   10a7c:	c0d50513          	addi	a0,a0,-1011 # 14685 <end_signature+0x5c5>
   10a80:	580020ef          	jal	ra,13000 <FN_WriteStr>
   10a84:	00004517          	auipc	a0,0x4
   10a88:	c0550513          	addi	a0,a0,-1019 # 14689 <end_signature+0x5c9>
   10a8c:	574020ef          	jal	ra,13000 <FN_WriteStr>
   10a90:	00068513          	mv	a0,a3
   10a94:	588020ef          	jal	ra,1301c <FN_WriteA0>
   10a98:	00004517          	auipc	a0,0x4
   10a9c:	bf350513          	addi	a0,a0,-1037 # 1468b <end_signature+0x5cb>
   10aa0:	560020ef          	jal	ra,13000 <FN_WriteStr>
   10aa4:	00004517          	auipc	a0,0x4
   10aa8:	bed50513          	addi	a0,a0,-1043 # 14691 <end_signature+0x5d1>
   10aac:	554020ef          	jal	ra,13000 <FN_WriteStr>
   10ab0:	00004517          	auipc	a0,0x4
   10ab4:	bec50513          	addi	a0,a0,-1044 # 1469c <end_signature+0x5dc>
   10ab8:	548020ef          	jal	ra,13000 <FN_WriteStr>
   10abc:	06400193          	li	gp,100
   10ac0:	0000100f          	fence.i
   10ac4:	00018063          	beqz	gp,10ac4 <reset_vector+0xa78>
   10ac8:	00119193          	slli	gp,gp,0x1
   10acc:	0011e193          	ori	gp,gp,1
   10ad0:	00000073          	ecall
   10ad4:	800002b7          	lui	t0,0x80000
   10ad8:	fff28293          	addi	t0,t0,-1 # 7fffffff <_end+0x7ffeaeff>
   10adc:	08570e63          	beq	a4,t0,10b78 <reset_vector+0xb2c>
   10ae0:	00004517          	auipc	a0,0x4
   10ae4:	bbe50513          	addi	a0,a0,-1090 # 1469e <end_signature+0x5de>
   10ae8:	518020ef          	jal	ra,13000 <FN_WriteStr>
   10aec:	00004517          	auipc	a0,0x4
   10af0:	bcd50513          	addi	a0,a0,-1075 # 146b9 <end_signature+0x5f9>
   10af4:	50c020ef          	jal	ra,13000 <FN_WriteStr>
   10af8:	00004517          	auipc	a0,0x4
   10afc:	bd150513          	addi	a0,a0,-1071 # 146c9 <end_signature+0x609>
   10b00:	500020ef          	jal	ra,13000 <FN_WriteStr>
   10b04:	00004517          	auipc	a0,0x4
   10b08:	bcd50513          	addi	a0,a0,-1075 # 146d1 <end_signature+0x611>
   10b0c:	4f4020ef          	jal	ra,13000 <FN_WriteStr>
   10b10:	00004517          	auipc	a0,0x4
   10b14:	bc550513          	addi	a0,a0,-1083 # 146d5 <end_signature+0x615>
   10b18:	4e8020ef          	jal	ra,13000 <FN_WriteStr>
   10b1c:	00004517          	auipc	a0,0x4
   10b20:	bbc50513          	addi	a0,a0,-1092 # 146d8 <end_signature+0x618>
   10b24:	4dc020ef          	jal	ra,13000 <FN_WriteStr>
   10b28:	00004517          	auipc	a0,0x4
   10b2c:	bb450513          	addi	a0,a0,-1100 # 146dc <end_signature+0x61c>
   10b30:	4d0020ef          	jal	ra,13000 <FN_WriteStr>
   10b34:	00070513          	mv	a0,a4
   10b38:	4e4020ef          	jal	ra,1301c <FN_WriteA0>
   10b3c:	00004517          	auipc	a0,0x4
   10b40:	ba250513          	addi	a0,a0,-1118 # 146de <end_signature+0x61e>
   10b44:	4bc020ef          	jal	ra,13000 <FN_WriteStr>
   10b48:	00004517          	auipc	a0,0x4
   10b4c:	b9c50513          	addi	a0,a0,-1124 # 146e4 <end_signature+0x624>
   10b50:	4b0020ef          	jal	ra,13000 <FN_WriteStr>
   10b54:	00004517          	auipc	a0,0x4
   10b58:	b9b50513          	addi	a0,a0,-1125 # 146ef <end_signature+0x62f>
   10b5c:	4a4020ef          	jal	ra,13000 <FN_WriteStr>
   10b60:	06400193          	li	gp,100
   10b64:	0000100f          	fence.i
   10b68:	00018063          	beqz	gp,10b68 <reset_vector+0xb1c>
   10b6c:	00119193          	slli	gp,gp,0x1
   10b70:	0011e193          	ori	gp,gp,1
   10b74:	00000073          	ecall
   10b78:	000202b7          	lui	t0,0x20
   10b7c:	fff28293          	addi	t0,t0,-1 # 1ffff <_end+0xaeff>
   10b80:	08578e63          	beq	a5,t0,10c1c <reset_vector+0xbd0>
   10b84:	00004517          	auipc	a0,0x4
   10b88:	b6d50513          	addi	a0,a0,-1171 # 146f1 <end_signature+0x631>
   10b8c:	474020ef          	jal	ra,13000 <FN_WriteStr>
   10b90:	00004517          	auipc	a0,0x4
   10b94:	b7c50513          	addi	a0,a0,-1156 # 1470c <end_signature+0x64c>
   10b98:	468020ef          	jal	ra,13000 <FN_WriteStr>
   10b9c:	00004517          	auipc	a0,0x4
   10ba0:	b8050513          	addi	a0,a0,-1152 # 1471c <end_signature+0x65c>
   10ba4:	45c020ef          	jal	ra,13000 <FN_WriteStr>
   10ba8:	00004517          	auipc	a0,0x4
   10bac:	b7c50513          	addi	a0,a0,-1156 # 14724 <end_signature+0x664>
   10bb0:	450020ef          	jal	ra,13000 <FN_WriteStr>
   10bb4:	00004517          	auipc	a0,0x4
   10bb8:	b7450513          	addi	a0,a0,-1164 # 14728 <end_signature+0x668>
   10bbc:	444020ef          	jal	ra,13000 <FN_WriteStr>
   10bc0:	00004517          	auipc	a0,0x4
   10bc4:	b6b50513          	addi	a0,a0,-1173 # 1472b <end_signature+0x66b>
   10bc8:	438020ef          	jal	ra,13000 <FN_WriteStr>
   10bcc:	00004517          	auipc	a0,0x4
   10bd0:	b6350513          	addi	a0,a0,-1181 # 1472f <end_signature+0x66f>
   10bd4:	42c020ef          	jal	ra,13000 <FN_WriteStr>
   10bd8:	00078513          	mv	a0,a5
   10bdc:	440020ef          	jal	ra,1301c <FN_WriteA0>
   10be0:	00004517          	auipc	a0,0x4
   10be4:	b5150513          	addi	a0,a0,-1199 # 14731 <end_signature+0x671>
   10be8:	418020ef          	jal	ra,13000 <FN_WriteStr>
   10bec:	00004517          	auipc	a0,0x4
   10bf0:	b4b50513          	addi	a0,a0,-1205 # 14737 <end_signature+0x677>
   10bf4:	40c020ef          	jal	ra,13000 <FN_WriteStr>
   10bf8:	00004517          	auipc	a0,0x4
   10bfc:	b4a50513          	addi	a0,a0,-1206 # 14742 <end_signature+0x682>
   10c00:	400020ef          	jal	ra,13000 <FN_WriteStr>
   10c04:	06400193          	li	gp,100
   10c08:	0000100f          	fence.i
   10c0c:	00018063          	beqz	gp,10c0c <reset_vector+0xbc0>
   10c10:	00119193          	slli	gp,gp,0x1
   10c14:	0011e193          	ori	gp,gp,1
   10c18:	00000073          	ecall
   10c1c:	00100293          	li	t0,1
   10c20:	08580e63          	beq	a6,t0,10cbc <reset_vector+0xc70>
   10c24:	00004517          	auipc	a0,0x4
   10c28:	b2050513          	addi	a0,a0,-1248 # 14744 <end_signature+0x684>
   10c2c:	3d4020ef          	jal	ra,13000 <FN_WriteStr>
   10c30:	00004517          	auipc	a0,0x4
   10c34:	b2f50513          	addi	a0,a0,-1233 # 1475f <end_signature+0x69f>
   10c38:	3c8020ef          	jal	ra,13000 <FN_WriteStr>
   10c3c:	00004517          	auipc	a0,0x4
   10c40:	b3350513          	addi	a0,a0,-1229 # 1476f <end_signature+0x6af>
   10c44:	3bc020ef          	jal	ra,13000 <FN_WriteStr>
   10c48:	00004517          	auipc	a0,0x4
   10c4c:	b2f50513          	addi	a0,a0,-1233 # 14777 <end_signature+0x6b7>
   10c50:	3b0020ef          	jal	ra,13000 <FN_WriteStr>
   10c54:	00004517          	auipc	a0,0x4
   10c58:	b2750513          	addi	a0,a0,-1241 # 1477b <end_signature+0x6bb>
   10c5c:	3a4020ef          	jal	ra,13000 <FN_WriteStr>
   10c60:	00004517          	auipc	a0,0x4
   10c64:	b1e50513          	addi	a0,a0,-1250 # 1477e <end_signature+0x6be>
   10c68:	398020ef          	jal	ra,13000 <FN_WriteStr>
   10c6c:	00004517          	auipc	a0,0x4
   10c70:	b1650513          	addi	a0,a0,-1258 # 14782 <end_signature+0x6c2>
   10c74:	38c020ef          	jal	ra,13000 <FN_WriteStr>
   10c78:	00080513          	mv	a0,a6
   10c7c:	3a0020ef          	jal	ra,1301c <FN_WriteA0>
   10c80:	00004517          	auipc	a0,0x4
   10c84:	b0450513          	addi	a0,a0,-1276 # 14784 <end_signature+0x6c4>
   10c88:	378020ef          	jal	ra,13000 <FN_WriteStr>
   10c8c:	00004517          	auipc	a0,0x4
   10c90:	afe50513          	addi	a0,a0,-1282 # 1478a <end_signature+0x6ca>
   10c94:	36c020ef          	jal	ra,13000 <FN_WriteStr>
   10c98:	00004517          	auipc	a0,0x4
   10c9c:	afd50513          	addi	a0,a0,-1283 # 14795 <end_signature+0x6d5>
   10ca0:	360020ef          	jal	ra,13000 <FN_WriteStr>
   10ca4:	06400193          	li	gp,100
   10ca8:	0000100f          	fence.i
   10cac:	00018063          	beqz	gp,10cac <reset_vector+0xc60>
   10cb0:	00119193          	slli	gp,gp,0x1
   10cb4:	0011e193          	ori	gp,gp,1
   10cb8:	00000073          	ecall
   10cbc:	fff00293          	li	t0,-1
   10cc0:	08588e63          	beq	a7,t0,10d5c <reset_vector+0xd10>
   10cc4:	00004517          	auipc	a0,0x4
   10cc8:	ad350513          	addi	a0,a0,-1325 # 14797 <end_signature+0x6d7>
   10ccc:	334020ef          	jal	ra,13000 <FN_WriteStr>
   10cd0:	00004517          	auipc	a0,0x4
   10cd4:	ae250513          	addi	a0,a0,-1310 # 147b2 <end_signature+0x6f2>
   10cd8:	328020ef          	jal	ra,13000 <FN_WriteStr>
   10cdc:	00004517          	auipc	a0,0x4
   10ce0:	ae650513          	addi	a0,a0,-1306 # 147c2 <end_signature+0x702>
   10ce4:	31c020ef          	jal	ra,13000 <FN_WriteStr>
   10ce8:	00004517          	auipc	a0,0x4
   10cec:	ae250513          	addi	a0,a0,-1310 # 147ca <end_signature+0x70a>
   10cf0:	310020ef          	jal	ra,13000 <FN_WriteStr>
   10cf4:	00004517          	auipc	a0,0x4
   10cf8:	ada50513          	addi	a0,a0,-1318 # 147ce <end_signature+0x70e>
   10cfc:	304020ef          	jal	ra,13000 <FN_WriteStr>
   10d00:	00004517          	auipc	a0,0x4
   10d04:	ad150513          	addi	a0,a0,-1327 # 147d1 <end_signature+0x711>
   10d08:	2f8020ef          	jal	ra,13000 <FN_WriteStr>
   10d0c:	00004517          	auipc	a0,0x4
   10d10:	ac950513          	addi	a0,a0,-1335 # 147d5 <end_signature+0x715>
   10d14:	2ec020ef          	jal	ra,13000 <FN_WriteStr>
   10d18:	00088513          	mv	a0,a7
   10d1c:	300020ef          	jal	ra,1301c <FN_WriteA0>
   10d20:	00004517          	auipc	a0,0x4
   10d24:	ab750513          	addi	a0,a0,-1353 # 147d7 <end_signature+0x717>
   10d28:	2d8020ef          	jal	ra,13000 <FN_WriteStr>
   10d2c:	00004517          	auipc	a0,0x4
   10d30:	ab150513          	addi	a0,a0,-1359 # 147dd <end_signature+0x71d>
   10d34:	2cc020ef          	jal	ra,13000 <FN_WriteStr>
   10d38:	00004517          	auipc	a0,0x4
   10d3c:	ab050513          	addi	a0,a0,-1360 # 147e8 <end_signature+0x728>
   10d40:	2c0020ef          	jal	ra,13000 <FN_WriteStr>
   10d44:	06400193          	li	gp,100
   10d48:	0000100f          	fence.i
   10d4c:	00018063          	beqz	gp,10d4c <reset_vector+0xd00>
   10d50:	00119193          	slli	gp,gp,0x1
   10d54:	0011e193          	ori	gp,gp,1
   10d58:	00000073          	ecall
   10d5c:	000102b7          	lui	t0,0x10
   10d60:	fff28293          	addi	t0,t0,-1 # ffff <_start-0x1>
   10d64:	08590e63          	beq	s2,t0,10e00 <reset_vector+0xdb4>
   10d68:	00004517          	auipc	a0,0x4
   10d6c:	a8250513          	addi	a0,a0,-1406 # 147ea <end_signature+0x72a>
   10d70:	290020ef          	jal	ra,13000 <FN_WriteStr>
   10d74:	00004517          	auipc	a0,0x4
   10d78:	a9150513          	addi	a0,a0,-1391 # 14805 <end_signature+0x745>
   10d7c:	284020ef          	jal	ra,13000 <FN_WriteStr>
   10d80:	00004517          	auipc	a0,0x4
   10d84:	a9550513          	addi	a0,a0,-1387 # 14815 <end_signature+0x755>
   10d88:	278020ef          	jal	ra,13000 <FN_WriteStr>
   10d8c:	00004517          	auipc	a0,0x4
   10d90:	a9150513          	addi	a0,a0,-1391 # 1481d <end_signature+0x75d>
   10d94:	26c020ef          	jal	ra,13000 <FN_WriteStr>
   10d98:	00004517          	auipc	a0,0x4
   10d9c:	a8950513          	addi	a0,a0,-1399 # 14821 <end_signature+0x761>
   10da0:	260020ef          	jal	ra,13000 <FN_WriteStr>
   10da4:	00004517          	auipc	a0,0x4
   10da8:	a8050513          	addi	a0,a0,-1408 # 14824 <end_signature+0x764>
   10dac:	254020ef          	jal	ra,13000 <FN_WriteStr>
   10db0:	00004517          	auipc	a0,0x4
   10db4:	a7850513          	addi	a0,a0,-1416 # 14828 <end_signature+0x768>
   10db8:	248020ef          	jal	ra,13000 <FN_WriteStr>
   10dbc:	00090513          	mv	a0,s2
   10dc0:	25c020ef          	jal	ra,1301c <FN_WriteA0>
   10dc4:	00004517          	auipc	a0,0x4
   10dc8:	a6650513          	addi	a0,a0,-1434 # 1482a <end_signature+0x76a>
   10dcc:	234020ef          	jal	ra,13000 <FN_WriteStr>
   10dd0:	00004517          	auipc	a0,0x4
   10dd4:	a6050513          	addi	a0,a0,-1440 # 14830 <end_signature+0x770>
   10dd8:	228020ef          	jal	ra,13000 <FN_WriteStr>
   10ddc:	00004517          	auipc	a0,0x4
   10de0:	a5f50513          	addi	a0,a0,-1441 # 1483b <end_signature+0x77b>
   10de4:	21c020ef          	jal	ra,13000 <FN_WriteStr>
   10de8:	06400193          	li	gp,100
   10dec:	0000100f          	fence.i
   10df0:	00018063          	beqz	gp,10df0 <reset_vector+0xda4>
   10df4:	00119193          	slli	gp,gp,0x1
   10df8:	0011e193          	ori	gp,gp,1
   10dfc:	00000073          	ecall
   10e00:	00004517          	auipc	a0,0x4
   10e04:	a3d50513          	addi	a0,a0,-1475 # 1483d <end_signature+0x77d>
   10e08:	1f8020ef          	jal	ra,13000 <FN_WriteStr>
   10e0c:	00004517          	auipc	a0,0x4
   10e10:	a4d50513          	addi	a0,a0,-1459 # 14859 <end_signature+0x799>
   10e14:	1ec020ef          	jal	ra,13000 <FN_WriteStr>
   10e18:	00003617          	auipc	a2,0x3
   10e1c:	1f460613          	addi	a2,a2,500 # 1400c <test_A4_data>
   10e20:	00003697          	auipc	a3,0x3
   10e24:	24868693          	addi	a3,a3,584 # 14068 <test_A4_res>
   10e28:	00062903          	lw	s2,0(a2)
   10e2c:	00195993          	srli	s3,s2,0x1
   10e30:	00f95a13          	srli	s4,s2,0xf
   10e34:	01f95a93          	srli	s5,s2,0x1f
   10e38:	00095b13          	srli	s6,s2,0x0
   10e3c:	01095b93          	srli	s7,s2,0x10
   10e40:	0126a023          	sw	s2,0(a3)
   10e44:	0136a223          	sw	s3,4(a3)
   10e48:	0146a423          	sw	s4,8(a3)
   10e4c:	0156a623          	sw	s5,12(a3)
   10e50:	0166a823          	sw	s6,16(a3)
   10e54:	0176aa23          	sw	s7,20(a3)
   10e58:	800002b7          	lui	t0,0x80000
   10e5c:	fff28293          	addi	t0,t0,-1 # 7fffffff <_end+0x7ffeaeff>
   10e60:	08590e63          	beq	s2,t0,10efc <reset_vector+0xeb0>
   10e64:	00004517          	auipc	a0,0x4
   10e68:	a5150513          	addi	a0,a0,-1455 # 148b5 <end_signature+0x7f5>
   10e6c:	194020ef          	jal	ra,13000 <FN_WriteStr>
   10e70:	00004517          	auipc	a0,0x4
   10e74:	a6050513          	addi	a0,a0,-1440 # 148d0 <end_signature+0x810>
   10e78:	188020ef          	jal	ra,13000 <FN_WriteStr>
   10e7c:	00004517          	auipc	a0,0x4
   10e80:	a6450513          	addi	a0,a0,-1436 # 148e0 <end_signature+0x820>
   10e84:	17c020ef          	jal	ra,13000 <FN_WriteStr>
   10e88:	00004517          	auipc	a0,0x4
   10e8c:	a6050513          	addi	a0,a0,-1440 # 148e8 <end_signature+0x828>
   10e90:	170020ef          	jal	ra,13000 <FN_WriteStr>
   10e94:	00004517          	auipc	a0,0x4
   10e98:	a5850513          	addi	a0,a0,-1448 # 148ec <end_signature+0x82c>
   10e9c:	164020ef          	jal	ra,13000 <FN_WriteStr>
   10ea0:	00004517          	auipc	a0,0x4
   10ea4:	a4f50513          	addi	a0,a0,-1457 # 148ef <end_signature+0x82f>
   10ea8:	158020ef          	jal	ra,13000 <FN_WriteStr>
   10eac:	00004517          	auipc	a0,0x4
   10eb0:	a4750513          	addi	a0,a0,-1465 # 148f3 <end_signature+0x833>
   10eb4:	14c020ef          	jal	ra,13000 <FN_WriteStr>
   10eb8:	00090513          	mv	a0,s2
   10ebc:	160020ef          	jal	ra,1301c <FN_WriteA0>
   10ec0:	00004517          	auipc	a0,0x4
   10ec4:	a3550513          	addi	a0,a0,-1483 # 148f5 <end_signature+0x835>
   10ec8:	138020ef          	jal	ra,13000 <FN_WriteStr>
   10ecc:	00004517          	auipc	a0,0x4
   10ed0:	a2f50513          	addi	a0,a0,-1489 # 148fb <end_signature+0x83b>
   10ed4:	12c020ef          	jal	ra,13000 <FN_WriteStr>
   10ed8:	00004517          	auipc	a0,0x4
   10edc:	a2e50513          	addi	a0,a0,-1490 # 14906 <end_signature+0x846>
   10ee0:	120020ef          	jal	ra,13000 <FN_WriteStr>
   10ee4:	06400193          	li	gp,100
   10ee8:	0000100f          	fence.i
   10eec:	00018063          	beqz	gp,10eec <reset_vector+0xea0>
   10ef0:	00119193          	slli	gp,gp,0x1
   10ef4:	0011e193          	ori	gp,gp,1
   10ef8:	00000073          	ecall
   10efc:	400002b7          	lui	t0,0x40000
   10f00:	fff28293          	addi	t0,t0,-1 # 3fffffff <_end+0x3ffeaeff>
   10f04:	08598e63          	beq	s3,t0,10fa0 <reset_vector+0xf54>
   10f08:	00004517          	auipc	a0,0x4
   10f0c:	a0050513          	addi	a0,a0,-1536 # 14908 <end_signature+0x848>
   10f10:	0f0020ef          	jal	ra,13000 <FN_WriteStr>
   10f14:	00004517          	auipc	a0,0x4
   10f18:	a0f50513          	addi	a0,a0,-1521 # 14923 <end_signature+0x863>
   10f1c:	0e4020ef          	jal	ra,13000 <FN_WriteStr>
   10f20:	00004517          	auipc	a0,0x4
   10f24:	a1350513          	addi	a0,a0,-1517 # 14933 <end_signature+0x873>
   10f28:	0d8020ef          	jal	ra,13000 <FN_WriteStr>
   10f2c:	00004517          	auipc	a0,0x4
   10f30:	a0f50513          	addi	a0,a0,-1521 # 1493b <end_signature+0x87b>
   10f34:	0cc020ef          	jal	ra,13000 <FN_WriteStr>
   10f38:	00004517          	auipc	a0,0x4
   10f3c:	a0750513          	addi	a0,a0,-1529 # 1493f <end_signature+0x87f>
   10f40:	0c0020ef          	jal	ra,13000 <FN_WriteStr>
   10f44:	00004517          	auipc	a0,0x4
   10f48:	9fe50513          	addi	a0,a0,-1538 # 14942 <end_signature+0x882>
   10f4c:	0b4020ef          	jal	ra,13000 <FN_WriteStr>
   10f50:	00004517          	auipc	a0,0x4
   10f54:	9f650513          	addi	a0,a0,-1546 # 14946 <end_signature+0x886>
   10f58:	0a8020ef          	jal	ra,13000 <FN_WriteStr>
   10f5c:	00098513          	mv	a0,s3
   10f60:	0bc020ef          	jal	ra,1301c <FN_WriteA0>
   10f64:	00004517          	auipc	a0,0x4
   10f68:	9e450513          	addi	a0,a0,-1564 # 14948 <end_signature+0x888>
   10f6c:	094020ef          	jal	ra,13000 <FN_WriteStr>
   10f70:	00004517          	auipc	a0,0x4
   10f74:	9de50513          	addi	a0,a0,-1570 # 1494e <end_signature+0x88e>
   10f78:	088020ef          	jal	ra,13000 <FN_WriteStr>
   10f7c:	00004517          	auipc	a0,0x4
   10f80:	9dd50513          	addi	a0,a0,-1571 # 14959 <end_signature+0x899>
   10f84:	07c020ef          	jal	ra,13000 <FN_WriteStr>
   10f88:	06400193          	li	gp,100
   10f8c:	0000100f          	fence.i
   10f90:	00018063          	beqz	gp,10f90 <reset_vector+0xf44>
   10f94:	00119193          	slli	gp,gp,0x1
   10f98:	0011e193          	ori	gp,gp,1
   10f9c:	00000073          	ecall
   10fa0:	000102b7          	lui	t0,0x10
   10fa4:	fff28293          	addi	t0,t0,-1 # ffff <_start-0x1>
   10fa8:	085a0e63          	beq	s4,t0,11044 <reset_vector+0xff8>
   10fac:	00004517          	auipc	a0,0x4
   10fb0:	9af50513          	addi	a0,a0,-1617 # 1495b <end_signature+0x89b>
   10fb4:	04c020ef          	jal	ra,13000 <FN_WriteStr>
   10fb8:	00004517          	auipc	a0,0x4
   10fbc:	9be50513          	addi	a0,a0,-1602 # 14976 <end_signature+0x8b6>
   10fc0:	040020ef          	jal	ra,13000 <FN_WriteStr>
   10fc4:	00004517          	auipc	a0,0x4
   10fc8:	9c250513          	addi	a0,a0,-1598 # 14986 <end_signature+0x8c6>
   10fcc:	034020ef          	jal	ra,13000 <FN_WriteStr>
   10fd0:	00004517          	auipc	a0,0x4
   10fd4:	9be50513          	addi	a0,a0,-1602 # 1498e <end_signature+0x8ce>
   10fd8:	028020ef          	jal	ra,13000 <FN_WriteStr>
   10fdc:	00004517          	auipc	a0,0x4
   10fe0:	9b650513          	addi	a0,a0,-1610 # 14992 <end_signature+0x8d2>
   10fe4:	01c020ef          	jal	ra,13000 <FN_WriteStr>
   10fe8:	00004517          	auipc	a0,0x4
   10fec:	9ad50513          	addi	a0,a0,-1619 # 14995 <end_signature+0x8d5>
   10ff0:	010020ef          	jal	ra,13000 <FN_WriteStr>
   10ff4:	00004517          	auipc	a0,0x4
   10ff8:	9a550513          	addi	a0,a0,-1627 # 14999 <end_signature+0x8d9>
   10ffc:	004020ef          	jal	ra,13000 <FN_WriteStr>
   11000:	000a0513          	mv	a0,s4
   11004:	018020ef          	jal	ra,1301c <FN_WriteA0>
   11008:	00004517          	auipc	a0,0x4
   1100c:	99350513          	addi	a0,a0,-1645 # 1499b <end_signature+0x8db>
   11010:	7f1010ef          	jal	ra,13000 <FN_WriteStr>
   11014:	00004517          	auipc	a0,0x4
   11018:	98d50513          	addi	a0,a0,-1651 # 149a1 <end_signature+0x8e1>
   1101c:	7e5010ef          	jal	ra,13000 <FN_WriteStr>
   11020:	00004517          	auipc	a0,0x4
   11024:	98c50513          	addi	a0,a0,-1652 # 149ac <end_signature+0x8ec>
   11028:	7d9010ef          	jal	ra,13000 <FN_WriteStr>
   1102c:	06400193          	li	gp,100
   11030:	0000100f          	fence.i
   11034:	00018063          	beqz	gp,11034 <reset_vector+0xfe8>
   11038:	00119193          	slli	gp,gp,0x1
   1103c:	0011e193          	ori	gp,gp,1
   11040:	00000073          	ecall
   11044:	00000293          	li	t0,0
   11048:	085a8e63          	beq	s5,t0,110e4 <reset_vector+0x1098>
   1104c:	00004517          	auipc	a0,0x4
   11050:	96250513          	addi	a0,a0,-1694 # 149ae <end_signature+0x8ee>
   11054:	7ad010ef          	jal	ra,13000 <FN_WriteStr>
   11058:	00004517          	auipc	a0,0x4
   1105c:	97150513          	addi	a0,a0,-1679 # 149c9 <end_signature+0x909>
   11060:	7a1010ef          	jal	ra,13000 <FN_WriteStr>
   11064:	00004517          	auipc	a0,0x4
   11068:	97550513          	addi	a0,a0,-1675 # 149d9 <end_signature+0x919>
   1106c:	795010ef          	jal	ra,13000 <FN_WriteStr>
   11070:	00004517          	auipc	a0,0x4
   11074:	97150513          	addi	a0,a0,-1679 # 149e1 <end_signature+0x921>
   11078:	789010ef          	jal	ra,13000 <FN_WriteStr>
   1107c:	00004517          	auipc	a0,0x4
   11080:	96950513          	addi	a0,a0,-1687 # 149e5 <end_signature+0x925>
   11084:	77d010ef          	jal	ra,13000 <FN_WriteStr>
   11088:	00004517          	auipc	a0,0x4
   1108c:	96050513          	addi	a0,a0,-1696 # 149e8 <end_signature+0x928>
   11090:	771010ef          	jal	ra,13000 <FN_WriteStr>
   11094:	00004517          	auipc	a0,0x4
   11098:	95850513          	addi	a0,a0,-1704 # 149ec <end_signature+0x92c>
   1109c:	765010ef          	jal	ra,13000 <FN_WriteStr>
   110a0:	000a8513          	mv	a0,s5
   110a4:	779010ef          	jal	ra,1301c <FN_WriteA0>
   110a8:	00004517          	auipc	a0,0x4
   110ac:	94650513          	addi	a0,a0,-1722 # 149ee <end_signature+0x92e>
   110b0:	751010ef          	jal	ra,13000 <FN_WriteStr>
   110b4:	00004517          	auipc	a0,0x4
   110b8:	94050513          	addi	a0,a0,-1728 # 149f4 <end_signature+0x934>
   110bc:	745010ef          	jal	ra,13000 <FN_WriteStr>
   110c0:	00004517          	auipc	a0,0x4
   110c4:	93f50513          	addi	a0,a0,-1729 # 149ff <end_signature+0x93f>
   110c8:	739010ef          	jal	ra,13000 <FN_WriteStr>
   110cc:	06400193          	li	gp,100
   110d0:	0000100f          	fence.i
   110d4:	00018063          	beqz	gp,110d4 <reset_vector+0x1088>
   110d8:	00119193          	slli	gp,gp,0x1
   110dc:	0011e193          	ori	gp,gp,1
   110e0:	00000073          	ecall
   110e4:	800002b7          	lui	t0,0x80000
   110e8:	fff28293          	addi	t0,t0,-1 # 7fffffff <_end+0x7ffeaeff>
   110ec:	085b0e63          	beq	s6,t0,11188 <reset_vector+0x113c>
   110f0:	00004517          	auipc	a0,0x4
   110f4:	91150513          	addi	a0,a0,-1775 # 14a01 <end_signature+0x941>
   110f8:	709010ef          	jal	ra,13000 <FN_WriteStr>
   110fc:	00004517          	auipc	a0,0x4
   11100:	92050513          	addi	a0,a0,-1760 # 14a1c <end_signature+0x95c>
   11104:	6fd010ef          	jal	ra,13000 <FN_WriteStr>
   11108:	00004517          	auipc	a0,0x4
   1110c:	92450513          	addi	a0,a0,-1756 # 14a2c <end_signature+0x96c>
   11110:	6f1010ef          	jal	ra,13000 <FN_WriteStr>
   11114:	00004517          	auipc	a0,0x4
   11118:	92050513          	addi	a0,a0,-1760 # 14a34 <end_signature+0x974>
   1111c:	6e5010ef          	jal	ra,13000 <FN_WriteStr>
   11120:	00004517          	auipc	a0,0x4
   11124:	91850513          	addi	a0,a0,-1768 # 14a38 <end_signature+0x978>
   11128:	6d9010ef          	jal	ra,13000 <FN_WriteStr>
   1112c:	00004517          	auipc	a0,0x4
   11130:	90f50513          	addi	a0,a0,-1777 # 14a3b <end_signature+0x97b>
   11134:	6cd010ef          	jal	ra,13000 <FN_WriteStr>
   11138:	00004517          	auipc	a0,0x4
   1113c:	90750513          	addi	a0,a0,-1785 # 14a3f <end_signature+0x97f>
   11140:	6c1010ef          	jal	ra,13000 <FN_WriteStr>
   11144:	000b0513          	mv	a0,s6
   11148:	6d5010ef          	jal	ra,1301c <FN_WriteA0>
   1114c:	00004517          	auipc	a0,0x4
   11150:	8f550513          	addi	a0,a0,-1803 # 14a41 <end_signature+0x981>
   11154:	6ad010ef          	jal	ra,13000 <FN_WriteStr>
   11158:	00004517          	auipc	a0,0x4
   1115c:	8ef50513          	addi	a0,a0,-1809 # 14a47 <end_signature+0x987>
   11160:	6a1010ef          	jal	ra,13000 <FN_WriteStr>
   11164:	00004517          	auipc	a0,0x4
   11168:	8ee50513          	addi	a0,a0,-1810 # 14a52 <end_signature+0x992>
   1116c:	695010ef          	jal	ra,13000 <FN_WriteStr>
   11170:	06400193          	li	gp,100
   11174:	0000100f          	fence.i
   11178:	00018063          	beqz	gp,11178 <reset_vector+0x112c>
   1117c:	00119193          	slli	gp,gp,0x1
   11180:	0011e193          	ori	gp,gp,1
   11184:	00000073          	ecall
   11188:	000082b7          	lui	t0,0x8
   1118c:	fff28293          	addi	t0,t0,-1 # 7fff <_start-0x8001>
   11190:	085b8e63          	beq	s7,t0,1122c <reset_vector+0x11e0>
   11194:	00004517          	auipc	a0,0x4
   11198:	8c050513          	addi	a0,a0,-1856 # 14a54 <end_signature+0x994>
   1119c:	665010ef          	jal	ra,13000 <FN_WriteStr>
   111a0:	00004517          	auipc	a0,0x4
   111a4:	8cf50513          	addi	a0,a0,-1841 # 14a6f <end_signature+0x9af>
   111a8:	659010ef          	jal	ra,13000 <FN_WriteStr>
   111ac:	00004517          	auipc	a0,0x4
   111b0:	8d350513          	addi	a0,a0,-1837 # 14a7f <end_signature+0x9bf>
   111b4:	64d010ef          	jal	ra,13000 <FN_WriteStr>
   111b8:	00004517          	auipc	a0,0x4
   111bc:	8cf50513          	addi	a0,a0,-1841 # 14a87 <end_signature+0x9c7>
   111c0:	641010ef          	jal	ra,13000 <FN_WriteStr>
   111c4:	00004517          	auipc	a0,0x4
   111c8:	8c750513          	addi	a0,a0,-1849 # 14a8b <end_signature+0x9cb>
   111cc:	635010ef          	jal	ra,13000 <FN_WriteStr>
   111d0:	00004517          	auipc	a0,0x4
   111d4:	8be50513          	addi	a0,a0,-1858 # 14a8e <end_signature+0x9ce>
   111d8:	629010ef          	jal	ra,13000 <FN_WriteStr>
   111dc:	00004517          	auipc	a0,0x4
   111e0:	8b650513          	addi	a0,a0,-1866 # 14a92 <end_signature+0x9d2>
   111e4:	61d010ef          	jal	ra,13000 <FN_WriteStr>
   111e8:	000b8513          	mv	a0,s7
   111ec:	631010ef          	jal	ra,1301c <FN_WriteA0>
   111f0:	00004517          	auipc	a0,0x4
   111f4:	8a450513          	addi	a0,a0,-1884 # 14a94 <end_signature+0x9d4>
   111f8:	609010ef          	jal	ra,13000 <FN_WriteStr>
   111fc:	00004517          	auipc	a0,0x4
   11200:	89e50513          	addi	a0,a0,-1890 # 14a9a <end_signature+0x9da>
   11204:	5fd010ef          	jal	ra,13000 <FN_WriteStr>
   11208:	00004517          	auipc	a0,0x4
   1120c:	89d50513          	addi	a0,a0,-1891 # 14aa5 <end_signature+0x9e5>
   11210:	5f1010ef          	jal	ra,13000 <FN_WriteStr>
   11214:	06400193          	li	gp,100
   11218:	0000100f          	fence.i
   1121c:	00018063          	beqz	gp,1121c <reset_vector+0x11d0>
   11220:	00119193          	slli	gp,gp,0x1
   11224:	0011e193          	ori	gp,gp,1
   11228:	00000073          	ecall
   1122c:	00004517          	auipc	a0,0x4
   11230:	87b50513          	addi	a0,a0,-1925 # 14aa7 <end_signature+0x9e7>
   11234:	5cd010ef          	jal	ra,13000 <FN_WriteStr>
   11238:	00004517          	auipc	a0,0x4
   1123c:	88b50513          	addi	a0,a0,-1909 # 14ac3 <end_signature+0xa03>
   11240:	5c1010ef          	jal	ra,13000 <FN_WriteStr>
   11244:	00003617          	auipc	a2,0x3
   11248:	dcc60613          	addi	a2,a2,-564 # 14010 <test_A5_data>
   1124c:	00003697          	auipc	a3,0x3
   11250:	e3468693          	addi	a3,a3,-460 # 14080 <test_A5_res>
   11254:	00062b83          	lw	s7,0(a2)
   11258:	001bdc13          	srli	s8,s7,0x1
   1125c:	00fbdc93          	srli	s9,s7,0xf
   11260:	01fbdd13          	srli	s10,s7,0x1f
   11264:	000bdd93          	srli	s11,s7,0x0
   11268:	010bde13          	srli	t3,s7,0x10
   1126c:	0176a023          	sw	s7,0(a3)
   11270:	0186a223          	sw	s8,4(a3)
   11274:	0196a423          	sw	s9,8(a3)
   11278:	01a6a623          	sw	s10,12(a3)
   1127c:	01b6a823          	sw	s11,16(a3)
   11280:	01c6aa23          	sw	t3,20(a3)
   11284:	800002b7          	lui	t0,0x80000
   11288:	085b8e63          	beq	s7,t0,11324 <reset_vector+0x12d8>
   1128c:	00004517          	auipc	a0,0x4
   11290:	89350513          	addi	a0,a0,-1901 # 14b1f <end_signature+0xa5f>
   11294:	56d010ef          	jal	ra,13000 <FN_WriteStr>
   11298:	00004517          	auipc	a0,0x4
   1129c:	8a250513          	addi	a0,a0,-1886 # 14b3a <end_signature+0xa7a>
   112a0:	561010ef          	jal	ra,13000 <FN_WriteStr>
   112a4:	00004517          	auipc	a0,0x4
   112a8:	8a650513          	addi	a0,a0,-1882 # 14b4a <end_signature+0xa8a>
   112ac:	555010ef          	jal	ra,13000 <FN_WriteStr>
   112b0:	00004517          	auipc	a0,0x4
   112b4:	8a250513          	addi	a0,a0,-1886 # 14b52 <end_signature+0xa92>
   112b8:	549010ef          	jal	ra,13000 <FN_WriteStr>
   112bc:	00004517          	auipc	a0,0x4
   112c0:	89a50513          	addi	a0,a0,-1894 # 14b56 <end_signature+0xa96>
   112c4:	53d010ef          	jal	ra,13000 <FN_WriteStr>
   112c8:	00004517          	auipc	a0,0x4
   112cc:	89150513          	addi	a0,a0,-1903 # 14b59 <end_signature+0xa99>
   112d0:	531010ef          	jal	ra,13000 <FN_WriteStr>
   112d4:	00004517          	auipc	a0,0x4
   112d8:	88950513          	addi	a0,a0,-1911 # 14b5d <end_signature+0xa9d>
   112dc:	525010ef          	jal	ra,13000 <FN_WriteStr>
   112e0:	000b8513          	mv	a0,s7
   112e4:	539010ef          	jal	ra,1301c <FN_WriteA0>
   112e8:	00004517          	auipc	a0,0x4
   112ec:	87750513          	addi	a0,a0,-1929 # 14b5f <end_signature+0xa9f>
   112f0:	511010ef          	jal	ra,13000 <FN_WriteStr>
   112f4:	00004517          	auipc	a0,0x4
   112f8:	87150513          	addi	a0,a0,-1935 # 14b65 <end_signature+0xaa5>
   112fc:	505010ef          	jal	ra,13000 <FN_WriteStr>
   11300:	00004517          	auipc	a0,0x4
   11304:	87050513          	addi	a0,a0,-1936 # 14b70 <end_signature+0xab0>
   11308:	4f9010ef          	jal	ra,13000 <FN_WriteStr>
   1130c:	06400193          	li	gp,100
   11310:	0000100f          	fence.i
   11314:	00018063          	beqz	gp,11314 <reset_vector+0x12c8>
   11318:	00119193          	slli	gp,gp,0x1
   1131c:	0011e193          	ori	gp,gp,1
   11320:	00000073          	ecall
   11324:	400002b7          	lui	t0,0x40000
   11328:	085c0e63          	beq	s8,t0,113c4 <reset_vector+0x1378>
   1132c:	00004517          	auipc	a0,0x4
   11330:	84650513          	addi	a0,a0,-1978 # 14b72 <end_signature+0xab2>
   11334:	4cd010ef          	jal	ra,13000 <FN_WriteStr>
   11338:	00004517          	auipc	a0,0x4
   1133c:	85550513          	addi	a0,a0,-1963 # 14b8d <end_signature+0xacd>
   11340:	4c1010ef          	jal	ra,13000 <FN_WriteStr>
   11344:	00004517          	auipc	a0,0x4
   11348:	85950513          	addi	a0,a0,-1959 # 14b9d <end_signature+0xadd>
   1134c:	4b5010ef          	jal	ra,13000 <FN_WriteStr>
   11350:	00004517          	auipc	a0,0x4
   11354:	85550513          	addi	a0,a0,-1963 # 14ba5 <end_signature+0xae5>
   11358:	4a9010ef          	jal	ra,13000 <FN_WriteStr>
   1135c:	00004517          	auipc	a0,0x4
   11360:	84d50513          	addi	a0,a0,-1971 # 14ba9 <end_signature+0xae9>
   11364:	49d010ef          	jal	ra,13000 <FN_WriteStr>
   11368:	00004517          	auipc	a0,0x4
   1136c:	84450513          	addi	a0,a0,-1980 # 14bac <end_signature+0xaec>
   11370:	491010ef          	jal	ra,13000 <FN_WriteStr>
   11374:	00004517          	auipc	a0,0x4
   11378:	83c50513          	addi	a0,a0,-1988 # 14bb0 <end_signature+0xaf0>
   1137c:	485010ef          	jal	ra,13000 <FN_WriteStr>
   11380:	000c0513          	mv	a0,s8
   11384:	499010ef          	jal	ra,1301c <FN_WriteA0>
   11388:	00004517          	auipc	a0,0x4
   1138c:	82a50513          	addi	a0,a0,-2006 # 14bb2 <end_signature+0xaf2>
   11390:	471010ef          	jal	ra,13000 <FN_WriteStr>
   11394:	00004517          	auipc	a0,0x4
   11398:	82450513          	addi	a0,a0,-2012 # 14bb8 <end_signature+0xaf8>
   1139c:	465010ef          	jal	ra,13000 <FN_WriteStr>
   113a0:	00004517          	auipc	a0,0x4
   113a4:	82350513          	addi	a0,a0,-2013 # 14bc3 <end_signature+0xb03>
   113a8:	459010ef          	jal	ra,13000 <FN_WriteStr>
   113ac:	06400193          	li	gp,100
   113b0:	0000100f          	fence.i
   113b4:	00018063          	beqz	gp,113b4 <reset_vector+0x1368>
   113b8:	00119193          	slli	gp,gp,0x1
   113bc:	0011e193          	ori	gp,gp,1
   113c0:	00000073          	ecall
   113c4:	000102b7          	lui	t0,0x10
   113c8:	085c8e63          	beq	s9,t0,11464 <reset_vector+0x1418>
   113cc:	00003517          	auipc	a0,0x3
   113d0:	7f950513          	addi	a0,a0,2041 # 14bc5 <end_signature+0xb05>
   113d4:	42d010ef          	jal	ra,13000 <FN_WriteStr>
   113d8:	00004517          	auipc	a0,0x4
   113dc:	80850513          	addi	a0,a0,-2040 # 14be0 <end_signature+0xb20>
   113e0:	421010ef          	jal	ra,13000 <FN_WriteStr>
   113e4:	00004517          	auipc	a0,0x4
   113e8:	80c50513          	addi	a0,a0,-2036 # 14bf0 <end_signature+0xb30>
   113ec:	415010ef          	jal	ra,13000 <FN_WriteStr>
   113f0:	00004517          	auipc	a0,0x4
   113f4:	80850513          	addi	a0,a0,-2040 # 14bf8 <end_signature+0xb38>
   113f8:	409010ef          	jal	ra,13000 <FN_WriteStr>
   113fc:	00004517          	auipc	a0,0x4
   11400:	80050513          	addi	a0,a0,-2048 # 14bfc <end_signature+0xb3c>
   11404:	3fd010ef          	jal	ra,13000 <FN_WriteStr>
   11408:	00003517          	auipc	a0,0x3
   1140c:	7f750513          	addi	a0,a0,2039 # 14bff <end_signature+0xb3f>
   11410:	3f1010ef          	jal	ra,13000 <FN_WriteStr>
   11414:	00003517          	auipc	a0,0x3
   11418:	7ef50513          	addi	a0,a0,2031 # 14c03 <end_signature+0xb43>
   1141c:	3e5010ef          	jal	ra,13000 <FN_WriteStr>
   11420:	000c8513          	mv	a0,s9
   11424:	3f9010ef          	jal	ra,1301c <FN_WriteA0>
   11428:	00003517          	auipc	a0,0x3
   1142c:	7dd50513          	addi	a0,a0,2013 # 14c05 <end_signature+0xb45>
   11430:	3d1010ef          	jal	ra,13000 <FN_WriteStr>
   11434:	00003517          	auipc	a0,0x3
   11438:	7d750513          	addi	a0,a0,2007 # 14c0b <end_signature+0xb4b>
   1143c:	3c5010ef          	jal	ra,13000 <FN_WriteStr>
   11440:	00003517          	auipc	a0,0x3
   11444:	7d650513          	addi	a0,a0,2006 # 14c16 <end_signature+0xb56>
   11448:	3b9010ef          	jal	ra,13000 <FN_WriteStr>
   1144c:	06400193          	li	gp,100
   11450:	0000100f          	fence.i
   11454:	00018063          	beqz	gp,11454 <reset_vector+0x1408>
   11458:	00119193          	slli	gp,gp,0x1
   1145c:	0011e193          	ori	gp,gp,1
   11460:	00000073          	ecall
   11464:	00100293          	li	t0,1
   11468:	085d0e63          	beq	s10,t0,11504 <reset_vector+0x14b8>
   1146c:	00003517          	auipc	a0,0x3
   11470:	7ac50513          	addi	a0,a0,1964 # 14c18 <end_signature+0xb58>
   11474:	38d010ef          	jal	ra,13000 <FN_WriteStr>
   11478:	00003517          	auipc	a0,0x3
   1147c:	7bb50513          	addi	a0,a0,1979 # 14c33 <end_signature+0xb73>
   11480:	381010ef          	jal	ra,13000 <FN_WriteStr>
   11484:	00003517          	auipc	a0,0x3
   11488:	7bf50513          	addi	a0,a0,1983 # 14c43 <end_signature+0xb83>
   1148c:	375010ef          	jal	ra,13000 <FN_WriteStr>
   11490:	00003517          	auipc	a0,0x3
   11494:	7bb50513          	addi	a0,a0,1979 # 14c4b <end_signature+0xb8b>
   11498:	369010ef          	jal	ra,13000 <FN_WriteStr>
   1149c:	00003517          	auipc	a0,0x3
   114a0:	7b350513          	addi	a0,a0,1971 # 14c4f <end_signature+0xb8f>
   114a4:	35d010ef          	jal	ra,13000 <FN_WriteStr>
   114a8:	00003517          	auipc	a0,0x3
   114ac:	7aa50513          	addi	a0,a0,1962 # 14c52 <end_signature+0xb92>
   114b0:	351010ef          	jal	ra,13000 <FN_WriteStr>
   114b4:	00003517          	auipc	a0,0x3
   114b8:	7a250513          	addi	a0,a0,1954 # 14c56 <end_signature+0xb96>
   114bc:	345010ef          	jal	ra,13000 <FN_WriteStr>
   114c0:	000d0513          	mv	a0,s10
   114c4:	359010ef          	jal	ra,1301c <FN_WriteA0>
   114c8:	00003517          	auipc	a0,0x3
   114cc:	79050513          	addi	a0,a0,1936 # 14c58 <end_signature+0xb98>
   114d0:	331010ef          	jal	ra,13000 <FN_WriteStr>
   114d4:	00003517          	auipc	a0,0x3
   114d8:	78a50513          	addi	a0,a0,1930 # 14c5e <end_signature+0xb9e>
   114dc:	325010ef          	jal	ra,13000 <FN_WriteStr>
   114e0:	00003517          	auipc	a0,0x3
   114e4:	78950513          	addi	a0,a0,1929 # 14c69 <end_signature+0xba9>
   114e8:	319010ef          	jal	ra,13000 <FN_WriteStr>
   114ec:	06400193          	li	gp,100
   114f0:	0000100f          	fence.i
   114f4:	00018063          	beqz	gp,114f4 <reset_vector+0x14a8>
   114f8:	00119193          	slli	gp,gp,0x1
   114fc:	0011e193          	ori	gp,gp,1
   11500:	00000073          	ecall
   11504:	800002b7          	lui	t0,0x80000
   11508:	085d8e63          	beq	s11,t0,115a4 <reset_vector+0x1558>
   1150c:	00003517          	auipc	a0,0x3
   11510:	75f50513          	addi	a0,a0,1887 # 14c6b <end_signature+0xbab>
   11514:	2ed010ef          	jal	ra,13000 <FN_WriteStr>
   11518:	00003517          	auipc	a0,0x3
   1151c:	76e50513          	addi	a0,a0,1902 # 14c86 <end_signature+0xbc6>
   11520:	2e1010ef          	jal	ra,13000 <FN_WriteStr>
   11524:	00003517          	auipc	a0,0x3
   11528:	77250513          	addi	a0,a0,1906 # 14c96 <end_signature+0xbd6>
   1152c:	2d5010ef          	jal	ra,13000 <FN_WriteStr>
   11530:	00003517          	auipc	a0,0x3
   11534:	76e50513          	addi	a0,a0,1902 # 14c9e <end_signature+0xbde>
   11538:	2c9010ef          	jal	ra,13000 <FN_WriteStr>
   1153c:	00003517          	auipc	a0,0x3
   11540:	76650513          	addi	a0,a0,1894 # 14ca2 <end_signature+0xbe2>
   11544:	2bd010ef          	jal	ra,13000 <FN_WriteStr>
   11548:	00003517          	auipc	a0,0x3
   1154c:	75d50513          	addi	a0,a0,1885 # 14ca5 <end_signature+0xbe5>
   11550:	2b1010ef          	jal	ra,13000 <FN_WriteStr>
   11554:	00003517          	auipc	a0,0x3
   11558:	75550513          	addi	a0,a0,1877 # 14ca9 <end_signature+0xbe9>
   1155c:	2a5010ef          	jal	ra,13000 <FN_WriteStr>
   11560:	000d8513          	mv	a0,s11
   11564:	2b9010ef          	jal	ra,1301c <FN_WriteA0>
   11568:	00003517          	auipc	a0,0x3
   1156c:	74350513          	addi	a0,a0,1859 # 14cab <end_signature+0xbeb>
   11570:	291010ef          	jal	ra,13000 <FN_WriteStr>
   11574:	00003517          	auipc	a0,0x3
   11578:	73d50513          	addi	a0,a0,1853 # 14cb1 <end_signature+0xbf1>
   1157c:	285010ef          	jal	ra,13000 <FN_WriteStr>
   11580:	00003517          	auipc	a0,0x3
   11584:	73c50513          	addi	a0,a0,1852 # 14cbc <end_signature+0xbfc>
   11588:	279010ef          	jal	ra,13000 <FN_WriteStr>
   1158c:	06400193          	li	gp,100
   11590:	0000100f          	fence.i
   11594:	00018063          	beqz	gp,11594 <reset_vector+0x1548>
   11598:	00119193          	slli	gp,gp,0x1
   1159c:	0011e193          	ori	gp,gp,1
   115a0:	00000073          	ecall
   115a4:	000082b7          	lui	t0,0x8
   115a8:	085e0e63          	beq	t3,t0,11644 <reset_vector+0x15f8>
   115ac:	00003517          	auipc	a0,0x3
   115b0:	71250513          	addi	a0,a0,1810 # 14cbe <end_signature+0xbfe>
   115b4:	24d010ef          	jal	ra,13000 <FN_WriteStr>
   115b8:	00003517          	auipc	a0,0x3
   115bc:	72150513          	addi	a0,a0,1825 # 14cd9 <end_signature+0xc19>
   115c0:	241010ef          	jal	ra,13000 <FN_WriteStr>
   115c4:	00003517          	auipc	a0,0x3
   115c8:	72550513          	addi	a0,a0,1829 # 14ce9 <end_signature+0xc29>
   115cc:	235010ef          	jal	ra,13000 <FN_WriteStr>
   115d0:	00003517          	auipc	a0,0x3
   115d4:	72150513          	addi	a0,a0,1825 # 14cf1 <end_signature+0xc31>
   115d8:	229010ef          	jal	ra,13000 <FN_WriteStr>
   115dc:	00003517          	auipc	a0,0x3
   115e0:	71950513          	addi	a0,a0,1817 # 14cf5 <end_signature+0xc35>
   115e4:	21d010ef          	jal	ra,13000 <FN_WriteStr>
   115e8:	00003517          	auipc	a0,0x3
   115ec:	71050513          	addi	a0,a0,1808 # 14cf8 <end_signature+0xc38>
   115f0:	211010ef          	jal	ra,13000 <FN_WriteStr>
   115f4:	00003517          	auipc	a0,0x3
   115f8:	70850513          	addi	a0,a0,1800 # 14cfc <end_signature+0xc3c>
   115fc:	205010ef          	jal	ra,13000 <FN_WriteStr>
   11600:	000e0513          	mv	a0,t3
   11604:	219010ef          	jal	ra,1301c <FN_WriteA0>
   11608:	00003517          	auipc	a0,0x3
   1160c:	6f650513          	addi	a0,a0,1782 # 14cfe <end_signature+0xc3e>
   11610:	1f1010ef          	jal	ra,13000 <FN_WriteStr>
   11614:	00003517          	auipc	a0,0x3
   11618:	6f050513          	addi	a0,a0,1776 # 14d04 <end_signature+0xc44>
   1161c:	1e5010ef          	jal	ra,13000 <FN_WriteStr>
   11620:	00003517          	auipc	a0,0x3
   11624:	6ef50513          	addi	a0,a0,1775 # 14d0f <end_signature+0xc4f>
   11628:	1d9010ef          	jal	ra,13000 <FN_WriteStr>
   1162c:	06400193          	li	gp,100
   11630:	0000100f          	fence.i
   11634:	00018063          	beqz	gp,11634 <reset_vector+0x15e8>
   11638:	00119193          	slli	gp,gp,0x1
   1163c:	0011e193          	ori	gp,gp,1
   11640:	00000073          	ecall
   11644:	00003517          	auipc	a0,0x3
   11648:	6cd50513          	addi	a0,a0,1741 # 14d11 <end_signature+0xc51>
   1164c:	1b5010ef          	jal	ra,13000 <FN_WriteStr>
   11650:	00003517          	auipc	a0,0x3
   11654:	6dd50513          	addi	a0,a0,1757 # 14d2d <end_signature+0xc6d>
   11658:	1a9010ef          	jal	ra,13000 <FN_WriteStr>
   1165c:	00003d17          	auipc	s10,0x3
   11660:	9b8d0d13          	addi	s10,s10,-1608 # 14014 <test_B_data>
   11664:	00003d97          	auipc	s11,0x3
   11668:	a34d8d93          	addi	s11,s11,-1484 # 14098 <test_B_res>
   1166c:	000d2e03          	lw	t3,0(s10)
   11670:	001e5e93          	srli	t4,t3,0x1
   11674:	001edf13          	srli	t5,t4,0x1
   11678:	001f5f93          	srli	t6,t5,0x1
   1167c:	001fd093          	srli	ra,t6,0x1
   11680:	0010d113          	srli	sp,ra,0x1
   11684:	00115193          	srli	gp,sp,0x1
   11688:	01cda023          	sw	t3,0(s11)
   1168c:	01dda223          	sw	t4,4(s11)
   11690:	01eda423          	sw	t5,8(s11)
   11694:	01fda623          	sw	t6,12(s11)
   11698:	001da823          	sw	ra,16(s11)
   1169c:	002daa23          	sw	sp,20(s11)
   116a0:	003dac23          	sw	gp,24(s11)
   116a4:	abcdf2b7          	lui	t0,0xabcdf
   116a8:	f1028293          	addi	t0,t0,-240 # abcdef10 <_end+0xabcc9e10>
   116ac:	085e0e63          	beq	t3,t0,11748 <reset_vector+0x16fc>
   116b0:	00003517          	auipc	a0,0x3
   116b4:	6b650513          	addi	a0,a0,1718 # 14d66 <end_signature+0xca6>
   116b8:	149010ef          	jal	ra,13000 <FN_WriteStr>
   116bc:	00003517          	auipc	a0,0x3
   116c0:	6c550513          	addi	a0,a0,1733 # 14d81 <end_signature+0xcc1>
   116c4:	13d010ef          	jal	ra,13000 <FN_WriteStr>
   116c8:	00003517          	auipc	a0,0x3
   116cc:	6c950513          	addi	a0,a0,1737 # 14d91 <end_signature+0xcd1>
   116d0:	131010ef          	jal	ra,13000 <FN_WriteStr>
   116d4:	00003517          	auipc	a0,0x3
   116d8:	6c550513          	addi	a0,a0,1733 # 14d99 <end_signature+0xcd9>
   116dc:	125010ef          	jal	ra,13000 <FN_WriteStr>
   116e0:	00003517          	auipc	a0,0x3
   116e4:	6bd50513          	addi	a0,a0,1725 # 14d9d <end_signature+0xcdd>
   116e8:	119010ef          	jal	ra,13000 <FN_WriteStr>
   116ec:	00003517          	auipc	a0,0x3
   116f0:	6b450513          	addi	a0,a0,1716 # 14da0 <end_signature+0xce0>
   116f4:	10d010ef          	jal	ra,13000 <FN_WriteStr>
   116f8:	00003517          	auipc	a0,0x3
   116fc:	6ac50513          	addi	a0,a0,1708 # 14da4 <end_signature+0xce4>
   11700:	101010ef          	jal	ra,13000 <FN_WriteStr>
   11704:	000e0513          	mv	a0,t3
   11708:	115010ef          	jal	ra,1301c <FN_WriteA0>
   1170c:	00003517          	auipc	a0,0x3
   11710:	69a50513          	addi	a0,a0,1690 # 14da6 <end_signature+0xce6>
   11714:	0ed010ef          	jal	ra,13000 <FN_WriteStr>
   11718:	00003517          	auipc	a0,0x3
   1171c:	69450513          	addi	a0,a0,1684 # 14dac <end_signature+0xcec>
   11720:	0e1010ef          	jal	ra,13000 <FN_WriteStr>
   11724:	00003517          	auipc	a0,0x3
   11728:	69350513          	addi	a0,a0,1683 # 14db7 <end_signature+0xcf7>
   1172c:	0d5010ef          	jal	ra,13000 <FN_WriteStr>
   11730:	06400193          	li	gp,100
   11734:	0000100f          	fence.i
   11738:	00018063          	beqz	gp,11738 <reset_vector+0x16ec>
   1173c:	00119193          	slli	gp,gp,0x1
   11740:	0011e193          	ori	gp,gp,1
   11744:	00000073          	ecall
   11748:	55e6f2b7          	lui	t0,0x55e6f
   1174c:	78828293          	addi	t0,t0,1928 # 55e6f788 <_end+0x55e5a688>
   11750:	085e8e63          	beq	t4,t0,117ec <reset_vector+0x17a0>
   11754:	00003517          	auipc	a0,0x3
   11758:	66550513          	addi	a0,a0,1637 # 14db9 <end_signature+0xcf9>
   1175c:	0a5010ef          	jal	ra,13000 <FN_WriteStr>
   11760:	00003517          	auipc	a0,0x3
   11764:	67450513          	addi	a0,a0,1652 # 14dd4 <end_signature+0xd14>
   11768:	099010ef          	jal	ra,13000 <FN_WriteStr>
   1176c:	00003517          	auipc	a0,0x3
   11770:	67850513          	addi	a0,a0,1656 # 14de4 <end_signature+0xd24>
   11774:	08d010ef          	jal	ra,13000 <FN_WriteStr>
   11778:	00003517          	auipc	a0,0x3
   1177c:	67450513          	addi	a0,a0,1652 # 14dec <end_signature+0xd2c>
   11780:	081010ef          	jal	ra,13000 <FN_WriteStr>
   11784:	00003517          	auipc	a0,0x3
   11788:	66c50513          	addi	a0,a0,1644 # 14df0 <end_signature+0xd30>
   1178c:	075010ef          	jal	ra,13000 <FN_WriteStr>
   11790:	00003517          	auipc	a0,0x3
   11794:	66350513          	addi	a0,a0,1635 # 14df3 <end_signature+0xd33>
   11798:	069010ef          	jal	ra,13000 <FN_WriteStr>
   1179c:	00003517          	auipc	a0,0x3
   117a0:	65b50513          	addi	a0,a0,1627 # 14df7 <end_signature+0xd37>
   117a4:	05d010ef          	jal	ra,13000 <FN_WriteStr>
   117a8:	000e8513          	mv	a0,t4
   117ac:	071010ef          	jal	ra,1301c <FN_WriteA0>
   117b0:	00003517          	auipc	a0,0x3
   117b4:	64950513          	addi	a0,a0,1609 # 14df9 <end_signature+0xd39>
   117b8:	049010ef          	jal	ra,13000 <FN_WriteStr>
   117bc:	00003517          	auipc	a0,0x3
   117c0:	64350513          	addi	a0,a0,1603 # 14dff <end_signature+0xd3f>
   117c4:	03d010ef          	jal	ra,13000 <FN_WriteStr>
   117c8:	00003517          	auipc	a0,0x3
   117cc:	64250513          	addi	a0,a0,1602 # 14e0a <end_signature+0xd4a>
   117d0:	031010ef          	jal	ra,13000 <FN_WriteStr>
   117d4:	06400193          	li	gp,100
   117d8:	0000100f          	fence.i
   117dc:	00018063          	beqz	gp,117dc <reset_vector+0x1790>
   117e0:	00119193          	slli	gp,gp,0x1
   117e4:	0011e193          	ori	gp,gp,1
   117e8:	00000073          	ecall
   117ec:	2af382b7          	lui	t0,0x2af38
   117f0:	bc428293          	addi	t0,t0,-1084 # 2af37bc4 <_end+0x2af22ac4>
   117f4:	085f0e63          	beq	t5,t0,11890 <reset_vector+0x1844>
   117f8:	00003517          	auipc	a0,0x3
   117fc:	61450513          	addi	a0,a0,1556 # 14e0c <end_signature+0xd4c>
   11800:	001010ef          	jal	ra,13000 <FN_WriteStr>
   11804:	00003517          	auipc	a0,0x3
   11808:	62350513          	addi	a0,a0,1571 # 14e27 <end_signature+0xd67>
   1180c:	7f4010ef          	jal	ra,13000 <FN_WriteStr>
   11810:	00003517          	auipc	a0,0x3
   11814:	62750513          	addi	a0,a0,1575 # 14e37 <end_signature+0xd77>
   11818:	7e8010ef          	jal	ra,13000 <FN_WriteStr>
   1181c:	00003517          	auipc	a0,0x3
   11820:	62350513          	addi	a0,a0,1571 # 14e3f <end_signature+0xd7f>
   11824:	7dc010ef          	jal	ra,13000 <FN_WriteStr>
   11828:	00003517          	auipc	a0,0x3
   1182c:	61b50513          	addi	a0,a0,1563 # 14e43 <end_signature+0xd83>
   11830:	7d0010ef          	jal	ra,13000 <FN_WriteStr>
   11834:	00003517          	auipc	a0,0x3
   11838:	61250513          	addi	a0,a0,1554 # 14e46 <end_signature+0xd86>
   1183c:	7c4010ef          	jal	ra,13000 <FN_WriteStr>
   11840:	00003517          	auipc	a0,0x3
   11844:	60a50513          	addi	a0,a0,1546 # 14e4a <end_signature+0xd8a>
   11848:	7b8010ef          	jal	ra,13000 <FN_WriteStr>
   1184c:	000f0513          	mv	a0,t5
   11850:	7cc010ef          	jal	ra,1301c <FN_WriteA0>
   11854:	00003517          	auipc	a0,0x3
   11858:	5f850513          	addi	a0,a0,1528 # 14e4c <end_signature+0xd8c>
   1185c:	7a4010ef          	jal	ra,13000 <FN_WriteStr>
   11860:	00003517          	auipc	a0,0x3
   11864:	5f250513          	addi	a0,a0,1522 # 14e52 <end_signature+0xd92>
   11868:	798010ef          	jal	ra,13000 <FN_WriteStr>
   1186c:	00003517          	auipc	a0,0x3
   11870:	5f150513          	addi	a0,a0,1521 # 14e5d <end_signature+0xd9d>
   11874:	78c010ef          	jal	ra,13000 <FN_WriteStr>
   11878:	06400193          	li	gp,100
   1187c:	0000100f          	fence.i
   11880:	00018063          	beqz	gp,11880 <reset_vector+0x1834>
   11884:	00119193          	slli	gp,gp,0x1
   11888:	0011e193          	ori	gp,gp,1
   1188c:	00000073          	ecall
   11890:	1579c2b7          	lui	t0,0x1579c
   11894:	de228293          	addi	t0,t0,-542 # 1579bde2 <_end+0x15786ce2>
   11898:	085f8e63          	beq	t6,t0,11934 <reset_vector+0x18e8>
   1189c:	00003517          	auipc	a0,0x3
   118a0:	5c350513          	addi	a0,a0,1475 # 14e5f <end_signature+0xd9f>
   118a4:	75c010ef          	jal	ra,13000 <FN_WriteStr>
   118a8:	00003517          	auipc	a0,0x3
   118ac:	5d250513          	addi	a0,a0,1490 # 14e7a <end_signature+0xdba>
   118b0:	750010ef          	jal	ra,13000 <FN_WriteStr>
   118b4:	00003517          	auipc	a0,0x3
   118b8:	5d650513          	addi	a0,a0,1494 # 14e8a <end_signature+0xdca>
   118bc:	744010ef          	jal	ra,13000 <FN_WriteStr>
   118c0:	00003517          	auipc	a0,0x3
   118c4:	5d250513          	addi	a0,a0,1490 # 14e92 <end_signature+0xdd2>
   118c8:	738010ef          	jal	ra,13000 <FN_WriteStr>
   118cc:	00003517          	auipc	a0,0x3
   118d0:	5ca50513          	addi	a0,a0,1482 # 14e96 <end_signature+0xdd6>
   118d4:	72c010ef          	jal	ra,13000 <FN_WriteStr>
   118d8:	00003517          	auipc	a0,0x3
   118dc:	5c150513          	addi	a0,a0,1473 # 14e99 <end_signature+0xdd9>
   118e0:	720010ef          	jal	ra,13000 <FN_WriteStr>
   118e4:	00003517          	auipc	a0,0x3
   118e8:	5b950513          	addi	a0,a0,1465 # 14e9d <end_signature+0xddd>
   118ec:	714010ef          	jal	ra,13000 <FN_WriteStr>
   118f0:	000f8513          	mv	a0,t6
   118f4:	728010ef          	jal	ra,1301c <FN_WriteA0>
   118f8:	00003517          	auipc	a0,0x3
   118fc:	5a750513          	addi	a0,a0,1447 # 14e9f <end_signature+0xddf>
   11900:	700010ef          	jal	ra,13000 <FN_WriteStr>
   11904:	00003517          	auipc	a0,0x3
   11908:	5a150513          	addi	a0,a0,1441 # 14ea5 <end_signature+0xde5>
   1190c:	6f4010ef          	jal	ra,13000 <FN_WriteStr>
   11910:	00003517          	auipc	a0,0x3
   11914:	5a050513          	addi	a0,a0,1440 # 14eb0 <end_signature+0xdf0>
   11918:	6e8010ef          	jal	ra,13000 <FN_WriteStr>
   1191c:	06400193          	li	gp,100
   11920:	0000100f          	fence.i
   11924:	00018063          	beqz	gp,11924 <reset_vector+0x18d8>
   11928:	00119193          	slli	gp,gp,0x1
   1192c:	0011e193          	ori	gp,gp,1
   11930:	00000073          	ecall
   11934:	055e72b7          	lui	t0,0x55e7
   11938:	f7828293          	addi	t0,t0,-136 # 55e6f78 <_end+0x55d1e78>
   1193c:	08510e63          	beq	sp,t0,119d8 <reset_vector+0x198c>
   11940:	00003517          	auipc	a0,0x3
   11944:	57250513          	addi	a0,a0,1394 # 14eb2 <end_signature+0xdf2>
   11948:	6b8010ef          	jal	ra,13000 <FN_WriteStr>
   1194c:	00003517          	auipc	a0,0x3
   11950:	58150513          	addi	a0,a0,1409 # 14ecd <end_signature+0xe0d>
   11954:	6ac010ef          	jal	ra,13000 <FN_WriteStr>
   11958:	00003517          	auipc	a0,0x3
   1195c:	58550513          	addi	a0,a0,1413 # 14edd <end_signature+0xe1d>
   11960:	6a0010ef          	jal	ra,13000 <FN_WriteStr>
   11964:	00003517          	auipc	a0,0x3
   11968:	58150513          	addi	a0,a0,1409 # 14ee5 <end_signature+0xe25>
   1196c:	694010ef          	jal	ra,13000 <FN_WriteStr>
   11970:	00003517          	auipc	a0,0x3
   11974:	57950513          	addi	a0,a0,1401 # 14ee9 <end_signature+0xe29>
   11978:	688010ef          	jal	ra,13000 <FN_WriteStr>
   1197c:	00003517          	auipc	a0,0x3
   11980:	57050513          	addi	a0,a0,1392 # 14eec <end_signature+0xe2c>
   11984:	67c010ef          	jal	ra,13000 <FN_WriteStr>
   11988:	00003517          	auipc	a0,0x3
   1198c:	56750513          	addi	a0,a0,1383 # 14eef <end_signature+0xe2f>
   11990:	670010ef          	jal	ra,13000 <FN_WriteStr>
   11994:	00010513          	mv	a0,sp
   11998:	684010ef          	jal	ra,1301c <FN_WriteA0>
   1199c:	00003517          	auipc	a0,0x3
   119a0:	55550513          	addi	a0,a0,1365 # 14ef1 <end_signature+0xe31>
   119a4:	65c010ef          	jal	ra,13000 <FN_WriteStr>
   119a8:	00003517          	auipc	a0,0x3
   119ac:	54f50513          	addi	a0,a0,1359 # 14ef7 <end_signature+0xe37>
   119b0:	650010ef          	jal	ra,13000 <FN_WriteStr>
   119b4:	00003517          	auipc	a0,0x3
   119b8:	54e50513          	addi	a0,a0,1358 # 14f02 <end_signature+0xe42>
   119bc:	644010ef          	jal	ra,13000 <FN_WriteStr>
   119c0:	06400193          	li	gp,100
   119c4:	0000100f          	fence.i
   119c8:	00018063          	beqz	gp,119c8 <reset_vector+0x197c>
   119cc:	00119193          	slli	gp,gp,0x1
   119d0:	0011e193          	ori	gp,gp,1
   119d4:	00000073          	ecall
   119d8:	02af32b7          	lui	t0,0x2af3
   119dc:	7bc28293          	addi	t0,t0,1980 # 2af37bc <_end+0x2ade6bc>
   119e0:	08518e63          	beq	gp,t0,11a7c <reset_vector+0x1a30>
   119e4:	00003517          	auipc	a0,0x3
   119e8:	52050513          	addi	a0,a0,1312 # 14f04 <end_signature+0xe44>
   119ec:	614010ef          	jal	ra,13000 <FN_WriteStr>
   119f0:	00003517          	auipc	a0,0x3
   119f4:	52f50513          	addi	a0,a0,1327 # 14f1f <end_signature+0xe5f>
   119f8:	608010ef          	jal	ra,13000 <FN_WriteStr>
   119fc:	00003517          	auipc	a0,0x3
   11a00:	53350513          	addi	a0,a0,1331 # 14f2f <end_signature+0xe6f>
   11a04:	5fc010ef          	jal	ra,13000 <FN_WriteStr>
   11a08:	00003517          	auipc	a0,0x3
   11a0c:	52f50513          	addi	a0,a0,1327 # 14f37 <end_signature+0xe77>
   11a10:	5f0010ef          	jal	ra,13000 <FN_WriteStr>
   11a14:	00003517          	auipc	a0,0x3
   11a18:	52750513          	addi	a0,a0,1319 # 14f3b <end_signature+0xe7b>
   11a1c:	5e4010ef          	jal	ra,13000 <FN_WriteStr>
   11a20:	00003517          	auipc	a0,0x3
   11a24:	51e50513          	addi	a0,a0,1310 # 14f3e <end_signature+0xe7e>
   11a28:	5d8010ef          	jal	ra,13000 <FN_WriteStr>
   11a2c:	00003517          	auipc	a0,0x3
   11a30:	51550513          	addi	a0,a0,1301 # 14f41 <end_signature+0xe81>
   11a34:	5cc010ef          	jal	ra,13000 <FN_WriteStr>
   11a38:	00018513          	mv	a0,gp
   11a3c:	5e0010ef          	jal	ra,1301c <FN_WriteA0>
   11a40:	00003517          	auipc	a0,0x3
   11a44:	50350513          	addi	a0,a0,1283 # 14f43 <end_signature+0xe83>
   11a48:	5b8010ef          	jal	ra,13000 <FN_WriteStr>
   11a4c:	00003517          	auipc	a0,0x3
   11a50:	4fd50513          	addi	a0,a0,1277 # 14f49 <end_signature+0xe89>
   11a54:	5ac010ef          	jal	ra,13000 <FN_WriteStr>
   11a58:	00003517          	auipc	a0,0x3
   11a5c:	4fc50513          	addi	a0,a0,1276 # 14f54 <end_signature+0xe94>
   11a60:	5a0010ef          	jal	ra,13000 <FN_WriteStr>
   11a64:	06400193          	li	gp,100
   11a68:	0000100f          	fence.i
   11a6c:	00018063          	beqz	gp,11a6c <reset_vector+0x1a20>
   11a70:	00119193          	slli	gp,gp,0x1
   11a74:	0011e193          	ori	gp,gp,1
   11a78:	00000073          	ecall
   11a7c:	00003517          	auipc	a0,0x3
   11a80:	4da50513          	addi	a0,a0,1242 # 14f56 <end_signature+0xe96>
   11a84:	57c010ef          	jal	ra,13000 <FN_WriteStr>
   11a88:	00003517          	auipc	a0,0x3
   11a8c:	4e950513          	addi	a0,a0,1257 # 14f71 <end_signature+0xeb1>
   11a90:	570010ef          	jal	ra,13000 <FN_WriteStr>
   11a94:	00002097          	auipc	ra,0x2
   11a98:	58408093          	addi	ra,ra,1412 # 14018 <test_C_data>
   11a9c:	00002117          	auipc	sp,0x2
   11aa0:	61810113          	addi	sp,sp,1560 # 140b4 <test_C_res>
   11aa4:	0000a283          	lw	t0,0(ra)
   11aa8:	0012d013          	srli	zero,t0,0x1
   11aac:	00012023          	sw	zero,0(sp)
   11ab0:	00000293          	li	t0,0
   11ab4:	08500e63          	beq	zero,t0,11b50 <reset_vector+0x1b04>
   11ab8:	00003517          	auipc	a0,0x3
   11abc:	4e050513          	addi	a0,a0,1248 # 14f98 <end_signature+0xed8>
   11ac0:	540010ef          	jal	ra,13000 <FN_WriteStr>
   11ac4:	00003517          	auipc	a0,0x3
   11ac8:	4ef50513          	addi	a0,a0,1263 # 14fb3 <end_signature+0xef3>
   11acc:	534010ef          	jal	ra,13000 <FN_WriteStr>
   11ad0:	00003517          	auipc	a0,0x3
   11ad4:	4f350513          	addi	a0,a0,1267 # 14fc3 <end_signature+0xf03>
   11ad8:	528010ef          	jal	ra,13000 <FN_WriteStr>
   11adc:	00003517          	auipc	a0,0x3
   11ae0:	4ef50513          	addi	a0,a0,1263 # 14fcb <end_signature+0xf0b>
   11ae4:	51c010ef          	jal	ra,13000 <FN_WriteStr>
   11ae8:	00003517          	auipc	a0,0x3
   11aec:	4e750513          	addi	a0,a0,1255 # 14fcf <end_signature+0xf0f>
   11af0:	510010ef          	jal	ra,13000 <FN_WriteStr>
   11af4:	00003517          	auipc	a0,0x3
   11af8:	4de50513          	addi	a0,a0,1246 # 14fd2 <end_signature+0xf12>
   11afc:	504010ef          	jal	ra,13000 <FN_WriteStr>
   11b00:	00003517          	auipc	a0,0x3
   11b04:	4d550513          	addi	a0,a0,1237 # 14fd5 <end_signature+0xf15>
   11b08:	4f8010ef          	jal	ra,13000 <FN_WriteStr>
   11b0c:	00000513          	li	a0,0
   11b10:	50c010ef          	jal	ra,1301c <FN_WriteA0>
   11b14:	00003517          	auipc	a0,0x3
   11b18:	4c350513          	addi	a0,a0,1219 # 14fd7 <end_signature+0xf17>
   11b1c:	4e4010ef          	jal	ra,13000 <FN_WriteStr>
   11b20:	00003517          	auipc	a0,0x3
   11b24:	4bd50513          	addi	a0,a0,1213 # 14fdd <end_signature+0xf1d>
   11b28:	4d8010ef          	jal	ra,13000 <FN_WriteStr>
   11b2c:	00003517          	auipc	a0,0x3
   11b30:	4bc50513          	addi	a0,a0,1212 # 14fe8 <end_signature+0xf28>
   11b34:	4cc010ef          	jal	ra,13000 <FN_WriteStr>
   11b38:	06400193          	li	gp,100
   11b3c:	0000100f          	fence.i
   11b40:	00018063          	beqz	gp,11b40 <reset_vector+0x1af4>
   11b44:	00119193          	slli	gp,gp,0x1
   11b48:	0011e193          	ori	gp,gp,1
   11b4c:	00000073          	ecall
   11b50:	00003517          	auipc	a0,0x3
   11b54:	49a50513          	addi	a0,a0,1178 # 14fea <end_signature+0xf2a>
   11b58:	4a8010ef          	jal	ra,13000 <FN_WriteStr>
   11b5c:	00003517          	auipc	a0,0x3
   11b60:	4a950513          	addi	a0,a0,1193 # 15005 <end_signature+0xf45>
   11b64:	49c010ef          	jal	ra,13000 <FN_WriteStr>
   11b68:	00002097          	auipc	ra,0x2
   11b6c:	4b408093          	addi	ra,ra,1204 # 1401c <test_D_data>
   11b70:	00002117          	auipc	sp,0x2
   11b74:	54810113          	addi	sp,sp,1352 # 140b8 <test_D_res>
   11b78:	0000a283          	lw	t0,0(ra)
   11b7c:	0012d013          	srli	zero,t0,0x1
   11b80:	00105293          	srli	t0,zero,0x1
   11b84:	00012023          	sw	zero,0(sp)
   11b88:	00512223          	sw	t0,4(sp)
   11b8c:	00000293          	li	t0,0
   11b90:	08500e63          	beq	zero,t0,11c2c <reset_vector+0x1be0>
   11b94:	00003517          	auipc	a0,0x3
   11b98:	4a150513          	addi	a0,a0,1185 # 15035 <end_signature+0xf75>
   11b9c:	464010ef          	jal	ra,13000 <FN_WriteStr>
   11ba0:	00003517          	auipc	a0,0x3
   11ba4:	4b050513          	addi	a0,a0,1200 # 15050 <end_signature+0xf90>
   11ba8:	458010ef          	jal	ra,13000 <FN_WriteStr>
   11bac:	00003517          	auipc	a0,0x3
   11bb0:	4b450513          	addi	a0,a0,1204 # 15060 <end_signature+0xfa0>
   11bb4:	44c010ef          	jal	ra,13000 <FN_WriteStr>
   11bb8:	00003517          	auipc	a0,0x3
   11bbc:	4b050513          	addi	a0,a0,1200 # 15068 <end_signature+0xfa8>
   11bc0:	440010ef          	jal	ra,13000 <FN_WriteStr>
   11bc4:	00003517          	auipc	a0,0x3
   11bc8:	4a850513          	addi	a0,a0,1192 # 1506c <end_signature+0xfac>
   11bcc:	434010ef          	jal	ra,13000 <FN_WriteStr>
   11bd0:	00003517          	auipc	a0,0x3
   11bd4:	49f50513          	addi	a0,a0,1183 # 1506f <end_signature+0xfaf>
   11bd8:	428010ef          	jal	ra,13000 <FN_WriteStr>
   11bdc:	00003517          	auipc	a0,0x3
   11be0:	49650513          	addi	a0,a0,1174 # 15072 <end_signature+0xfb2>
   11be4:	41c010ef          	jal	ra,13000 <FN_WriteStr>
   11be8:	00000513          	li	a0,0
   11bec:	430010ef          	jal	ra,1301c <FN_WriteA0>
   11bf0:	00003517          	auipc	a0,0x3
   11bf4:	48450513          	addi	a0,a0,1156 # 15074 <end_signature+0xfb4>
   11bf8:	408010ef          	jal	ra,13000 <FN_WriteStr>
   11bfc:	00003517          	auipc	a0,0x3
   11c00:	47e50513          	addi	a0,a0,1150 # 1507a <end_signature+0xfba>
   11c04:	3fc010ef          	jal	ra,13000 <FN_WriteStr>
   11c08:	00003517          	auipc	a0,0x3
   11c0c:	47d50513          	addi	a0,a0,1149 # 15085 <end_signature+0xfc5>
   11c10:	3f0010ef          	jal	ra,13000 <FN_WriteStr>
   11c14:	06400193          	li	gp,100
   11c18:	0000100f          	fence.i
   11c1c:	00018063          	beqz	gp,11c1c <reset_vector+0x1bd0>
   11c20:	00119193          	slli	gp,gp,0x1
   11c24:	0011e193          	ori	gp,gp,1
   11c28:	00000073          	ecall
   11c2c:	00000293          	li	t0,0
   11c30:	08528e63          	beq	t0,t0,11ccc <reset_vector+0x1c80>
   11c34:	00003517          	auipc	a0,0x3
   11c38:	45350513          	addi	a0,a0,1107 # 15087 <end_signature+0xfc7>
   11c3c:	3c4010ef          	jal	ra,13000 <FN_WriteStr>
   11c40:	00003517          	auipc	a0,0x3
   11c44:	46250513          	addi	a0,a0,1122 # 150a2 <end_signature+0xfe2>
   11c48:	3b8010ef          	jal	ra,13000 <FN_WriteStr>
   11c4c:	00003517          	auipc	a0,0x3
   11c50:	46650513          	addi	a0,a0,1126 # 150b2 <end_signature+0xff2>
   11c54:	3ac010ef          	jal	ra,13000 <FN_WriteStr>
   11c58:	00003517          	auipc	a0,0x3
   11c5c:	46250513          	addi	a0,a0,1122 # 150ba <end_signature+0xffa>
   11c60:	3a0010ef          	jal	ra,13000 <FN_WriteStr>
   11c64:	00003517          	auipc	a0,0x3
   11c68:	45a50513          	addi	a0,a0,1114 # 150be <end_signature+0xffe>
   11c6c:	394010ef          	jal	ra,13000 <FN_WriteStr>
   11c70:	00003517          	auipc	a0,0x3
   11c74:	45150513          	addi	a0,a0,1105 # 150c1 <end_signature+0x1001>
   11c78:	388010ef          	jal	ra,13000 <FN_WriteStr>
   11c7c:	00003517          	auipc	a0,0x3
   11c80:	44850513          	addi	a0,a0,1096 # 150c4 <end_signature+0x1004>
   11c84:	37c010ef          	jal	ra,13000 <FN_WriteStr>
   11c88:	00028513          	mv	a0,t0
   11c8c:	390010ef          	jal	ra,1301c <FN_WriteA0>
   11c90:	00003517          	auipc	a0,0x3
   11c94:	43650513          	addi	a0,a0,1078 # 150c6 <end_signature+0x1006>
   11c98:	368010ef          	jal	ra,13000 <FN_WriteStr>
   11c9c:	00003517          	auipc	a0,0x3
   11ca0:	43050513          	addi	a0,a0,1072 # 150cc <end_signature+0x100c>
   11ca4:	35c010ef          	jal	ra,13000 <FN_WriteStr>
   11ca8:	00003517          	auipc	a0,0x3
   11cac:	42f50513          	addi	a0,a0,1071 # 150d7 <end_signature+0x1017>
   11cb0:	350010ef          	jal	ra,13000 <FN_WriteStr>
   11cb4:	06400193          	li	gp,100
   11cb8:	0000100f          	fence.i
   11cbc:	00018063          	beqz	gp,11cbc <reset_vector+0x1c70>
   11cc0:	00119193          	slli	gp,gp,0x1
   11cc4:	0011e193          	ori	gp,gp,1
   11cc8:	00000073          	ecall
   11ccc:	00003517          	auipc	a0,0x3
   11cd0:	40d50513          	addi	a0,a0,1037 # 150d9 <end_signature+0x1019>
   11cd4:	32c010ef          	jal	ra,13000 <FN_WriteStr>
   11cd8:	00003517          	auipc	a0,0x3
   11cdc:	41c50513          	addi	a0,a0,1052 # 150f4 <end_signature+0x1034>
   11ce0:	320010ef          	jal	ra,13000 <FN_WriteStr>
   11ce4:	0000100f          	fence.i
   11ce8:	00100193          	li	gp,1
   11cec:	00000073          	ecall
   11cf0:	c0001073          	unimp
	...

Disassembly of section .tohost:

00012000 <tohost>:
	...

00012100 <fromhost>:
	...

Disassembly of section .text:

00013000 <FN_WriteStr>:
   13000:	00050293          	mv	t0,a0
   13004:	0002c503          	lbu	a0,0(t0)
   13008:	00128293          	addi	t0,t0,1
   1300c:	00050663          	beqz	a0,13018 <FN_WriteStr+0x18>
   13010:	0005200b          	0x5200b
   13014:	ff1ff06f          	j	13004 <FN_WriteStr+0x4>
   13018:	00008067          	ret

0001301c <FN_WriteA0>:
   1301c:	00050293          	mv	t0,a0
   13020:	fff00513          	li	a0,-1
   13024:	01f55513          	srli	a0,a0,0x1f
   13028:	00155513          	srli	a0,a0,0x1
   1302c:	02051463          	bnez	a0,13054 <FN_WriteA0_64>

00013030 <FN_WriteA0_32>:
   13030:	00800313          	li	t1,8
   13034:	00439393          	slli	t2,t2,0x4
   13038:	00f2f513          	andi	a0,t0,15
   1303c:	0042d293          	srli	t0,t0,0x4
   13040:	00a3e3b3          	or	t2,t2,a0
   13044:	fff30313          	addi	t1,t1,-1
   13048:	fe0316e3          	bnez	t1,13034 <FN_WriteA0_32+0x4>
   1304c:	00800313          	li	t1,8
   13050:	0240006f          	j	13074 <FN_WriteA0_common>

00013054 <FN_WriteA0_64>:
   13054:	01000313          	li	t1,16
   13058:	00439393          	slli	t2,t2,0x4
   1305c:	00f2f513          	andi	a0,t0,15
   13060:	0042d293          	srli	t0,t0,0x4
   13064:	00a3e3b3          	or	t2,t2,a0
   13068:	fff30313          	addi	t1,t1,-1
   1306c:	fe0316e3          	bnez	t1,13058 <FN_WriteA0_64+0x4>
   13070:	01000313          	li	t1,16

00013074 <FN_WriteA0_common>:
   13074:	00a00293          	li	t0,10
   13078:	00f3f513          	andi	a0,t2,15
   1307c:	00554663          	blt	a0,t0,13088 <FN_WriteA0_common+0x14>
   13080:	05750513          	addi	a0,a0,87
   13084:	0080006f          	j	1308c <FN_WriteA0_common+0x18>
   13088:	03050513          	addi	a0,a0,48
   1308c:	0005200b          	0x5200b
   13090:	0043d393          	srli	t2,t2,0x4
   13094:	fff30313          	addi	t1,t1,-1
   13098:	fe0310e3          	bnez	t1,13078 <FN_WriteA0_common+0x4>
   1309c:	00008067          	ret
