
/Users/benselfridge/RISCV/riscv-compliance/work//I-SRLI-01.elf:     file format elf32-littleriscv


Disassembly of section .text.init:

00010000 <_start>:
   10000:	04c0006f          	j	1004c <reset_vector>

00010004 <trap_vector>:
   10004:	34202f73          	csrr	t5,mcause
   10008:	00800f93          	li	t6,8
   1000c:	03ff0a63          	beq	t5,t6,10040 <write_tohost>
   10010:	00900f93          	li	t6,9
   10014:	03ff0663          	beq	t5,t6,10040 <write_tohost>
   10018:	00b00f93          	li	t6,11
   1001c:	03ff0263          	beq	t5,t6,10040 <write_tohost>
   10020:	ffff0f17          	auipc	t5,0xffff0
   10024:	fe0f0f13          	addi	t5,t5,-32 # 0 <_start-0x10000>
   10028:	000f0463          	beqz	t5,10030 <trap_vector+0x2c>
   1002c:	000f0067          	jr	t5
   10030:	34202f73          	csrr	t5,mcause
   10034:	000f5463          	bgez	t5,1003c <handle_exception>
   10038:	0040006f          	j	1003c <handle_exception>

0001003c <handle_exception>:
   1003c:	5391e193          	ori	gp,gp,1337

00010040 <write_tohost>:
   10040:	00001f17          	auipc	t5,0x1
   10044:	fc3f2023          	sw	gp,-64(t5) # 11000 <tohost>
   10048:	ff9ff06f          	j	10040 <write_tohost>

0001004c <reset_vector>:
   1004c:	f1402573          	csrr	a0,mhartid
   10050:	00051063          	bnez	a0,10050 <reset_vector+0x4>
   10054:	00000297          	auipc	t0,0x0
   10058:	01028293          	addi	t0,t0,16 # 10064 <reset_vector+0x18>
   1005c:	30529073          	csrw	mtvec,t0
   10060:	18005073          	csrwi	satp,0
   10064:	00000297          	auipc	t0,0x0
   10068:	01c28293          	addi	t0,t0,28 # 10080 <reset_vector+0x34>
   1006c:	30529073          	csrw	mtvec,t0
   10070:	fff00293          	li	t0,-1
   10074:	3b029073          	csrw	pmpaddr0,t0
   10078:	01f00293          	li	t0,31
   1007c:	3a029073          	csrw	pmpcfg0,t0
   10080:	00000297          	auipc	t0,0x0
   10084:	01828293          	addi	t0,t0,24 # 10098 <reset_vector+0x4c>
   10088:	30529073          	csrw	mtvec,t0
   1008c:	30205073          	csrwi	medeleg,0
   10090:	30305073          	csrwi	mideleg,0
   10094:	30405073          	csrwi	mie,0
   10098:	00000193          	li	gp,0
   1009c:	00000297          	auipc	t0,0x0
   100a0:	f6828293          	addi	t0,t0,-152 # 10004 <trap_vector>
   100a4:	30529073          	csrw	mtvec,t0
   100a8:	00100513          	li	a0,1
   100ac:	01f51513          	slli	a0,a0,0x1f
   100b0:	00054863          	bltz	a0,100c0 <reset_vector+0x74>
   100b4:	00000013          	nop
   100b8:	00100193          	li	gp,1
   100bc:	00000073          	ecall
   100c0:	ffff0297          	auipc	t0,0xffff0
   100c4:	f4028293          	addi	t0,t0,-192 # 0 <_start-0x10000>
   100c8:	00028e63          	beqz	t0,100e4 <reset_vector+0x98>
   100cc:	10529073          	csrw	stvec,t0
   100d0:	0000b2b7          	lui	t0,0xb
   100d4:	10928293          	addi	t0,t0,265 # b109 <_start-0x4ef7>
   100d8:	30229073          	csrw	medeleg,t0
   100dc:	30202373          	csrr	t1,medeleg
   100e0:	f4629ee3          	bne	t0,t1,1003c <handle_exception>
   100e4:	30005073          	csrwi	mstatus,0
   100e8:	00002537          	lui	a0,0x2
   100ec:	80050513          	addi	a0,a0,-2048 # 1800 <_start-0xe800>
   100f0:	30052073          	csrs	mstatus,a0
   100f4:	00000297          	auipc	t0,0x0
   100f8:	01428293          	addi	t0,t0,20 # 10108 <reset_vector+0xbc>
   100fc:	34129073          	csrw	mepc,t0
   10100:	f1402573          	csrr	a0,mhartid
   10104:	30200073          	mret
   10108:	00002097          	auipc	ra,0x2
   1010c:	ef808093          	addi	ra,ra,-264 # 12000 <test_A1_data>
   10110:	00002117          	auipc	sp,0x2
   10114:	f1010113          	addi	sp,sp,-240 # 12020 <begin_signature>
   10118:	0000a183          	lw	gp,0(ra)
   1011c:	0011d213          	srli	tp,gp,0x1
   10120:	00f1d293          	srli	t0,gp,0xf
   10124:	01f1d313          	srli	t1,gp,0x1f
   10128:	0001d393          	srli	t2,gp,0x0
   1012c:	0101d413          	srli	s0,gp,0x10
   10130:	00312023          	sw	gp,0(sp)
   10134:	00412223          	sw	tp,4(sp)
   10138:	00512423          	sw	t0,8(sp)
   1013c:	00612623          	sw	t1,12(sp)
   10140:	00712823          	sw	t2,16(sp)
   10144:	00812a23          	sw	s0,20(sp)
   10148:	00002097          	auipc	ra,0x2
   1014c:	ebc08093          	addi	ra,ra,-324 # 12004 <test_A2_data>
   10150:	00002117          	auipc	sp,0x2
   10154:	ee810113          	addi	sp,sp,-280 # 12038 <test_A2_res>
   10158:	0000a403          	lw	s0,0(ra)
   1015c:	00145493          	srli	s1,s0,0x1
   10160:	00f45513          	srli	a0,s0,0xf
   10164:	01f45593          	srli	a1,s0,0x1f
   10168:	00045613          	srli	a2,s0,0x0
   1016c:	01045693          	srli	a3,s0,0x10
   10170:	00812023          	sw	s0,0(sp)
   10174:	00912223          	sw	s1,4(sp)
   10178:	00a12423          	sw	a0,8(sp)
   1017c:	00b12623          	sw	a1,12(sp)
   10180:	00c12823          	sw	a2,16(sp)
   10184:	00d12a23          	sw	a3,20(sp)
   10188:	00002097          	auipc	ra,0x2
   1018c:	e8008093          	addi	ra,ra,-384 # 12008 <test_A3_data>
   10190:	00002117          	auipc	sp,0x2
   10194:	ec010113          	addi	sp,sp,-320 # 12050 <test_A3_res>
   10198:	0000a683          	lw	a3,0(ra)
   1019c:	0016d713          	srli	a4,a3,0x1
   101a0:	00f6d793          	srli	a5,a3,0xf
   101a4:	01f6d813          	srli	a6,a3,0x1f
   101a8:	0006d893          	srli	a7,a3,0x0
   101ac:	0106d913          	srli	s2,a3,0x10
   101b0:	00d12023          	sw	a3,0(sp)
   101b4:	00e12223          	sw	a4,4(sp)
   101b8:	00f12423          	sw	a5,8(sp)
   101bc:	01012623          	sw	a6,12(sp)
   101c0:	01112823          	sw	a7,16(sp)
   101c4:	01212a23          	sw	s2,20(sp)
   101c8:	00002617          	auipc	a2,0x2
   101cc:	e4460613          	addi	a2,a2,-444 # 1200c <test_A4_data>
   101d0:	00002697          	auipc	a3,0x2
   101d4:	e9868693          	addi	a3,a3,-360 # 12068 <test_A4_res>
   101d8:	00062903          	lw	s2,0(a2)
   101dc:	00195993          	srli	s3,s2,0x1
   101e0:	00f95a13          	srli	s4,s2,0xf
   101e4:	01f95a93          	srli	s5,s2,0x1f
   101e8:	00095b13          	srli	s6,s2,0x0
   101ec:	01095b93          	srli	s7,s2,0x10
   101f0:	0126a023          	sw	s2,0(a3)
   101f4:	0136a223          	sw	s3,4(a3)
   101f8:	0146a423          	sw	s4,8(a3)
   101fc:	0156a623          	sw	s5,12(a3)
   10200:	0166a823          	sw	s6,16(a3)
   10204:	0176aa23          	sw	s7,20(a3)
   10208:	00002617          	auipc	a2,0x2
   1020c:	e0860613          	addi	a2,a2,-504 # 12010 <test_A5_data>
   10210:	00002697          	auipc	a3,0x2
   10214:	e7068693          	addi	a3,a3,-400 # 12080 <test_A5_res>
   10218:	00062b83          	lw	s7,0(a2)
   1021c:	001bdc13          	srli	s8,s7,0x1
   10220:	00fbdc93          	srli	s9,s7,0xf
   10224:	01fbdd13          	srli	s10,s7,0x1f
   10228:	000bdd93          	srli	s11,s7,0x0
   1022c:	010bde13          	srli	t3,s7,0x10
   10230:	0176a023          	sw	s7,0(a3)
   10234:	0186a223          	sw	s8,4(a3)
   10238:	0196a423          	sw	s9,8(a3)
   1023c:	01a6a623          	sw	s10,12(a3)
   10240:	01b6a823          	sw	s11,16(a3)
   10244:	01c6aa23          	sw	t3,20(a3)
   10248:	00002d17          	auipc	s10,0x2
   1024c:	dccd0d13          	addi	s10,s10,-564 # 12014 <test_B_data>
   10250:	00002d97          	auipc	s11,0x2
   10254:	e48d8d93          	addi	s11,s11,-440 # 12098 <test_B_res>
   10258:	000d2e03          	lw	t3,0(s10)
   1025c:	001e5e93          	srli	t4,t3,0x1
   10260:	001edf13          	srli	t5,t4,0x1
   10264:	001f5f93          	srli	t6,t5,0x1
   10268:	001fd093          	srli	ra,t6,0x1
   1026c:	0010d113          	srli	sp,ra,0x1
   10270:	00115193          	srli	gp,sp,0x1
   10274:	01cda023          	sw	t3,0(s11)
   10278:	01dda223          	sw	t4,4(s11)
   1027c:	01eda423          	sw	t5,8(s11)
   10280:	01fda623          	sw	t6,12(s11)
   10284:	001da823          	sw	ra,16(s11)
   10288:	002daa23          	sw	sp,20(s11)
   1028c:	003dac23          	sw	gp,24(s11)
   10290:	00002097          	auipc	ra,0x2
   10294:	d8808093          	addi	ra,ra,-632 # 12018 <test_C_data>
   10298:	00002117          	auipc	sp,0x2
   1029c:	e1c10113          	addi	sp,sp,-484 # 120b4 <test_C_res>
   102a0:	0000a283          	lw	t0,0(ra)
   102a4:	0012d013          	srli	zero,t0,0x1
   102a8:	00012023          	sw	zero,0(sp)
   102ac:	00002097          	auipc	ra,0x2
   102b0:	d7008093          	addi	ra,ra,-656 # 1201c <test_D_data>
   102b4:	00002117          	auipc	sp,0x2
   102b8:	e0410113          	addi	sp,sp,-508 # 120b8 <test_D_res>
   102bc:	0000a283          	lw	t0,0(ra)
   102c0:	0012d013          	srli	zero,t0,0x1
   102c4:	00105293          	srli	t0,zero,0x1
   102c8:	00012023          	sw	zero,0(sp)
   102cc:	00512223          	sw	t0,4(sp)
   102d0:	00000013          	nop
   102d4:	00100193          	li	gp,1
   102d8:	00000073          	ecall
   102dc:	c0001073          	unimp
	...

Disassembly of section .tohost:

00011000 <tohost>:
	...

00011100 <fromhost>:
	...

Disassembly of section .data:

00012000 <test_A1_data>:
   12000:	0000                	unimp
	...

00012004 <test_A2_data>:
   12004:	0001                	nop
	...

00012008 <test_A3_data>:
   12008:	ffff                	0xffff
   1200a:	ffff                	0xffff

0001200c <test_A4_data>:
   1200c:	ffff                	0xffff
   1200e:	7fff                	0x7fff

00012010 <test_A5_data>:
   12010:	0000                	unimp
   12012:	8000                	0x8000

00012014 <test_B_data>:
   12014:	ef10                	fsw	fa2,24(a4)
   12016:	abcd                	j	12608 <_end+0x548>

00012018 <test_C_data>:
   12018:	5678                	lw	a4,108(a2)
   1201a:	1234                	addi	a3,sp,296

0001201c <test_D_data>:
   1201c:	ba98                	fsd	fa4,48(a3)
   1201e:	fedc                	fsw	fa5,60(a3)

00012020 <begin_signature>:
   12020:	ffff                	0xffff
   12022:	ffff                	0xffff
   12024:	ffff                	0xffff
   12026:	ffff                	0xffff
   12028:	ffff                	0xffff
   1202a:	ffff                	0xffff
   1202c:	ffff                	0xffff
   1202e:	ffff                	0xffff
   12030:	ffff                	0xffff
   12032:	ffff                	0xffff
   12034:	ffff                	0xffff
   12036:	ffff                	0xffff

00012038 <test_A2_res>:
   12038:	ffff                	0xffff
   1203a:	ffff                	0xffff
   1203c:	ffff                	0xffff
   1203e:	ffff                	0xffff
   12040:	ffff                	0xffff
   12042:	ffff                	0xffff
   12044:	ffff                	0xffff
   12046:	ffff                	0xffff
   12048:	ffff                	0xffff
   1204a:	ffff                	0xffff
   1204c:	ffff                	0xffff
   1204e:	ffff                	0xffff

00012050 <test_A3_res>:
   12050:	ffff                	0xffff
   12052:	ffff                	0xffff
   12054:	ffff                	0xffff
   12056:	ffff                	0xffff
   12058:	ffff                	0xffff
   1205a:	ffff                	0xffff
   1205c:	ffff                	0xffff
   1205e:	ffff                	0xffff
   12060:	ffff                	0xffff
   12062:	ffff                	0xffff
   12064:	ffff                	0xffff
   12066:	ffff                	0xffff

00012068 <test_A4_res>:
   12068:	ffff                	0xffff
   1206a:	ffff                	0xffff
   1206c:	ffff                	0xffff
   1206e:	ffff                	0xffff
   12070:	ffff                	0xffff
   12072:	ffff                	0xffff
   12074:	ffff                	0xffff
   12076:	ffff                	0xffff
   12078:	ffff                	0xffff
   1207a:	ffff                	0xffff
   1207c:	ffff                	0xffff
   1207e:	ffff                	0xffff

00012080 <test_A5_res>:
   12080:	ffff                	0xffff
   12082:	ffff                	0xffff
   12084:	ffff                	0xffff
   12086:	ffff                	0xffff
   12088:	ffff                	0xffff
   1208a:	ffff                	0xffff
   1208c:	ffff                	0xffff
   1208e:	ffff                	0xffff
   12090:	ffff                	0xffff
   12092:	ffff                	0xffff
   12094:	ffff                	0xffff
   12096:	ffff                	0xffff

00012098 <test_B_res>:
   12098:	ffff                	0xffff
   1209a:	ffff                	0xffff
   1209c:	ffff                	0xffff
   1209e:	ffff                	0xffff
   120a0:	ffff                	0xffff
   120a2:	ffff                	0xffff
   120a4:	ffff                	0xffff
   120a6:	ffff                	0xffff
   120a8:	ffff                	0xffff
   120aa:	ffff                	0xffff
   120ac:	ffff                	0xffff
   120ae:	ffff                	0xffff
   120b0:	ffff                	0xffff
   120b2:	ffff                	0xffff

000120b4 <test_C_res>:
   120b4:	ffff                	0xffff
   120b6:	ffff                	0xffff

000120b8 <test_D_res>:
   120b8:	ffff                	0xffff
   120ba:	ffff                	0xffff
   120bc:	ffff                	0xffff
   120be:	ffff                	0xffff
