
/home/benselfridge/riscv-compliance/work//I-SW-01.elf:     file format elf32-littleriscv


Disassembly of section .text.init:

00010000 <_start>:
   10000:	04c0006f          	j	1004c <reset_vector>

00010004 <trap_vector>:
   10004:	34202f73          	csrr	t5,mcause
   10008:	00800f93          	li	t6,8
   1000c:	03ff0a63          	beq	t5,t6,10040 <write_tohost>
   10010:	00900f93          	li	t6,9
   10014:	03ff0663          	beq	t5,t6,10040 <write_tohost>
   10018:	00b00f93          	li	t6,11
   1001c:	03ff0263          	beq	t5,t6,10040 <write_tohost>
   10020:	ffff0f17          	auipc	t5,0xffff0
   10024:	fe0f0f13          	addi	t5,t5,-32 # 0 <_start-0x10000>
   10028:	000f0463          	beqz	t5,10030 <trap_vector+0x2c>
   1002c:	000f0067          	jr	t5
   10030:	34202f73          	csrr	t5,mcause
   10034:	000f5463          	bgez	t5,1003c <handle_exception>
   10038:	0040006f          	j	1003c <handle_exception>

0001003c <handle_exception>:
   1003c:	5391e193          	ori	gp,gp,1337

00010040 <write_tohost>:
   10040:	00001f17          	auipc	t5,0x1
   10044:	fc3f2023          	sw	gp,-64(t5) # 11000 <tohost>
   10048:	ff9ff06f          	j	10040 <write_tohost>

0001004c <reset_vector>:
   1004c:	f1402573          	csrr	a0,mhartid
   10050:	00051063          	bnez	a0,10050 <reset_vector+0x4>
   10054:	00000297          	auipc	t0,0x0
   10058:	01028293          	addi	t0,t0,16 # 10064 <reset_vector+0x18>
   1005c:	30529073          	csrw	mtvec,t0
   10060:	18005073          	csrwi	satp,0
   10064:	00000297          	auipc	t0,0x0
   10068:	01c28293          	addi	t0,t0,28 # 10080 <reset_vector+0x34>
   1006c:	30529073          	csrw	mtvec,t0
   10070:	fff00293          	li	t0,-1
   10074:	3b029073          	csrw	pmpaddr0,t0
   10078:	01f00293          	li	t0,31
   1007c:	3a029073          	csrw	pmpcfg0,t0
   10080:	00000297          	auipc	t0,0x0
   10084:	01828293          	addi	t0,t0,24 # 10098 <reset_vector+0x4c>
   10088:	30529073          	csrw	mtvec,t0
   1008c:	30205073          	csrwi	medeleg,0
   10090:	30305073          	csrwi	mideleg,0
   10094:	30405073          	csrwi	mie,0
   10098:	00000193          	li	gp,0
   1009c:	00000297          	auipc	t0,0x0
   100a0:	f6828293          	addi	t0,t0,-152 # 10004 <trap_vector>
   100a4:	30529073          	csrw	mtvec,t0
   100a8:	00100513          	li	a0,1
   100ac:	01f51513          	slli	a0,a0,0x1f
   100b0:	00054863          	bltz	a0,100c0 <reset_vector+0x74>
   100b4:	0000100f          	fence.i
   100b8:	00100193          	li	gp,1
   100bc:	00000073          	ecall
   100c0:	ffff0297          	auipc	t0,0xffff0
   100c4:	f4028293          	addi	t0,t0,-192 # 0 <_start-0x10000>
   100c8:	00028e63          	beqz	t0,100e4 <reset_vector+0x98>
   100cc:	10529073          	csrw	stvec,t0
   100d0:	0000b2b7          	lui	t0,0xb
   100d4:	10928293          	addi	t0,t0,265 # b109 <_start-0x4ef7>
   100d8:	30229073          	csrw	medeleg,t0
   100dc:	30202373          	csrr	t1,medeleg
   100e0:	f4629ee3          	bne	t0,t1,1003c <handle_exception>
   100e4:	30005073          	csrwi	mstatus,0
   100e8:	00002537          	lui	a0,0x2
   100ec:	80050513          	addi	a0,a0,-2048 # 1800 <_start-0xe800>
   100f0:	30052073          	csrs	mstatus,a0
   100f4:	00000297          	auipc	t0,0x0
   100f8:	01428293          	addi	t0,t0,20 # 10108 <reset_vector+0xbc>
   100fc:	34129073          	csrw	mepc,t0
   10100:	f1402573          	csrr	a0,mhartid
   10104:	30200073          	mret
   10108:	00000293          	li	t0,0
   1010c:	08500e63          	beq	zero,t0,101a8 <reset_vector+0x15c>
   10110:	00003517          	auipc	a0,0x3
   10114:	f4050513          	addi	a0,a0,-192 # 13050 <end_signature>
   10118:	6e9010ef          	jal	ra,12000 <FN_WriteStr>
   1011c:	00003517          	auipc	a0,0x3
   10120:	f4f50513          	addi	a0,a0,-177 # 1306b <end_signature+0x1b>
   10124:	6dd010ef          	jal	ra,12000 <FN_WriteStr>
   10128:	00003517          	auipc	a0,0x3
   1012c:	f5150513          	addi	a0,a0,-175 # 13079 <end_signature+0x29>
   10130:	6d1010ef          	jal	ra,12000 <FN_WriteStr>
   10134:	00003517          	auipc	a0,0x3
   10138:	f4d50513          	addi	a0,a0,-179 # 13081 <end_signature+0x31>
   1013c:	6c5010ef          	jal	ra,12000 <FN_WriteStr>
   10140:	00003517          	auipc	a0,0x3
   10144:	f4450513          	addi	a0,a0,-188 # 13084 <end_signature+0x34>
   10148:	6b9010ef          	jal	ra,12000 <FN_WriteStr>
   1014c:	00003517          	auipc	a0,0x3
   10150:	f3b50513          	addi	a0,a0,-197 # 13087 <end_signature+0x37>
   10154:	6ad010ef          	jal	ra,12000 <FN_WriteStr>
   10158:	00003517          	auipc	a0,0x3
   1015c:	f3250513          	addi	a0,a0,-206 # 1308a <end_signature+0x3a>
   10160:	6a1010ef          	jal	ra,12000 <FN_WriteStr>
   10164:	00000513          	li	a0,0
   10168:	6b5010ef          	jal	ra,1201c <FN_WriteA0>
   1016c:	00003517          	auipc	a0,0x3
   10170:	f2050513          	addi	a0,a0,-224 # 1308c <end_signature+0x3c>
   10174:	68d010ef          	jal	ra,12000 <FN_WriteStr>
   10178:	00003517          	auipc	a0,0x3
   1017c:	f1a50513          	addi	a0,a0,-230 # 13092 <end_signature+0x42>
   10180:	681010ef          	jal	ra,12000 <FN_WriteStr>
   10184:	00003517          	auipc	a0,0x3
   10188:	f1950513          	addi	a0,a0,-231 # 1309d <end_signature+0x4d>
   1018c:	675010ef          	jal	ra,12000 <FN_WriteStr>
   10190:	06400193          	li	gp,100
   10194:	0000100f          	fence.i
   10198:	00018063          	beqz	gp,10198 <reset_vector+0x14c>
   1019c:	00119193          	slli	gp,gp,0x1
   101a0:	0011e193          	ori	gp,gp,1
   101a4:	00000073          	ecall
   101a8:	00003517          	auipc	a0,0x3
   101ac:	ef750513          	addi	a0,a0,-265 # 1309f <end_signature+0x4f>
   101b0:	651010ef          	jal	ra,12000 <FN_WriteStr>
   101b4:	00003517          	auipc	a0,0x3
   101b8:	f1d50513          	addi	a0,a0,-227 # 130d1 <end_signature+0x81>
   101bc:	645010ef          	jal	ra,12000 <FN_WriteStr>
   101c0:	00003097          	auipc	ra,0x3
   101c4:	e5008093          	addi	ra,ra,-432 # 13010 <begin_signature>
   101c8:	11f1f137          	lui	sp,0x11f1f
   101cc:	22210113          	addi	sp,sp,546 # 11f1f222 <_end+0x11f0bc9d>
   101d0:	0020a023          	sw	sp,0(ra)
   101d4:	fff00013          	li	zero,-1
   101d8:	00003517          	auipc	a0,0x3
   101dc:	f2150513          	addi	a0,a0,-223 # 130f9 <end_signature+0xa9>
   101e0:	621010ef          	jal	ra,12000 <FN_WriteStr>
   101e4:	00003517          	auipc	a0,0x3
   101e8:	f3150513          	addi	a0,a0,-207 # 13115 <end_signature+0xc5>
   101ec:	615010ef          	jal	ra,12000 <FN_WriteStr>
   101f0:	00003297          	auipc	t0,0x3
   101f4:	e2528293          	addi	t0,t0,-475 # 13015 <test_A2_res+0x1>
   101f8:	f3334cb7          	lui	s9,0xf3334
   101fc:	4f4c8c93          	addi	s9,s9,1268 # f33344f4 <_end+0xf3320f6f>
   10200:	ff92afa3          	sw	s9,-1(t0)
   10204:	00003517          	auipc	a0,0x3
   10208:	f3950513          	addi	a0,a0,-199 # 1313d <end_signature+0xed>
   1020c:	5f5010ef          	jal	ra,12000 <FN_WriteStr>
   10210:	00003517          	auipc	a0,0x3
   10214:	f4950513          	addi	a0,a0,-183 # 13159 <end_signature+0x109>
   10218:	5e9010ef          	jal	ra,12000 <FN_WriteStr>
   1021c:	00003417          	auipc	s0,0x3
   10220:	dfb40413          	addi	s0,s0,-517 # 13017 <test_A2_res+0x3>
   10224:	55f5ffb7          	lui	t6,0x55f5f
   10228:	666f8f93          	addi	t6,t6,1638 # 55f5f666 <_end+0x55f4c0e1>
   1022c:	01f420a3          	sw	t6,1(s0)
   10230:	00003517          	auipc	a0,0x3
   10234:	f5150513          	addi	a0,a0,-175 # 13181 <end_signature+0x131>
   10238:	5c9010ef          	jal	ra,12000 <FN_WriteStr>
   1023c:	00003517          	auipc	a0,0x3
   10240:	f6150513          	addi	a0,a0,-159 # 1319d <end_signature+0x14d>
   10244:	5bd010ef          	jal	ra,12000 <FN_WriteStr>
   10248:	00003597          	auipc	a1,0x3
   1024c:	5d458593          	addi	a1,a1,1492 # 1381c <_end+0x297>
   10250:	f7779637          	lui	a2,0xf7779
   10254:	8f860613          	addi	a2,a2,-1800 # f77788f8 <_end+0xf7765373>
   10258:	80c5a023          	sw	a2,-2048(a1)
   1025c:	00003517          	auipc	a0,0x3
   10260:	f6c50513          	addi	a0,a0,-148 # 131c8 <end_signature+0x178>
   10264:	59d010ef          	jal	ra,12000 <FN_WriteStr>
   10268:	00003517          	auipc	a0,0x3
   1026c:	f7c50513          	addi	a0,a0,-132 # 131e4 <end_signature+0x194>
   10270:	591010ef          	jal	ra,12000 <FN_WriteStr>
   10274:	00002717          	auipc	a4,0x2
   10278:	5ad70713          	addi	a4,a4,1453 # 12821 <FN_WriteA0_common+0x7ad>
   1027c:	990917b7          	lui	a5,0x99091
   10280:	aaa78793          	addi	a5,a5,-1366 # 99090aaa <_end+0x9907d525>
   10284:	7ef72fa3          	sw	a5,2047(a4)
   10288:	00003517          	auipc	a0,0x3
   1028c:	f8750513          	addi	a0,a0,-121 # 1320f <end_signature+0x1bf>
   10290:	571010ef          	jal	ra,12000 <FN_WriteStr>
   10294:	00003517          	auipc	a0,0x3
   10298:	f9750513          	addi	a0,a0,-105 # 1322b <end_signature+0x1db>
   1029c:	565010ef          	jal	ra,12000 <FN_WriteStr>
   102a0:	00003897          	auipc	a7,0x3
   102a4:	d8888893          	addi	a7,a7,-632 # 13028 <test_B_res>
   102a8:	0bbbd937          	lui	s2,0xbbbd
   102ac:	c0c90913          	addi	s2,s2,-1012 # bbbcc0c <_end+0xbba9687>
   102b0:	dd0d19b7          	lui	s3,0xdd0d1
   102b4:	eee98993          	addi	s3,s3,-274 # dd0d0eee <_end+0xdd0bd969>
   102b8:	0fff0a37          	lui	s4,0xfff0
   102bc:	0f0a0a13          	addi	s4,s4,240 # fff00f0 <_end+0xffdcb6b>
   102c0:	ff28ae23          	sw	s2,-4(a7)
   102c4:	0138a023          	sw	s3,0(a7)
   102c8:	0148a223          	sw	s4,4(a7)
   102cc:	0bbbd2b7          	lui	t0,0xbbbd
   102d0:	c0c28293          	addi	t0,t0,-1012 # bbbcc0c <_end+0xbba9687>
   102d4:	08590e63          	beq	s2,t0,10370 <reset_vector+0x324>
   102d8:	00003517          	auipc	a0,0x3
   102dc:	f8150513          	addi	a0,a0,-127 # 13259 <end_signature+0x209>
   102e0:	521010ef          	jal	ra,12000 <FN_WriteStr>
   102e4:	00003517          	auipc	a0,0x3
   102e8:	f9050513          	addi	a0,a0,-112 # 13274 <end_signature+0x224>
   102ec:	515010ef          	jal	ra,12000 <FN_WriteStr>
   102f0:	00003517          	auipc	a0,0x3
   102f4:	f9250513          	addi	a0,a0,-110 # 13282 <end_signature+0x232>
   102f8:	509010ef          	jal	ra,12000 <FN_WriteStr>
   102fc:	00003517          	auipc	a0,0x3
   10300:	f8e50513          	addi	a0,a0,-114 # 1328a <end_signature+0x23a>
   10304:	4fd010ef          	jal	ra,12000 <FN_WriteStr>
   10308:	00003517          	auipc	a0,0x3
   1030c:	f8650513          	addi	a0,a0,-122 # 1328e <end_signature+0x23e>
   10310:	4f1010ef          	jal	ra,12000 <FN_WriteStr>
   10314:	00003517          	auipc	a0,0x3
   10318:	f7d50513          	addi	a0,a0,-131 # 13291 <end_signature+0x241>
   1031c:	4e5010ef          	jal	ra,12000 <FN_WriteStr>
   10320:	00003517          	auipc	a0,0x3
   10324:	f7550513          	addi	a0,a0,-139 # 13295 <end_signature+0x245>
   10328:	4d9010ef          	jal	ra,12000 <FN_WriteStr>
   1032c:	00090513          	mv	a0,s2
   10330:	4ed010ef          	jal	ra,1201c <FN_WriteA0>
   10334:	00003517          	auipc	a0,0x3
   10338:	f6350513          	addi	a0,a0,-157 # 13297 <end_signature+0x247>
   1033c:	4c5010ef          	jal	ra,12000 <FN_WriteStr>
   10340:	00003517          	auipc	a0,0x3
   10344:	f5d50513          	addi	a0,a0,-163 # 1329d <end_signature+0x24d>
   10348:	4b9010ef          	jal	ra,12000 <FN_WriteStr>
   1034c:	00003517          	auipc	a0,0x3
   10350:	f5c50513          	addi	a0,a0,-164 # 132a8 <end_signature+0x258>
   10354:	4ad010ef          	jal	ra,12000 <FN_WriteStr>
   10358:	06400193          	li	gp,100
   1035c:	0000100f          	fence.i
   10360:	00018063          	beqz	gp,10360 <reset_vector+0x314>
   10364:	00119193          	slli	gp,gp,0x1
   10368:	0011e193          	ori	gp,gp,1
   1036c:	00000073          	ecall
   10370:	dd0d12b7          	lui	t0,0xdd0d1
   10374:	eee28293          	addi	t0,t0,-274 # dd0d0eee <_end+0xdd0bd969>
   10378:	08598e63          	beq	s3,t0,10414 <reset_vector+0x3c8>
   1037c:	00003517          	auipc	a0,0x3
   10380:	f2e50513          	addi	a0,a0,-210 # 132aa <end_signature+0x25a>
   10384:	47d010ef          	jal	ra,12000 <FN_WriteStr>
   10388:	00003517          	auipc	a0,0x3
   1038c:	f3d50513          	addi	a0,a0,-195 # 132c5 <end_signature+0x275>
   10390:	471010ef          	jal	ra,12000 <FN_WriteStr>
   10394:	00003517          	auipc	a0,0x3
   10398:	f3f50513          	addi	a0,a0,-193 # 132d3 <end_signature+0x283>
   1039c:	465010ef          	jal	ra,12000 <FN_WriteStr>
   103a0:	00003517          	auipc	a0,0x3
   103a4:	f3b50513          	addi	a0,a0,-197 # 132db <end_signature+0x28b>
   103a8:	459010ef          	jal	ra,12000 <FN_WriteStr>
   103ac:	00003517          	auipc	a0,0x3
   103b0:	f3350513          	addi	a0,a0,-205 # 132df <end_signature+0x28f>
   103b4:	44d010ef          	jal	ra,12000 <FN_WriteStr>
   103b8:	00003517          	auipc	a0,0x3
   103bc:	f2a50513          	addi	a0,a0,-214 # 132e2 <end_signature+0x292>
   103c0:	441010ef          	jal	ra,12000 <FN_WriteStr>
   103c4:	00003517          	auipc	a0,0x3
   103c8:	f2250513          	addi	a0,a0,-222 # 132e6 <end_signature+0x296>
   103cc:	435010ef          	jal	ra,12000 <FN_WriteStr>
   103d0:	00098513          	mv	a0,s3
   103d4:	449010ef          	jal	ra,1201c <FN_WriteA0>
   103d8:	00003517          	auipc	a0,0x3
   103dc:	f1050513          	addi	a0,a0,-240 # 132e8 <end_signature+0x298>
   103e0:	421010ef          	jal	ra,12000 <FN_WriteStr>
   103e4:	00003517          	auipc	a0,0x3
   103e8:	f0a50513          	addi	a0,a0,-246 # 132ee <end_signature+0x29e>
   103ec:	415010ef          	jal	ra,12000 <FN_WriteStr>
   103f0:	00003517          	auipc	a0,0x3
   103f4:	f0950513          	addi	a0,a0,-247 # 132f9 <end_signature+0x2a9>
   103f8:	409010ef          	jal	ra,12000 <FN_WriteStr>
   103fc:	06400193          	li	gp,100
   10400:	0000100f          	fence.i
   10404:	00018063          	beqz	gp,10404 <reset_vector+0x3b8>
   10408:	00119193          	slli	gp,gp,0x1
   1040c:	0011e193          	ori	gp,gp,1
   10410:	00000073          	ecall
   10414:	0fff02b7          	lui	t0,0xfff0
   10418:	0f028293          	addi	t0,t0,240 # fff00f0 <_end+0xffdcb6b>
   1041c:	085a0e63          	beq	s4,t0,104b8 <reset_vector+0x46c>
   10420:	00003517          	auipc	a0,0x3
   10424:	edb50513          	addi	a0,a0,-293 # 132fb <end_signature+0x2ab>
   10428:	3d9010ef          	jal	ra,12000 <FN_WriteStr>
   1042c:	00003517          	auipc	a0,0x3
   10430:	eea50513          	addi	a0,a0,-278 # 13316 <end_signature+0x2c6>
   10434:	3cd010ef          	jal	ra,12000 <FN_WriteStr>
   10438:	00003517          	auipc	a0,0x3
   1043c:	eec50513          	addi	a0,a0,-276 # 13324 <end_signature+0x2d4>
   10440:	3c1010ef          	jal	ra,12000 <FN_WriteStr>
   10444:	00003517          	auipc	a0,0x3
   10448:	ee850513          	addi	a0,a0,-280 # 1332c <end_signature+0x2dc>
   1044c:	3b5010ef          	jal	ra,12000 <FN_WriteStr>
   10450:	00003517          	auipc	a0,0x3
   10454:	ee050513          	addi	a0,a0,-288 # 13330 <end_signature+0x2e0>
   10458:	3a9010ef          	jal	ra,12000 <FN_WriteStr>
   1045c:	00003517          	auipc	a0,0x3
   10460:	ed750513          	addi	a0,a0,-297 # 13333 <end_signature+0x2e3>
   10464:	39d010ef          	jal	ra,12000 <FN_WriteStr>
   10468:	00003517          	auipc	a0,0x3
   1046c:	ecf50513          	addi	a0,a0,-305 # 13337 <end_signature+0x2e7>
   10470:	391010ef          	jal	ra,12000 <FN_WriteStr>
   10474:	000a0513          	mv	a0,s4
   10478:	3a5010ef          	jal	ra,1201c <FN_WriteA0>
   1047c:	00003517          	auipc	a0,0x3
   10480:	ebd50513          	addi	a0,a0,-323 # 13339 <end_signature+0x2e9>
   10484:	37d010ef          	jal	ra,12000 <FN_WriteStr>
   10488:	00003517          	auipc	a0,0x3
   1048c:	eb750513          	addi	a0,a0,-329 # 1333f <end_signature+0x2ef>
   10490:	371010ef          	jal	ra,12000 <FN_WriteStr>
   10494:	00003517          	auipc	a0,0x3
   10498:	eb650513          	addi	a0,a0,-330 # 1334a <end_signature+0x2fa>
   1049c:	365010ef          	jal	ra,12000 <FN_WriteStr>
   104a0:	06400193          	li	gp,100
   104a4:	0000100f          	fence.i
   104a8:	00018063          	beqz	gp,104a8 <reset_vector+0x45c>
   104ac:	00119193          	slli	gp,gp,0x1
   104b0:	0011e193          	ori	gp,gp,1
   104b4:	00000073          	ecall
   104b8:	00003517          	auipc	a0,0x3
   104bc:	e9450513          	addi	a0,a0,-364 # 1334c <end_signature+0x2fc>
   104c0:	341010ef          	jal	ra,12000 <FN_WriteStr>
   104c4:	00003517          	auipc	a0,0x3
   104c8:	ea350513          	addi	a0,a0,-349 # 13367 <end_signature+0x317>
   104cc:	335010ef          	jal	ra,12000 <FN_WriteStr>
   104d0:	00003b17          	auipc	s6,0x3
   104d4:	b60b0b13          	addi	s6,s6,-1184 # 13030 <test_C_res>
   104d8:	12345037          	lui	zero,0x12345
   104dc:	67800013          	li	zero,1656
   104e0:	000b2023          	sw	zero,0(s6)
   104e4:	00003517          	auipc	a0,0x3
   104e8:	ea250513          	addi	a0,a0,-350 # 13386 <end_signature+0x336>
   104ec:	315010ef          	jal	ra,12000 <FN_WriteStr>
   104f0:	00003517          	auipc	a0,0x3
   104f4:	eb150513          	addi	a0,a0,-335 # 133a1 <end_signature+0x351>
   104f8:	309010ef          	jal	ra,12000 <FN_WriteStr>
   104fc:	00003a97          	auipc	s5,0x3
   10500:	b04a8a93          	addi	s5,s5,-1276 # 13000 <test_D1_data>
   10504:	112239b7          	lui	s3,0x11223
   10508:	34498993          	addi	s3,s3,836 # 11223344 <_end+0x1120fdbf>
   1050c:	000aab83          	lw	s7,0(s5)
   10510:	013ba023          	sw	s3,0(s7)
   10514:	00003517          	auipc	a0,0x3
   10518:	ec950513          	addi	a0,a0,-311 # 133dd <end_signature+0x38d>
   1051c:	2e5010ef          	jal	ra,12000 <FN_WriteStr>
   10520:	00003517          	auipc	a0,0x3
   10524:	ed850513          	addi	a0,a0,-296 # 133f8 <end_signature+0x3a8>
   10528:	2d9010ef          	jal	ra,12000 <FN_WriteStr>
   1052c:	00003b97          	auipc	s7,0x3
   10530:	ad8b8b93          	addi	s7,s7,-1320 # 13004 <test_D2_data>
   10534:	00003c17          	auipc	s8,0x3
   10538:	b04c0c13          	addi	s8,s8,-1276 # 13038 <test_D2_res>
   1053c:	000bac83          	lw	s9,0(s7)
   10540:	019c2023          	sw	s9,0(s8)
   10544:	00003517          	auipc	a0,0x3
   10548:	eed50513          	addi	a0,a0,-275 # 13431 <end_signature+0x3e1>
   1054c:	2b5010ef          	jal	ra,12000 <FN_WriteStr>
   10550:	00003517          	auipc	a0,0x3
   10554:	efc50513          	addi	a0,a0,-260 # 1344c <end_signature+0x3fc>
   10558:	2a9010ef          	jal	ra,12000 <FN_WriteStr>
   1055c:	00003d17          	auipc	s10,0x3
   10560:	ae0d0d13          	addi	s10,s10,-1312 # 1303c <test_E1_res>
   10564:	76543cb7          	lui	s9,0x76543
   10568:	210c8c93          	addi	s9,s9,528 # 76543210 <_end+0x7652fc8b>
   1056c:	019d2023          	sw	s9,0(s10)
   10570:	00000c93          	li	s9,0
   10574:	00003517          	auipc	a0,0x3
   10578:	f0a50513          	addi	a0,a0,-246 # 1347e <end_signature+0x42e>
   1057c:	285010ef          	jal	ra,12000 <FN_WriteStr>
   10580:	00003517          	auipc	a0,0x3
   10584:	f1a50513          	addi	a0,a0,-230 # 1349a <end_signature+0x44a>
   10588:	279010ef          	jal	ra,12000 <FN_WriteStr>
   1058c:	00003e17          	auipc	t3,0x3
   10590:	ab4e0e13          	addi	t3,t3,-1356 # 13040 <test_E2_res>
   10594:	89abddb7          	lui	s11,0x89abd
   10598:	defd8d93          	addi	s11,s11,-529 # 89abcdef <_end+0x89aa986a>
   1059c:	01be2023          	sw	s11,0(t3)
   105a0:	ffce0e13          	addi	t3,t3,-4
   105a4:	00003517          	auipc	a0,0x3
   105a8:	f2b50513          	addi	a0,a0,-213 # 134cf <end_signature+0x47f>
   105ac:	255010ef          	jal	ra,12000 <FN_WriteStr>
   105b0:	00003517          	auipc	a0,0x3
   105b4:	f3b50513          	addi	a0,a0,-197 # 134eb <end_signature+0x49b>
   105b8:	249010ef          	jal	ra,12000 <FN_WriteStr>
   105bc:	00003e97          	auipc	t4,0x3
   105c0:	a88e8e93          	addi	t4,t4,-1400 # 13044 <test_F_res>
   105c4:	14726db7          	lui	s11,0x14726
   105c8:	836d8d93          	addi	s11,s11,-1994 # 14725836 <_end+0x147122b1>
   105cc:	01bea023          	sw	s11,0(t4)
   105d0:	000eaf03          	lw	t5,0(t4)
   105d4:	01eea223          	sw	t5,4(t4)
   105d8:	00003517          	auipc	a0,0x3
   105dc:	f3e50513          	addi	a0,a0,-194 # 13516 <end_signature+0x4c6>
   105e0:	221010ef          	jal	ra,12000 <FN_WriteStr>
   105e4:	00003517          	auipc	a0,0x3
   105e8:	f4e50513          	addi	a0,a0,-178 # 13532 <end_signature+0x4e2>
   105ec:	215010ef          	jal	ra,12000 <FN_WriteStr>
   105f0:	00003097          	auipc	ra,0x3
   105f4:	a5c08093          	addi	ra,ra,-1444 # 1304c <test_G_res>
   105f8:	96385137          	lui	sp,0x96385
   105fc:	20110113          	addi	sp,sp,513 # 96385201 <_end+0x96371c7c>
   10600:	258151b7          	lui	gp,0x25815
   10604:	96318193          	addi	gp,gp,-1693 # 25814963 <_end+0x258013de>
   10608:	0020a023          	sw	sp,0(ra)
   1060c:	0030a023          	sw	gp,0(ra)
   10610:	00003517          	auipc	a0,0x3
   10614:	f4d50513          	addi	a0,a0,-179 # 1355d <end_signature+0x50d>
   10618:	1e9010ef          	jal	ra,12000 <FN_WriteStr>
   1061c:	00003517          	auipc	a0,0x3
   10620:	f5d50513          	addi	a0,a0,-163 # 13579 <end_signature+0x529>
   10624:	1dd010ef          	jal	ra,12000 <FN_WriteStr>
   10628:	0000100f          	fence.i
   1062c:	00100193          	li	gp,1
   10630:	00000073          	ecall
   10634:	c0001073          	unimp
	...

Disassembly of section .tohost:

00011000 <tohost>:
	...

00011100 <fromhost>:
	...

Disassembly of section .text:

00012000 <FN_WriteStr>:
   12000:	00050293          	mv	t0,a0
   12004:	0002c503          	lbu	a0,0(t0)
   12008:	00128293          	addi	t0,t0,1
   1200c:	00050663          	beqz	a0,12018 <FN_WriteStr+0x18>
   12010:	0005200b          	0x5200b
   12014:	ff1ff06f          	j	12004 <FN_WriteStr+0x4>
   12018:	00008067          	ret

0001201c <FN_WriteA0>:
   1201c:	00050293          	mv	t0,a0
   12020:	fff00513          	li	a0,-1
   12024:	01f55513          	srli	a0,a0,0x1f
   12028:	00155513          	srli	a0,a0,0x1
   1202c:	02051463          	bnez	a0,12054 <FN_WriteA0_64>

00012030 <FN_WriteA0_32>:
   12030:	00800313          	li	t1,8
   12034:	00439393          	slli	t2,t2,0x4
   12038:	00f2f513          	andi	a0,t0,15
   1203c:	0042d293          	srli	t0,t0,0x4
   12040:	00a3e3b3          	or	t2,t2,a0
   12044:	fff30313          	addi	t1,t1,-1
   12048:	fe0316e3          	bnez	t1,12034 <FN_WriteA0_32+0x4>
   1204c:	00800313          	li	t1,8
   12050:	0240006f          	j	12074 <FN_WriteA0_common>

00012054 <FN_WriteA0_64>:
   12054:	01000313          	li	t1,16
   12058:	00439393          	slli	t2,t2,0x4
   1205c:	00f2f513          	andi	a0,t0,15
   12060:	0042d293          	srli	t0,t0,0x4
   12064:	00a3e3b3          	or	t2,t2,a0
   12068:	fff30313          	addi	t1,t1,-1
   1206c:	fe0316e3          	bnez	t1,12058 <FN_WriteA0_64+0x4>
   12070:	01000313          	li	t1,16

00012074 <FN_WriteA0_common>:
   12074:	00a00293          	li	t0,10
   12078:	00f3f513          	andi	a0,t2,15
   1207c:	00554663          	blt	a0,t0,12088 <FN_WriteA0_common+0x14>
   12080:	05750513          	addi	a0,a0,87
   12084:	0080006f          	j	1208c <FN_WriteA0_common+0x18>
   12088:	03050513          	addi	a0,a0,48
   1208c:	0005200b          	0x5200b
   12090:	0043d393          	srli	t2,t2,0x4
   12094:	fff30313          	addi	t1,t1,-1
   12098:	fe0310e3          	bnez	t1,12078 <FN_WriteA0_common+0x4>
   1209c:	00008067          	ret
