
/Users/benselfridge/RISCV/riscv-compliance/work//I-XOR-01.elf:     file format elf32-littleriscv


Disassembly of section .text.init:

00010000 <_start>:
   10000:	04c0006f          	j	1004c <reset_vector>

00010004 <trap_vector>:
   10004:	34202f73          	csrr	t5,mcause
   10008:	00800f93          	li	t6,8
   1000c:	03ff0a63          	beq	t5,t6,10040 <write_tohost>
   10010:	00900f93          	li	t6,9
   10014:	03ff0663          	beq	t5,t6,10040 <write_tohost>
   10018:	00b00f93          	li	t6,11
   1001c:	03ff0263          	beq	t5,t6,10040 <write_tohost>
   10020:	ffff0f17          	auipc	t5,0xffff0
   10024:	fe0f0f13          	addi	t5,t5,-32 # 0 <_start-0x10000>
   10028:	000f0463          	beqz	t5,10030 <trap_vector+0x2c>
   1002c:	000f0067          	jr	t5
   10030:	34202f73          	csrr	t5,mcause
   10034:	000f5463          	bgez	t5,1003c <handle_exception>
   10038:	0040006f          	j	1003c <handle_exception>

0001003c <handle_exception>:
   1003c:	5391e193          	ori	gp,gp,1337

00010040 <write_tohost>:
   10040:	00001f17          	auipc	t5,0x1
   10044:	fc3f2023          	sw	gp,-64(t5) # 11000 <tohost>
   10048:	ff9ff06f          	j	10040 <write_tohost>

0001004c <reset_vector>:
   1004c:	f1402573          	csrr	a0,mhartid
   10050:	00051063          	bnez	a0,10050 <reset_vector+0x4>
   10054:	00000297          	auipc	t0,0x0
   10058:	01028293          	addi	t0,t0,16 # 10064 <reset_vector+0x18>
   1005c:	30529073          	csrw	mtvec,t0
   10060:	18005073          	csrwi	satp,0
   10064:	00000297          	auipc	t0,0x0
   10068:	01c28293          	addi	t0,t0,28 # 10080 <reset_vector+0x34>
   1006c:	30529073          	csrw	mtvec,t0
   10070:	fff00293          	li	t0,-1
   10074:	3b029073          	csrw	pmpaddr0,t0
   10078:	01f00293          	li	t0,31
   1007c:	3a029073          	csrw	pmpcfg0,t0
   10080:	00000297          	auipc	t0,0x0
   10084:	01828293          	addi	t0,t0,24 # 10098 <reset_vector+0x4c>
   10088:	30529073          	csrw	mtvec,t0
   1008c:	30205073          	csrwi	medeleg,0
   10090:	30305073          	csrwi	mideleg,0
   10094:	30405073          	csrwi	mie,0
   10098:	00000193          	li	gp,0
   1009c:	00000297          	auipc	t0,0x0
   100a0:	f6828293          	addi	t0,t0,-152 # 10004 <trap_vector>
   100a4:	30529073          	csrw	mtvec,t0
   100a8:	00100513          	li	a0,1
   100ac:	01f51513          	slli	a0,a0,0x1f
   100b0:	00054863          	bltz	a0,100c0 <reset_vector+0x74>
   100b4:	00000013          	nop
   100b8:	00100193          	li	gp,1
   100bc:	00000073          	ecall
   100c0:	ffff0297          	auipc	t0,0xffff0
   100c4:	f4028293          	addi	t0,t0,-192 # 0 <_start-0x10000>
   100c8:	00028e63          	beqz	t0,100e4 <reset_vector+0x98>
   100cc:	10529073          	csrw	stvec,t0
   100d0:	0000b2b7          	lui	t0,0xb
   100d4:	10928293          	addi	t0,t0,265 # b109 <_start-0x4ef7>
   100d8:	30229073          	csrw	medeleg,t0
   100dc:	30202373          	csrr	t1,medeleg
   100e0:	f4629ee3          	bne	t0,t1,1003c <handle_exception>
   100e4:	30005073          	csrwi	mstatus,0
   100e8:	00002537          	lui	a0,0x2
   100ec:	80050513          	addi	a0,a0,-2048 # 1800 <_start-0xe800>
   100f0:	30052073          	csrs	mstatus,a0
   100f4:	00000297          	auipc	t0,0x0
   100f8:	01428293          	addi	t0,t0,20 # 10108 <reset_vector+0xbc>
   100fc:	34129073          	csrw	mepc,t0
   10100:	f1402573          	csrr	a0,mhartid
   10104:	30200073          	mret
   10108:	00002097          	auipc	ra,0x2
   1010c:	ef808093          	addi	ra,ra,-264 # 12000 <test_A1_data>
   10110:	00002117          	auipc	sp,0x2
   10114:	f2010113          	addi	sp,sp,-224 # 12030 <begin_signature>
   10118:	0000a183          	lw	gp,0(ra)
   1011c:	00000213          	li	tp,0
   10120:	00100293          	li	t0,1
   10124:	fff00313          	li	t1,-1
   10128:	800003b7          	lui	t2,0x80000
   1012c:	fff38393          	addi	t2,t2,-1 # 7fffffff <_end+0x7ffedf1f>
   10130:	80000437          	lui	s0,0x80000
   10134:	0041c233          	xor	tp,gp,tp
   10138:	0051c2b3          	xor	t0,gp,t0
   1013c:	0061c333          	xor	t1,gp,t1
   10140:	0071c3b3          	xor	t2,gp,t2
   10144:	0081c433          	xor	s0,gp,s0
   10148:	00312023          	sw	gp,0(sp)
   1014c:	00412223          	sw	tp,4(sp)
   10150:	00512423          	sw	t0,8(sp)
   10154:	00612623          	sw	t1,12(sp)
   10158:	00712823          	sw	t2,16(sp)
   1015c:	00812a23          	sw	s0,20(sp)
   10160:	00002097          	auipc	ra,0x2
   10164:	ea408093          	addi	ra,ra,-348 # 12004 <test_A2_data>
   10168:	00002117          	auipc	sp,0x2
   1016c:	ee010113          	addi	sp,sp,-288 # 12048 <test_A2_res>
   10170:	0000a403          	lw	s0,0(ra)
   10174:	00000493          	li	s1,0
   10178:	00100513          	li	a0,1
   1017c:	fff00593          	li	a1,-1
   10180:	80000637          	lui	a2,0x80000
   10184:	fff60613          	addi	a2,a2,-1 # 7fffffff <_end+0x7ffedf1f>
   10188:	800006b7          	lui	a3,0x80000
   1018c:	009444b3          	xor	s1,s0,s1
   10190:	00a44533          	xor	a0,s0,a0
   10194:	00b445b3          	xor	a1,s0,a1
   10198:	00c44633          	xor	a2,s0,a2
   1019c:	00d446b3          	xor	a3,s0,a3
   101a0:	00812023          	sw	s0,0(sp)
   101a4:	00912223          	sw	s1,4(sp)
   101a8:	00a12423          	sw	a0,8(sp)
   101ac:	00b12623          	sw	a1,12(sp)
   101b0:	00c12823          	sw	a2,16(sp)
   101b4:	00d12a23          	sw	a3,20(sp)
   101b8:	00002097          	auipc	ra,0x2
   101bc:	e5008093          	addi	ra,ra,-432 # 12008 <test_A3_data>
   101c0:	00002117          	auipc	sp,0x2
   101c4:	ea010113          	addi	sp,sp,-352 # 12060 <test_A3_res>
   101c8:	0000a683          	lw	a3,0(ra)
   101cc:	00000713          	li	a4,0
   101d0:	00100793          	li	a5,1
   101d4:	fff00813          	li	a6,-1
   101d8:	800008b7          	lui	a7,0x80000
   101dc:	fff88893          	addi	a7,a7,-1 # 7fffffff <_end+0x7ffedf1f>
   101e0:	80000937          	lui	s2,0x80000
   101e4:	00e6c733          	xor	a4,a3,a4
   101e8:	00f6c7b3          	xor	a5,a3,a5
   101ec:	0106c833          	xor	a6,a3,a6
   101f0:	0116c8b3          	xor	a7,a3,a7
   101f4:	0126c933          	xor	s2,a3,s2
   101f8:	00d12023          	sw	a3,0(sp)
   101fc:	00e12223          	sw	a4,4(sp)
   10200:	00f12423          	sw	a5,8(sp)
   10204:	01012623          	sw	a6,12(sp)
   10208:	01112823          	sw	a7,16(sp)
   1020c:	01212a23          	sw	s2,20(sp)
   10210:	00002097          	auipc	ra,0x2
   10214:	dfc08093          	addi	ra,ra,-516 # 1200c <test_A4_data>
   10218:	00002117          	auipc	sp,0x2
   1021c:	e6010113          	addi	sp,sp,-416 # 12078 <test_A4_res>
   10220:	0000a903          	lw	s2,0(ra)
   10224:	00000993          	li	s3,0
   10228:	00100a13          	li	s4,1
   1022c:	fff00a93          	li	s5,-1
   10230:	80000b37          	lui	s6,0x80000
   10234:	fffb0b13          	addi	s6,s6,-1 # 7fffffff <_end+0x7ffedf1f>
   10238:	80000bb7          	lui	s7,0x80000
   1023c:	013949b3          	xor	s3,s2,s3
   10240:	01494a33          	xor	s4,s2,s4
   10244:	01594ab3          	xor	s5,s2,s5
   10248:	01694b33          	xor	s6,s2,s6
   1024c:	01794bb3          	xor	s7,s2,s7
   10250:	01212023          	sw	s2,0(sp)
   10254:	01312223          	sw	s3,4(sp)
   10258:	01412423          	sw	s4,8(sp)
   1025c:	01512623          	sw	s5,12(sp)
   10260:	01612823          	sw	s6,16(sp)
   10264:	01712a23          	sw	s7,20(sp)
   10268:	00002097          	auipc	ra,0x2
   1026c:	da808093          	addi	ra,ra,-600 # 12010 <test_A5_data>
   10270:	00002117          	auipc	sp,0x2
   10274:	e2010113          	addi	sp,sp,-480 # 12090 <test_A5_res>
   10278:	0000ab83          	lw	s7,0(ra)
   1027c:	00000c13          	li	s8,0
   10280:	00100c93          	li	s9,1
   10284:	fff00d13          	li	s10,-1
   10288:	80000db7          	lui	s11,0x80000
   1028c:	fffd8d93          	addi	s11,s11,-1 # 7fffffff <_end+0x7ffedf1f>
   10290:	80000e37          	lui	t3,0x80000
   10294:	018bcc33          	xor	s8,s7,s8
   10298:	019bccb3          	xor	s9,s7,s9
   1029c:	01abcd33          	xor	s10,s7,s10
   102a0:	01bbcdb3          	xor	s11,s7,s11
   102a4:	01cbce33          	xor	t3,s7,t3
   102a8:	01712023          	sw	s7,0(sp)
   102ac:	01812223          	sw	s8,4(sp)
   102b0:	01912423          	sw	s9,8(sp)
   102b4:	01a12623          	sw	s10,12(sp)
   102b8:	01b12823          	sw	s11,16(sp)
   102bc:	01c12a23          	sw	t3,20(sp)
   102c0:	00002c97          	auipc	s9,0x2
   102c4:	d54c8c93          	addi	s9,s9,-684 # 12014 <test_B_data>
   102c8:	00002d17          	auipc	s10,0x2
   102cc:	de0d0d13          	addi	s10,s10,-544 # 120a8 <test_B_res>
   102d0:	000cae03          	lw	t3,0(s9)
   102d4:	07f00213          	li	tp,127
   102d8:	03f00293          	li	t0,63
   102dc:	01f00313          	li	t1,31
   102e0:	00f00393          	li	t2,15
   102e4:	00700413          	li	s0,7
   102e8:	00300493          	li	s1,3
   102ec:	004e4eb3          	xor	t4,t3,tp
   102f0:	005ecf33          	xor	t5,t4,t0
   102f4:	006f4fb3          	xor	t6,t5,t1
   102f8:	007fc0b3          	xor	ra,t6,t2
   102fc:	0080c133          	xor	sp,ra,s0
   10300:	009141b3          	xor	gp,sp,s1
   10304:	004d2023          	sw	tp,0(s10)
   10308:	01cd2223          	sw	t3,4(s10)
   1030c:	01dd2423          	sw	t4,8(s10)
   10310:	01ed2623          	sw	t5,12(s10)
   10314:	01fd2823          	sw	t6,16(s10)
   10318:	001d2a23          	sw	ra,20(s10)
   1031c:	002d2c23          	sw	sp,24(s10)
   10320:	003d2e23          	sw	gp,28(s10)
   10324:	00002097          	auipc	ra,0x2
   10328:	cf408093          	addi	ra,ra,-780 # 12018 <test_C_data>
   1032c:	00002117          	auipc	sp,0x2
   10330:	d9c10113          	addi	sp,sp,-612 # 120c8 <test_C_res>
   10334:	0000ae03          	lw	t3,0(ra)
   10338:	f7ff9db7          	lui	s11,0xf7ff9
   1033c:	818d8d93          	addi	s11,s11,-2024 # f7ff8818 <_end+0xf7fe6738>
   10340:	01be4033          	xor	zero,t3,s11
   10344:	00012023          	sw	zero,0(sp)
   10348:	00002097          	auipc	ra,0x2
   1034c:	cd408093          	addi	ra,ra,-812 # 1201c <test_D_data>
   10350:	00002117          	auipc	sp,0x2
   10354:	d7c10113          	addi	sp,sp,-644 # 120cc <test_D_res>
   10358:	0000ae03          	lw	t3,0(ra)
   1035c:	f7ff9db7          	lui	s11,0xf7ff9
   10360:	818d8d93          	addi	s11,s11,-2024 # f7ff8818 <_end+0xf7fe6738>
   10364:	01be4033          	xor	zero,t3,s11
   10368:	000042b3          	xor	t0,zero,zero
   1036c:	00012023          	sw	zero,0(sp)
   10370:	00512223          	sw	t0,4(sp)
   10374:	00002097          	auipc	ra,0x2
   10378:	cac08093          	addi	ra,ra,-852 # 12020 <test_E_data>
   1037c:	00002117          	auipc	sp,0x2
   10380:	d5810113          	addi	sp,sp,-680 # 120d4 <test_E_res>
   10384:	0000a183          	lw	gp,0(ra)
   10388:	0001c233          	xor	tp,gp,zero
   1038c:	000242b3          	xor	t0,tp,zero
   10390:	00504333          	xor	t1,zero,t0
   10394:	00034733          	xor	a4,t1,zero
   10398:	000747b3          	xor	a5,a4,zero
   1039c:	0007c833          	xor	a6,a5,zero
   103a0:	01004cb3          	xor	s9,zero,a6
   103a4:	01904d33          	xor	s10,zero,s9
   103a8:	000d4db3          	xor	s11,s10,zero
   103ac:	00412023          	sw	tp,0(sp)
   103b0:	01a12223          	sw	s10,4(sp)
   103b4:	01b12423          	sw	s11,8(sp)
   103b8:	00000013          	nop
   103bc:	00100193          	li	gp,1
   103c0:	00000073          	ecall
   103c4:	c0001073          	unimp
	...

Disassembly of section .tohost:

00011000 <tohost>:
	...

00011100 <fromhost>:
	...
