
rv32ui-p-andi:     file format elf32-littleriscv


Disassembly of section .text.init:

00010000 <_start>:
   10000:	04c0006f          	j	1004c <reset_vector>

00010004 <trap_vector>:
   10004:	34202f73          	csrr	t5,mcause
   10008:	00800f93          	li	t6,8
   1000c:	03ff0a63          	beq	t5,t6,10040 <write_tohost>
   10010:	00900f93          	li	t6,9
   10014:	03ff0663          	beq	t5,t6,10040 <write_tohost>
   10018:	00b00f93          	li	t6,11
   1001c:	03ff0263          	beq	t5,t6,10040 <write_tohost>
   10020:	ffff0f17          	auipc	t5,0xffff0
   10024:	fe0f0f13          	addi	t5,t5,-32 # 0 <_start-0x10000>
   10028:	000f0463          	beqz	t5,10030 <trap_vector+0x2c>
   1002c:	000f0067          	jr	t5
   10030:	34202f73          	csrr	t5,mcause
   10034:	000f5463          	bgez	t5,1003c <handle_exception>
   10038:	0040006f          	j	1003c <handle_exception>

0001003c <handle_exception>:
   1003c:	5391e193          	ori	gp,gp,1337

00010040 <write_tohost>:
   10040:	00001f17          	auipc	t5,0x1
   10044:	fc3f2023          	sw	gp,-64(t5) # 11000 <tohost>
   10048:	ff9ff06f          	j	10040 <write_tohost>

0001004c <reset_vector>:
   1004c:	f1402573          	csrr	a0,mhartid
   10050:	00051063          	bnez	a0,10050 <reset_vector+0x4>
   10054:	00000297          	auipc	t0,0x0
   10058:	01028293          	addi	t0,t0,16 # 10064 <reset_vector+0x18>
   1005c:	30529073          	csrw	mtvec,t0
   10060:	18005073          	csrwi	satp,0
   10064:	00000297          	auipc	t0,0x0
   10068:	01c28293          	addi	t0,t0,28 # 10080 <reset_vector+0x34>
   1006c:	30529073          	csrw	mtvec,t0
   10070:	fff00293          	li	t0,-1
   10074:	3b029073          	csrw	pmpaddr0,t0
   10078:	01f00293          	li	t0,31
   1007c:	3a029073          	csrw	pmpcfg0,t0
   10080:	00000297          	auipc	t0,0x0
   10084:	01828293          	addi	t0,t0,24 # 10098 <reset_vector+0x4c>
   10088:	30529073          	csrw	mtvec,t0
   1008c:	30205073          	csrwi	medeleg,0
   10090:	30305073          	csrwi	mideleg,0
   10094:	30405073          	csrwi	mie,0
   10098:	00000193          	li	gp,0
   1009c:	00000297          	auipc	t0,0x0
   100a0:	f6828293          	addi	t0,t0,-152 # 10004 <trap_vector>
   100a4:	30529073          	csrw	mtvec,t0
   100a8:	00100513          	li	a0,1
   100ac:	01f51513          	slli	a0,a0,0x1f
   100b0:	00054863          	bltz	a0,100c0 <reset_vector+0x74>
   100b4:	0ff0000f          	fence
   100b8:	00100193          	li	gp,1
   100bc:	00000073          	ecall
   100c0:	ffff0297          	auipc	t0,0xffff0
   100c4:	f4028293          	addi	t0,t0,-192 # 0 <_start-0x10000>
   100c8:	00028e63          	beqz	t0,100e4 <reset_vector+0x98>
   100cc:	10529073          	csrw	stvec,t0
   100d0:	0000b2b7          	lui	t0,0xb
   100d4:	10928293          	addi	t0,t0,265 # b109 <_start-0x4ef7>
   100d8:	30229073          	csrw	medeleg,t0
   100dc:	30202373          	csrr	t1,medeleg
   100e0:	f4629ee3          	bne	t0,t1,1003c <handle_exception>
   100e4:	30005073          	csrwi	mstatus,0
   100e8:	00000297          	auipc	t0,0x0
   100ec:	01428293          	addi	t0,t0,20 # 100fc <test_2>
   100f0:	34129073          	csrw	mepc,t0
   100f4:	f1402573          	csrr	a0,mhartid
   100f8:	30200073          	mret

000100fc <test_2>:
   100fc:	ff0100b7          	lui	ra,0xff010
   10100:	f0008093          	addi	ra,ra,-256 # ff00ff00 <_end+0xfeffdf00>
   10104:	f0f0ff13          	andi	t5,ra,-241
   10108:	ff010eb7          	lui	t4,0xff010
   1010c:	f00e8e93          	addi	t4,t4,-256 # ff00ff00 <_end+0xfeffdf00>
   10110:	00200193          	li	gp,2
   10114:	1bdf1463          	bne	t5,t4,102bc <fail>

00010118 <test_3>:
   10118:	0ff010b7          	lui	ra,0xff01
   1011c:	ff008093          	addi	ra,ra,-16 # ff00ff0 <_end+0xfeeeff0>
   10120:	0f00ff13          	andi	t5,ra,240
   10124:	0f000e93          	li	t4,240
   10128:	00300193          	li	gp,3
   1012c:	19df1863          	bne	t5,t4,102bc <fail>

00010130 <test_4>:
   10130:	00ff00b7          	lui	ra,0xff0
   10134:	0ff08093          	addi	ra,ra,255 # ff00ff <_end+0xfde0ff>
   10138:	70f0ff13          	andi	t5,ra,1807
   1013c:	00f00e93          	li	t4,15
   10140:	00400193          	li	gp,4
   10144:	17df1c63          	bne	t5,t4,102bc <fail>

00010148 <test_5>:
   10148:	f00ff0b7          	lui	ra,0xf00ff
   1014c:	00f08093          	addi	ra,ra,15 # f00ff00f <_end+0xf00ed00f>
   10150:	0f00ff13          	andi	t5,ra,240
   10154:	00000e93          	li	t4,0
   10158:	00500193          	li	gp,5
   1015c:	17df1063          	bne	t5,t4,102bc <fail>

00010160 <test_6>:
   10160:	ff0100b7          	lui	ra,0xff010
   10164:	f0008093          	addi	ra,ra,-256 # ff00ff00 <_end+0xfeffdf00>
   10168:	0f00f093          	andi	ra,ra,240
   1016c:	00000e93          	li	t4,0
   10170:	00600193          	li	gp,6
   10174:	15d09463          	bne	ra,t4,102bc <fail>

00010178 <test_7>:
   10178:	00000213          	li	tp,0
   1017c:	0ff010b7          	lui	ra,0xff01
   10180:	ff008093          	addi	ra,ra,-16 # ff00ff0 <_end+0xfeeeff0>
   10184:	70f0ff13          	andi	t5,ra,1807
   10188:	000f0313          	mv	t1,t5
   1018c:	00120213          	addi	tp,tp,1 # 1 <_start-0xffff>
   10190:	00200293          	li	t0,2
   10194:	fe5214e3          	bne	tp,t0,1017c <test_7+0x4>
   10198:	70000e93          	li	t4,1792
   1019c:	00700193          	li	gp,7
   101a0:	11d31e63          	bne	t1,t4,102bc <fail>

000101a4 <test_8>:
   101a4:	00000213          	li	tp,0
   101a8:	00ff00b7          	lui	ra,0xff0
   101ac:	0ff08093          	addi	ra,ra,255 # ff00ff <_end+0xfde0ff>
   101b0:	0f00ff13          	andi	t5,ra,240
   101b4:	00000013          	nop
   101b8:	000f0313          	mv	t1,t5
   101bc:	00120213          	addi	tp,tp,1 # 1 <_start-0xffff>
   101c0:	00200293          	li	t0,2
   101c4:	fe5212e3          	bne	tp,t0,101a8 <test_8+0x4>
   101c8:	0f000e93          	li	t4,240
   101cc:	00800193          	li	gp,8
   101d0:	0fd31663          	bne	t1,t4,102bc <fail>

000101d4 <test_9>:
   101d4:	00000213          	li	tp,0
   101d8:	f00ff0b7          	lui	ra,0xf00ff
   101dc:	00f08093          	addi	ra,ra,15 # f00ff00f <_end+0xf00ed00f>
   101e0:	f0f0ff13          	andi	t5,ra,-241
   101e4:	00000013          	nop
   101e8:	00000013          	nop
   101ec:	000f0313          	mv	t1,t5
   101f0:	00120213          	addi	tp,tp,1 # 1 <_start-0xffff>
   101f4:	00200293          	li	t0,2
   101f8:	fe5210e3          	bne	tp,t0,101d8 <test_9+0x4>
   101fc:	f00ffeb7          	lui	t4,0xf00ff
   10200:	00fe8e93          	addi	t4,t4,15 # f00ff00f <_end+0xf00ed00f>
   10204:	00900193          	li	gp,9
   10208:	0bd31a63          	bne	t1,t4,102bc <fail>

0001020c <test_10>:
   1020c:	00000213          	li	tp,0
   10210:	0ff010b7          	lui	ra,0xff01
   10214:	ff008093          	addi	ra,ra,-16 # ff00ff0 <_end+0xfeeeff0>
   10218:	70f0ff13          	andi	t5,ra,1807
   1021c:	00120213          	addi	tp,tp,1 # 1 <_start-0xffff>
   10220:	00200293          	li	t0,2
   10224:	fe5216e3          	bne	tp,t0,10210 <test_10+0x4>
   10228:	70000e93          	li	t4,1792
   1022c:	00a00193          	li	gp,10
   10230:	09df1663          	bne	t5,t4,102bc <fail>

00010234 <test_11>:
   10234:	00000213          	li	tp,0
   10238:	00ff00b7          	lui	ra,0xff0
   1023c:	0ff08093          	addi	ra,ra,255 # ff00ff <_end+0xfde0ff>
   10240:	00000013          	nop
   10244:	0f00ff13          	andi	t5,ra,240
   10248:	00120213          	addi	tp,tp,1 # 1 <_start-0xffff>
   1024c:	00200293          	li	t0,2
   10250:	fe5214e3          	bne	tp,t0,10238 <test_11+0x4>
   10254:	0f000e93          	li	t4,240
   10258:	00b00193          	li	gp,11
   1025c:	07df1063          	bne	t5,t4,102bc <fail>

00010260 <test_12>:
   10260:	00000213          	li	tp,0
   10264:	f00ff0b7          	lui	ra,0xf00ff
   10268:	00f08093          	addi	ra,ra,15 # f00ff00f <_end+0xf00ed00f>
   1026c:	00000013          	nop
   10270:	00000013          	nop
   10274:	70f0ff13          	andi	t5,ra,1807
   10278:	00120213          	addi	tp,tp,1 # 1 <_start-0xffff>
   1027c:	00200293          	li	t0,2
   10280:	fe5212e3          	bne	tp,t0,10264 <test_12+0x4>
   10284:	00f00e93          	li	t4,15
   10288:	00c00193          	li	gp,12
   1028c:	03df1863          	bne	t5,t4,102bc <fail>

00010290 <test_13>:
   10290:	0f007093          	andi	ra,zero,240
   10294:	00000e93          	li	t4,0
   10298:	00d00193          	li	gp,13
   1029c:	03d09063          	bne	ra,t4,102bc <fail>

000102a0 <test_14>:
   102a0:	00ff00b7          	lui	ra,0xff0
   102a4:	0ff08093          	addi	ra,ra,255 # ff00ff <_end+0xfde0ff>
   102a8:	70f0f013          	andi	zero,ra,1807
   102ac:	00000e93          	li	t4,0
   102b0:	00e00193          	li	gp,14
   102b4:	01d01463          	bne	zero,t4,102bc <fail>
   102b8:	00301c63          	bne	zero,gp,102d0 <pass>

000102bc <fail>:
   102bc:	0ff0000f          	fence
   102c0:	00018063          	beqz	gp,102c0 <fail+0x4>
   102c4:	00119193          	slli	gp,gp,0x1
   102c8:	0011e193          	ori	gp,gp,1
   102cc:	00000073          	ecall

000102d0 <pass>:
   102d0:	0ff0000f          	fence
   102d4:	00100193          	li	gp,1
   102d8:	00000073          	ecall
   102dc:	c0001073          	unimp
   102e0:	0000                	unimp
   102e2:	0000                	unimp
   102e4:	0000                	unimp
   102e6:	0000                	unimp
   102e8:	0000                	unimp
   102ea:	0000                	unimp
   102ec:	0000                	unimp
   102ee:	0000                	unimp
   102f0:	0000                	unimp
   102f2:	0000                	unimp
   102f4:	0000                	unimp
   102f6:	0000                	unimp
   102f8:	0000                	unimp
   102fa:	0000                	unimp
   102fc:	0000                	unimp
   102fe:	0000                	unimp
   10300:	0000                	unimp
   10302:	0000                	unimp
