
rv32ui-p-sltu:     file format elf32-littleriscv


Disassembly of section .text.init:

00010000 <_start>:
   10000:	04c0006f          	j	1004c <reset_vector>

00010004 <trap_vector>:
   10004:	34202f73          	csrr	t5,mcause
   10008:	00800f93          	li	t6,8
   1000c:	03ff0a63          	beq	t5,t6,10040 <write_tohost>
   10010:	00900f93          	li	t6,9
   10014:	03ff0663          	beq	t5,t6,10040 <write_tohost>
   10018:	00b00f93          	li	t6,11
   1001c:	03ff0263          	beq	t5,t6,10040 <write_tohost>
   10020:	ffff0f17          	auipc	t5,0xffff0
   10024:	fe0f0f13          	addi	t5,t5,-32 # 0 <_start-0x10000>
   10028:	000f0463          	beqz	t5,10030 <trap_vector+0x2c>
   1002c:	000f0067          	jr	t5
   10030:	34202f73          	csrr	t5,mcause
   10034:	000f5463          	bgez	t5,1003c <handle_exception>
   10038:	0040006f          	j	1003c <handle_exception>

0001003c <handle_exception>:
   1003c:	5391e193          	ori	gp,gp,1337

00010040 <write_tohost>:
   10040:	00001f17          	auipc	t5,0x1
   10044:	fc3f2023          	sw	gp,-64(t5) # 11000 <tohost>
   10048:	ff9ff06f          	j	10040 <write_tohost>

0001004c <reset_vector>:
   1004c:	f1402573          	csrr	a0,mhartid
   10050:	00051063          	bnez	a0,10050 <reset_vector+0x4>
   10054:	00000297          	auipc	t0,0x0
   10058:	01028293          	addi	t0,t0,16 # 10064 <reset_vector+0x18>
   1005c:	30529073          	csrw	mtvec,t0
   10060:	18005073          	csrwi	satp,0
   10064:	00000297          	auipc	t0,0x0
   10068:	01c28293          	addi	t0,t0,28 # 10080 <reset_vector+0x34>
   1006c:	30529073          	csrw	mtvec,t0
   10070:	fff00293          	li	t0,-1
   10074:	3b029073          	csrw	pmpaddr0,t0
   10078:	01f00293          	li	t0,31
   1007c:	3a029073          	csrw	pmpcfg0,t0
   10080:	00000297          	auipc	t0,0x0
   10084:	01828293          	addi	t0,t0,24 # 10098 <reset_vector+0x4c>
   10088:	30529073          	csrw	mtvec,t0
   1008c:	30205073          	csrwi	medeleg,0
   10090:	30305073          	csrwi	mideleg,0
   10094:	30405073          	csrwi	mie,0
   10098:	00000193          	li	gp,0
   1009c:	00000297          	auipc	t0,0x0
   100a0:	f6828293          	addi	t0,t0,-152 # 10004 <trap_vector>
   100a4:	30529073          	csrw	mtvec,t0
   100a8:	00100513          	li	a0,1
   100ac:	01f51513          	slli	a0,a0,0x1f
   100b0:	00054863          	bltz	a0,100c0 <reset_vector+0x74>
   100b4:	0ff0000f          	fence
   100b8:	00100193          	li	gp,1
   100bc:	00000073          	ecall
   100c0:	ffff0297          	auipc	t0,0xffff0
   100c4:	f4028293          	addi	t0,t0,-192 # 0 <_start-0x10000>
   100c8:	00028e63          	beqz	t0,100e4 <reset_vector+0x98>
   100cc:	10529073          	csrw	stvec,t0
   100d0:	0000b2b7          	lui	t0,0xb
   100d4:	10928293          	addi	t0,t0,265 # b109 <_start-0x4ef7>
   100d8:	30229073          	csrw	medeleg,t0
   100dc:	30202373          	csrr	t1,medeleg
   100e0:	f4629ee3          	bne	t0,t1,1003c <handle_exception>
   100e4:	30005073          	csrwi	mstatus,0
   100e8:	00000297          	auipc	t0,0x0
   100ec:	01428293          	addi	t0,t0,20 # 100fc <test_2>
   100f0:	34129073          	csrw	mepc,t0
   100f4:	f1402573          	csrr	a0,mhartid
   100f8:	30200073          	mret

000100fc <test_2>:
   100fc:	00000093          	li	ra,0
   10100:	00000113          	li	sp,0
   10104:	0020bf33          	sltu	t5,ra,sp
   10108:	00000e93          	li	t4,0
   1010c:	00200193          	li	gp,2
   10110:	4bdf1a63          	bne	t5,t4,105c4 <fail>

00010114 <test_3>:
   10114:	00100093          	li	ra,1
   10118:	00100113          	li	sp,1
   1011c:	0020bf33          	sltu	t5,ra,sp
   10120:	00000e93          	li	t4,0
   10124:	00300193          	li	gp,3
   10128:	49df1e63          	bne	t5,t4,105c4 <fail>

0001012c <test_4>:
   1012c:	00300093          	li	ra,3
   10130:	00700113          	li	sp,7
   10134:	0020bf33          	sltu	t5,ra,sp
   10138:	00100e93          	li	t4,1
   1013c:	00400193          	li	gp,4
   10140:	49df1263          	bne	t5,t4,105c4 <fail>

00010144 <test_5>:
   10144:	00700093          	li	ra,7
   10148:	00300113          	li	sp,3
   1014c:	0020bf33          	sltu	t5,ra,sp
   10150:	00000e93          	li	t4,0
   10154:	00500193          	li	gp,5
   10158:	47df1663          	bne	t5,t4,105c4 <fail>

0001015c <test_6>:
   1015c:	00000093          	li	ra,0
   10160:	ffff8137          	lui	sp,0xffff8
   10164:	0020bf33          	sltu	t5,ra,sp
   10168:	00100e93          	li	t4,1
   1016c:	00600193          	li	gp,6
   10170:	45df1a63          	bne	t5,t4,105c4 <fail>

00010174 <test_7>:
   10174:	800000b7          	lui	ra,0x80000
   10178:	00000113          	li	sp,0
   1017c:	0020bf33          	sltu	t5,ra,sp
   10180:	00000e93          	li	t4,0
   10184:	00700193          	li	gp,7
   10188:	43df1e63          	bne	t5,t4,105c4 <fail>

0001018c <test_8>:
   1018c:	800000b7          	lui	ra,0x80000
   10190:	ffff8137          	lui	sp,0xffff8
   10194:	0020bf33          	sltu	t5,ra,sp
   10198:	00100e93          	li	t4,1
   1019c:	00800193          	li	gp,8
   101a0:	43df1263          	bne	t5,t4,105c4 <fail>

000101a4 <test_9>:
   101a4:	00000093          	li	ra,0
   101a8:	00008137          	lui	sp,0x8
   101ac:	fff10113          	addi	sp,sp,-1 # 7fff <_start-0x8001>
   101b0:	0020bf33          	sltu	t5,ra,sp
   101b4:	00100e93          	li	t4,1
   101b8:	00900193          	li	gp,9
   101bc:	41df1463          	bne	t5,t4,105c4 <fail>

000101c0 <test_10>:
   101c0:	800000b7          	lui	ra,0x80000
   101c4:	fff08093          	addi	ra,ra,-1 # 7fffffff <_end+0x7ffedfff>
   101c8:	00000113          	li	sp,0
   101cc:	0020bf33          	sltu	t5,ra,sp
   101d0:	00000e93          	li	t4,0
   101d4:	00a00193          	li	gp,10
   101d8:	3fdf1663          	bne	t5,t4,105c4 <fail>

000101dc <test_11>:
   101dc:	800000b7          	lui	ra,0x80000
   101e0:	fff08093          	addi	ra,ra,-1 # 7fffffff <_end+0x7ffedfff>
   101e4:	00008137          	lui	sp,0x8
   101e8:	fff10113          	addi	sp,sp,-1 # 7fff <_start-0x8001>
   101ec:	0020bf33          	sltu	t5,ra,sp
   101f0:	00000e93          	li	t4,0
   101f4:	00b00193          	li	gp,11
   101f8:	3ddf1663          	bne	t5,t4,105c4 <fail>

000101fc <test_12>:
   101fc:	800000b7          	lui	ra,0x80000
   10200:	00008137          	lui	sp,0x8
   10204:	fff10113          	addi	sp,sp,-1 # 7fff <_start-0x8001>
   10208:	0020bf33          	sltu	t5,ra,sp
   1020c:	00000e93          	li	t4,0
   10210:	00c00193          	li	gp,12
   10214:	3bdf1863          	bne	t5,t4,105c4 <fail>

00010218 <test_13>:
   10218:	800000b7          	lui	ra,0x80000
   1021c:	fff08093          	addi	ra,ra,-1 # 7fffffff <_end+0x7ffedfff>
   10220:	ffff8137          	lui	sp,0xffff8
   10224:	0020bf33          	sltu	t5,ra,sp
   10228:	00100e93          	li	t4,1
   1022c:	00d00193          	li	gp,13
   10230:	39df1a63          	bne	t5,t4,105c4 <fail>

00010234 <test_14>:
   10234:	00000093          	li	ra,0
   10238:	fff00113          	li	sp,-1
   1023c:	0020bf33          	sltu	t5,ra,sp
   10240:	00100e93          	li	t4,1
   10244:	00e00193          	li	gp,14
   10248:	37df1e63          	bne	t5,t4,105c4 <fail>

0001024c <test_15>:
   1024c:	fff00093          	li	ra,-1
   10250:	00100113          	li	sp,1
   10254:	0020bf33          	sltu	t5,ra,sp
   10258:	00000e93          	li	t4,0
   1025c:	00f00193          	li	gp,15
   10260:	37df1263          	bne	t5,t4,105c4 <fail>

00010264 <test_16>:
   10264:	fff00093          	li	ra,-1
   10268:	fff00113          	li	sp,-1
   1026c:	0020bf33          	sltu	t5,ra,sp
   10270:	00000e93          	li	t4,0
   10274:	01000193          	li	gp,16
   10278:	35df1663          	bne	t5,t4,105c4 <fail>

0001027c <test_17>:
   1027c:	00e00093          	li	ra,14
   10280:	00d00113          	li	sp,13
   10284:	0020b0b3          	sltu	ra,ra,sp
   10288:	00000e93          	li	t4,0
   1028c:	01100193          	li	gp,17
   10290:	33d09a63          	bne	ra,t4,105c4 <fail>

00010294 <test_18>:
   10294:	00b00093          	li	ra,11
   10298:	00d00113          	li	sp,13
   1029c:	0020b133          	sltu	sp,ra,sp
   102a0:	00100e93          	li	t4,1
   102a4:	01200193          	li	gp,18
   102a8:	31d11e63          	bne	sp,t4,105c4 <fail>

000102ac <test_19>:
   102ac:	00d00093          	li	ra,13
   102b0:	0010b0b3          	sltu	ra,ra,ra
   102b4:	00000e93          	li	t4,0
   102b8:	01300193          	li	gp,19
   102bc:	31d09463          	bne	ra,t4,105c4 <fail>

000102c0 <test_20>:
   102c0:	00000213          	li	tp,0
   102c4:	00b00093          	li	ra,11
   102c8:	00d00113          	li	sp,13
   102cc:	0020bf33          	sltu	t5,ra,sp
   102d0:	000f0313          	mv	t1,t5
   102d4:	00120213          	addi	tp,tp,1 # 1 <_start-0xffff>
   102d8:	00200293          	li	t0,2
   102dc:	fe5214e3          	bne	tp,t0,102c4 <test_20+0x4>
   102e0:	00100e93          	li	t4,1
   102e4:	01400193          	li	gp,20
   102e8:	2dd31e63          	bne	t1,t4,105c4 <fail>

000102ec <test_21>:
   102ec:	00000213          	li	tp,0
   102f0:	00e00093          	li	ra,14
   102f4:	00d00113          	li	sp,13
   102f8:	0020bf33          	sltu	t5,ra,sp
   102fc:	00000013          	nop
   10300:	000f0313          	mv	t1,t5
   10304:	00120213          	addi	tp,tp,1 # 1 <_start-0xffff>
   10308:	00200293          	li	t0,2
   1030c:	fe5212e3          	bne	tp,t0,102f0 <test_21+0x4>
   10310:	00000e93          	li	t4,0
   10314:	01500193          	li	gp,21
   10318:	2bd31663          	bne	t1,t4,105c4 <fail>

0001031c <test_22>:
   1031c:	00000213          	li	tp,0
   10320:	00c00093          	li	ra,12
   10324:	00d00113          	li	sp,13
   10328:	0020bf33          	sltu	t5,ra,sp
   1032c:	00000013          	nop
   10330:	00000013          	nop
   10334:	000f0313          	mv	t1,t5
   10338:	00120213          	addi	tp,tp,1 # 1 <_start-0xffff>
   1033c:	00200293          	li	t0,2
   10340:	fe5210e3          	bne	tp,t0,10320 <test_22+0x4>
   10344:	00100e93          	li	t4,1
   10348:	01600193          	li	gp,22
   1034c:	27d31c63          	bne	t1,t4,105c4 <fail>

00010350 <test_23>:
   10350:	00000213          	li	tp,0
   10354:	00e00093          	li	ra,14
   10358:	00d00113          	li	sp,13
   1035c:	0020bf33          	sltu	t5,ra,sp
   10360:	00120213          	addi	tp,tp,1 # 1 <_start-0xffff>
   10364:	00200293          	li	t0,2
   10368:	fe5216e3          	bne	tp,t0,10354 <test_23+0x4>
   1036c:	00000e93          	li	t4,0
   10370:	01700193          	li	gp,23
   10374:	25df1863          	bne	t5,t4,105c4 <fail>

00010378 <test_24>:
   10378:	00000213          	li	tp,0
   1037c:	00b00093          	li	ra,11
   10380:	00d00113          	li	sp,13
   10384:	00000013          	nop
   10388:	0020bf33          	sltu	t5,ra,sp
   1038c:	00120213          	addi	tp,tp,1 # 1 <_start-0xffff>
   10390:	00200293          	li	t0,2
   10394:	fe5214e3          	bne	tp,t0,1037c <test_24+0x4>
   10398:	00100e93          	li	t4,1
   1039c:	01800193          	li	gp,24
   103a0:	23df1263          	bne	t5,t4,105c4 <fail>

000103a4 <test_25>:
   103a4:	00000213          	li	tp,0
   103a8:	00f00093          	li	ra,15
   103ac:	00d00113          	li	sp,13
   103b0:	00000013          	nop
   103b4:	00000013          	nop
   103b8:	0020bf33          	sltu	t5,ra,sp
   103bc:	00120213          	addi	tp,tp,1 # 1 <_start-0xffff>
   103c0:	00200293          	li	t0,2
   103c4:	fe5212e3          	bne	tp,t0,103a8 <test_25+0x4>
   103c8:	00000e93          	li	t4,0
   103cc:	01900193          	li	gp,25
   103d0:	1fdf1a63          	bne	t5,t4,105c4 <fail>

000103d4 <test_26>:
   103d4:	00000213          	li	tp,0
   103d8:	00a00093          	li	ra,10
   103dc:	00000013          	nop
   103e0:	00d00113          	li	sp,13
   103e4:	0020bf33          	sltu	t5,ra,sp
   103e8:	00120213          	addi	tp,tp,1 # 1 <_start-0xffff>
   103ec:	00200293          	li	t0,2
   103f0:	fe5214e3          	bne	tp,t0,103d8 <test_26+0x4>
   103f4:	00100e93          	li	t4,1
   103f8:	01a00193          	li	gp,26
   103fc:	1ddf1463          	bne	t5,t4,105c4 <fail>

00010400 <test_27>:
   10400:	00000213          	li	tp,0
   10404:	01000093          	li	ra,16
   10408:	00000013          	nop
   1040c:	00d00113          	li	sp,13
   10410:	00000013          	nop
   10414:	0020bf33          	sltu	t5,ra,sp
   10418:	00120213          	addi	tp,tp,1 # 1 <_start-0xffff>
   1041c:	00200293          	li	t0,2
   10420:	fe5212e3          	bne	tp,t0,10404 <test_27+0x4>
   10424:	00000e93          	li	t4,0
   10428:	01b00193          	li	gp,27
   1042c:	19df1c63          	bne	t5,t4,105c4 <fail>

00010430 <test_28>:
   10430:	00000213          	li	tp,0
   10434:	00900093          	li	ra,9
   10438:	00000013          	nop
   1043c:	00000013          	nop
   10440:	00d00113          	li	sp,13
   10444:	0020bf33          	sltu	t5,ra,sp
   10448:	00120213          	addi	tp,tp,1 # 1 <_start-0xffff>
   1044c:	00200293          	li	t0,2
   10450:	fe5212e3          	bne	tp,t0,10434 <test_28+0x4>
   10454:	00100e93          	li	t4,1
   10458:	01c00193          	li	gp,28
   1045c:	17df1463          	bne	t5,t4,105c4 <fail>

00010460 <test_29>:
   10460:	00000213          	li	tp,0
   10464:	00d00113          	li	sp,13
   10468:	01100093          	li	ra,17
   1046c:	0020bf33          	sltu	t5,ra,sp
   10470:	00120213          	addi	tp,tp,1 # 1 <_start-0xffff>
   10474:	00200293          	li	t0,2
   10478:	fe5216e3          	bne	tp,t0,10464 <test_29+0x4>
   1047c:	00000e93          	li	t4,0
   10480:	01d00193          	li	gp,29
   10484:	15df1063          	bne	t5,t4,105c4 <fail>

00010488 <test_30>:
   10488:	00000213          	li	tp,0
   1048c:	00d00113          	li	sp,13
   10490:	00800093          	li	ra,8
   10494:	00000013          	nop
   10498:	0020bf33          	sltu	t5,ra,sp
   1049c:	00120213          	addi	tp,tp,1 # 1 <_start-0xffff>
   104a0:	00200293          	li	t0,2
   104a4:	fe5214e3          	bne	tp,t0,1048c <test_30+0x4>
   104a8:	00100e93          	li	t4,1
   104ac:	01e00193          	li	gp,30
   104b0:	11df1a63          	bne	t5,t4,105c4 <fail>

000104b4 <test_31>:
   104b4:	00000213          	li	tp,0
   104b8:	00d00113          	li	sp,13
   104bc:	01200093          	li	ra,18
   104c0:	00000013          	nop
   104c4:	00000013          	nop
   104c8:	0020bf33          	sltu	t5,ra,sp
   104cc:	00120213          	addi	tp,tp,1 # 1 <_start-0xffff>
   104d0:	00200293          	li	t0,2
   104d4:	fe5212e3          	bne	tp,t0,104b8 <test_31+0x4>
   104d8:	00000e93          	li	t4,0
   104dc:	01f00193          	li	gp,31
   104e0:	0fdf1263          	bne	t5,t4,105c4 <fail>

000104e4 <test_32>:
   104e4:	00000213          	li	tp,0
   104e8:	00d00113          	li	sp,13
   104ec:	00000013          	nop
   104f0:	00700093          	li	ra,7
   104f4:	0020bf33          	sltu	t5,ra,sp
   104f8:	00120213          	addi	tp,tp,1 # 1 <_start-0xffff>
   104fc:	00200293          	li	t0,2
   10500:	fe5214e3          	bne	tp,t0,104e8 <test_32+0x4>
   10504:	00100e93          	li	t4,1
   10508:	02000193          	li	gp,32
   1050c:	0bdf1c63          	bne	t5,t4,105c4 <fail>

00010510 <test_33>:
   10510:	00000213          	li	tp,0
   10514:	00d00113          	li	sp,13
   10518:	00000013          	nop
   1051c:	01300093          	li	ra,19
   10520:	00000013          	nop
   10524:	0020bf33          	sltu	t5,ra,sp
   10528:	00120213          	addi	tp,tp,1 # 1 <_start-0xffff>
   1052c:	00200293          	li	t0,2
   10530:	fe5212e3          	bne	tp,t0,10514 <test_33+0x4>
   10534:	00000e93          	li	t4,0
   10538:	02100193          	li	gp,33
   1053c:	09df1463          	bne	t5,t4,105c4 <fail>

00010540 <test_34>:
   10540:	00000213          	li	tp,0
   10544:	00d00113          	li	sp,13
   10548:	00000013          	nop
   1054c:	00000013          	nop
   10550:	00600093          	li	ra,6
   10554:	0020bf33          	sltu	t5,ra,sp
   10558:	00120213          	addi	tp,tp,1 # 1 <_start-0xffff>
   1055c:	00200293          	li	t0,2
   10560:	fe5212e3          	bne	tp,t0,10544 <test_34+0x4>
   10564:	00100e93          	li	t4,1
   10568:	02200193          	li	gp,34
   1056c:	05df1c63          	bne	t5,t4,105c4 <fail>

00010570 <test_35>:
   10570:	fff00093          	li	ra,-1
   10574:	00103133          	snez	sp,ra
   10578:	00100e93          	li	t4,1
   1057c:	02300193          	li	gp,35
   10580:	05d11263          	bne	sp,t4,105c4 <fail>

00010584 <test_36>:
   10584:	fff00093          	li	ra,-1
   10588:	0000b133          	sltu	sp,ra,zero
   1058c:	00000e93          	li	t4,0
   10590:	02400193          	li	gp,36
   10594:	03d11863          	bne	sp,t4,105c4 <fail>

00010598 <test_37>:
   10598:	000030b3          	snez	ra,zero
   1059c:	00000e93          	li	t4,0
   105a0:	02500193          	li	gp,37
   105a4:	03d09063          	bne	ra,t4,105c4 <fail>

000105a8 <test_38>:
   105a8:	01000093          	li	ra,16
   105ac:	01e00113          	li	sp,30
   105b0:	0020b033          	sltu	zero,ra,sp
   105b4:	00000e93          	li	t4,0
   105b8:	02600193          	li	gp,38
   105bc:	01d01463          	bne	zero,t4,105c4 <fail>
   105c0:	00301c63          	bne	zero,gp,105d8 <pass>

000105c4 <fail>:
   105c4:	0ff0000f          	fence
   105c8:	00018063          	beqz	gp,105c8 <fail+0x4>
   105cc:	00119193          	slli	gp,gp,0x1
   105d0:	0011e193          	ori	gp,gp,1
   105d4:	00000073          	ecall

000105d8 <pass>:
   105d8:	0ff0000f          	fence
   105dc:	00100193          	li	gp,1
   105e0:	00000073          	ecall
   105e4:	c0001073          	unimp
   105e8:	0000                	unimp
   105ea:	0000                	unimp
   105ec:	0000                	unimp
   105ee:	0000                	unimp
   105f0:	0000                	unimp
   105f2:	0000                	unimp
   105f4:	0000                	unimp
   105f6:	0000                	unimp
   105f8:	0000                	unimp
   105fa:	0000                	unimp
   105fc:	0000                	unimp
   105fe:	0000                	unimp
   10600:	0000                	unimp
   10602:	0000                	unimp
