
rv32ui-p-ori:     file format elf32-littleriscv


Disassembly of section .text.init:

00010000 <_start>:
   10000:	04c0006f          	j	1004c <reset_vector>

00010004 <trap_vector>:
   10004:	34202f73          	csrr	t5,mcause
   10008:	00800f93          	li	t6,8
   1000c:	03ff0a63          	beq	t5,t6,10040 <write_tohost>
   10010:	00900f93          	li	t6,9
   10014:	03ff0663          	beq	t5,t6,10040 <write_tohost>
   10018:	00b00f93          	li	t6,11
   1001c:	03ff0263          	beq	t5,t6,10040 <write_tohost>
   10020:	ffff0f17          	auipc	t5,0xffff0
   10024:	fe0f0f13          	addi	t5,t5,-32 # 0 <_start-0x10000>
   10028:	000f0463          	beqz	t5,10030 <trap_vector+0x2c>
   1002c:	000f0067          	jr	t5
   10030:	34202f73          	csrr	t5,mcause
   10034:	000f5463          	bgez	t5,1003c <handle_exception>
   10038:	0040006f          	j	1003c <handle_exception>

0001003c <handle_exception>:
   1003c:	5391e193          	ori	gp,gp,1337

00010040 <write_tohost>:
   10040:	00001f17          	auipc	t5,0x1
   10044:	fc3f2023          	sw	gp,-64(t5) # 11000 <tohost>
   10048:	ff9ff06f          	j	10040 <write_tohost>

0001004c <reset_vector>:
   1004c:	f1402573          	csrr	a0,mhartid
   10050:	00051063          	bnez	a0,10050 <reset_vector+0x4>
   10054:	00000297          	auipc	t0,0x0
   10058:	01028293          	addi	t0,t0,16 # 10064 <reset_vector+0x18>
   1005c:	30529073          	csrw	mtvec,t0
   10060:	18005073          	csrwi	satp,0
   10064:	00000297          	auipc	t0,0x0
   10068:	01c28293          	addi	t0,t0,28 # 10080 <reset_vector+0x34>
   1006c:	30529073          	csrw	mtvec,t0
   10070:	fff00293          	li	t0,-1
   10074:	3b029073          	csrw	pmpaddr0,t0
   10078:	01f00293          	li	t0,31
   1007c:	3a029073          	csrw	pmpcfg0,t0
   10080:	00000297          	auipc	t0,0x0
   10084:	01828293          	addi	t0,t0,24 # 10098 <reset_vector+0x4c>
   10088:	30529073          	csrw	mtvec,t0
   1008c:	30205073          	csrwi	medeleg,0
   10090:	30305073          	csrwi	mideleg,0
   10094:	30405073          	csrwi	mie,0
   10098:	00000193          	li	gp,0
   1009c:	00000297          	auipc	t0,0x0
   100a0:	f6828293          	addi	t0,t0,-152 # 10004 <trap_vector>
   100a4:	30529073          	csrw	mtvec,t0
   100a8:	00100513          	li	a0,1
   100ac:	01f51513          	slli	a0,a0,0x1f
   100b0:	00054863          	bltz	a0,100c0 <reset_vector+0x74>
   100b4:	0ff0000f          	fence
   100b8:	00100193          	li	gp,1
   100bc:	00000073          	ecall
   100c0:	ffff0297          	auipc	t0,0xffff0
   100c4:	f4028293          	addi	t0,t0,-192 # 0 <_start-0x10000>
   100c8:	00028e63          	beqz	t0,100e4 <reset_vector+0x98>
   100cc:	10529073          	csrw	stvec,t0
   100d0:	0000b2b7          	lui	t0,0xb
   100d4:	10928293          	addi	t0,t0,265 # b109 <_start-0x4ef7>
   100d8:	30229073          	csrw	medeleg,t0
   100dc:	30202373          	csrr	t1,medeleg
   100e0:	f4629ee3          	bne	t0,t1,1003c <handle_exception>
   100e4:	30005073          	csrwi	mstatus,0
   100e8:	00000297          	auipc	t0,0x0
   100ec:	01428293          	addi	t0,t0,20 # 100fc <test_2>
   100f0:	34129073          	csrw	mepc,t0
   100f4:	f1402573          	csrr	a0,mhartid
   100f8:	30200073          	mret

000100fc <test_2>:
   100fc:	ff0100b7          	lui	ra,0xff010
   10100:	f0008093          	addi	ra,ra,-256 # ff00ff00 <_end+0xfeffdf00>
   10104:	f0f0ef13          	ori	t5,ra,-241
   10108:	f0f00e93          	li	t4,-241
   1010c:	00200193          	li	gp,2
   10110:	1ddf1463          	bne	t5,t4,102d8 <fail>

00010114 <test_3>:
   10114:	0ff010b7          	lui	ra,0xff01
   10118:	ff008093          	addi	ra,ra,-16 # ff00ff0 <_end+0xfeeeff0>
   1011c:	0f00ef13          	ori	t5,ra,240
   10120:	0ff01eb7          	lui	t4,0xff01
   10124:	ff0e8e93          	addi	t4,t4,-16 # ff00ff0 <_end+0xfeeeff0>
   10128:	00300193          	li	gp,3
   1012c:	1bdf1663          	bne	t5,t4,102d8 <fail>

00010130 <test_4>:
   10130:	00ff00b7          	lui	ra,0xff0
   10134:	0ff08093          	addi	ra,ra,255 # ff00ff <_end+0xfde0ff>
   10138:	70f0ef13          	ori	t5,ra,1807
   1013c:	00ff0eb7          	lui	t4,0xff0
   10140:	7ffe8e93          	addi	t4,t4,2047 # ff07ff <_end+0xfde7ff>
   10144:	00400193          	li	gp,4
   10148:	19df1863          	bne	t5,t4,102d8 <fail>

0001014c <test_5>:
   1014c:	f00ff0b7          	lui	ra,0xf00ff
   10150:	00f08093          	addi	ra,ra,15 # f00ff00f <_end+0xf00ed00f>
   10154:	0f00ef13          	ori	t5,ra,240
   10158:	f00ffeb7          	lui	t4,0xf00ff
   1015c:	0ffe8e93          	addi	t4,t4,255 # f00ff0ff <_end+0xf00ed0ff>
   10160:	00500193          	li	gp,5
   10164:	17df1a63          	bne	t5,t4,102d8 <fail>

00010168 <test_6>:
   10168:	ff0100b7          	lui	ra,0xff010
   1016c:	f0008093          	addi	ra,ra,-256 # ff00ff00 <_end+0xfeffdf00>
   10170:	0f00e093          	ori	ra,ra,240
   10174:	ff010eb7          	lui	t4,0xff010
   10178:	ff0e8e93          	addi	t4,t4,-16 # ff00fff0 <_end+0xfeffdff0>
   1017c:	00600193          	li	gp,6
   10180:	15d09c63          	bne	ra,t4,102d8 <fail>

00010184 <test_7>:
   10184:	00000213          	li	tp,0
   10188:	0ff010b7          	lui	ra,0xff01
   1018c:	ff008093          	addi	ra,ra,-16 # ff00ff0 <_end+0xfeeeff0>
   10190:	0f00ef13          	ori	t5,ra,240
   10194:	000f0313          	mv	t1,t5
   10198:	00120213          	addi	tp,tp,1 # 1 <_start-0xffff>
   1019c:	00200293          	li	t0,2
   101a0:	fe5214e3          	bne	tp,t0,10188 <test_7+0x4>
   101a4:	0ff01eb7          	lui	t4,0xff01
   101a8:	ff0e8e93          	addi	t4,t4,-16 # ff00ff0 <_end+0xfeeeff0>
   101ac:	00700193          	li	gp,7
   101b0:	13d31463          	bne	t1,t4,102d8 <fail>

000101b4 <test_8>:
   101b4:	00000213          	li	tp,0
   101b8:	00ff00b7          	lui	ra,0xff0
   101bc:	0ff08093          	addi	ra,ra,255 # ff00ff <_end+0xfde0ff>
   101c0:	70f0ef13          	ori	t5,ra,1807
   101c4:	00000013          	nop
   101c8:	000f0313          	mv	t1,t5
   101cc:	00120213          	addi	tp,tp,1 # 1 <_start-0xffff>
   101d0:	00200293          	li	t0,2
   101d4:	fe5212e3          	bne	tp,t0,101b8 <test_8+0x4>
   101d8:	00ff0eb7          	lui	t4,0xff0
   101dc:	7ffe8e93          	addi	t4,t4,2047 # ff07ff <_end+0xfde7ff>
   101e0:	00800193          	li	gp,8
   101e4:	0fd31a63          	bne	t1,t4,102d8 <fail>

000101e8 <test_9>:
   101e8:	00000213          	li	tp,0
   101ec:	f00ff0b7          	lui	ra,0xf00ff
   101f0:	00f08093          	addi	ra,ra,15 # f00ff00f <_end+0xf00ed00f>
   101f4:	0f00ef13          	ori	t5,ra,240
   101f8:	00000013          	nop
   101fc:	00000013          	nop
   10200:	000f0313          	mv	t1,t5
   10204:	00120213          	addi	tp,tp,1 # 1 <_start-0xffff>
   10208:	00200293          	li	t0,2
   1020c:	fe5210e3          	bne	tp,t0,101ec <test_9+0x4>
   10210:	f00ffeb7          	lui	t4,0xf00ff
   10214:	0ffe8e93          	addi	t4,t4,255 # f00ff0ff <_end+0xf00ed0ff>
   10218:	00900193          	li	gp,9
   1021c:	0bd31e63          	bne	t1,t4,102d8 <fail>

00010220 <test_10>:
   10220:	00000213          	li	tp,0
   10224:	0ff010b7          	lui	ra,0xff01
   10228:	ff008093          	addi	ra,ra,-16 # ff00ff0 <_end+0xfeeeff0>
   1022c:	0f00ef13          	ori	t5,ra,240
   10230:	00120213          	addi	tp,tp,1 # 1 <_start-0xffff>
   10234:	00200293          	li	t0,2
   10238:	fe5216e3          	bne	tp,t0,10224 <test_10+0x4>
   1023c:	0ff01eb7          	lui	t4,0xff01
   10240:	ff0e8e93          	addi	t4,t4,-16 # ff00ff0 <_end+0xfeeeff0>
   10244:	00a00193          	li	gp,10
   10248:	09df1863          	bne	t5,t4,102d8 <fail>

0001024c <test_11>:
   1024c:	00000213          	li	tp,0
   10250:	00ff00b7          	lui	ra,0xff0
   10254:	0ff08093          	addi	ra,ra,255 # ff00ff <_end+0xfde0ff>
   10258:	00000013          	nop
   1025c:	f0f0ef13          	ori	t5,ra,-241
   10260:	00120213          	addi	tp,tp,1 # 1 <_start-0xffff>
   10264:	00200293          	li	t0,2
   10268:	fe5214e3          	bne	tp,t0,10250 <test_11+0x4>
   1026c:	fff00e93          	li	t4,-1
   10270:	00b00193          	li	gp,11
   10274:	07df1263          	bne	t5,t4,102d8 <fail>

00010278 <test_12>:
   10278:	00000213          	li	tp,0
   1027c:	f00ff0b7          	lui	ra,0xf00ff
   10280:	00f08093          	addi	ra,ra,15 # f00ff00f <_end+0xf00ed00f>
   10284:	00000013          	nop
   10288:	00000013          	nop
   1028c:	0f00ef13          	ori	t5,ra,240
   10290:	00120213          	addi	tp,tp,1 # 1 <_start-0xffff>
   10294:	00200293          	li	t0,2
   10298:	fe5212e3          	bne	tp,t0,1027c <test_12+0x4>
   1029c:	f00ffeb7          	lui	t4,0xf00ff
   102a0:	0ffe8e93          	addi	t4,t4,255 # f00ff0ff <_end+0xf00ed0ff>
   102a4:	00c00193          	li	gp,12
   102a8:	03df1863          	bne	t5,t4,102d8 <fail>

000102ac <test_13>:
   102ac:	0f006093          	ori	ra,zero,240
   102b0:	0f000e93          	li	t4,240
   102b4:	00d00193          	li	gp,13
   102b8:	03d09063          	bne	ra,t4,102d8 <fail>

000102bc <test_14>:
   102bc:	00ff00b7          	lui	ra,0xff0
   102c0:	0ff08093          	addi	ra,ra,255 # ff00ff <_end+0xfde0ff>
   102c4:	70f0e013          	ori	zero,ra,1807
   102c8:	00000e93          	li	t4,0
   102cc:	00e00193          	li	gp,14
   102d0:	01d01463          	bne	zero,t4,102d8 <fail>
   102d4:	00301c63          	bne	zero,gp,102ec <pass>

000102d8 <fail>:
   102d8:	0ff0000f          	fence
   102dc:	00018063          	beqz	gp,102dc <fail+0x4>
   102e0:	00119193          	slli	gp,gp,0x1
   102e4:	0011e193          	ori	gp,gp,1
   102e8:	00000073          	ecall

000102ec <pass>:
   102ec:	0ff0000f          	fence
   102f0:	00100193          	li	gp,1
   102f4:	00000073          	ecall
   102f8:	c0001073          	unimp
   102fc:	0000                	unimp
   102fe:	0000                	unimp
   10300:	0000                	unimp
   10302:	0000                	unimp
