
rv32mi-p-illegal:     file format elf32-littleriscv


Disassembly of section .text.init:

00010000 <_start>:
   10000:	04c0006f          	j	1004c <reset_vector>

00010004 <trap_vector>:
   10004:	34202f73          	csrr	t5,mcause
   10008:	00800f93          	li	t6,8
   1000c:	03ff0a63          	beq	t5,t6,10040 <write_tohost>
   10010:	00900f93          	li	t6,9
   10014:	03ff0663          	beq	t5,t6,10040 <write_tohost>
   10018:	00b00f93          	li	t6,11
   1001c:	03ff0263          	beq	t5,t6,10040 <write_tohost>
   10020:	00000f17          	auipc	t5,0x0
   10024:	2e0f0f13          	addi	t5,t5,736 # 10300 <mtvec_handler>
   10028:	000f0463          	beqz	t5,10030 <trap_vector+0x2c>
   1002c:	000f0067          	jr	t5
   10030:	34202f73          	csrr	t5,mcause
   10034:	000f5463          	bgez	t5,1003c <handle_exception>
   10038:	0040006f          	j	1003c <handle_exception>

0001003c <handle_exception>:
   1003c:	5391e193          	ori	gp,gp,1337

00010040 <write_tohost>:
   10040:	00001f17          	auipc	t5,0x1
   10044:	fc3f2023          	sw	gp,-64(t5) # 11000 <tohost>
   10048:	ff9ff06f          	j	10040 <write_tohost>

0001004c <reset_vector>:
   1004c:	f1402573          	csrr	a0,mhartid
   10050:	00051063          	bnez	a0,10050 <reset_vector+0x4>
   10054:	00000297          	auipc	t0,0x0
   10058:	01028293          	addi	t0,t0,16 # 10064 <reset_vector+0x18>
   1005c:	30529073          	csrw	mtvec,t0
   10060:	18005073          	csrwi	satp,0
   10064:	00000297          	auipc	t0,0x0
   10068:	01c28293          	addi	t0,t0,28 # 10080 <reset_vector+0x34>
   1006c:	30529073          	csrw	mtvec,t0
   10070:	fff00293          	li	t0,-1
   10074:	3b029073          	csrw	pmpaddr0,t0
   10078:	01f00293          	li	t0,31
   1007c:	3a029073          	csrw	pmpcfg0,t0
   10080:	00000297          	auipc	t0,0x0
   10084:	01828293          	addi	t0,t0,24 # 10098 <reset_vector+0x4c>
   10088:	30529073          	csrw	mtvec,t0
   1008c:	30205073          	csrwi	medeleg,0
   10090:	30305073          	csrwi	mideleg,0
   10094:	30405073          	csrwi	mie,0
   10098:	00000193          	li	gp,0
   1009c:	00000297          	auipc	t0,0x0
   100a0:	f6828293          	addi	t0,t0,-152 # 10004 <trap_vector>
   100a4:	30529073          	csrw	mtvec,t0
   100a8:	00100513          	li	a0,1
   100ac:	01f51513          	slli	a0,a0,0x1f
   100b0:	00054863          	bltz	a0,100c0 <reset_vector+0x74>
   100b4:	0ff0000f          	fence
   100b8:	00100193          	li	gp,1
   100bc:	00000073          	ecall
   100c0:	ffff0297          	auipc	t0,0xffff0
   100c4:	f4028293          	addi	t0,t0,-192 # 0 <_start-0x10000>
   100c8:	00028e63          	beqz	t0,100e4 <reset_vector+0x98>
   100cc:	10529073          	csrw	stvec,t0
   100d0:	0000b2b7          	lui	t0,0xb
   100d4:	10928293          	addi	t0,t0,265 # b109 <_start-0x4ef7>
   100d8:	30229073          	csrw	medeleg,t0
   100dc:	30202373          	csrr	t1,medeleg
   100e0:	f4629ee3          	bne	t0,t1,1003c <handle_exception>
   100e4:	30005073          	csrwi	mstatus,0
   100e8:	00002537          	lui	a0,0x2
   100ec:	80050513          	addi	a0,a0,-2048 # 1800 <_start-0xe800>
   100f0:	30052073          	csrs	mstatus,a0
   100f4:	00000297          	auipc	t0,0x0
   100f8:	01428293          	addi	t0,t0,20 # 10108 <reset_vector+0xbc>
   100fc:	34129073          	csrw	mepc,t0
   10100:	f1402573          	csrr	a0,mhartid
   10104:	30200073          	mret
   10108:	00200193          	li	gp,2

0001010c <bad2>:
   1010c:	0000                	unimp
   1010e:	0000                	unimp
   10110:	0f40006f          	j	10204 <fail>
   10114:	000022b7          	lui	t0,0x2
   10118:	80028293          	addi	t0,t0,-2048 # 1800 <_start-0xe800>
   1011c:	3002b073          	csrc	mstatus,t0
   10120:	00001337          	lui	t1,0x1
   10124:	80030313          	addi	t1,t1,-2048 # 800 <_start-0xf800>
   10128:	30032073          	csrs	mstatus,t1
   1012c:	300023f3          	csrr	t2,mstatus
   10130:	0053f3b3          	and	t2,t2,t0
   10134:	0e731263          	bne	t1,t2,10218 <pass>

00010138 <test_vectored_interrupts>:
   10138:	34415073          	csrwi	mip,2
   1013c:	30415073          	csrwi	mie,2
   10140:	00000297          	auipc	t0,0x0
   10144:	1c128293          	addi	t0,t0,449 # 10301 <mtvec_handler+0x1>
   10148:	30529473          	csrrw	s0,mtvec,t0
   1014c:	305022f3          	csrr	t0,mtvec
   10150:	0012f293          	andi	t0,t0,1
   10154:	00028663          	beqz	t0,10160 <msip>
   10158:	30046073          	csrsi	mstatus,8
   1015c:	0000006f          	j	1015c <test_vectored_interrupts+0x24>

00010160 <msip>:
   10160:	30541073          	csrw	mtvec,s0
   10164:	30315073          	csrwi	mideleg,2
   10168:	00000297          	auipc	t0,0x0
   1016c:	02828293          	addi	t0,t0,40 # 10190 <msip+0x30>
   10170:	34129073          	csrw	mepc,t0
   10174:	000022b7          	lui	t0,0x2
   10178:	80028293          	addi	t0,t0,-2048 # 1800 <_start-0xe800>
   1017c:	3002b073          	csrc	mstatus,t0
   10180:	00001337          	lui	t1,0x1
   10184:	80030313          	addi	t1,t1,-2048 # 800 <_start-0xf800>
   10188:	30032073          	csrs	mstatus,t1
   1018c:	30200073          	mret
   10190:	10500073          	wfi

00010194 <bad3>:
   10194:	0000                	unimp
   10196:	0000                	unimp
   10198:	06c0006f          	j	10204 <fail>

0001019c <bad4>:
   1019c:	10500073          	wfi
   101a0:	0640006f          	j	10204 <fail>
   101a4:	12000073          	sfence.vma
   101a8:	180022f3          	csrr	t0,satp

000101ac <bad5>:
   101ac:	0000                	unimp
   101ae:	0000                	unimp
   101b0:	0540006f          	j	10204 <fail>

000101b4 <bad6>:
   101b4:	12000073          	sfence.vma
   101b8:	04c0006f          	j	10204 <fail>

000101bc <bad7>:
   101bc:	180022f3          	csrr	t0,satp
   101c0:	0440006f          	j	10204 <fail>
   101c4:	00000297          	auipc	t0,0x0
   101c8:	02028293          	addi	t0,t0,32 # 101e4 <bad8>
   101cc:	14129073          	csrw	sepc,t0
   101d0:	10000293          	li	t0,256
   101d4:	1002a073          	csrs	sstatus,t0
   101d8:	02000293          	li	t0,32
   101dc:	1002b073          	csrc	sstatus,t0
   101e0:	10200073          	sret

000101e4 <bad8>:
   101e4:	0000                	unimp
   101e6:	0000                	unimp
   101e8:	01c0006f          	j	10204 <fail>
   101ec:	00000297          	auipc	t0,0x0
   101f0:	01028293          	addi	t0,t0,16 # 101fc <bad9+0x4>
   101f4:	14129073          	csrw	sepc,t0

000101f8 <bad9>:
   101f8:	10200073          	sret
   101fc:	0080006f          	j	10204 <fail>
   10200:	00301c63          	bne	zero,gp,10218 <pass>

00010204 <fail>:
   10204:	0ff0000f          	fence
   10208:	00018063          	beqz	gp,10208 <fail+0x4>
   1020c:	00119193          	slli	gp,gp,0x1
   10210:	0011e193          	ori	gp,gp,1
   10214:	00000073          	ecall

00010218 <pass>:
   10218:	0ff0000f          	fence
   1021c:	00100193          	li	gp,1
   10220:	00000073          	ecall
   10224:	00000013          	nop
   10228:	00000013          	nop
   1022c:	00000013          	nop
   10230:	00000013          	nop
   10234:	00000013          	nop
   10238:	00000013          	nop
   1023c:	00000013          	nop
   10240:	00000013          	nop
   10244:	00000013          	nop
   10248:	00000013          	nop
   1024c:	00000013          	nop
   10250:	00000013          	nop
   10254:	00000013          	nop
   10258:	00000013          	nop
   1025c:	00000013          	nop
   10260:	00000013          	nop
   10264:	00000013          	nop
   10268:	00000013          	nop
   1026c:	00000013          	nop
   10270:	00000013          	nop
   10274:	00000013          	nop
   10278:	00000013          	nop
   1027c:	00000013          	nop
   10280:	00000013          	nop
   10284:	00000013          	nop
   10288:	00000013          	nop
   1028c:	00000013          	nop
   10290:	00000013          	nop
   10294:	00000013          	nop
   10298:	00000013          	nop
   1029c:	00000013          	nop
   102a0:	00000013          	nop
   102a4:	00000013          	nop
   102a8:	00000013          	nop
   102ac:	00000013          	nop
   102b0:	00000013          	nop
   102b4:	00000013          	nop
   102b8:	00000013          	nop
   102bc:	00000013          	nop
   102c0:	00000013          	nop
   102c4:	00000013          	nop
   102c8:	00000013          	nop
   102cc:	00000013          	nop
   102d0:	00000013          	nop
   102d4:	00000013          	nop
   102d8:	00000013          	nop
   102dc:	00000013          	nop
   102e0:	00000013          	nop
   102e4:	00000013          	nop
   102e8:	00000013          	nop
   102ec:	00000013          	nop
   102f0:	00000013          	nop
   102f4:	00000013          	nop
   102f8:	00000013          	nop
   102fc:	00000013          	nop

00010300 <mtvec_handler>:
   10300:	0400006f          	j	10340 <synchronous_exception>
   10304:	e5dff06f          	j	10160 <msip>
   10308:	efdff06f          	j	10204 <fail>
   1030c:	ef9ff06f          	j	10204 <fail>
   10310:	ef5ff06f          	j	10204 <fail>
   10314:	ef1ff06f          	j	10204 <fail>
   10318:	eedff06f          	j	10204 <fail>
   1031c:	ee9ff06f          	j	10204 <fail>
   10320:	ee5ff06f          	j	10204 <fail>
   10324:	ee1ff06f          	j	10204 <fail>
   10328:	eddff06f          	j	10204 <fail>
   1032c:	ed9ff06f          	j	10204 <fail>
   10330:	ed5ff06f          	j	10204 <fail>
   10334:	ed1ff06f          	j	10204 <fail>
   10338:	ecdff06f          	j	10204 <fail>
   1033c:	ec9ff06f          	j	10204 <fail>

00010340 <synchronous_exception>:
   10340:	00200313          	li	t1,2
   10344:	342022f3          	csrr	t0,mcause
   10348:	ea629ee3          	bne	t0,t1,10204 <fail>
   1034c:	341022f3          	csrr	t0,mepc
   10350:	343023f3          	csrr	t2,mbadaddr
   10354:	00038c63          	beqz	t2,1036c <synchronous_exception+0x2c>
   10358:	0002de03          	lhu	t3,0(t0)
   1035c:	0022de83          	lhu	t4,2(t0)
   10360:	010e9e93          	slli	t4,t4,0x10
   10364:	01de6e33          	or	t3,t3,t4
   10368:	e9c39ee3          	bne	t2,t3,10204 <fail>
   1036c:	00000317          	auipc	t1,0x0
   10370:	da030313          	addi	t1,t1,-608 # 1010c <bad2>
   10374:	04628e63          	beq	t0,t1,103d0 <synchronous_exception+0x90>
   10378:	00000317          	auipc	t1,0x0
   1037c:	e1c30313          	addi	t1,t1,-484 # 10194 <bad3>
   10380:	04628e63          	beq	t0,t1,103dc <synchronous_exception+0x9c>
   10384:	00000317          	auipc	t1,0x0
   10388:	e1830313          	addi	t1,t1,-488 # 1019c <bad4>
   1038c:	04628263          	beq	t0,t1,103d0 <synchronous_exception+0x90>
   10390:	00000317          	auipc	t1,0x0
   10394:	e1c30313          	addi	t1,t1,-484 # 101ac <bad5>
   10398:	04628863          	beq	t0,t1,103e8 <synchronous_exception+0xa8>
   1039c:	00000317          	auipc	t1,0x0
   103a0:	e1830313          	addi	t1,t1,-488 # 101b4 <bad6>
   103a4:	02628663          	beq	t0,t1,103d0 <synchronous_exception+0x90>
   103a8:	00000317          	auipc	t1,0x0
   103ac:	e1430313          	addi	t1,t1,-492 # 101bc <bad7>
   103b0:	02628063          	beq	t0,t1,103d0 <synchronous_exception+0x90>
   103b4:	00000317          	auipc	t1,0x0
   103b8:	e3030313          	addi	t1,t1,-464 # 101e4 <bad8>
   103bc:	02628c63          	beq	t0,t1,103f4 <synchronous_exception+0xb4>
   103c0:	00000317          	auipc	t1,0x0
   103c4:	e3830313          	addi	t1,t1,-456 # 101f8 <bad9>
   103c8:	02628c63          	beq	t0,t1,10400 <synchronous_exception+0xc0>
   103cc:	e39ff06f          	j	10204 <fail>
   103d0:	00828293          	addi	t0,t0,8
   103d4:	34129073          	csrw	mepc,t0
   103d8:	30200073          	mret
   103dc:	00200337          	lui	t1,0x200
   103e0:	30032073          	csrs	mstatus,t1
   103e4:	fedff06f          	j	103d0 <synchronous_exception+0x90>
   103e8:	00100337          	lui	t1,0x100
   103ec:	30032073          	csrs	mstatus,t1
   103f0:	fe1ff06f          	j	103d0 <synchronous_exception+0x90>
   103f4:	00400337          	lui	t1,0x400
   103f8:	30032073          	csrs	mstatus,t1
   103fc:	fd5ff06f          	j	103d0 <synchronous_exception+0x90>
   10400:	fd1ff06f          	j	103d0 <synchronous_exception+0x90>
   10404:	c0001073          	unimp
   10408:	0000                	unimp
   1040a:	0000                	unimp
   1040c:	0000                	unimp
   1040e:	0000                	unimp
   10410:	0000                	unimp
   10412:	0000                	unimp
   10414:	0000                	unimp
   10416:	0000                	unimp
   10418:	0000                	unimp
   1041a:	0000                	unimp
   1041c:	0000                	unimp
   1041e:	0000                	unimp
   10420:	0000                	unimp
   10422:	0000                	unimp
   10424:	0000                	unimp
   10426:	0000                	unimp
   10428:	0000                	unimp
   1042a:	0000                	unimp
   1042c:	0000                	unimp
   1042e:	0000                	unimp
   10430:	0000                	unimp
   10432:	0000                	unimp
   10434:	0000                	unimp
   10436:	0000                	unimp
   10438:	0000                	unimp
   1043a:	0000                	unimp
   1043c:	0000                	unimp
   1043e:	0000                	unimp
   10440:	0000                	unimp
   10442:	0000                	unimp
   10444:	0000                	unimp
   10446:	0000                	unimp
   10448:	0000                	unimp
   1044a:	0000                	unimp
   1044c:	0000                	unimp
   1044e:	0000                	unimp
   10450:	0000                	unimp
   10452:	0000                	unimp
   10454:	0000                	unimp
   10456:	0000                	unimp
   10458:	0000                	unimp
   1045a:	0000                	unimp
   1045c:	0000                	unimp
   1045e:	0000                	unimp
   10460:	0000                	unimp
   10462:	0000                	unimp
   10464:	0000                	unimp
   10466:	0000                	unimp
   10468:	0000                	unimp
   1046a:	0000                	unimp
   1046c:	0000                	unimp
   1046e:	0000                	unimp
   10470:	0000                	unimp
   10472:	0000                	unimp
   10474:	0000                	unimp
   10476:	0000                	unimp
   10478:	0000                	unimp
   1047a:	0000                	unimp
   1047c:	0000                	unimp
   1047e:	0000                	unimp
   10480:	0000                	unimp
   10482:	0000                	unimp
   10484:	0000                	unimp
   10486:	0000                	unimp
   10488:	0000                	unimp
   1048a:	0000                	unimp
   1048c:	0000                	unimp
   1048e:	0000                	unimp
   10490:	0000                	unimp
   10492:	0000                	unimp
   10494:	0000                	unimp
   10496:	0000                	unimp
   10498:	0000                	unimp
   1049a:	0000                	unimp
   1049c:	0000                	unimp
   1049e:	0000                	unimp
   104a0:	0000                	unimp
   104a2:	0000                	unimp
