
rv32uf-p-move:     file format elf32-littleriscv


Disassembly of section .text.init:

00010000 <_start>:
   10000:	04c0006f          	j	1004c <reset_vector>

00010004 <trap_vector>:
   10004:	34202f73          	csrr	t5,mcause
   10008:	00800f93          	li	t6,8
   1000c:	03ff0a63          	beq	t5,t6,10040 <write_tohost>
   10010:	00900f93          	li	t6,9
   10014:	03ff0663          	beq	t5,t6,10040 <write_tohost>
   10018:	00b00f93          	li	t6,11
   1001c:	03ff0263          	beq	t5,t6,10040 <write_tohost>
   10020:	ffff0f17          	auipc	t5,0xffff0
   10024:	fe0f0f13          	addi	t5,t5,-32 # 0 <_start-0x10000>
   10028:	000f0463          	beqz	t5,10030 <trap_vector+0x2c>
   1002c:	000f0067          	jr	t5
   10030:	34202f73          	csrr	t5,mcause
   10034:	000f5463          	bgez	t5,1003c <handle_exception>
   10038:	0040006f          	j	1003c <handle_exception>

0001003c <handle_exception>:
   1003c:	5391e193          	ori	gp,gp,1337

00010040 <write_tohost>:
   10040:	00001f17          	auipc	t5,0x1
   10044:	fc3f2023          	sw	gp,-64(t5) # 11000 <tohost>
   10048:	ff9ff06f          	j	10040 <write_tohost>

0001004c <reset_vector>:
   1004c:	f1402573          	csrr	a0,mhartid
   10050:	00051063          	bnez	a0,10050 <reset_vector+0x4>
   10054:	00000297          	auipc	t0,0x0
   10058:	01028293          	addi	t0,t0,16 # 10064 <reset_vector+0x18>
   1005c:	30529073          	csrw	mtvec,t0
   10060:	18005073          	csrwi	satp,0
   10064:	00000297          	auipc	t0,0x0
   10068:	01c28293          	addi	t0,t0,28 # 10080 <reset_vector+0x34>
   1006c:	30529073          	csrw	mtvec,t0
   10070:	fff00293          	li	t0,-1
   10074:	3b029073          	csrw	pmpaddr0,t0
   10078:	01f00293          	li	t0,31
   1007c:	3a029073          	csrw	pmpcfg0,t0
   10080:	00000297          	auipc	t0,0x0
   10084:	01828293          	addi	t0,t0,24 # 10098 <reset_vector+0x4c>
   10088:	30529073          	csrw	mtvec,t0
   1008c:	30205073          	csrwi	medeleg,0
   10090:	30305073          	csrwi	mideleg,0
   10094:	30405073          	csrwi	mie,0
   10098:	00000193          	li	gp,0
   1009c:	00000297          	auipc	t0,0x0
   100a0:	f6828293          	addi	t0,t0,-152 # 10004 <trap_vector>
   100a4:	30529073          	csrw	mtvec,t0
   100a8:	00100513          	li	a0,1
   100ac:	01f51513          	slli	a0,a0,0x1f
   100b0:	00054863          	bltz	a0,100c0 <reset_vector+0x74>
   100b4:	0ff0000f          	fence
   100b8:	00100193          	li	gp,1
   100bc:	00000073          	ecall
   100c0:	ffff0297          	auipc	t0,0xffff0
   100c4:	f4028293          	addi	t0,t0,-192 # 0 <_start-0x10000>
   100c8:	00028e63          	beqz	t0,100e4 <reset_vector+0x98>
   100cc:	10529073          	csrw	stvec,t0
   100d0:	0000b2b7          	lui	t0,0xb
   100d4:	10928293          	addi	t0,t0,265 # b109 <_start-0x4ef7>
   100d8:	30229073          	csrw	medeleg,t0
   100dc:	30202373          	csrr	t1,medeleg
   100e0:	f4629ee3          	bne	t0,t1,1003c <handle_exception>
   100e4:	30005073          	csrwi	mstatus,0
   100e8:	00002537          	lui	a0,0x2
   100ec:	30052073          	csrs	mstatus,a0
   100f0:	00305073          	csrwi	fcsr,0
   100f4:	00000297          	auipc	t0,0x0
   100f8:	01428293          	addi	t0,t0,20 # 10108 <test_2>
   100fc:	34129073          	csrw	mepc,t0
   10100:	f1402573          	csrr	a0,mhartid
   10104:	30200073          	mret

00010108 <test_2>:
   10108:	0030d073          	csrwi	fcsr,1
   1010c:	00001537          	lui	a0,0x1
   10110:	23450513          	addi	a0,a0,564 # 1234 <_start-0xedcc>
   10114:	003515f3          	fssr	a1,a0
   10118:	00100e93          	li	t4,1
   1011c:	00200193          	li	gp,2
   10120:	27d59c63          	bne	a1,t4,10398 <fail>

00010124 <test_3>:
   10124:	00302573          	frsr	a0
   10128:	03400e93          	li	t4,52
   1012c:	00300193          	li	gp,3
   10130:	27d51463          	bne	a0,t4,10398 <fail>

00010134 <test_4>:
   10134:	00102573          	frflags	a0
   10138:	01400e93          	li	t4,20
   1013c:	00400193          	li	gp,4
   10140:	25d51c63          	bne	a0,t4,10398 <fail>

00010144 <test_5>:
   10144:	00215573          	fsrmi	a0,2
   10148:	00100e93          	li	t4,1
   1014c:	00500193          	li	gp,5
   10150:	25d51463          	bne	a0,t4,10398 <fail>

00010154 <test_6>:
   10154:	00302573          	frsr	a0
   10158:	05400e93          	li	t4,84
   1015c:	00600193          	li	gp,6
   10160:	23d51c63          	bne	a0,t4,10398 <fail>

00010164 <test_7>:
   10164:	00127573          	csrrci	a0,fflags,4
   10168:	01400e93          	li	t4,20
   1016c:	00700193          	li	gp,7
   10170:	23d51463          	bne	a0,t4,10398 <fail>

00010174 <test_8>:
   10174:	00302573          	frsr	a0
   10178:	05000e93          	li	t4,80
   1017c:	00800193          	li	gp,8
   10180:	21d51c63          	bne	a0,t4,10398 <fail>

00010184 <test_10>:
   10184:	123455b7          	lui	a1,0x12345
   10188:	67858593          	addi	a1,a1,1656 # 12345678 <_end+0x12333678>
   1018c:	00000613          	li	a2,0
   10190:	f00580d3          	fmv.w.x	ft1,a1
   10194:	f0060153          	fmv.w.x	ft2,a2
   10198:	20208053          	fsgnj.s	ft0,ft1,ft2
   1019c:	e0000553          	fmv.x.w	a0,ft0
   101a0:	12345eb7          	lui	t4,0x12345
   101a4:	678e8e93          	addi	t4,t4,1656 # 12345678 <_end+0x12333678>
   101a8:	00a00193          	li	gp,10
   101ac:	1fd51663          	bne	a0,t4,10398 <fail>

000101b0 <test_11>:
   101b0:	123455b7          	lui	a1,0x12345
   101b4:	67858593          	addi	a1,a1,1656 # 12345678 <_end+0x12333678>
   101b8:	fff00613          	li	a2,-1
   101bc:	f00580d3          	fmv.w.x	ft1,a1
   101c0:	f0060153          	fmv.w.x	ft2,a2
   101c4:	20208053          	fsgnj.s	ft0,ft1,ft2
   101c8:	e0000553          	fmv.x.w	a0,ft0
   101cc:	92345eb7          	lui	t4,0x92345
   101d0:	678e8e93          	addi	t4,t4,1656 # 92345678 <_end+0x92333678>
   101d4:	00b00193          	li	gp,11
   101d8:	1dd51063          	bne	a0,t4,10398 <fail>

000101dc <test_12>:
   101dc:	923455b7          	lui	a1,0x92345
   101e0:	67858593          	addi	a1,a1,1656 # 92345678 <_end+0x92333678>
   101e4:	00000613          	li	a2,0
   101e8:	f00580d3          	fmv.w.x	ft1,a1
   101ec:	f0060153          	fmv.w.x	ft2,a2
   101f0:	20208053          	fsgnj.s	ft0,ft1,ft2
   101f4:	e0000553          	fmv.x.w	a0,ft0
   101f8:	12345eb7          	lui	t4,0x12345
   101fc:	678e8e93          	addi	t4,t4,1656 # 12345678 <_end+0x12333678>
   10200:	00c00193          	li	gp,12
   10204:	19d51a63          	bne	a0,t4,10398 <fail>

00010208 <test_13>:
   10208:	923455b7          	lui	a1,0x92345
   1020c:	67858593          	addi	a1,a1,1656 # 92345678 <_end+0x92333678>
   10210:	fff00613          	li	a2,-1
   10214:	f00580d3          	fmv.w.x	ft1,a1
   10218:	f0060153          	fmv.w.x	ft2,a2
   1021c:	20208053          	fsgnj.s	ft0,ft1,ft2
   10220:	e0000553          	fmv.x.w	a0,ft0
   10224:	92345eb7          	lui	t4,0x92345
   10228:	678e8e93          	addi	t4,t4,1656 # 92345678 <_end+0x92333678>
   1022c:	00d00193          	li	gp,13
   10230:	17d51463          	bne	a0,t4,10398 <fail>

00010234 <test_20>:
   10234:	123455b7          	lui	a1,0x12345
   10238:	67858593          	addi	a1,a1,1656 # 12345678 <_end+0x12333678>
   1023c:	00000613          	li	a2,0
   10240:	f00580d3          	fmv.w.x	ft1,a1
   10244:	f0060153          	fmv.w.x	ft2,a2
   10248:	20209053          	fsgnjn.s	ft0,ft1,ft2
   1024c:	e0000553          	fmv.x.w	a0,ft0
   10250:	92345eb7          	lui	t4,0x92345
   10254:	678e8e93          	addi	t4,t4,1656 # 92345678 <_end+0x92333678>
   10258:	01400193          	li	gp,20
   1025c:	13d51e63          	bne	a0,t4,10398 <fail>

00010260 <test_21>:
   10260:	123455b7          	lui	a1,0x12345
   10264:	67858593          	addi	a1,a1,1656 # 12345678 <_end+0x12333678>
   10268:	fff00613          	li	a2,-1
   1026c:	f00580d3          	fmv.w.x	ft1,a1
   10270:	f0060153          	fmv.w.x	ft2,a2
   10274:	20209053          	fsgnjn.s	ft0,ft1,ft2
   10278:	e0000553          	fmv.x.w	a0,ft0
   1027c:	12345eb7          	lui	t4,0x12345
   10280:	678e8e93          	addi	t4,t4,1656 # 12345678 <_end+0x12333678>
   10284:	01500193          	li	gp,21
   10288:	11d51863          	bne	a0,t4,10398 <fail>

0001028c <test_22>:
   1028c:	923455b7          	lui	a1,0x92345
   10290:	67858593          	addi	a1,a1,1656 # 92345678 <_end+0x92333678>
   10294:	00000613          	li	a2,0
   10298:	f00580d3          	fmv.w.x	ft1,a1
   1029c:	f0060153          	fmv.w.x	ft2,a2
   102a0:	20209053          	fsgnjn.s	ft0,ft1,ft2
   102a4:	e0000553          	fmv.x.w	a0,ft0
   102a8:	92345eb7          	lui	t4,0x92345
   102ac:	678e8e93          	addi	t4,t4,1656 # 92345678 <_end+0x92333678>
   102b0:	01600193          	li	gp,22
   102b4:	0fd51263          	bne	a0,t4,10398 <fail>

000102b8 <test_23>:
   102b8:	923455b7          	lui	a1,0x92345
   102bc:	67858593          	addi	a1,a1,1656 # 92345678 <_end+0x92333678>
   102c0:	fff00613          	li	a2,-1
   102c4:	f00580d3          	fmv.w.x	ft1,a1
   102c8:	f0060153          	fmv.w.x	ft2,a2
   102cc:	20209053          	fsgnjn.s	ft0,ft1,ft2
   102d0:	e0000553          	fmv.x.w	a0,ft0
   102d4:	12345eb7          	lui	t4,0x12345
   102d8:	678e8e93          	addi	t4,t4,1656 # 12345678 <_end+0x12333678>
   102dc:	01700193          	li	gp,23
   102e0:	0bd51c63          	bne	a0,t4,10398 <fail>

000102e4 <test_30>:
   102e4:	123455b7          	lui	a1,0x12345
   102e8:	67858593          	addi	a1,a1,1656 # 12345678 <_end+0x12333678>
   102ec:	00000613          	li	a2,0
   102f0:	f00580d3          	fmv.w.x	ft1,a1
   102f4:	f0060153          	fmv.w.x	ft2,a2
   102f8:	2020a053          	fsgnjx.s	ft0,ft1,ft2
   102fc:	e0000553          	fmv.x.w	a0,ft0
   10300:	12345eb7          	lui	t4,0x12345
   10304:	678e8e93          	addi	t4,t4,1656 # 12345678 <_end+0x12333678>
   10308:	01e00193          	li	gp,30
   1030c:	09d51663          	bne	a0,t4,10398 <fail>

00010310 <test_31>:
   10310:	123455b7          	lui	a1,0x12345
   10314:	67858593          	addi	a1,a1,1656 # 12345678 <_end+0x12333678>
   10318:	fff00613          	li	a2,-1
   1031c:	f00580d3          	fmv.w.x	ft1,a1
   10320:	f0060153          	fmv.w.x	ft2,a2
   10324:	2020a053          	fsgnjx.s	ft0,ft1,ft2
   10328:	e0000553          	fmv.x.w	a0,ft0
   1032c:	92345eb7          	lui	t4,0x92345
   10330:	678e8e93          	addi	t4,t4,1656 # 92345678 <_end+0x92333678>
   10334:	01f00193          	li	gp,31
   10338:	07d51063          	bne	a0,t4,10398 <fail>

0001033c <test_32>:
   1033c:	923455b7          	lui	a1,0x92345
   10340:	67858593          	addi	a1,a1,1656 # 92345678 <_end+0x92333678>
   10344:	00000613          	li	a2,0
   10348:	f00580d3          	fmv.w.x	ft1,a1
   1034c:	f0060153          	fmv.w.x	ft2,a2
   10350:	2020a053          	fsgnjx.s	ft0,ft1,ft2
   10354:	e0000553          	fmv.x.w	a0,ft0
   10358:	92345eb7          	lui	t4,0x92345
   1035c:	678e8e93          	addi	t4,t4,1656 # 92345678 <_end+0x92333678>
   10360:	02000193          	li	gp,32
   10364:	03d51a63          	bne	a0,t4,10398 <fail>

00010368 <test_33>:
   10368:	923455b7          	lui	a1,0x92345
   1036c:	67858593          	addi	a1,a1,1656 # 92345678 <_end+0x92333678>
   10370:	fff00613          	li	a2,-1
   10374:	f00580d3          	fmv.w.x	ft1,a1
   10378:	f0060153          	fmv.w.x	ft2,a2
   1037c:	2020a053          	fsgnjx.s	ft0,ft1,ft2
   10380:	e0000553          	fmv.x.w	a0,ft0
   10384:	12345eb7          	lui	t4,0x12345
   10388:	678e8e93          	addi	t4,t4,1656 # 12345678 <_end+0x12333678>
   1038c:	02100193          	li	gp,33
   10390:	01d51463          	bne	a0,t4,10398 <fail>
   10394:	00301c63          	bne	zero,gp,103ac <pass>

00010398 <fail>:
   10398:	0ff0000f          	fence
   1039c:	00018063          	beqz	gp,1039c <fail+0x4>
   103a0:	00119193          	slli	gp,gp,0x1
   103a4:	0011e193          	ori	gp,gp,1
   103a8:	00000073          	ecall

000103ac <pass>:
   103ac:	0ff0000f          	fence
   103b0:	00100193          	li	gp,1
   103b4:	00000073          	ecall
   103b8:	c0001073          	unimp
   103bc:	0000                	unimp
   103be:	0000                	unimp
   103c0:	0000                	unimp
   103c2:	0000                	unimp
