
rv32si-p-csr:     file format elf32-littleriscv


Disassembly of section .text.init:

00010000 <_start>:
   10000:	04c0006f          	j	1004c <reset_vector>

00010004 <trap_vector>:
   10004:	34202f73          	csrr	t5,mcause
   10008:	00800f93          	li	t6,8
   1000c:	03ff0a63          	beq	t5,t6,10040 <write_tohost>
   10010:	00900f93          	li	t6,9
   10014:	03ff0663          	beq	t5,t6,10040 <write_tohost>
   10018:	00b00f93          	li	t6,11
   1001c:	03ff0263          	beq	t5,t6,10040 <write_tohost>
   10020:	ffff0f17          	auipc	t5,0xffff0
   10024:	fe0f0f13          	addi	t5,t5,-32 # 0 <_start-0x10000>
   10028:	000f0463          	beqz	t5,10030 <trap_vector+0x2c>
   1002c:	000f0067          	jr	t5
   10030:	34202f73          	csrr	t5,mcause
   10034:	000f5463          	bgez	t5,1003c <handle_exception>
   10038:	0040006f          	j	1003c <handle_exception>

0001003c <handle_exception>:
   1003c:	5391e193          	ori	gp,gp,1337

00010040 <write_tohost>:
   10040:	00001f17          	auipc	t5,0x1
   10044:	fc3f2023          	sw	gp,-64(t5) # 11000 <tohost>
   10048:	ff9ff06f          	j	10040 <write_tohost>

0001004c <reset_vector>:
   1004c:	f1402573          	csrr	a0,mhartid
   10050:	00051063          	bnez	a0,10050 <reset_vector+0x4>
   10054:	00000297          	auipc	t0,0x0
   10058:	01028293          	addi	t0,t0,16 # 10064 <reset_vector+0x18>
   1005c:	30529073          	csrw	mtvec,t0
   10060:	18005073          	csrwi	satp,0
   10064:	00000297          	auipc	t0,0x0
   10068:	01c28293          	addi	t0,t0,28 # 10080 <reset_vector+0x34>
   1006c:	30529073          	csrw	mtvec,t0
   10070:	fff00293          	li	t0,-1
   10074:	3b029073          	csrw	pmpaddr0,t0
   10078:	01f00293          	li	t0,31
   1007c:	3a029073          	csrw	pmpcfg0,t0
   10080:	00000297          	auipc	t0,0x0
   10084:	01828293          	addi	t0,t0,24 # 10098 <reset_vector+0x4c>
   10088:	30529073          	csrw	mtvec,t0
   1008c:	30205073          	csrwi	medeleg,0
   10090:	30305073          	csrwi	mideleg,0
   10094:	30405073          	csrwi	mie,0
   10098:	00000193          	li	gp,0
   1009c:	00000297          	auipc	t0,0x0
   100a0:	f6828293          	addi	t0,t0,-152 # 10004 <trap_vector>
   100a4:	30529073          	csrw	mtvec,t0
   100a8:	00100513          	li	a0,1
   100ac:	01f51513          	slli	a0,a0,0x1f
   100b0:	00054863          	bltz	a0,100c0 <reset_vector+0x74>
   100b4:	0ff0000f          	fence
   100b8:	00100193          	li	gp,1
   100bc:	00000073          	ecall
   100c0:	00000297          	auipc	t0,0x0
   100c4:	14c28293          	addi	t0,t0,332 # 1020c <stvec_handler>
   100c8:	00028e63          	beqz	t0,100e4 <reset_vector+0x98>
   100cc:	10529073          	csrw	stvec,t0
   100d0:	0000b2b7          	lui	t0,0xb
   100d4:	10928293          	addi	t0,t0,265 # b109 <_start-0x4ef7>
   100d8:	30229073          	csrw	medeleg,t0
   100dc:	30202373          	csrr	t1,medeleg
   100e0:	f4629ee3          	bne	t0,t1,1003c <handle_exception>
   100e4:	30005073          	csrwi	mstatus,0
   100e8:	00001537          	lui	a0,0x1
   100ec:	80050513          	addi	a0,a0,-2048 # 800 <_start-0xf800>
   100f0:	30052073          	csrs	mstatus,a0
   100f4:	02200513          	li	a0,34
   100f8:	30352073          	csrs	mideleg,a0
   100fc:	00000297          	auipc	t0,0x0
   10100:	01428293          	addi	t0,t0,20 # 10110 <reset_vector+0xc4>
   10104:	34129073          	csrw	mepc,t0
   10108:	f1402573          	csrr	a0,mhartid
   1010c:	30200073          	mret
   10110:	1401d073          	csrwi	sscratch,3

00010114 <test_2>:
   10114:	14002573          	csrr	a0,sscratch
   10118:	00300e93          	li	t4,3
   1011c:	00200193          	li	gp,2
   10120:	0dd51663          	bne	a0,t4,101ec <fail>

00010124 <test_3>:
   10124:	1400f5f3          	csrrci	a1,sscratch,1
   10128:	00300e93          	li	t4,3
   1012c:	00300193          	li	gp,3
   10130:	0bd59e63          	bne	a1,t4,101ec <fail>

00010134 <test_4>:
   10134:	14026673          	csrrsi	a2,sscratch,4
   10138:	00200e93          	li	t4,2
   1013c:	00400193          	li	gp,4
   10140:	0bd61663          	bne	a2,t4,101ec <fail>

00010144 <test_5>:
   10144:	140156f3          	csrrwi	a3,sscratch,2
   10148:	00600e93          	li	t4,6
   1014c:	00500193          	li	gp,5
   10150:	09d69e63          	bne	a3,t4,101ec <fail>

00010154 <test_6>:
   10154:	0bad2537          	lui	a0,0xbad2
   10158:	dea50513          	addi	a0,a0,-534 # bad1dea <_end+0xbabfdda>
   1015c:	140515f3          	csrrw	a1,sscratch,a0
   10160:	00200e93          	li	t4,2
   10164:	00600193          	li	gp,6
   10168:	09d59263          	bne	a1,t4,101ec <fail>

0001016c <test_7>:
   1016c:	00002537          	lui	a0,0x2
   10170:	dea50513          	addi	a0,a0,-534 # 1dea <_start-0xe216>
   10174:	14053573          	csrrc	a0,sscratch,a0
   10178:	0bad2eb7          	lui	t4,0xbad2
   1017c:	deae8e93          	addi	t4,t4,-534 # bad1dea <_end+0xbabfdda>
   10180:	00700193          	li	gp,7
   10184:	07d51463          	bne	a0,t4,101ec <fail>

00010188 <test_8>:
   10188:	0000c537          	lui	a0,0xc
   1018c:	eef50513          	addi	a0,a0,-273 # beef <_start-0x4111>
   10190:	14052573          	csrrs	a0,sscratch,a0
   10194:	0bad0eb7          	lui	t4,0xbad0
   10198:	00800193          	li	gp,8
   1019c:	05d51863          	bne	a0,t4,101ec <fail>

000101a0 <test_9>:
   101a0:	14002573          	csrr	a0,sscratch
   101a4:	0badceb7          	lui	t4,0xbadc
   101a8:	eefe8e93          	addi	t4,t4,-273 # badbeef <_end+0xbac9edf>
   101ac:	00900193          	li	gp,9
   101b0:	03d51e63          	bne	a0,t4,101ec <fail>
   101b4:	10000293          	li	t0,256
   101b8:	1002b073          	csrc	sstatus,t0
   101bc:	00000297          	auipc	t0,0x0
   101c0:	01028293          	addi	t0,t0,16 # 101cc <test_12>
   101c4:	14129073          	csrw	sepc,t0
   101c8:	10200073          	sret

000101cc <test_12>:
   101cc:	00000013          	nop
   101d0:	00000e93          	li	t4,0
   101d4:	00c00193          	li	gp,12
   101d8:	01d01a63          	bne	zero,t4,101ec <fail>

000101dc <finish>:
   101dc:	0ff0000f          	fence
   101e0:	00100193          	li	gp,1
   101e4:	00000073          	ecall
   101e8:	00301c63          	bne	zero,gp,10200 <pass>

000101ec <fail>:
   101ec:	0ff0000f          	fence
   101f0:	00018063          	beqz	gp,101f0 <fail+0x4>
   101f4:	00119193          	slli	gp,gp,0x1
   101f8:	0011e193          	ori	gp,gp,1
   101fc:	00000073          	ecall

00010200 <pass>:
   10200:	0ff0000f          	fence
   10204:	00100193          	li	gp,1
   10208:	00000073          	ecall

0001020c <stvec_handler>:
   1020c:	00900293          	li	t0,9
   10210:	0051e663          	bltu	gp,t0,1021c <stvec_handler+0x10>
   10214:	00b00293          	li	t0,11
   10218:	0032fe63          	bleu	gp,t0,10234 <privileged>
   1021c:	142022f3          	csrr	t0,scause
   10220:	00800313          	li	t1,8
   10224:	fc6294e3          	bne	t0,t1,101ec <fail>
   10228:	0ff0000f          	fence
   1022c:	00100193          	li	gp,1
   10230:	00000073          	ecall

00010234 <privileged>:
   10234:	142022f3          	csrr	t0,scause
   10238:	00200313          	li	t1,2
   1023c:	fa6298e3          	bne	t0,t1,101ec <fail>
   10240:	141022f3          	csrr	t0,sepc
   10244:	00428293          	addi	t0,t0,4
   10248:	14129073          	csrw	sepc,t0
   1024c:	10200073          	sret
   10250:	c0001073          	unimp
   10254:	0000                	unimp
   10256:	0000                	unimp
   10258:	0000                	unimp
   1025a:	0000                	unimp
   1025c:	0000                	unimp
   1025e:	0000                	unimp
   10260:	0000                	unimp
   10262:	0000                	unimp
   10264:	0000                	unimp
   10266:	0000                	unimp
   10268:	0000                	unimp
   1026a:	0000                	unimp
   1026c:	0000                	unimp
   1026e:	0000                	unimp
   10270:	0000                	unimp
   10272:	0000                	unimp
   10274:	0000                	unimp
   10276:	0000                	unimp
   10278:	0000                	unimp
   1027a:	0000                	unimp
   1027c:	0000                	unimp
   1027e:	0000                	unimp
   10280:	0000                	unimp
   10282:	0000                	unimp
