
rv32mi-p-ma_addr:     file format elf32-littleriscv


Disassembly of section .text.init:

00010000 <_start>:
   10000:	04c0006f          	j	1004c <reset_vector>

00010004 <trap_vector>:
   10004:	34202f73          	csrr	t5,mcause
   10008:	00800f93          	li	t6,8
   1000c:	03ff0a63          	beq	t5,t6,10040 <write_tohost>
   10010:	00900f93          	li	t6,9
   10014:	03ff0663          	beq	t5,t6,10040 <write_tohost>
   10018:	00b00f93          	li	t6,11
   1001c:	03ff0263          	beq	t5,t6,10040 <write_tohost>
   10020:	00000f17          	auipc	t5,0x0
   10024:	290f0f13          	addi	t5,t5,656 # 102b0 <mtvec_handler>
   10028:	000f0463          	beqz	t5,10030 <trap_vector+0x2c>
   1002c:	000f0067          	jr	t5
   10030:	34202f73          	csrr	t5,mcause
   10034:	000f5463          	bgez	t5,1003c <handle_exception>
   10038:	0040006f          	j	1003c <handle_exception>

0001003c <handle_exception>:
   1003c:	5391e193          	ori	gp,gp,1337

00010040 <write_tohost>:
   10040:	00001f17          	auipc	t5,0x1
   10044:	fc3f2023          	sw	gp,-64(t5) # 11000 <tohost>
   10048:	ff9ff06f          	j	10040 <write_tohost>

0001004c <reset_vector>:
   1004c:	f1402573          	csrr	a0,mhartid
   10050:	00051063          	bnez	a0,10050 <reset_vector+0x4>
   10054:	00000297          	auipc	t0,0x0
   10058:	01028293          	addi	t0,t0,16 # 10064 <reset_vector+0x18>
   1005c:	30529073          	csrw	mtvec,t0
   10060:	18005073          	csrwi	satp,0
   10064:	00000297          	auipc	t0,0x0
   10068:	01c28293          	addi	t0,t0,28 # 10080 <reset_vector+0x34>
   1006c:	30529073          	csrw	mtvec,t0
   10070:	fff00293          	li	t0,-1
   10074:	3b029073          	csrw	pmpaddr0,t0
   10078:	01f00293          	li	t0,31
   1007c:	3a029073          	csrw	pmpcfg0,t0
   10080:	00000297          	auipc	t0,0x0
   10084:	01828293          	addi	t0,t0,24 # 10098 <reset_vector+0x4c>
   10088:	30529073          	csrw	mtvec,t0
   1008c:	30205073          	csrwi	medeleg,0
   10090:	30305073          	csrwi	mideleg,0
   10094:	30405073          	csrwi	mie,0
   10098:	00000193          	li	gp,0
   1009c:	00000297          	auipc	t0,0x0
   100a0:	f6828293          	addi	t0,t0,-152 # 10004 <trap_vector>
   100a4:	30529073          	csrw	mtvec,t0
   100a8:	00100513          	li	a0,1
   100ac:	01f51513          	slli	a0,a0,0x1f
   100b0:	00054863          	bltz	a0,100c0 <reset_vector+0x74>
   100b4:	0ff0000f          	fence
   100b8:	00100193          	li	gp,1
   100bc:	00000073          	ecall
   100c0:	ffff0297          	auipc	t0,0xffff0
   100c4:	f4028293          	addi	t0,t0,-192 # 0 <_start-0x10000>
   100c8:	00028e63          	beqz	t0,100e4 <reset_vector+0x98>
   100cc:	10529073          	csrw	stvec,t0
   100d0:	0000b2b7          	lui	t0,0xb
   100d4:	10928293          	addi	t0,t0,265 # b109 <_start-0x4ef7>
   100d8:	30229073          	csrw	medeleg,t0
   100dc:	30202373          	csrr	t1,medeleg
   100e0:	f4629ee3          	bne	t0,t1,1003c <handle_exception>
   100e4:	30005073          	csrwi	mstatus,0
   100e8:	00002537          	lui	a0,0x2
   100ec:	80050513          	addi	a0,a0,-2048 # 1800 <_start-0xe800>
   100f0:	30052073          	csrs	mstatus,a0
   100f4:	00000297          	auipc	t0,0x0
   100f8:	01428293          	addi	t0,t0,20 # 10108 <reset_vector+0xbc>
   100fc:	34129073          	csrw	mepc,t0
   10100:	f1402573          	csrr	a0,mhartid
   10104:	30200073          	mret
   10108:	00002417          	auipc	s0,0x2
   1010c:	ef840413          	addi	s0,s0,-264 # 12000 <begin_signature>
   10110:	00400493          	li	s1,4
   10114:	00200193          	li	gp,2
   10118:	00000397          	auipc	t2,0x0
   1011c:	01c38393          	addi	t2,t2,28 # 10134 <reset_vector+0xe8>
   10120:	00140313          	addi	t1,s0,1
   10124:	00141303          	lh	t1,1(s0)
   10128:	ffffc3b7          	lui	t2,0xffffc
   1012c:	bcc38393          	addi	t2,t2,-1076 # ffffbbcc <_end+0xfffe9abc>
   10130:	14731e63          	bne	t1,t2,1028c <fail>
   10134:	00300193          	li	gp,3
   10138:	00000397          	auipc	t2,0x0
   1013c:	01c38393          	addi	t2,t2,28 # 10154 <reset_vector+0x108>
   10140:	00140313          	addi	t1,s0,1
   10144:	00145303          	lhu	t1,1(s0)
   10148:	0000c3b7          	lui	t2,0xc
   1014c:	bcc38393          	addi	t2,t2,-1076 # bbcc <_start-0x4434>
   10150:	12731e63          	bne	t1,t2,1028c <fail>
   10154:	00400193          	li	gp,4
   10158:	00000397          	auipc	t2,0x0
   1015c:	01c38393          	addi	t2,t2,28 # 10174 <reset_vector+0x128>
   10160:	00140313          	addi	t1,s0,1
   10164:	00142303          	lw	t1,1(s0)
   10168:	99aac3b7          	lui	t2,0x99aac
   1016c:	bcc38393          	addi	t2,t2,-1076 # 99aabbcc <_end+0x99a99abc>
   10170:	10731e63          	bne	t1,t2,1028c <fail>
   10174:	00500193          	li	gp,5
   10178:	00000397          	auipc	t2,0x0
   1017c:	01c38393          	addi	t2,t2,28 # 10194 <reset_vector+0x148>
   10180:	00240313          	addi	t1,s0,2
   10184:	00242303          	lw	t1,2(s0)
   10188:	8899b3b7          	lui	t2,0x8899b
   1018c:	abb38393          	addi	t2,t2,-1349 # 8899aabb <_end+0x889889ab>
   10190:	0e731e63          	bne	t1,t2,1028c <fail>
   10194:	00600193          	li	gp,6
   10198:	00000397          	auipc	t2,0x0
   1019c:	01c38393          	addi	t2,t2,28 # 101b4 <reset_vector+0x168>
   101a0:	00340313          	addi	t1,s0,3
   101a4:	00342303          	lw	t1,3(s0)
   101a8:	7788a3b7          	lui	t2,0x7788a
   101ac:	9aa38393          	addi	t2,t2,-1622 # 778899aa <_end+0x7787789a>
   101b0:	0c731e63          	bne	t1,t2,1028c <fail>
   101b4:	00600493          	li	s1,6
   101b8:	01600193          	li	gp,22
   101bc:	00000397          	auipc	t2,0x0
   101c0:	03038393          	addi	t2,t2,48 # 101ec <reset_vector+0x1a0>
   101c4:	00140313          	addi	t1,s0,1
   101c8:	000410a3          	sh	zero,1(s0)
   101cc:	00040303          	lb	t1,0(s0)
   101d0:	0a030e63          	beqz	t1,1028c <fail>
   101d4:	00340303          	lb	t1,3(s0)
   101d8:	0a030a63          	beqz	t1,1028c <fail>
   101dc:	00140303          	lb	t1,1(s0)
   101e0:	0a031663          	bnez	t1,1028c <fail>
   101e4:	00240303          	lb	t1,2(s0)
   101e8:	0a031263          	bnez	t1,1028c <fail>
   101ec:	01700193          	li	gp,23
   101f0:	00000397          	auipc	t2,0x0
   101f4:	03038393          	addi	t2,t2,48 # 10220 <reset_vector+0x1d4>
   101f8:	00540313          	addi	t1,s0,5
   101fc:	000422a3          	sw	zero,5(s0)
   10200:	00440303          	lb	t1,4(s0)
   10204:	08030463          	beqz	t1,1028c <fail>
   10208:	00940303          	lb	t1,9(s0)
   1020c:	08030063          	beqz	t1,1028c <fail>
   10210:	00540303          	lb	t1,5(s0)
   10214:	06031c63          	bnez	t1,1028c <fail>
   10218:	00840303          	lb	t1,8(s0)
   1021c:	06031863          	bnez	t1,1028c <fail>
   10220:	01800193          	li	gp,24
   10224:	00000397          	auipc	t2,0x0
   10228:	03038393          	addi	t2,t2,48 # 10254 <reset_vector+0x208>
   1022c:	00a40313          	addi	t1,s0,10
   10230:	00042523          	sw	zero,10(s0)
   10234:	00940303          	lb	t1,9(s0)
   10238:	04030a63          	beqz	t1,1028c <fail>
   1023c:	00e40303          	lb	t1,14(s0)
   10240:	04030663          	beqz	t1,1028c <fail>
   10244:	00a40303          	lb	t1,10(s0)
   10248:	04031263          	bnez	t1,1028c <fail>
   1024c:	00d40303          	lb	t1,13(s0)
   10250:	02031e63          	bnez	t1,1028c <fail>
   10254:	01900193          	li	gp,25
   10258:	00000397          	auipc	t2,0x0
   1025c:	03038393          	addi	t2,t2,48 # 10288 <reset_vector+0x23c>
   10260:	00f40313          	addi	t1,s0,15
   10264:	000427a3          	sw	zero,15(s0)
   10268:	00e40303          	lb	t1,14(s0)
   1026c:	02030063          	beqz	t1,1028c <fail>
   10270:	01340303          	lb	t1,19(s0)
   10274:	00030c63          	beqz	t1,1028c <fail>
   10278:	00f40303          	lb	t1,15(s0)
   1027c:	00031863          	bnez	t1,1028c <fail>
   10280:	01240303          	lb	t1,18(s0)
   10284:	00031463          	bnez	t1,1028c <fail>
   10288:	00301c63          	bne	zero,gp,102a0 <pass>

0001028c <fail>:
   1028c:	0ff0000f          	fence
   10290:	00018063          	beqz	gp,10290 <fail+0x4>
   10294:	00119193          	slli	gp,gp,0x1
   10298:	0011e193          	ori	gp,gp,1
   1029c:	00000073          	ecall

000102a0 <pass>:
   102a0:	0ff0000f          	fence
   102a4:	00100193          	li	gp,1
   102a8:	00000073          	ecall
   102ac:	00000013          	nop

000102b0 <mtvec_handler>:
   102b0:	342022f3          	csrr	t0,mcause
   102b4:	fc929ce3          	bne	t0,s1,1028c <fail>
   102b8:	343022f3          	csrr	t0,mbadaddr
   102bc:	fc6298e3          	bne	t0,t1,1028c <fail>
   102c0:	00028283          	lb	t0,0(t0)
   102c4:	fc0284e3          	beqz	t0,1028c <fail>
   102c8:	34139073          	csrw	mepc,t2
   102cc:	30200073          	mret
   102d0:	c0001073          	unimp
   102d4:	0000                	unimp
   102d6:	0000                	unimp
   102d8:	0000                	unimp
   102da:	0000                	unimp
   102dc:	0000                	unimp
   102de:	0000                	unimp
   102e0:	0000                	unimp
   102e2:	0000                	unimp
   102e4:	0000                	unimp
   102e6:	0000                	unimp
   102e8:	0000                	unimp
   102ea:	0000                	unimp
   102ec:	0000                	unimp
   102ee:	0000                	unimp
   102f0:	0000                	unimp
   102f2:	0000                	unimp
   102f4:	0000                	unimp
   102f6:	0000                	unimp
   102f8:	0000                	unimp
   102fa:	0000                	unimp
   102fc:	0000                	unimp
   102fe:	0000                	unimp
   10300:	0000                	unimp
   10302:	0000                	unimp
