
rv32ud-p-fmin:     file format elf32-littleriscv


Disassembly of section .text.init:

00010000 <_start>:
   10000:	04c0006f          	j	1004c <reset_vector>

00010004 <trap_vector>:
   10004:	34202f73          	csrr	t5,mcause
   10008:	00800f93          	li	t6,8
   1000c:	03ff0a63          	beq	t5,t6,10040 <write_tohost>
   10010:	00900f93          	li	t6,9
   10014:	03ff0663          	beq	t5,t6,10040 <write_tohost>
   10018:	00b00f93          	li	t6,11
   1001c:	03ff0263          	beq	t5,t6,10040 <write_tohost>
   10020:	ffff0f17          	auipc	t5,0xffff0
   10024:	fe0f0f13          	addi	t5,t5,-32 # 0 <_start-0x10000>
   10028:	000f0463          	beqz	t5,10030 <trap_vector+0x2c>
   1002c:	000f0067          	jr	t5
   10030:	34202f73          	csrr	t5,mcause
   10034:	000f5463          	bgez	t5,1003c <handle_exception>
   10038:	0040006f          	j	1003c <handle_exception>

0001003c <handle_exception>:
   1003c:	5391e193          	ori	gp,gp,1337

00010040 <write_tohost>:
   10040:	00001f17          	auipc	t5,0x1
   10044:	fc3f2023          	sw	gp,-64(t5) # 11000 <tohost>
   10048:	ff9ff06f          	j	10040 <write_tohost>

0001004c <reset_vector>:
   1004c:	f1402573          	csrr	a0,mhartid
   10050:	00051063          	bnez	a0,10050 <reset_vector+0x4>
   10054:	00000297          	auipc	t0,0x0
   10058:	01028293          	addi	t0,t0,16 # 10064 <reset_vector+0x18>
   1005c:	30529073          	csrw	mtvec,t0
   10060:	18005073          	csrwi	satp,0
   10064:	00000297          	auipc	t0,0x0
   10068:	01c28293          	addi	t0,t0,28 # 10080 <reset_vector+0x34>
   1006c:	30529073          	csrw	mtvec,t0
   10070:	fff00293          	li	t0,-1
   10074:	3b029073          	csrw	pmpaddr0,t0
   10078:	01f00293          	li	t0,31
   1007c:	3a029073          	csrw	pmpcfg0,t0
   10080:	00000297          	auipc	t0,0x0
   10084:	01828293          	addi	t0,t0,24 # 10098 <reset_vector+0x4c>
   10088:	30529073          	csrw	mtvec,t0
   1008c:	30205073          	csrwi	medeleg,0
   10090:	30305073          	csrwi	mideleg,0
   10094:	30405073          	csrwi	mie,0
   10098:	00000193          	li	gp,0
   1009c:	00000297          	auipc	t0,0x0
   100a0:	f6828293          	addi	t0,t0,-152 # 10004 <trap_vector>
   100a4:	30529073          	csrw	mtvec,t0
   100a8:	00100513          	li	a0,1
   100ac:	01f51513          	slli	a0,a0,0x1f
   100b0:	00054863          	bltz	a0,100c0 <reset_vector+0x74>
   100b4:	0ff0000f          	fence
   100b8:	00100193          	li	gp,1
   100bc:	00000073          	ecall
   100c0:	ffff0297          	auipc	t0,0xffff0
   100c4:	f4028293          	addi	t0,t0,-192 # 0 <_start-0x10000>
   100c8:	00028e63          	beqz	t0,100e4 <reset_vector+0x98>
   100cc:	10529073          	csrw	stvec,t0
   100d0:	0000b2b7          	lui	t0,0xb
   100d4:	10928293          	addi	t0,t0,265 # b109 <_start-0x4ef7>
   100d8:	30229073          	csrw	medeleg,t0
   100dc:	30202373          	csrr	t1,medeleg
   100e0:	f4629ee3          	bne	t0,t1,1003c <handle_exception>
   100e4:	30005073          	csrwi	mstatus,0
   100e8:	00002537          	lui	a0,0x2
   100ec:	30052073          	csrs	mstatus,a0
   100f0:	00305073          	csrwi	fcsr,0
   100f4:	00000297          	auipc	t0,0x0
   100f8:	01428293          	addi	t0,t0,20 # 10108 <test_2>
   100fc:	34129073          	csrw	mepc,t0
   10100:	f1402573          	csrr	a0,mhartid
   10104:	30200073          	mret

00010108 <test_2>:
   10108:	00200193          	li	gp,2
   1010c:	00002517          	auipc	a0,0x2
   10110:	ef450513          	addi	a0,a0,-268 # 12000 <test_2_data>
   10114:	00053007          	fld	ft0,0(a0)
   10118:	00853087          	fld	ft1,8(a0)
   1011c:	01053107          	fld	ft2,16(a0)
   10120:	01852683          	lw	a3,24(a0)
   10124:	01c52303          	lw	t1,28(a0)
   10128:	2a1001d3          	fmin.d	ft3,ft0,ft1
   1012c:	00353027          	fsd	ft3,0(a0)
   10130:	00452383          	lw	t2,4(a0)
   10134:	00052503          	lw	a0,0(a0)
   10138:	001015f3          	fsflags	a1,zero
   1013c:	00000613          	li	a2,0
   10140:	48d51a63          	bne	a0,a3,105d4 <fail>
   10144:	48731863          	bne	t1,t2,105d4 <fail>
   10148:	48c59663          	bne	a1,a2,105d4 <fail>

0001014c <test_3>:
   1014c:	00300193          	li	gp,3
   10150:	00002517          	auipc	a0,0x2
   10154:	ed050513          	addi	a0,a0,-304 # 12020 <test_3_data>
   10158:	00053007          	fld	ft0,0(a0)
   1015c:	00853087          	fld	ft1,8(a0)
   10160:	01053107          	fld	ft2,16(a0)
   10164:	01852683          	lw	a3,24(a0)
   10168:	01c52303          	lw	t1,28(a0)
   1016c:	2a1001d3          	fmin.d	ft3,ft0,ft1
   10170:	00353027          	fsd	ft3,0(a0)
   10174:	00452383          	lw	t2,4(a0)
   10178:	00052503          	lw	a0,0(a0)
   1017c:	001015f3          	fsflags	a1,zero
   10180:	00000613          	li	a2,0
   10184:	44d51863          	bne	a0,a3,105d4 <fail>
   10188:	44731663          	bne	t1,t2,105d4 <fail>
   1018c:	44c59463          	bne	a1,a2,105d4 <fail>

00010190 <test_4>:
   10190:	00400193          	li	gp,4
   10194:	00002517          	auipc	a0,0x2
   10198:	eac50513          	addi	a0,a0,-340 # 12040 <test_4_data>
   1019c:	00053007          	fld	ft0,0(a0)
   101a0:	00853087          	fld	ft1,8(a0)
   101a4:	01053107          	fld	ft2,16(a0)
   101a8:	01852683          	lw	a3,24(a0)
   101ac:	01c52303          	lw	t1,28(a0)
   101b0:	2a1001d3          	fmin.d	ft3,ft0,ft1
   101b4:	00353027          	fsd	ft3,0(a0)
   101b8:	00452383          	lw	t2,4(a0)
   101bc:	00052503          	lw	a0,0(a0)
   101c0:	001015f3          	fsflags	a1,zero
   101c4:	00000613          	li	a2,0
   101c8:	40d51663          	bne	a0,a3,105d4 <fail>
   101cc:	40731463          	bne	t1,t2,105d4 <fail>
   101d0:	40c59263          	bne	a1,a2,105d4 <fail>

000101d4 <test_5>:
   101d4:	00500193          	li	gp,5
   101d8:	00002517          	auipc	a0,0x2
   101dc:	e8850513          	addi	a0,a0,-376 # 12060 <test_5_data>
   101e0:	00053007          	fld	ft0,0(a0)
   101e4:	00853087          	fld	ft1,8(a0)
   101e8:	01053107          	fld	ft2,16(a0)
   101ec:	01852683          	lw	a3,24(a0)
   101f0:	01c52303          	lw	t1,28(a0)
   101f4:	2a1001d3          	fmin.d	ft3,ft0,ft1
   101f8:	00353027          	fsd	ft3,0(a0)
   101fc:	00452383          	lw	t2,4(a0)
   10200:	00052503          	lw	a0,0(a0)
   10204:	001015f3          	fsflags	a1,zero
   10208:	00000613          	li	a2,0
   1020c:	3cd51463          	bne	a0,a3,105d4 <fail>
   10210:	3c731263          	bne	t1,t2,105d4 <fail>
   10214:	3cc59063          	bne	a1,a2,105d4 <fail>

00010218 <test_6>:
   10218:	00600193          	li	gp,6
   1021c:	00002517          	auipc	a0,0x2
   10220:	e6450513          	addi	a0,a0,-412 # 12080 <test_6_data>
   10224:	00053007          	fld	ft0,0(a0)
   10228:	00853087          	fld	ft1,8(a0)
   1022c:	01053107          	fld	ft2,16(a0)
   10230:	01852683          	lw	a3,24(a0)
   10234:	01c52303          	lw	t1,28(a0)
   10238:	2a1001d3          	fmin.d	ft3,ft0,ft1
   1023c:	00353027          	fsd	ft3,0(a0)
   10240:	00452383          	lw	t2,4(a0)
   10244:	00052503          	lw	a0,0(a0)
   10248:	001015f3          	fsflags	a1,zero
   1024c:	00000613          	li	a2,0
   10250:	38d51263          	bne	a0,a3,105d4 <fail>
   10254:	38731063          	bne	t1,t2,105d4 <fail>
   10258:	36c59e63          	bne	a1,a2,105d4 <fail>

0001025c <test_7>:
   1025c:	00700193          	li	gp,7
   10260:	00002517          	auipc	a0,0x2
   10264:	e4050513          	addi	a0,a0,-448 # 120a0 <test_7_data>
   10268:	00053007          	fld	ft0,0(a0)
   1026c:	00853087          	fld	ft1,8(a0)
   10270:	01053107          	fld	ft2,16(a0)
   10274:	01852683          	lw	a3,24(a0)
   10278:	01c52303          	lw	t1,28(a0)
   1027c:	2a1001d3          	fmin.d	ft3,ft0,ft1
   10280:	00353027          	fsd	ft3,0(a0)
   10284:	00452383          	lw	t2,4(a0)
   10288:	00052503          	lw	a0,0(a0)
   1028c:	001015f3          	fsflags	a1,zero
   10290:	00000613          	li	a2,0
   10294:	34d51063          	bne	a0,a3,105d4 <fail>
   10298:	32731e63          	bne	t1,t2,105d4 <fail>
   1029c:	32c59c63          	bne	a1,a2,105d4 <fail>

000102a0 <test_12>:
   102a0:	00c00193          	li	gp,12
   102a4:	00002517          	auipc	a0,0x2
   102a8:	e1c50513          	addi	a0,a0,-484 # 120c0 <test_12_data>
   102ac:	00053007          	fld	ft0,0(a0)
   102b0:	00853087          	fld	ft1,8(a0)
   102b4:	01053107          	fld	ft2,16(a0)
   102b8:	01852683          	lw	a3,24(a0)
   102bc:	01c52303          	lw	t1,28(a0)
   102c0:	2a1011d3          	fmax.d	ft3,ft0,ft1
   102c4:	00353027          	fsd	ft3,0(a0)
   102c8:	00452383          	lw	t2,4(a0)
   102cc:	00052503          	lw	a0,0(a0)
   102d0:	001015f3          	fsflags	a1,zero
   102d4:	00000613          	li	a2,0
   102d8:	2ed51e63          	bne	a0,a3,105d4 <fail>
   102dc:	2e731c63          	bne	t1,t2,105d4 <fail>
   102e0:	2ec59a63          	bne	a1,a2,105d4 <fail>

000102e4 <test_13>:
   102e4:	00d00193          	li	gp,13
   102e8:	00002517          	auipc	a0,0x2
   102ec:	df850513          	addi	a0,a0,-520 # 120e0 <test_13_data>
   102f0:	00053007          	fld	ft0,0(a0)
   102f4:	00853087          	fld	ft1,8(a0)
   102f8:	01053107          	fld	ft2,16(a0)
   102fc:	01852683          	lw	a3,24(a0)
   10300:	01c52303          	lw	t1,28(a0)
   10304:	2a1011d3          	fmax.d	ft3,ft0,ft1
   10308:	00353027          	fsd	ft3,0(a0)
   1030c:	00452383          	lw	t2,4(a0)
   10310:	00052503          	lw	a0,0(a0)
   10314:	001015f3          	fsflags	a1,zero
   10318:	00000613          	li	a2,0
   1031c:	2ad51c63          	bne	a0,a3,105d4 <fail>
   10320:	2a731a63          	bne	t1,t2,105d4 <fail>
   10324:	2ac59863          	bne	a1,a2,105d4 <fail>

00010328 <test_14>:
   10328:	00e00193          	li	gp,14
   1032c:	00002517          	auipc	a0,0x2
   10330:	dd450513          	addi	a0,a0,-556 # 12100 <test_14_data>
   10334:	00053007          	fld	ft0,0(a0)
   10338:	00853087          	fld	ft1,8(a0)
   1033c:	01053107          	fld	ft2,16(a0)
   10340:	01852683          	lw	a3,24(a0)
   10344:	01c52303          	lw	t1,28(a0)
   10348:	2a1011d3          	fmax.d	ft3,ft0,ft1
   1034c:	00353027          	fsd	ft3,0(a0)
   10350:	00452383          	lw	t2,4(a0)
   10354:	00052503          	lw	a0,0(a0)
   10358:	001015f3          	fsflags	a1,zero
   1035c:	00000613          	li	a2,0
   10360:	26d51a63          	bne	a0,a3,105d4 <fail>
   10364:	26731863          	bne	t1,t2,105d4 <fail>
   10368:	26c59663          	bne	a1,a2,105d4 <fail>

0001036c <test_15>:
   1036c:	00f00193          	li	gp,15
   10370:	00002517          	auipc	a0,0x2
   10374:	db050513          	addi	a0,a0,-592 # 12120 <test_15_data>
   10378:	00053007          	fld	ft0,0(a0)
   1037c:	00853087          	fld	ft1,8(a0)
   10380:	01053107          	fld	ft2,16(a0)
   10384:	01852683          	lw	a3,24(a0)
   10388:	01c52303          	lw	t1,28(a0)
   1038c:	2a1011d3          	fmax.d	ft3,ft0,ft1
   10390:	00353027          	fsd	ft3,0(a0)
   10394:	00452383          	lw	t2,4(a0)
   10398:	00052503          	lw	a0,0(a0)
   1039c:	001015f3          	fsflags	a1,zero
   103a0:	00000613          	li	a2,0
   103a4:	22d51863          	bne	a0,a3,105d4 <fail>
   103a8:	22731663          	bne	t1,t2,105d4 <fail>
   103ac:	22c59463          	bne	a1,a2,105d4 <fail>

000103b0 <test_16>:
   103b0:	01000193          	li	gp,16
   103b4:	00002517          	auipc	a0,0x2
   103b8:	d8c50513          	addi	a0,a0,-628 # 12140 <test_16_data>
   103bc:	00053007          	fld	ft0,0(a0)
   103c0:	00853087          	fld	ft1,8(a0)
   103c4:	01053107          	fld	ft2,16(a0)
   103c8:	01852683          	lw	a3,24(a0)
   103cc:	01c52303          	lw	t1,28(a0)
   103d0:	2a1011d3          	fmax.d	ft3,ft0,ft1
   103d4:	00353027          	fsd	ft3,0(a0)
   103d8:	00452383          	lw	t2,4(a0)
   103dc:	00052503          	lw	a0,0(a0)
   103e0:	001015f3          	fsflags	a1,zero
   103e4:	00000613          	li	a2,0
   103e8:	1ed51663          	bne	a0,a3,105d4 <fail>
   103ec:	1e731463          	bne	t1,t2,105d4 <fail>
   103f0:	1ec59263          	bne	a1,a2,105d4 <fail>

000103f4 <test_17>:
   103f4:	01100193          	li	gp,17
   103f8:	00002517          	auipc	a0,0x2
   103fc:	d6850513          	addi	a0,a0,-664 # 12160 <test_17_data>
   10400:	00053007          	fld	ft0,0(a0)
   10404:	00853087          	fld	ft1,8(a0)
   10408:	01053107          	fld	ft2,16(a0)
   1040c:	01852683          	lw	a3,24(a0)
   10410:	01c52303          	lw	t1,28(a0)
   10414:	2a1011d3          	fmax.d	ft3,ft0,ft1
   10418:	00353027          	fsd	ft3,0(a0)
   1041c:	00452383          	lw	t2,4(a0)
   10420:	00052503          	lw	a0,0(a0)
   10424:	001015f3          	fsflags	a1,zero
   10428:	00000613          	li	a2,0
   1042c:	1ad51463          	bne	a0,a3,105d4 <fail>
   10430:	1a731263          	bne	t1,t2,105d4 <fail>
   10434:	1ac59063          	bne	a1,a2,105d4 <fail>

00010438 <test_20>:
   10438:	01400193          	li	gp,20
   1043c:	00002517          	auipc	a0,0x2
   10440:	d4450513          	addi	a0,a0,-700 # 12180 <test_20_data>
   10444:	00053007          	fld	ft0,0(a0)
   10448:	00853087          	fld	ft1,8(a0)
   1044c:	01053107          	fld	ft2,16(a0)
   10450:	01852683          	lw	a3,24(a0)
   10454:	01c52303          	lw	t1,28(a0)
   10458:	2a1011d3          	fmax.d	ft3,ft0,ft1
   1045c:	00353027          	fsd	ft3,0(a0)
   10460:	00452383          	lw	t2,4(a0)
   10464:	00052503          	lw	a0,0(a0)
   10468:	001015f3          	fsflags	a1,zero
   1046c:	01000613          	li	a2,16
   10470:	16d51263          	bne	a0,a3,105d4 <fail>
   10474:	16731063          	bne	t1,t2,105d4 <fail>
   10478:	14c59e63          	bne	a1,a2,105d4 <fail>

0001047c <test_21>:
   1047c:	01500193          	li	gp,21
   10480:	00002517          	auipc	a0,0x2
   10484:	d2050513          	addi	a0,a0,-736 # 121a0 <test_21_data>
   10488:	00053007          	fld	ft0,0(a0)
   1048c:	00853087          	fld	ft1,8(a0)
   10490:	01053107          	fld	ft2,16(a0)
   10494:	01852683          	lw	a3,24(a0)
   10498:	01c52303          	lw	t1,28(a0)
   1049c:	2a1011d3          	fmax.d	ft3,ft0,ft1
   104a0:	00353027          	fsd	ft3,0(a0)
   104a4:	00452383          	lw	t2,4(a0)
   104a8:	00052503          	lw	a0,0(a0)
   104ac:	001015f3          	fsflags	a1,zero
   104b0:	00000613          	li	a2,0
   104b4:	12d51063          	bne	a0,a3,105d4 <fail>
   104b8:	10731e63          	bne	t1,t2,105d4 <fail>
   104bc:	10c59c63          	bne	a1,a2,105d4 <fail>

000104c0 <test_30>:
   104c0:	01e00193          	li	gp,30
   104c4:	00002517          	auipc	a0,0x2
   104c8:	cfc50513          	addi	a0,a0,-772 # 121c0 <test_30_data>
   104cc:	00053007          	fld	ft0,0(a0)
   104d0:	00853087          	fld	ft1,8(a0)
   104d4:	01053107          	fld	ft2,16(a0)
   104d8:	01852683          	lw	a3,24(a0)
   104dc:	01c52303          	lw	t1,28(a0)
   104e0:	2a1001d3          	fmin.d	ft3,ft0,ft1
   104e4:	00353027          	fsd	ft3,0(a0)
   104e8:	00452383          	lw	t2,4(a0)
   104ec:	00052503          	lw	a0,0(a0)
   104f0:	001015f3          	fsflags	a1,zero
   104f4:	00000613          	li	a2,0
   104f8:	0cd51e63          	bne	a0,a3,105d4 <fail>
   104fc:	0c731c63          	bne	t1,t2,105d4 <fail>
   10500:	0cc59a63          	bne	a1,a2,105d4 <fail>

00010504 <test_31>:
   10504:	01f00193          	li	gp,31
   10508:	00002517          	auipc	a0,0x2
   1050c:	cd850513          	addi	a0,a0,-808 # 121e0 <test_31_data>
   10510:	00053007          	fld	ft0,0(a0)
   10514:	00853087          	fld	ft1,8(a0)
   10518:	01053107          	fld	ft2,16(a0)
   1051c:	01852683          	lw	a3,24(a0)
   10520:	01c52303          	lw	t1,28(a0)
   10524:	2a1001d3          	fmin.d	ft3,ft0,ft1
   10528:	00353027          	fsd	ft3,0(a0)
   1052c:	00452383          	lw	t2,4(a0)
   10530:	00052503          	lw	a0,0(a0)
   10534:	001015f3          	fsflags	a1,zero
   10538:	00000613          	li	a2,0
   1053c:	08d51c63          	bne	a0,a3,105d4 <fail>
   10540:	08731a63          	bne	t1,t2,105d4 <fail>
   10544:	08c59863          	bne	a1,a2,105d4 <fail>

00010548 <test_32>:
   10548:	02000193          	li	gp,32
   1054c:	00002517          	auipc	a0,0x2
   10550:	cb450513          	addi	a0,a0,-844 # 12200 <test_32_data>
   10554:	00053007          	fld	ft0,0(a0)
   10558:	00853087          	fld	ft1,8(a0)
   1055c:	01053107          	fld	ft2,16(a0)
   10560:	01852683          	lw	a3,24(a0)
   10564:	01c52303          	lw	t1,28(a0)
   10568:	2a1011d3          	fmax.d	ft3,ft0,ft1
   1056c:	00353027          	fsd	ft3,0(a0)
   10570:	00452383          	lw	t2,4(a0)
   10574:	00052503          	lw	a0,0(a0)
   10578:	001015f3          	fsflags	a1,zero
   1057c:	00000613          	li	a2,0
   10580:	04d51a63          	bne	a0,a3,105d4 <fail>
   10584:	04731863          	bne	t1,t2,105d4 <fail>
   10588:	04c59663          	bne	a1,a2,105d4 <fail>

0001058c <test_33>:
   1058c:	02100193          	li	gp,33
   10590:	00002517          	auipc	a0,0x2
   10594:	c9050513          	addi	a0,a0,-880 # 12220 <test_33_data>
   10598:	00053007          	fld	ft0,0(a0)
   1059c:	00853087          	fld	ft1,8(a0)
   105a0:	01053107          	fld	ft2,16(a0)
   105a4:	01852683          	lw	a3,24(a0)
   105a8:	01c52303          	lw	t1,28(a0)
   105ac:	2a1011d3          	fmax.d	ft3,ft0,ft1
   105b0:	00353027          	fsd	ft3,0(a0)
   105b4:	00452383          	lw	t2,4(a0)
   105b8:	00052503          	lw	a0,0(a0)
   105bc:	001015f3          	fsflags	a1,zero
   105c0:	00000613          	li	a2,0
   105c4:	00d51863          	bne	a0,a3,105d4 <fail>
   105c8:	00731663          	bne	t1,t2,105d4 <fail>
   105cc:	00c59463          	bne	a1,a2,105d4 <fail>
   105d0:	00301c63          	bne	zero,gp,105e8 <pass>

000105d4 <fail>:
   105d4:	0ff0000f          	fence
   105d8:	00018063          	beqz	gp,105d8 <fail+0x4>
   105dc:	00119193          	slli	gp,gp,0x1
   105e0:	0011e193          	ori	gp,gp,1
   105e4:	00000073          	ecall

000105e8 <pass>:
   105e8:	0ff0000f          	fence
   105ec:	00100193          	li	gp,1
   105f0:	00000073          	ecall
   105f4:	c0001073          	unimp
   105f8:	0000                	unimp
   105fa:	0000                	unimp
   105fc:	0000                	unimp
   105fe:	0000                	unimp
   10600:	0000                	unimp
   10602:	0000                	unimp
