
rv32ua-p-lrsc:     file format elf32-littleriscv


Disassembly of section .text.init:

00010000 <_start>:
   10000:	04c0006f          	j	1004c <reset_vector>

00010004 <trap_vector>:
   10004:	34202f73          	csrr	t5,mcause
   10008:	00800f93          	li	t6,8
   1000c:	03ff0a63          	beq	t5,t6,10040 <write_tohost>
   10010:	00900f93          	li	t6,9
   10014:	03ff0663          	beq	t5,t6,10040 <write_tohost>
   10018:	00b00f93          	li	t6,11
   1001c:	03ff0263          	beq	t5,t6,10040 <write_tohost>
   10020:	ffff0f17          	auipc	t5,0xffff0
   10024:	fe0f0f13          	addi	t5,t5,-32 # 0 <_start-0x10000>
   10028:	000f0463          	beqz	t5,10030 <trap_vector+0x2c>
   1002c:	000f0067          	jr	t5
   10030:	34202f73          	csrr	t5,mcause
   10034:	000f5463          	bgez	t5,1003c <handle_exception>
   10038:	0040006f          	j	1003c <handle_exception>

0001003c <handle_exception>:
   1003c:	5391e193          	ori	gp,gp,1337

00010040 <write_tohost>:
   10040:	00001f17          	auipc	t5,0x1
   10044:	fc3f2023          	sw	gp,-64(t5) # 11000 <tohost>
   10048:	ff9ff06f          	j	10040 <write_tohost>

0001004c <reset_vector>:
   1004c:	f1402573          	csrr	a0,mhartid
   10050:	00051063          	bnez	a0,10050 <reset_vector+0x4>
   10054:	00000297          	auipc	t0,0x0
   10058:	01028293          	addi	t0,t0,16 # 10064 <reset_vector+0x18>
   1005c:	30529073          	csrw	mtvec,t0
   10060:	18005073          	csrwi	satp,0
   10064:	00000297          	auipc	t0,0x0
   10068:	01c28293          	addi	t0,t0,28 # 10080 <reset_vector+0x34>
   1006c:	30529073          	csrw	mtvec,t0
   10070:	fff00293          	li	t0,-1
   10074:	3b029073          	csrw	pmpaddr0,t0
   10078:	01f00293          	li	t0,31
   1007c:	3a029073          	csrw	pmpcfg0,t0
   10080:	00000297          	auipc	t0,0x0
   10084:	01828293          	addi	t0,t0,24 # 10098 <reset_vector+0x4c>
   10088:	30529073          	csrw	mtvec,t0
   1008c:	30205073          	csrwi	medeleg,0
   10090:	30305073          	csrwi	mideleg,0
   10094:	30405073          	csrwi	mie,0
   10098:	00000193          	li	gp,0
   1009c:	00000297          	auipc	t0,0x0
   100a0:	f6828293          	addi	t0,t0,-152 # 10004 <trap_vector>
   100a4:	30529073          	csrw	mtvec,t0
   100a8:	00100513          	li	a0,1
   100ac:	01f51513          	slli	a0,a0,0x1f
   100b0:	00054863          	bltz	a0,100c0 <reset_vector+0x74>
   100b4:	0ff0000f          	fence
   100b8:	00100193          	li	gp,1
   100bc:	00000073          	ecall
   100c0:	ffff0297          	auipc	t0,0xffff0
   100c4:	f4028293          	addi	t0,t0,-192 # 0 <_start-0x10000>
   100c8:	00028e63          	beqz	t0,100e4 <reset_vector+0x98>
   100cc:	10529073          	csrw	stvec,t0
   100d0:	0000b2b7          	lui	t0,0xb
   100d4:	10928293          	addi	t0,t0,265 # b109 <_start-0x4ef7>
   100d8:	30229073          	csrw	medeleg,t0
   100dc:	30202373          	csrr	t1,medeleg
   100e0:	f4629ee3          	bne	t0,t1,1003c <handle_exception>
   100e4:	30005073          	csrwi	mstatus,0
   100e8:	00000297          	auipc	t0,0x0
   100ec:	01428293          	addi	t0,t0,20 # 100fc <reset_vector+0xb0>
   100f0:	34129073          	csrw	mepc,t0
   100f4:	f1402573          	csrr	a0,mhartid
   100f8:	30200073          	mret
   100fc:	00002517          	auipc	a0,0x2
   10100:	f0450513          	addi	a0,a0,-252 # 12000 <begin_signature>
   10104:	00100593          	li	a1,1
   10108:	00b5262f          	amoadd.w	a2,a1,(a0)
   1010c:	00100693          	li	a3,1
   10110:	fed67ee3          	bleu	a3,a2,1010c <reset_vector+0xc0>
   10114:	00052583          	lw	a1,0(a0)
   10118:	fed5eee3          	bltu	a1,a3,10114 <reset_vector+0xc8>

0001011c <test_2>:
   1011c:	00002517          	auipc	a0,0x2
   10120:	eec50513          	addi	a0,a0,-276 # 12008 <foo>
   10124:	1805272f          	sc.w	a4,zero,(a0)
   10128:	00100e93          	li	t4,1
   1012c:	00200193          	li	gp,2
   10130:	09d71a63          	bne	a4,t4,101c4 <fail>

00010134 <test_3>:
   10134:	00002517          	auipc	a0,0x2
   10138:	ed450513          	addi	a0,a0,-300 # 12008 <foo>
   1013c:	00002597          	auipc	a1,0x2
   10140:	2d058593          	addi	a1,a1,720 # 1240c <fooTest3>
   10144:	1005a5af          	lr.w	a1,(a1)
   10148:	18b5272f          	sc.w	a4,a1,(a0)
   1014c:	00100e93          	li	t4,1
   10150:	00300193          	li	gp,3
   10154:	07d71863          	bne	a4,t4,101c4 <fail>
   10158:	00002517          	auipc	a0,0x2
   1015c:	eb050513          	addi	a0,a0,-336 # 12008 <foo>
   10160:	40000593          	li	a1,1024
   10164:	00160613          	addi	a2,a2,1
   10168:	1005272f          	lr.w	a4,(a0)
   1016c:	00c70733          	add	a4,a4,a2
   10170:	18e5272f          	sc.w	a4,a4,(a0)
   10174:	fe071ae3          	bnez	a4,10168 <test_3+0x34>
   10178:	fff58593          	addi	a1,a1,-1
   1017c:	fe0596e3          	bnez	a1,10168 <test_3+0x34>
   10180:	00002517          	auipc	a0,0x2
   10184:	e8450513          	addi	a0,a0,-380 # 12004 <barrier>
   10188:	00100593          	li	a1,1
   1018c:	00b5202f          	amoadd.w	zero,a1,(a0)
   10190:	00052583          	lw	a1,0(a0)
   10194:	fed5cee3          	blt	a1,a3,10190 <test_3+0x5c>
   10198:	0ff0000f          	fence

0001019c <test_4>:
   1019c:	00002517          	auipc	a0,0x2
   101a0:	e6c52503          	lw	a0,-404(a0) # 12008 <foo>
   101a4:	00969593          	slli	a1,a3,0x9
   101a8:	40b50533          	sub	a0,a0,a1
   101ac:	fff68693          	addi	a3,a3,-1
   101b0:	fe06dce3          	bgez	a3,101a8 <test_4+0xc>
   101b4:	00000e93          	li	t4,0
   101b8:	00400193          	li	gp,4
   101bc:	01d51463          	bne	a0,t4,101c4 <fail>
   101c0:	00301c63          	bne	zero,gp,101d8 <pass>

000101c4 <fail>:
   101c4:	0ff0000f          	fence
   101c8:	00018063          	beqz	gp,101c8 <fail+0x4>
   101cc:	00119193          	slli	gp,gp,0x1
   101d0:	0011e193          	ori	gp,gp,1
   101d4:	00000073          	ecall

000101d8 <pass>:
   101d8:	0ff0000f          	fence
   101dc:	00100193          	li	gp,1
   101e0:	00000073          	ecall
   101e4:	c0001073          	unimp
   101e8:	0000                	unimp
   101ea:	0000                	unimp
   101ec:	0000                	unimp
   101ee:	0000                	unimp
   101f0:	0000                	unimp
   101f2:	0000                	unimp
   101f4:	0000                	unimp
   101f6:	0000                	unimp
   101f8:	0000                	unimp
   101fa:	0000                	unimp
   101fc:	0000                	unimp
   101fe:	0000                	unimp
   10200:	0000                	unimp
   10202:	0000                	unimp
