
rv32uf-p-fmin:     file format elf32-littleriscv


Disassembly of section .text.init:

00010000 <_start>:
   10000:	04c0006f          	j	1004c <reset_vector>

00010004 <trap_vector>:
   10004:	34202f73          	csrr	t5,mcause
   10008:	00800f93          	li	t6,8
   1000c:	03ff0a63          	beq	t5,t6,10040 <write_tohost>
   10010:	00900f93          	li	t6,9
   10014:	03ff0663          	beq	t5,t6,10040 <write_tohost>
   10018:	00b00f93          	li	t6,11
   1001c:	03ff0263          	beq	t5,t6,10040 <write_tohost>
   10020:	ffff0f17          	auipc	t5,0xffff0
   10024:	fe0f0f13          	addi	t5,t5,-32 # 0 <_start-0x10000>
   10028:	000f0463          	beqz	t5,10030 <trap_vector+0x2c>
   1002c:	000f0067          	jr	t5
   10030:	34202f73          	csrr	t5,mcause
   10034:	000f5463          	bgez	t5,1003c <handle_exception>
   10038:	0040006f          	j	1003c <handle_exception>

0001003c <handle_exception>:
   1003c:	5391e193          	ori	gp,gp,1337

00010040 <write_tohost>:
   10040:	00001f17          	auipc	t5,0x1
   10044:	fc3f2023          	sw	gp,-64(t5) # 11000 <tohost>
   10048:	ff9ff06f          	j	10040 <write_tohost>

0001004c <reset_vector>:
   1004c:	f1402573          	csrr	a0,mhartid
   10050:	00051063          	bnez	a0,10050 <reset_vector+0x4>
   10054:	00000297          	auipc	t0,0x0
   10058:	01028293          	addi	t0,t0,16 # 10064 <reset_vector+0x18>
   1005c:	30529073          	csrw	mtvec,t0
   10060:	18005073          	csrwi	satp,0
   10064:	00000297          	auipc	t0,0x0
   10068:	01c28293          	addi	t0,t0,28 # 10080 <reset_vector+0x34>
   1006c:	30529073          	csrw	mtvec,t0
   10070:	fff00293          	li	t0,-1
   10074:	3b029073          	csrw	pmpaddr0,t0
   10078:	01f00293          	li	t0,31
   1007c:	3a029073          	csrw	pmpcfg0,t0
   10080:	00000297          	auipc	t0,0x0
   10084:	01828293          	addi	t0,t0,24 # 10098 <reset_vector+0x4c>
   10088:	30529073          	csrw	mtvec,t0
   1008c:	30205073          	csrwi	medeleg,0
   10090:	30305073          	csrwi	mideleg,0
   10094:	30405073          	csrwi	mie,0
   10098:	00000193          	li	gp,0
   1009c:	00000297          	auipc	t0,0x0
   100a0:	f6828293          	addi	t0,t0,-152 # 10004 <trap_vector>
   100a4:	30529073          	csrw	mtvec,t0
   100a8:	00100513          	li	a0,1
   100ac:	01f51513          	slli	a0,a0,0x1f
   100b0:	00054863          	bltz	a0,100c0 <reset_vector+0x74>
   100b4:	0ff0000f          	fence
   100b8:	00100193          	li	gp,1
   100bc:	00000073          	ecall
   100c0:	ffff0297          	auipc	t0,0xffff0
   100c4:	f4028293          	addi	t0,t0,-192 # 0 <_start-0x10000>
   100c8:	00028e63          	beqz	t0,100e4 <reset_vector+0x98>
   100cc:	10529073          	csrw	stvec,t0
   100d0:	0000b2b7          	lui	t0,0xb
   100d4:	10928293          	addi	t0,t0,265 # b109 <_start-0x4ef7>
   100d8:	30229073          	csrw	medeleg,t0
   100dc:	30202373          	csrr	t1,medeleg
   100e0:	f4629ee3          	bne	t0,t1,1003c <handle_exception>
   100e4:	30005073          	csrwi	mstatus,0
   100e8:	00002537          	lui	a0,0x2
   100ec:	30052073          	csrs	mstatus,a0
   100f0:	00305073          	csrwi	fcsr,0
   100f4:	00000297          	auipc	t0,0x0
   100f8:	01428293          	addi	t0,t0,20 # 10108 <test_2>
   100fc:	34129073          	csrw	mepc,t0
   10100:	f1402573          	csrr	a0,mhartid
   10104:	30200073          	mret

00010108 <test_2>:
   10108:	00200193          	li	gp,2
   1010c:	00002517          	auipc	a0,0x2
   10110:	ef450513          	addi	a0,a0,-268 # 12000 <test_2_data>
   10114:	00052007          	flw	ft0,0(a0)
   10118:	00452087          	flw	ft1,4(a0)
   1011c:	00852107          	flw	ft2,8(a0)
   10120:	00c52683          	lw	a3,12(a0)
   10124:	281001d3          	fmin.s	ft3,ft0,ft1
   10128:	e0018553          	fmv.x.w	a0,ft3
   1012c:	001015f3          	fsflags	a1,zero
   10130:	00000613          	li	a2,0
   10134:	38d51063          	bne	a0,a3,104b4 <fail>
   10138:	36c59e63          	bne	a1,a2,104b4 <fail>

0001013c <test_3>:
   1013c:	00300193          	li	gp,3
   10140:	00002517          	auipc	a0,0x2
   10144:	ed050513          	addi	a0,a0,-304 # 12010 <test_3_data>
   10148:	00052007          	flw	ft0,0(a0)
   1014c:	00452087          	flw	ft1,4(a0)
   10150:	00852107          	flw	ft2,8(a0)
   10154:	00c52683          	lw	a3,12(a0)
   10158:	281001d3          	fmin.s	ft3,ft0,ft1
   1015c:	e0018553          	fmv.x.w	a0,ft3
   10160:	001015f3          	fsflags	a1,zero
   10164:	00000613          	li	a2,0
   10168:	34d51663          	bne	a0,a3,104b4 <fail>
   1016c:	34c59463          	bne	a1,a2,104b4 <fail>

00010170 <test_4>:
   10170:	00400193          	li	gp,4
   10174:	00002517          	auipc	a0,0x2
   10178:	eac50513          	addi	a0,a0,-340 # 12020 <test_4_data>
   1017c:	00052007          	flw	ft0,0(a0)
   10180:	00452087          	flw	ft1,4(a0)
   10184:	00852107          	flw	ft2,8(a0)
   10188:	00c52683          	lw	a3,12(a0)
   1018c:	281001d3          	fmin.s	ft3,ft0,ft1
   10190:	e0018553          	fmv.x.w	a0,ft3
   10194:	001015f3          	fsflags	a1,zero
   10198:	00000613          	li	a2,0
   1019c:	30d51c63          	bne	a0,a3,104b4 <fail>
   101a0:	30c59a63          	bne	a1,a2,104b4 <fail>

000101a4 <test_5>:
   101a4:	00500193          	li	gp,5
   101a8:	00002517          	auipc	a0,0x2
   101ac:	e8850513          	addi	a0,a0,-376 # 12030 <test_5_data>
   101b0:	00052007          	flw	ft0,0(a0)
   101b4:	00452087          	flw	ft1,4(a0)
   101b8:	00852107          	flw	ft2,8(a0)
   101bc:	00c52683          	lw	a3,12(a0)
   101c0:	281001d3          	fmin.s	ft3,ft0,ft1
   101c4:	e0018553          	fmv.x.w	a0,ft3
   101c8:	001015f3          	fsflags	a1,zero
   101cc:	00000613          	li	a2,0
   101d0:	2ed51263          	bne	a0,a3,104b4 <fail>
   101d4:	2ec59063          	bne	a1,a2,104b4 <fail>

000101d8 <test_6>:
   101d8:	00600193          	li	gp,6
   101dc:	00002517          	auipc	a0,0x2
   101e0:	e6450513          	addi	a0,a0,-412 # 12040 <test_6_data>
   101e4:	00052007          	flw	ft0,0(a0)
   101e8:	00452087          	flw	ft1,4(a0)
   101ec:	00852107          	flw	ft2,8(a0)
   101f0:	00c52683          	lw	a3,12(a0)
   101f4:	281001d3          	fmin.s	ft3,ft0,ft1
   101f8:	e0018553          	fmv.x.w	a0,ft3
   101fc:	001015f3          	fsflags	a1,zero
   10200:	00000613          	li	a2,0
   10204:	2ad51863          	bne	a0,a3,104b4 <fail>
   10208:	2ac59663          	bne	a1,a2,104b4 <fail>

0001020c <test_7>:
   1020c:	00700193          	li	gp,7
   10210:	00002517          	auipc	a0,0x2
   10214:	e4050513          	addi	a0,a0,-448 # 12050 <test_7_data>
   10218:	00052007          	flw	ft0,0(a0)
   1021c:	00452087          	flw	ft1,4(a0)
   10220:	00852107          	flw	ft2,8(a0)
   10224:	00c52683          	lw	a3,12(a0)
   10228:	281001d3          	fmin.s	ft3,ft0,ft1
   1022c:	e0018553          	fmv.x.w	a0,ft3
   10230:	001015f3          	fsflags	a1,zero
   10234:	00000613          	li	a2,0
   10238:	26d51e63          	bne	a0,a3,104b4 <fail>
   1023c:	26c59c63          	bne	a1,a2,104b4 <fail>

00010240 <test_12>:
   10240:	00c00193          	li	gp,12
   10244:	00002517          	auipc	a0,0x2
   10248:	e1c50513          	addi	a0,a0,-484 # 12060 <test_12_data>
   1024c:	00052007          	flw	ft0,0(a0)
   10250:	00452087          	flw	ft1,4(a0)
   10254:	00852107          	flw	ft2,8(a0)
   10258:	00c52683          	lw	a3,12(a0)
   1025c:	281011d3          	fmax.s	ft3,ft0,ft1
   10260:	e0018553          	fmv.x.w	a0,ft3
   10264:	001015f3          	fsflags	a1,zero
   10268:	00000613          	li	a2,0
   1026c:	24d51463          	bne	a0,a3,104b4 <fail>
   10270:	24c59263          	bne	a1,a2,104b4 <fail>

00010274 <test_13>:
   10274:	00d00193          	li	gp,13
   10278:	00002517          	auipc	a0,0x2
   1027c:	df850513          	addi	a0,a0,-520 # 12070 <test_13_data>
   10280:	00052007          	flw	ft0,0(a0)
   10284:	00452087          	flw	ft1,4(a0)
   10288:	00852107          	flw	ft2,8(a0)
   1028c:	00c52683          	lw	a3,12(a0)
   10290:	281011d3          	fmax.s	ft3,ft0,ft1
   10294:	e0018553          	fmv.x.w	a0,ft3
   10298:	001015f3          	fsflags	a1,zero
   1029c:	00000613          	li	a2,0
   102a0:	20d51a63          	bne	a0,a3,104b4 <fail>
   102a4:	20c59863          	bne	a1,a2,104b4 <fail>

000102a8 <test_14>:
   102a8:	00e00193          	li	gp,14
   102ac:	00002517          	auipc	a0,0x2
   102b0:	dd450513          	addi	a0,a0,-556 # 12080 <test_14_data>
   102b4:	00052007          	flw	ft0,0(a0)
   102b8:	00452087          	flw	ft1,4(a0)
   102bc:	00852107          	flw	ft2,8(a0)
   102c0:	00c52683          	lw	a3,12(a0)
   102c4:	281011d3          	fmax.s	ft3,ft0,ft1
   102c8:	e0018553          	fmv.x.w	a0,ft3
   102cc:	001015f3          	fsflags	a1,zero
   102d0:	00000613          	li	a2,0
   102d4:	1ed51063          	bne	a0,a3,104b4 <fail>
   102d8:	1cc59e63          	bne	a1,a2,104b4 <fail>

000102dc <test_15>:
   102dc:	00f00193          	li	gp,15
   102e0:	00002517          	auipc	a0,0x2
   102e4:	db050513          	addi	a0,a0,-592 # 12090 <test_15_data>
   102e8:	00052007          	flw	ft0,0(a0)
   102ec:	00452087          	flw	ft1,4(a0)
   102f0:	00852107          	flw	ft2,8(a0)
   102f4:	00c52683          	lw	a3,12(a0)
   102f8:	281011d3          	fmax.s	ft3,ft0,ft1
   102fc:	e0018553          	fmv.x.w	a0,ft3
   10300:	001015f3          	fsflags	a1,zero
   10304:	00000613          	li	a2,0
   10308:	1ad51663          	bne	a0,a3,104b4 <fail>
   1030c:	1ac59463          	bne	a1,a2,104b4 <fail>

00010310 <test_16>:
   10310:	01000193          	li	gp,16
   10314:	00002517          	auipc	a0,0x2
   10318:	d8c50513          	addi	a0,a0,-628 # 120a0 <test_16_data>
   1031c:	00052007          	flw	ft0,0(a0)
   10320:	00452087          	flw	ft1,4(a0)
   10324:	00852107          	flw	ft2,8(a0)
   10328:	00c52683          	lw	a3,12(a0)
   1032c:	281011d3          	fmax.s	ft3,ft0,ft1
   10330:	e0018553          	fmv.x.w	a0,ft3
   10334:	001015f3          	fsflags	a1,zero
   10338:	00000613          	li	a2,0
   1033c:	16d51c63          	bne	a0,a3,104b4 <fail>
   10340:	16c59a63          	bne	a1,a2,104b4 <fail>

00010344 <test_17>:
   10344:	01100193          	li	gp,17
   10348:	00002517          	auipc	a0,0x2
   1034c:	d6850513          	addi	a0,a0,-664 # 120b0 <test_17_data>
   10350:	00052007          	flw	ft0,0(a0)
   10354:	00452087          	flw	ft1,4(a0)
   10358:	00852107          	flw	ft2,8(a0)
   1035c:	00c52683          	lw	a3,12(a0)
   10360:	281011d3          	fmax.s	ft3,ft0,ft1
   10364:	e0018553          	fmv.x.w	a0,ft3
   10368:	001015f3          	fsflags	a1,zero
   1036c:	00000613          	li	a2,0
   10370:	14d51263          	bne	a0,a3,104b4 <fail>
   10374:	14c59063          	bne	a1,a2,104b4 <fail>

00010378 <test_20>:
   10378:	01400193          	li	gp,20
   1037c:	00002517          	auipc	a0,0x2
   10380:	d4450513          	addi	a0,a0,-700 # 120c0 <test_20_data>
   10384:	00052007          	flw	ft0,0(a0)
   10388:	00452087          	flw	ft1,4(a0)
   1038c:	00852107          	flw	ft2,8(a0)
   10390:	00c52683          	lw	a3,12(a0)
   10394:	281011d3          	fmax.s	ft3,ft0,ft1
   10398:	e0018553          	fmv.x.w	a0,ft3
   1039c:	001015f3          	fsflags	a1,zero
   103a0:	01000613          	li	a2,16
   103a4:	10d51863          	bne	a0,a3,104b4 <fail>
   103a8:	10c59663          	bne	a1,a2,104b4 <fail>

000103ac <test_21>:
   103ac:	01500193          	li	gp,21
   103b0:	00002517          	auipc	a0,0x2
   103b4:	d2050513          	addi	a0,a0,-736 # 120d0 <test_21_data>
   103b8:	00052007          	flw	ft0,0(a0)
   103bc:	00452087          	flw	ft1,4(a0)
   103c0:	00852107          	flw	ft2,8(a0)
   103c4:	00c52683          	lw	a3,12(a0)
   103c8:	281011d3          	fmax.s	ft3,ft0,ft1
   103cc:	e0018553          	fmv.x.w	a0,ft3
   103d0:	001015f3          	fsflags	a1,zero
   103d4:	00000613          	li	a2,0
   103d8:	0cd51e63          	bne	a0,a3,104b4 <fail>
   103dc:	0cc59c63          	bne	a1,a2,104b4 <fail>

000103e0 <test_30>:
   103e0:	01e00193          	li	gp,30
   103e4:	00002517          	auipc	a0,0x2
   103e8:	cfc50513          	addi	a0,a0,-772 # 120e0 <test_30_data>
   103ec:	00052007          	flw	ft0,0(a0)
   103f0:	00452087          	flw	ft1,4(a0)
   103f4:	00852107          	flw	ft2,8(a0)
   103f8:	00c52683          	lw	a3,12(a0)
   103fc:	281001d3          	fmin.s	ft3,ft0,ft1
   10400:	e0018553          	fmv.x.w	a0,ft3
   10404:	001015f3          	fsflags	a1,zero
   10408:	00000613          	li	a2,0
   1040c:	0ad51463          	bne	a0,a3,104b4 <fail>
   10410:	0ac59263          	bne	a1,a2,104b4 <fail>

00010414 <test_31>:
   10414:	01f00193          	li	gp,31
   10418:	00002517          	auipc	a0,0x2
   1041c:	cd850513          	addi	a0,a0,-808 # 120f0 <test_31_data>
   10420:	00052007          	flw	ft0,0(a0)
   10424:	00452087          	flw	ft1,4(a0)
   10428:	00852107          	flw	ft2,8(a0)
   1042c:	00c52683          	lw	a3,12(a0)
   10430:	281001d3          	fmin.s	ft3,ft0,ft1
   10434:	e0018553          	fmv.x.w	a0,ft3
   10438:	001015f3          	fsflags	a1,zero
   1043c:	00000613          	li	a2,0
   10440:	06d51a63          	bne	a0,a3,104b4 <fail>
   10444:	06c59863          	bne	a1,a2,104b4 <fail>

00010448 <test_32>:
   10448:	02000193          	li	gp,32
   1044c:	00002517          	auipc	a0,0x2
   10450:	cb450513          	addi	a0,a0,-844 # 12100 <test_32_data>
   10454:	00052007          	flw	ft0,0(a0)
   10458:	00452087          	flw	ft1,4(a0)
   1045c:	00852107          	flw	ft2,8(a0)
   10460:	00c52683          	lw	a3,12(a0)
   10464:	281011d3          	fmax.s	ft3,ft0,ft1
   10468:	e0018553          	fmv.x.w	a0,ft3
   1046c:	001015f3          	fsflags	a1,zero
   10470:	00000613          	li	a2,0
   10474:	04d51063          	bne	a0,a3,104b4 <fail>
   10478:	02c59e63          	bne	a1,a2,104b4 <fail>

0001047c <test_33>:
   1047c:	02100193          	li	gp,33
   10480:	00002517          	auipc	a0,0x2
   10484:	c9050513          	addi	a0,a0,-880 # 12110 <test_33_data>
   10488:	00052007          	flw	ft0,0(a0)
   1048c:	00452087          	flw	ft1,4(a0)
   10490:	00852107          	flw	ft2,8(a0)
   10494:	00c52683          	lw	a3,12(a0)
   10498:	281011d3          	fmax.s	ft3,ft0,ft1
   1049c:	e0018553          	fmv.x.w	a0,ft3
   104a0:	001015f3          	fsflags	a1,zero
   104a4:	00000613          	li	a2,0
   104a8:	00d51663          	bne	a0,a3,104b4 <fail>
   104ac:	00c59463          	bne	a1,a2,104b4 <fail>
   104b0:	00301c63          	bne	zero,gp,104c8 <pass>

000104b4 <fail>:
   104b4:	0ff0000f          	fence
   104b8:	00018063          	beqz	gp,104b8 <fail+0x4>
   104bc:	00119193          	slli	gp,gp,0x1
   104c0:	0011e193          	ori	gp,gp,1
   104c4:	00000073          	ecall

000104c8 <pass>:
   104c8:	0ff0000f          	fence
   104cc:	00100193          	li	gp,1
   104d0:	00000073          	ecall
   104d4:	c0001073          	unimp
   104d8:	0000                	unimp
   104da:	0000                	unimp
   104dc:	0000                	unimp
   104de:	0000                	unimp
   104e0:	0000                	unimp
   104e2:	0000                	unimp
   104e4:	0000                	unimp
   104e6:	0000                	unimp
   104e8:	0000                	unimp
   104ea:	0000                	unimp
   104ec:	0000                	unimp
   104ee:	0000                	unimp
   104f0:	0000                	unimp
   104f2:	0000                	unimp
   104f4:	0000                	unimp
   104f6:	0000                	unimp
   104f8:	0000                	unimp
   104fa:	0000                	unimp
   104fc:	0000                	unimp
   104fe:	0000                	unimp
   10500:	0000                	unimp
   10502:	0000                	unimp
