
rv32ud-p-fcvt:     file format elf32-littleriscv


Disassembly of section .text.init:

00010000 <_start>:
   10000:	04c0006f          	j	1004c <reset_vector>

00010004 <trap_vector>:
   10004:	34202f73          	csrr	t5,mcause
   10008:	00800f93          	li	t6,8
   1000c:	03ff0a63          	beq	t5,t6,10040 <write_tohost>
   10010:	00900f93          	li	t6,9
   10014:	03ff0663          	beq	t5,t6,10040 <write_tohost>
   10018:	00b00f93          	li	t6,11
   1001c:	03ff0263          	beq	t5,t6,10040 <write_tohost>
   10020:	ffff0f17          	auipc	t5,0xffff0
   10024:	fe0f0f13          	addi	t5,t5,-32 # 0 <_start-0x10000>
   10028:	000f0463          	beqz	t5,10030 <trap_vector+0x2c>
   1002c:	000f0067          	jr	t5
   10030:	34202f73          	csrr	t5,mcause
   10034:	000f5463          	bgez	t5,1003c <handle_exception>
   10038:	0040006f          	j	1003c <handle_exception>

0001003c <handle_exception>:
   1003c:	5391e193          	ori	gp,gp,1337

00010040 <write_tohost>:
   10040:	00001f17          	auipc	t5,0x1
   10044:	fc3f2023          	sw	gp,-64(t5) # 11000 <tohost>
   10048:	ff9ff06f          	j	10040 <write_tohost>

0001004c <reset_vector>:
   1004c:	f1402573          	csrr	a0,mhartid
   10050:	00051063          	bnez	a0,10050 <reset_vector+0x4>
   10054:	00000297          	auipc	t0,0x0
   10058:	01028293          	addi	t0,t0,16 # 10064 <reset_vector+0x18>
   1005c:	30529073          	csrw	mtvec,t0
   10060:	18005073          	csrwi	satp,0
   10064:	00000297          	auipc	t0,0x0
   10068:	01c28293          	addi	t0,t0,28 # 10080 <reset_vector+0x34>
   1006c:	30529073          	csrw	mtvec,t0
   10070:	fff00293          	li	t0,-1
   10074:	3b029073          	csrw	pmpaddr0,t0
   10078:	01f00293          	li	t0,31
   1007c:	3a029073          	csrw	pmpcfg0,t0
   10080:	00000297          	auipc	t0,0x0
   10084:	01828293          	addi	t0,t0,24 # 10098 <reset_vector+0x4c>
   10088:	30529073          	csrw	mtvec,t0
   1008c:	30205073          	csrwi	medeleg,0
   10090:	30305073          	csrwi	mideleg,0
   10094:	30405073          	csrwi	mie,0
   10098:	00000193          	li	gp,0
   1009c:	00000297          	auipc	t0,0x0
   100a0:	f6828293          	addi	t0,t0,-152 # 10004 <trap_vector>
   100a4:	30529073          	csrw	mtvec,t0
   100a8:	00100513          	li	a0,1
   100ac:	01f51513          	slli	a0,a0,0x1f
   100b0:	00054863          	bltz	a0,100c0 <reset_vector+0x74>
   100b4:	0ff0000f          	fence
   100b8:	00100193          	li	gp,1
   100bc:	00000073          	ecall
   100c0:	ffff0297          	auipc	t0,0xffff0
   100c4:	f4028293          	addi	t0,t0,-192 # 0 <_start-0x10000>
   100c8:	00028e63          	beqz	t0,100e4 <reset_vector+0x98>
   100cc:	10529073          	csrw	stvec,t0
   100d0:	0000b2b7          	lui	t0,0xb
   100d4:	10928293          	addi	t0,t0,265 # b109 <_start-0x4ef7>
   100d8:	30229073          	csrw	medeleg,t0
   100dc:	30202373          	csrr	t1,medeleg
   100e0:	f4629ee3          	bne	t0,t1,1003c <handle_exception>
   100e4:	30005073          	csrwi	mstatus,0
   100e8:	00002537          	lui	a0,0x2
   100ec:	30052073          	csrs	mstatus,a0
   100f0:	00305073          	csrwi	fcsr,0
   100f4:	00000297          	auipc	t0,0x0
   100f8:	01428293          	addi	t0,t0,20 # 10108 <test_2>
   100fc:	34129073          	csrw	mepc,t0
   10100:	f1402573          	csrr	a0,mhartid
   10104:	30200073          	mret

00010108 <test_2>:
   10108:	00200193          	li	gp,2
   1010c:	00002517          	auipc	a0,0x2
   10110:	ef450513          	addi	a0,a0,-268 # 12000 <test_2_data>
   10114:	00052683          	lw	a3,0(a0)
   10118:	00452703          	lw	a4,4(a0)
   1011c:	00200593          	li	a1,2
   10120:	d2058053          	fcvt.d.w	ft0,a1
   10124:	00053027          	fsd	ft0,0(a0)
   10128:	00452583          	lw	a1,4(a0)
   1012c:	00052503          	lw	a0,0(a0)
   10130:	00101073          	fsflags	zero
   10134:	16d51263          	bne	a0,a3,10298 <fail>
   10138:	16e59063          	bne	a1,a4,10298 <fail>

0001013c <test_3>:
   1013c:	00300193          	li	gp,3
   10140:	00002517          	auipc	a0,0x2
   10144:	ec850513          	addi	a0,a0,-312 # 12008 <test_3_data>
   10148:	00052683          	lw	a3,0(a0)
   1014c:	00452703          	lw	a4,4(a0)
   10150:	ffe00593          	li	a1,-2
   10154:	d2058053          	fcvt.d.w	ft0,a1
   10158:	00053027          	fsd	ft0,0(a0)
   1015c:	00452583          	lw	a1,4(a0)
   10160:	00052503          	lw	a0,0(a0)
   10164:	00101073          	fsflags	zero
   10168:	12d51863          	bne	a0,a3,10298 <fail>
   1016c:	12e59663          	bne	a1,a4,10298 <fail>

00010170 <test_4>:
   10170:	00400193          	li	gp,4
   10174:	00002517          	auipc	a0,0x2
   10178:	e9c50513          	addi	a0,a0,-356 # 12010 <test_4_data>
   1017c:	00052683          	lw	a3,0(a0)
   10180:	00452703          	lw	a4,4(a0)
   10184:	00200593          	li	a1,2
   10188:	d2158053          	fcvt.d.wu	ft0,a1
   1018c:	00053027          	fsd	ft0,0(a0)
   10190:	00452583          	lw	a1,4(a0)
   10194:	00052503          	lw	a0,0(a0)
   10198:	00101073          	fsflags	zero
   1019c:	0ed51e63          	bne	a0,a3,10298 <fail>
   101a0:	0ee59c63          	bne	a1,a4,10298 <fail>

000101a4 <test_5>:
   101a4:	00500193          	li	gp,5
   101a8:	00002517          	auipc	a0,0x2
   101ac:	e7050513          	addi	a0,a0,-400 # 12018 <test_5_data>
   101b0:	00052683          	lw	a3,0(a0)
   101b4:	00452703          	lw	a4,4(a0)
   101b8:	ffe00593          	li	a1,-2
   101bc:	d2158053          	fcvt.d.wu	ft0,a1
   101c0:	00053027          	fsd	ft0,0(a0)
   101c4:	00452583          	lw	a1,4(a0)
   101c8:	00052503          	lw	a0,0(a0)
   101cc:	00101073          	fsflags	zero
   101d0:	0cd51463          	bne	a0,a3,10298 <fail>
   101d4:	0ce59263          	bne	a1,a4,10298 <fail>

000101d8 <test_10>:
   101d8:	00a00193          	li	gp,10
   101dc:	00002517          	auipc	a0,0x2
   101e0:	e4450513          	addi	a0,a0,-444 # 12020 <test_10_data>
   101e4:	00053007          	fld	ft0,0(a0)
   101e8:	00853087          	fld	ft1,8(a0)
   101ec:	01053107          	fld	ft2,16(a0)
   101f0:	01852683          	lw	a3,24(a0)
   101f4:	01c52303          	lw	t1,28(a0)
   101f8:	401071d3          	fcvt.s.d	ft3,ft0
   101fc:	420181d3          	fcvt.d.s	ft3,ft3
   10200:	00353027          	fsd	ft3,0(a0)
   10204:	00452383          	lw	t2,4(a0)
   10208:	00052503          	lw	a0,0(a0)
   1020c:	001015f3          	fsflags	a1,zero
   10210:	00000613          	li	a2,0
   10214:	08d51263          	bne	a0,a3,10298 <fail>
   10218:	08731063          	bne	t1,t2,10298 <fail>
   1021c:	06c59e63          	bne	a1,a2,10298 <fail>

00010220 <test_11>:
   10220:	00b00193          	li	gp,11
   10224:	00002517          	auipc	a0,0x2
   10228:	e1c50513          	addi	a0,a0,-484 # 12040 <test_11_data>
   1022c:	00052007          	flw	ft0,0(a0)
   10230:	00452087          	flw	ft1,4(a0)
   10234:	00852107          	flw	ft2,8(a0)
   10238:	00c52683          	lw	a3,12(a0)
   1023c:	420001d3          	fcvt.d.s	ft3,ft0
   10240:	4011f1d3          	fcvt.s.d	ft3,ft3
   10244:	e0018553          	fmv.x.w	a0,ft3
   10248:	001015f3          	fsflags	a1,zero
   1024c:	00000613          	li	a2,0
   10250:	04d51463          	bne	a0,a3,10298 <fail>
   10254:	04c59263          	bne	a1,a2,10298 <fail>

00010258 <test_12>:
   10258:	00002597          	auipc	a1,0x2
   1025c:	e0858593          	addi	a1,a1,-504 # 12060 <begin_signature>
   10260:	0005b107          	fld	ft2,0(a1)
   10264:	40117153          	fcvt.s.d	ft2,ft2
   10268:	42010153          	fcvt.d.s	ft2,ft2
   1026c:	0025b027          	fsd	ft2,0(a1)
   10270:	0005a503          	lw	a0,0(a1)
   10274:	0045a583          	lw	a1,4(a1)
   10278:	00002f97          	auipc	t6,0x2
   1027c:	dd8f8f93          	addi	t6,t6,-552 # 12050 <test_12_data>
   10280:	000fae83          	lw	t4,0(t6)
   10284:	004faf83          	lw	t6,4(t6)
   10288:	00c00193          	li	gp,12
   1028c:	01d51663          	bne	a0,t4,10298 <fail>
   10290:	01f59463          	bne	a1,t6,10298 <fail>
   10294:	00301c63          	bne	zero,gp,102ac <pass>

00010298 <fail>:
   10298:	0ff0000f          	fence
   1029c:	00018063          	beqz	gp,1029c <fail+0x4>
   102a0:	00119193          	slli	gp,gp,0x1
   102a4:	0011e193          	ori	gp,gp,1
   102a8:	00000073          	ecall

000102ac <pass>:
   102ac:	0ff0000f          	fence
   102b0:	00100193          	li	gp,1
   102b4:	00000073          	ecall
   102b8:	c0001073          	unimp
   102bc:	0000                	unimp
   102be:	0000                	unimp
   102c0:	0000                	unimp
   102c2:	0000                	unimp
