
rv64ud-p-structural:     file format elf64-littleriscv


Disassembly of section .text.init:

0000000000010000 <_start>:
   10000:	04c0006f          	j	1004c <reset_vector>

0000000000010004 <trap_vector>:
   10004:	34202f73          	csrr	t5,mcause
   10008:	00800f93          	li	t6,8
   1000c:	03ff0a63          	beq	t5,t6,10040 <write_tohost>
   10010:	00900f93          	li	t6,9
   10014:	03ff0663          	beq	t5,t6,10040 <write_tohost>
   10018:	00b00f93          	li	t6,11
   1001c:	03ff0263          	beq	t5,t6,10040 <write_tohost>
   10020:	ffff0f17          	auipc	t5,0xffff0
   10024:	fe0f0f13          	addi	t5,t5,-32 # 0 <_start-0x10000>
   10028:	000f0463          	beqz	t5,10030 <trap_vector+0x2c>
   1002c:	000f0067          	jr	t5
   10030:	34202f73          	csrr	t5,mcause
   10034:	000f5463          	bgez	t5,1003c <handle_exception>
   10038:	0040006f          	j	1003c <handle_exception>

000000000001003c <handle_exception>:
   1003c:	5391e193          	ori	gp,gp,1337

0000000000010040 <write_tohost>:
   10040:	00001f17          	auipc	t5,0x1
   10044:	fc3f2023          	sw	gp,-64(t5) # 11000 <tohost>
   10048:	ff9ff06f          	j	10040 <write_tohost>

000000000001004c <reset_vector>:
   1004c:	f1402573          	csrr	a0,mhartid
   10050:	00051063          	bnez	a0,10050 <reset_vector+0x4>
   10054:	00000297          	auipc	t0,0x0
   10058:	01028293          	addi	t0,t0,16 # 10064 <reset_vector+0x18>
   1005c:	30529073          	csrw	mtvec,t0
   10060:	18005073          	csrwi	satp,0
   10064:	00000297          	auipc	t0,0x0
   10068:	01c28293          	addi	t0,t0,28 # 10080 <reset_vector+0x34>
   1006c:	30529073          	csrw	mtvec,t0
   10070:	fff00293          	li	t0,-1
   10074:	3b029073          	csrw	pmpaddr0,t0
   10078:	01f00293          	li	t0,31
   1007c:	3a029073          	csrw	pmpcfg0,t0
   10080:	00000297          	auipc	t0,0x0
   10084:	01828293          	addi	t0,t0,24 # 10098 <reset_vector+0x4c>
   10088:	30529073          	csrw	mtvec,t0
   1008c:	30205073          	csrwi	medeleg,0
   10090:	30305073          	csrwi	mideleg,0
   10094:	30405073          	csrwi	mie,0
   10098:	00000193          	li	gp,0
   1009c:	00000297          	auipc	t0,0x0
   100a0:	f6828293          	addi	t0,t0,-152 # 10004 <trap_vector>
   100a4:	30529073          	csrw	mtvec,t0
   100a8:	00100513          	li	a0,1
   100ac:	01f51513          	slli	a0,a0,0x1f
   100b0:	00055863          	bgez	a0,100c0 <reset_vector+0x74>
   100b4:	0ff0000f          	fence
   100b8:	00100193          	li	gp,1
   100bc:	00000073          	ecall
   100c0:	ffff0297          	auipc	t0,0xffff0
   100c4:	f4028293          	addi	t0,t0,-192 # 0 <_start-0x10000>
   100c8:	00028e63          	beqz	t0,100e4 <reset_vector+0x98>
   100cc:	10529073          	csrw	stvec,t0
   100d0:	0000b2b7          	lui	t0,0xb
   100d4:	1092829b          	addiw	t0,t0,265
   100d8:	30229073          	csrw	medeleg,t0
   100dc:	30202373          	csrr	t1,medeleg
   100e0:	f4629ee3          	bne	t0,t1,1003c <handle_exception>
   100e4:	30005073          	csrwi	mstatus,0
   100e8:	00002537          	lui	a0,0x2
   100ec:	30052073          	csrs	mstatus,a0
   100f0:	00305073          	csrwi	fcsr,0
   100f4:	00000297          	auipc	t0,0x0
   100f8:	01428293          	addi	t0,t0,20 # 10108 <reset_vector+0xbc>
   100fc:	34129073          	csrw	mepc,t0
   10100:	f1402573          	csrr	a0,mhartid
   10104:	30200073          	mret
   10108:	00100c93          	li	s9,1
   1010c:	3ff0011b          	addiw	sp,zero,1023
   10110:	03411113          	slli	sp,sp,0x34
   10114:	3f8000b7          	lui	ra,0x3f800
   10118:	f2000253          	fmv.d.x	ft4,zero
   1011c:	f00001d3          	fmv.w.x	ft3,zero
   10120:	f2010153          	fmv.d.x	ft2,sp
   10124:	f00080d3          	fmv.w.x	ft1,ra
   10128:	0180006f          	j	10140 <reset_vector+0xf4>
   1012c:	00000013          	nop
   10130:	00000013          	nop
   10134:	00000013          	nop
   10138:	00000013          	nop
   1013c:	00000013          	nop
   10140:	12217253          	fmul.d	ft4,ft2,ft2
   10144:	201081d3          	fmv.s	ft3,ft1
   10148:	e2020253          	fmv.x.d	tp,ft4
   1014c:	e00182d3          	fmv.x.w	t0,ft3
   10150:	00508c63          	beq	ra,t0,10168 <reset_vector+0x11c>
   10154:	0ff0000f          	fence
   10158:	00018063          	beqz	gp,10158 <reset_vector+0x10c>
   1015c:	00119193          	slli	gp,gp,0x1
   10160:	0011e193          	ori	gp,gp,1
   10164:	00000073          	ecall
   10168:	00410c63          	beq	sp,tp,10180 <reset_vector+0x134>
   1016c:	0ff0000f          	fence
   10170:	00018063          	beqz	gp,10170 <reset_vector+0x124>
   10174:	00119193          	slli	gp,gp,0x1
   10178:	0011e193          	ori	gp,gp,1
   1017c:	00000073          	ecall
   10180:	f2000153          	fmv.d.x	ft2,zero
   10184:	f00000d3          	fmv.w.x	ft1,zero
   10188:	f2000253          	fmv.d.x	ft4,zero
   1018c:	f00001d3          	fmv.w.x	ft3,zero
   10190:	f2010153          	fmv.d.x	ft2,sp
   10194:	f00080d3          	fmv.w.x	ft1,ra
   10198:	0080006f          	j	101a0 <reset_vector+0x154>
   1019c:	00000013          	nop
   101a0:	12217253          	fmul.d	ft4,ft2,ft2
   101a4:	00000013          	nop
   101a8:	201081d3          	fmv.s	ft3,ft1
   101ac:	e2020253          	fmv.x.d	tp,ft4
   101b0:	e00182d3          	fmv.x.w	t0,ft3
   101b4:	00508c63          	beq	ra,t0,101cc <reset_vector+0x180>
   101b8:	0ff0000f          	fence
   101bc:	00018063          	beqz	gp,101bc <reset_vector+0x170>
   101c0:	00119193          	slli	gp,gp,0x1
   101c4:	0011e193          	ori	gp,gp,1
   101c8:	00000073          	ecall
   101cc:	00410c63          	beq	sp,tp,101e4 <reset_vector+0x198>
   101d0:	0ff0000f          	fence
   101d4:	00018063          	beqz	gp,101d4 <reset_vector+0x188>
   101d8:	00119193          	slli	gp,gp,0x1
   101dc:	0011e193          	ori	gp,gp,1
   101e0:	00000073          	ecall
   101e4:	f2000153          	fmv.d.x	ft2,zero
   101e8:	f00000d3          	fmv.w.x	ft1,zero
   101ec:	f2000253          	fmv.d.x	ft4,zero
   101f0:	f00001d3          	fmv.w.x	ft3,zero
   101f4:	f2010153          	fmv.d.x	ft2,sp
   101f8:	f00080d3          	fmv.w.x	ft1,ra
   101fc:	0040006f          	j	10200 <reset_vector+0x1b4>
   10200:	12217253          	fmul.d	ft4,ft2,ft2
   10204:	00000013          	nop
   10208:	00000013          	nop
   1020c:	201081d3          	fmv.s	ft3,ft1
   10210:	e2020253          	fmv.x.d	tp,ft4
   10214:	e00182d3          	fmv.x.w	t0,ft3
   10218:	00508c63          	beq	ra,t0,10230 <reset_vector+0x1e4>
   1021c:	0ff0000f          	fence
   10220:	00018063          	beqz	gp,10220 <reset_vector+0x1d4>
   10224:	00119193          	slli	gp,gp,0x1
   10228:	0011e193          	ori	gp,gp,1
   1022c:	00000073          	ecall
   10230:	00410c63          	beq	sp,tp,10248 <reset_vector+0x1fc>
   10234:	0ff0000f          	fence
   10238:	00018063          	beqz	gp,10238 <reset_vector+0x1ec>
   1023c:	00119193          	slli	gp,gp,0x1
   10240:	0011e193          	ori	gp,gp,1
   10244:	00000073          	ecall
   10248:	f2000153          	fmv.d.x	ft2,zero
   1024c:	f00000d3          	fmv.w.x	ft1,zero
   10250:	f2000253          	fmv.d.x	ft4,zero
   10254:	f00001d3          	fmv.w.x	ft3,zero
   10258:	f2010153          	fmv.d.x	ft2,sp
   1025c:	f00080d3          	fmv.w.x	ft1,ra
   10260:	0200006f          	j	10280 <reset_vector+0x234>
   10264:	00000013          	nop
   10268:	00000013          	nop
   1026c:	00000013          	nop
   10270:	00000013          	nop
   10274:	00000013          	nop
   10278:	00000013          	nop
   1027c:	00000013          	nop
   10280:	12217253          	fmul.d	ft4,ft2,ft2
   10284:	00000013          	nop
   10288:	00000013          	nop
   1028c:	00000013          	nop
   10290:	201081d3          	fmv.s	ft3,ft1
   10294:	e2020253          	fmv.x.d	tp,ft4
   10298:	e00182d3          	fmv.x.w	t0,ft3
   1029c:	00508c63          	beq	ra,t0,102b4 <reset_vector+0x268>
   102a0:	0ff0000f          	fence
   102a4:	00018063          	beqz	gp,102a4 <reset_vector+0x258>
   102a8:	00119193          	slli	gp,gp,0x1
   102ac:	0011e193          	ori	gp,gp,1
   102b0:	00000073          	ecall
   102b4:	00410c63          	beq	sp,tp,102cc <reset_vector+0x280>
   102b8:	0ff0000f          	fence
   102bc:	00018063          	beqz	gp,102bc <reset_vector+0x270>
   102c0:	00119193          	slli	gp,gp,0x1
   102c4:	0011e193          	ori	gp,gp,1
   102c8:	00000073          	ecall
   102cc:	f2000153          	fmv.d.x	ft2,zero
   102d0:	f00000d3          	fmv.w.x	ft1,zero
   102d4:	f2000253          	fmv.d.x	ft4,zero
   102d8:	f00001d3          	fmv.w.x	ft3,zero
   102dc:	f2010153          	fmv.d.x	ft2,sp
   102e0:	f00080d3          	fmv.w.x	ft1,ra
   102e4:	01c0006f          	j	10300 <reset_vector+0x2b4>
   102e8:	00000013          	nop
   102ec:	00000013          	nop
   102f0:	00000013          	nop
   102f4:	00000013          	nop
   102f8:	00000013          	nop
   102fc:	00000013          	nop
   10300:	12217253          	fmul.d	ft4,ft2,ft2
   10304:	00000013          	nop
   10308:	00000013          	nop
   1030c:	00000013          	nop
   10310:	00000013          	nop
   10314:	201081d3          	fmv.s	ft3,ft1
   10318:	e2020253          	fmv.x.d	tp,ft4
   1031c:	e00182d3          	fmv.x.w	t0,ft3
   10320:	00508c63          	beq	ra,t0,10338 <reset_vector+0x2ec>
   10324:	0ff0000f          	fence
   10328:	00018063          	beqz	gp,10328 <reset_vector+0x2dc>
   1032c:	00119193          	slli	gp,gp,0x1
   10330:	0011e193          	ori	gp,gp,1
   10334:	00000073          	ecall
   10338:	00410c63          	beq	sp,tp,10350 <reset_vector+0x304>
   1033c:	0ff0000f          	fence
   10340:	00018063          	beqz	gp,10340 <reset_vector+0x2f4>
   10344:	00119193          	slli	gp,gp,0x1
   10348:	0011e193          	ori	gp,gp,1
   1034c:	00000073          	ecall
   10350:	f2000153          	fmv.d.x	ft2,zero
   10354:	f00000d3          	fmv.w.x	ft1,zero
   10358:	f2000253          	fmv.d.x	ft4,zero
   1035c:	f00001d3          	fmv.w.x	ft3,zero
   10360:	f2010153          	fmv.d.x	ft2,sp
   10364:	f00080d3          	fmv.w.x	ft1,ra
   10368:	0180006f          	j	10380 <reset_vector+0x334>
   1036c:	00000013          	nop
   10370:	00000013          	nop
   10374:	00000013          	nop
   10378:	00000013          	nop
   1037c:	00000013          	nop
   10380:	12217253          	fmul.d	ft4,ft2,ft2
   10384:	00000013          	nop
   10388:	00000013          	nop
   1038c:	00000013          	nop
   10390:	00000013          	nop
   10394:	00000013          	nop
   10398:	201081d3          	fmv.s	ft3,ft1
   1039c:	e2020253          	fmv.x.d	tp,ft4
   103a0:	e00182d3          	fmv.x.w	t0,ft3
   103a4:	00508c63          	beq	ra,t0,103bc <reset_vector+0x370>
   103a8:	0ff0000f          	fence
   103ac:	00018063          	beqz	gp,103ac <reset_vector+0x360>
   103b0:	00119193          	slli	gp,gp,0x1
   103b4:	0011e193          	ori	gp,gp,1
   103b8:	00000073          	ecall
   103bc:	00410c63          	beq	sp,tp,103d4 <reset_vector+0x388>
   103c0:	0ff0000f          	fence
   103c4:	00018063          	beqz	gp,103c4 <reset_vector+0x378>
   103c8:	00119193          	slli	gp,gp,0x1
   103cc:	0011e193          	ori	gp,gp,1
   103d0:	00000073          	ecall
   103d4:	f2000153          	fmv.d.x	ft2,zero
   103d8:	f00000d3          	fmv.w.x	ft1,zero
   103dc:	f2000253          	fmv.d.x	ft4,zero
   103e0:	f00001d3          	fmv.w.x	ft3,zero
   103e4:	f2010153          	fmv.d.x	ft2,sp
   103e8:	f00080d3          	fmv.w.x	ft1,ra
   103ec:	0140006f          	j	10400 <reset_vector+0x3b4>
   103f0:	00000013          	nop
   103f4:	00000013          	nop
   103f8:	00000013          	nop
   103fc:	00000013          	nop
   10400:	12217253          	fmul.d	ft4,ft2,ft2
   10404:	00000013          	nop
   10408:	00000013          	nop
   1040c:	00000013          	nop
   10410:	00000013          	nop
   10414:	00000013          	nop
   10418:	00000013          	nop
   1041c:	201081d3          	fmv.s	ft3,ft1
   10420:	e2020253          	fmv.x.d	tp,ft4
   10424:	e00182d3          	fmv.x.w	t0,ft3
   10428:	00508c63          	beq	ra,t0,10440 <reset_vector+0x3f4>
   1042c:	0ff0000f          	fence
   10430:	00018063          	beqz	gp,10430 <reset_vector+0x3e4>
   10434:	00119193          	slli	gp,gp,0x1
   10438:	0011e193          	ori	gp,gp,1
   1043c:	00000073          	ecall
   10440:	00410c63          	beq	sp,tp,10458 <reset_vector+0x40c>
   10444:	0ff0000f          	fence
   10448:	00018063          	beqz	gp,10448 <reset_vector+0x3fc>
   1044c:	00119193          	slli	gp,gp,0x1
   10450:	0011e193          	ori	gp,gp,1
   10454:	00000073          	ecall
   10458:	f2000153          	fmv.d.x	ft2,zero
   1045c:	f00000d3          	fmv.w.x	ft1,zero
   10460:	0ff0000f          	fence
   10464:	00100193          	li	gp,1
   10468:	00000073          	ecall
   1046c:	c0001073          	unimp
