
rv64ui-p-sll:     file format elf64-littleriscv


Disassembly of section .text.init:

0000000000010000 <_start>:
   10000:	04c0006f          	j	1004c <reset_vector>

0000000000010004 <trap_vector>:
   10004:	34202f73          	csrr	t5,mcause
   10008:	00800f93          	li	t6,8
   1000c:	03ff0a63          	beq	t5,t6,10040 <write_tohost>
   10010:	00900f93          	li	t6,9
   10014:	03ff0663          	beq	t5,t6,10040 <write_tohost>
   10018:	00b00f93          	li	t6,11
   1001c:	03ff0263          	beq	t5,t6,10040 <write_tohost>
   10020:	ffff0f17          	auipc	t5,0xffff0
   10024:	fe0f0f13          	addi	t5,t5,-32 # 0 <_start-0x10000>
   10028:	000f0463          	beqz	t5,10030 <trap_vector+0x2c>
   1002c:	000f0067          	jr	t5
   10030:	34202f73          	csrr	t5,mcause
   10034:	000f5463          	bgez	t5,1003c <handle_exception>
   10038:	0040006f          	j	1003c <handle_exception>

000000000001003c <handle_exception>:
   1003c:	5391e193          	ori	gp,gp,1337

0000000000010040 <write_tohost>:
   10040:	00001f17          	auipc	t5,0x1
   10044:	fc3f2023          	sw	gp,-64(t5) # 11000 <tohost>
   10048:	ff9ff06f          	j	10040 <write_tohost>

000000000001004c <reset_vector>:
   1004c:	f1402573          	csrr	a0,mhartid
   10050:	00051063          	bnez	a0,10050 <reset_vector+0x4>
   10054:	00000297          	auipc	t0,0x0
   10058:	01028293          	addi	t0,t0,16 # 10064 <reset_vector+0x18>
   1005c:	30529073          	csrw	mtvec,t0
   10060:	18005073          	csrwi	satp,0
   10064:	00000297          	auipc	t0,0x0
   10068:	01c28293          	addi	t0,t0,28 # 10080 <reset_vector+0x34>
   1006c:	30529073          	csrw	mtvec,t0
   10070:	fff00293          	li	t0,-1
   10074:	3b029073          	csrw	pmpaddr0,t0
   10078:	01f00293          	li	t0,31
   1007c:	3a029073          	csrw	pmpcfg0,t0
   10080:	00000297          	auipc	t0,0x0
   10084:	01828293          	addi	t0,t0,24 # 10098 <reset_vector+0x4c>
   10088:	30529073          	csrw	mtvec,t0
   1008c:	30205073          	csrwi	medeleg,0
   10090:	30305073          	csrwi	mideleg,0
   10094:	30405073          	csrwi	mie,0
   10098:	00000193          	li	gp,0
   1009c:	00000297          	auipc	t0,0x0
   100a0:	f6828293          	addi	t0,t0,-152 # 10004 <trap_vector>
   100a4:	30529073          	csrw	mtvec,t0
   100a8:	00100513          	li	a0,1
   100ac:	01f51513          	slli	a0,a0,0x1f
   100b0:	00055863          	bgez	a0,100c0 <reset_vector+0x74>
   100b4:	0ff0000f          	fence
   100b8:	00100193          	li	gp,1
   100bc:	00000073          	ecall
   100c0:	ffff0297          	auipc	t0,0xffff0
   100c4:	f4028293          	addi	t0,t0,-192 # 0 <_start-0x10000>
   100c8:	00028e63          	beqz	t0,100e4 <reset_vector+0x98>
   100cc:	10529073          	csrw	stvec,t0
   100d0:	0000b2b7          	lui	t0,0xb
   100d4:	1092829b          	addiw	t0,t0,265
   100d8:	30229073          	csrw	medeleg,t0
   100dc:	30202373          	csrr	t1,medeleg
   100e0:	f4629ee3          	bne	t0,t1,1003c <handle_exception>
   100e4:	30005073          	csrwi	mstatus,0
   100e8:	00000297          	auipc	t0,0x0
   100ec:	01428293          	addi	t0,t0,20 # 100fc <test_2>
   100f0:	34129073          	csrw	mepc,t0
   100f4:	f1402573          	csrr	a0,mhartid
   100f8:	30200073          	mret

00000000000100fc <test_2>:
   100fc:	00100093          	li	ra,1
   10100:	00000113          	li	sp,0
   10104:	00209f33          	sll	t5,ra,sp
   10108:	00100e93          	li	t4,1
   1010c:	00200193          	li	gp,2
   10110:	5fdf1c63          	bne	t5,t4,10708 <fail>

0000000000010114 <test_3>:
   10114:	00100093          	li	ra,1
   10118:	00100113          	li	sp,1
   1011c:	00209f33          	sll	t5,ra,sp
   10120:	00200e93          	li	t4,2
   10124:	00300193          	li	gp,3
   10128:	5fdf1063          	bne	t5,t4,10708 <fail>

000000000001012c <test_4>:
   1012c:	00100093          	li	ra,1
   10130:	00700113          	li	sp,7
   10134:	00209f33          	sll	t5,ra,sp
   10138:	08000e93          	li	t4,128
   1013c:	00400193          	li	gp,4
   10140:	5ddf1463          	bne	t5,t4,10708 <fail>

0000000000010144 <test_5>:
   10144:	00100093          	li	ra,1
   10148:	00e00113          	li	sp,14
   1014c:	00209f33          	sll	t5,ra,sp
   10150:	00004eb7          	lui	t4,0x4
   10154:	00500193          	li	gp,5
   10158:	5bdf1863          	bne	t5,t4,10708 <fail>

000000000001015c <test_6>:
   1015c:	00100093          	li	ra,1
   10160:	01f00113          	li	sp,31
   10164:	00209f33          	sll	t5,ra,sp
   10168:	00100e9b          	addiw	t4,zero,1
   1016c:	01fe9e93          	slli	t4,t4,0x1f
   10170:	00600193          	li	gp,6
   10174:	59df1a63          	bne	t5,t4,10708 <fail>

0000000000010178 <test_7>:
   10178:	fff00093          	li	ra,-1
   1017c:	00000113          	li	sp,0
   10180:	00209f33          	sll	t5,ra,sp
   10184:	fff00e93          	li	t4,-1
   10188:	00700193          	li	gp,7
   1018c:	57df1e63          	bne	t5,t4,10708 <fail>

0000000000010190 <test_8>:
   10190:	fff00093          	li	ra,-1
   10194:	00100113          	li	sp,1
   10198:	00209f33          	sll	t5,ra,sp
   1019c:	ffe00e93          	li	t4,-2
   101a0:	00800193          	li	gp,8
   101a4:	57df1263          	bne	t5,t4,10708 <fail>

00000000000101a8 <test_9>:
   101a8:	fff00093          	li	ra,-1
   101ac:	00700113          	li	sp,7
   101b0:	00209f33          	sll	t5,ra,sp
   101b4:	f8000e93          	li	t4,-128
   101b8:	00900193          	li	gp,9
   101bc:	55df1663          	bne	t5,t4,10708 <fail>

00000000000101c0 <test_10>:
   101c0:	fff00093          	li	ra,-1
   101c4:	00e00113          	li	sp,14
   101c8:	00209f33          	sll	t5,ra,sp
   101cc:	ffffceb7          	lui	t4,0xffffc
   101d0:	00a00193          	li	gp,10
   101d4:	53df1a63          	bne	t5,t4,10708 <fail>

00000000000101d8 <test_11>:
   101d8:	fff00093          	li	ra,-1
   101dc:	01f00113          	li	sp,31
   101e0:	00209f33          	sll	t5,ra,sp
   101e4:	80000eb7          	lui	t4,0x80000
   101e8:	00b00193          	li	gp,11
   101ec:	51df1e63          	bne	t5,t4,10708 <fail>

00000000000101f0 <test_12>:
   101f0:	212120b7          	lui	ra,0x21212
   101f4:	1210809b          	addiw	ra,ra,289
   101f8:	00000113          	li	sp,0
   101fc:	00209f33          	sll	t5,ra,sp
   10200:	21212eb7          	lui	t4,0x21212
   10204:	121e8e9b          	addiw	t4,t4,289
   10208:	00c00193          	li	gp,12
   1020c:	4fdf1e63          	bne	t5,t4,10708 <fail>

0000000000010210 <test_13>:
   10210:	212120b7          	lui	ra,0x21212
   10214:	1210809b          	addiw	ra,ra,289
   10218:	00100113          	li	sp,1
   1021c:	00209f33          	sll	t5,ra,sp
   10220:	42424eb7          	lui	t4,0x42424
   10224:	242e8e9b          	addiw	t4,t4,578
   10228:	00d00193          	li	gp,13
   1022c:	4ddf1e63          	bne	t5,t4,10708 <fail>

0000000000010230 <test_14>:
   10230:	212120b7          	lui	ra,0x21212
   10234:	1210809b          	addiw	ra,ra,289
   10238:	00700113          	li	sp,7
   1023c:	00209f33          	sll	t5,ra,sp
   10240:	01091eb7          	lui	t4,0x1091
   10244:	909e8e9b          	addiw	t4,t4,-1783
   10248:	00ce9e93          	slli	t4,t4,0xc
   1024c:	080e8e93          	addi	t4,t4,128 # 1091080 <_end+0x107f080>
   10250:	00e00193          	li	gp,14
   10254:	4bdf1a63          	bne	t5,t4,10708 <fail>

0000000000010258 <test_15>:
   10258:	212120b7          	lui	ra,0x21212
   1025c:	1210809b          	addiw	ra,ra,289
   10260:	00e00113          	li	sp,14
   10264:	00209f33          	sll	t5,ra,sp
   10268:	21212eb7          	lui	t4,0x21212
   1026c:	121e8e9b          	addiw	t4,t4,289
   10270:	00ee9e93          	slli	t4,t4,0xe
   10274:	00f00193          	li	gp,15
   10278:	49df1863          	bne	t5,t4,10708 <fail>

000000000001027c <test_16>:
   1027c:	212120b7          	lui	ra,0x21212
   10280:	1210809b          	addiw	ra,ra,289
   10284:	01f00113          	li	sp,31
   10288:	00209f33          	sll	t5,ra,sp
   1028c:	21212eb7          	lui	t4,0x21212
   10290:	121e8e9b          	addiw	t4,t4,289
   10294:	01fe9e93          	slli	t4,t4,0x1f
   10298:	01000193          	li	gp,16
   1029c:	47df1663          	bne	t5,t4,10708 <fail>

00000000000102a0 <test_17>:
   102a0:	212120b7          	lui	ra,0x21212
   102a4:	1210809b          	addiw	ra,ra,289
   102a8:	fc000113          	li	sp,-64
   102ac:	00209f33          	sll	t5,ra,sp
   102b0:	21212eb7          	lui	t4,0x21212
   102b4:	121e8e9b          	addiw	t4,t4,289
   102b8:	01100193          	li	gp,17
   102bc:	45df1663          	bne	t5,t4,10708 <fail>

00000000000102c0 <test_18>:
   102c0:	212120b7          	lui	ra,0x21212
   102c4:	1210809b          	addiw	ra,ra,289
   102c8:	fc100113          	li	sp,-63
   102cc:	00209f33          	sll	t5,ra,sp
   102d0:	42424eb7          	lui	t4,0x42424
   102d4:	242e8e9b          	addiw	t4,t4,578
   102d8:	01200193          	li	gp,18
   102dc:	43df1663          	bne	t5,t4,10708 <fail>

00000000000102e0 <test_19>:
   102e0:	212120b7          	lui	ra,0x21212
   102e4:	1210809b          	addiw	ra,ra,289
   102e8:	fc700113          	li	sp,-57
   102ec:	00209f33          	sll	t5,ra,sp
   102f0:	01091eb7          	lui	t4,0x1091
   102f4:	909e8e9b          	addiw	t4,t4,-1783
   102f8:	00ce9e93          	slli	t4,t4,0xc
   102fc:	080e8e93          	addi	t4,t4,128 # 1091080 <_end+0x107f080>
   10300:	01300193          	li	gp,19
   10304:	41df1263          	bne	t5,t4,10708 <fail>

0000000000010308 <test_20>:
   10308:	212120b7          	lui	ra,0x21212
   1030c:	1210809b          	addiw	ra,ra,289
   10310:	fce00113          	li	sp,-50
   10314:	00209f33          	sll	t5,ra,sp
   10318:	21212eb7          	lui	t4,0x21212
   1031c:	121e8e9b          	addiw	t4,t4,289
   10320:	00ee9e93          	slli	t4,t4,0xe
   10324:	01400193          	li	gp,20
   10328:	3fdf1063          	bne	t5,t4,10708 <fail>

000000000001032c <test_21>:
   1032c:	212120b7          	lui	ra,0x21212
   10330:	1210809b          	addiw	ra,ra,289
   10334:	fff00113          	li	sp,-1
   10338:	00209f33          	sll	t5,ra,sp
   1033c:	fff00e9b          	addiw	t4,zero,-1
   10340:	03fe9e93          	slli	t4,t4,0x3f
   10344:	01500193          	li	gp,21
   10348:	3ddf1063          	bne	t5,t4,10708 <fail>

000000000001034c <test_50>:
   1034c:	00100093          	li	ra,1
   10350:	03f00113          	li	sp,63
   10354:	00209f33          	sll	t5,ra,sp
   10358:	fff00e9b          	addiw	t4,zero,-1
   1035c:	03fe9e93          	slli	t4,t4,0x3f
   10360:	03200193          	li	gp,50
   10364:	3bdf1263          	bne	t5,t4,10708 <fail>

0000000000010368 <test_51>:
   10368:	fff00093          	li	ra,-1
   1036c:	02700113          	li	sp,39
   10370:	00209f33          	sll	t5,ra,sp
   10374:	fff00e9b          	addiw	t4,zero,-1
   10378:	027e9e93          	slli	t4,t4,0x27
   1037c:	03300193          	li	gp,51
   10380:	39df1463          	bne	t5,t4,10708 <fail>

0000000000010384 <test_52>:
   10384:	212120b7          	lui	ra,0x21212
   10388:	1210809b          	addiw	ra,ra,289
   1038c:	02b00113          	li	sp,43
   10390:	00209f33          	sll	t5,ra,sp
   10394:	00012eb7          	lui	t4,0x12
   10398:	121e8e9b          	addiw	t4,t4,289
   1039c:	02be9e93          	slli	t4,t4,0x2b
   103a0:	03400193          	li	gp,52
   103a4:	37df1263          	bne	t5,t4,10708 <fail>

00000000000103a8 <test_22>:
   103a8:	00100093          	li	ra,1
   103ac:	00700113          	li	sp,7
   103b0:	002090b3          	sll	ra,ra,sp
   103b4:	08000e93          	li	t4,128
   103b8:	01600193          	li	gp,22
   103bc:	35d09663          	bne	ra,t4,10708 <fail>

00000000000103c0 <test_23>:
   103c0:	00100093          	li	ra,1
   103c4:	00e00113          	li	sp,14
   103c8:	00209133          	sll	sp,ra,sp
   103cc:	00004eb7          	lui	t4,0x4
   103d0:	01700193          	li	gp,23
   103d4:	33d11a63          	bne	sp,t4,10708 <fail>

00000000000103d8 <test_24>:
   103d8:	00300093          	li	ra,3
   103dc:	001090b3          	sll	ra,ra,ra
   103e0:	01800e93          	li	t4,24
   103e4:	01800193          	li	gp,24
   103e8:	33d09063          	bne	ra,t4,10708 <fail>

00000000000103ec <test_25>:
   103ec:	00000213          	li	tp,0
   103f0:	00100093          	li	ra,1
   103f4:	00700113          	li	sp,7
   103f8:	00209f33          	sll	t5,ra,sp
   103fc:	000f0313          	mv	t1,t5
   10400:	00120213          	addi	tp,tp,1 # 1 <_start-0xffff>
   10404:	00200293          	li	t0,2
   10408:	fe5214e3          	bne	tp,t0,103f0 <test_25+0x4>
   1040c:	08000e93          	li	t4,128
   10410:	01900193          	li	gp,25
   10414:	2fd31a63          	bne	t1,t4,10708 <fail>

0000000000010418 <test_26>:
   10418:	00000213          	li	tp,0
   1041c:	00100093          	li	ra,1
   10420:	00e00113          	li	sp,14
   10424:	00209f33          	sll	t5,ra,sp
   10428:	00000013          	nop
   1042c:	000f0313          	mv	t1,t5
   10430:	00120213          	addi	tp,tp,1 # 1 <_start-0xffff>
   10434:	00200293          	li	t0,2
   10438:	fe5212e3          	bne	tp,t0,1041c <test_26+0x4>
   1043c:	00004eb7          	lui	t4,0x4
   10440:	01a00193          	li	gp,26
   10444:	2dd31263          	bne	t1,t4,10708 <fail>

0000000000010448 <test_27>:
   10448:	00000213          	li	tp,0
   1044c:	00100093          	li	ra,1
   10450:	01f00113          	li	sp,31
   10454:	00209f33          	sll	t5,ra,sp
   10458:	00000013          	nop
   1045c:	00000013          	nop
   10460:	000f0313          	mv	t1,t5
   10464:	00120213          	addi	tp,tp,1 # 1 <_start-0xffff>
   10468:	00200293          	li	t0,2
   1046c:	fe5210e3          	bne	tp,t0,1044c <test_27+0x4>
   10470:	00100e9b          	addiw	t4,zero,1
   10474:	01fe9e93          	slli	t4,t4,0x1f
   10478:	01b00193          	li	gp,27
   1047c:	29d31663          	bne	t1,t4,10708 <fail>

0000000000010480 <test_28>:
   10480:	00000213          	li	tp,0
   10484:	00100093          	li	ra,1
   10488:	00700113          	li	sp,7
   1048c:	00209f33          	sll	t5,ra,sp
   10490:	00120213          	addi	tp,tp,1 # 1 <_start-0xffff>
   10494:	00200293          	li	t0,2
   10498:	fe5216e3          	bne	tp,t0,10484 <test_28+0x4>
   1049c:	08000e93          	li	t4,128
   104a0:	01c00193          	li	gp,28
   104a4:	27df1263          	bne	t5,t4,10708 <fail>

00000000000104a8 <test_29>:
   104a8:	00000213          	li	tp,0
   104ac:	00100093          	li	ra,1
   104b0:	00e00113          	li	sp,14
   104b4:	00000013          	nop
   104b8:	00209f33          	sll	t5,ra,sp
   104bc:	00120213          	addi	tp,tp,1 # 1 <_start-0xffff>
   104c0:	00200293          	li	t0,2
   104c4:	fe5214e3          	bne	tp,t0,104ac <test_29+0x4>
   104c8:	00004eb7          	lui	t4,0x4
   104cc:	01d00193          	li	gp,29
   104d0:	23df1c63          	bne	t5,t4,10708 <fail>

00000000000104d4 <test_30>:
   104d4:	00000213          	li	tp,0
   104d8:	00100093          	li	ra,1
   104dc:	01f00113          	li	sp,31
   104e0:	00000013          	nop
   104e4:	00000013          	nop
   104e8:	00209f33          	sll	t5,ra,sp
   104ec:	00120213          	addi	tp,tp,1 # 1 <_start-0xffff>
   104f0:	00200293          	li	t0,2
   104f4:	fe5212e3          	bne	tp,t0,104d8 <test_30+0x4>
   104f8:	00100e9b          	addiw	t4,zero,1
   104fc:	01fe9e93          	slli	t4,t4,0x1f
   10500:	01e00193          	li	gp,30
   10504:	21df1263          	bne	t5,t4,10708 <fail>

0000000000010508 <test_31>:
   10508:	00000213          	li	tp,0
   1050c:	00100093          	li	ra,1
   10510:	00000013          	nop
   10514:	00700113          	li	sp,7
   10518:	00209f33          	sll	t5,ra,sp
   1051c:	00120213          	addi	tp,tp,1 # 1 <_start-0xffff>
   10520:	00200293          	li	t0,2
   10524:	fe5214e3          	bne	tp,t0,1050c <test_31+0x4>
   10528:	08000e93          	li	t4,128
   1052c:	01f00193          	li	gp,31
   10530:	1ddf1c63          	bne	t5,t4,10708 <fail>

0000000000010534 <test_32>:
   10534:	00000213          	li	tp,0
   10538:	00100093          	li	ra,1
   1053c:	00000013          	nop
   10540:	00e00113          	li	sp,14
   10544:	00000013          	nop
   10548:	00209f33          	sll	t5,ra,sp
   1054c:	00120213          	addi	tp,tp,1 # 1 <_start-0xffff>
   10550:	00200293          	li	t0,2
   10554:	fe5212e3          	bne	tp,t0,10538 <test_32+0x4>
   10558:	00004eb7          	lui	t4,0x4
   1055c:	02000193          	li	gp,32
   10560:	1bdf1463          	bne	t5,t4,10708 <fail>

0000000000010564 <test_33>:
   10564:	00000213          	li	tp,0
   10568:	00100093          	li	ra,1
   1056c:	00000013          	nop
   10570:	00000013          	nop
   10574:	01f00113          	li	sp,31
   10578:	00209f33          	sll	t5,ra,sp
   1057c:	00120213          	addi	tp,tp,1 # 1 <_start-0xffff>
   10580:	00200293          	li	t0,2
   10584:	fe5212e3          	bne	tp,t0,10568 <test_33+0x4>
   10588:	00100e9b          	addiw	t4,zero,1
   1058c:	01fe9e93          	slli	t4,t4,0x1f
   10590:	02100193          	li	gp,33
   10594:	17df1a63          	bne	t5,t4,10708 <fail>

0000000000010598 <test_34>:
   10598:	00000213          	li	tp,0
   1059c:	00700113          	li	sp,7
   105a0:	00100093          	li	ra,1
   105a4:	00209f33          	sll	t5,ra,sp
   105a8:	00120213          	addi	tp,tp,1 # 1 <_start-0xffff>
   105ac:	00200293          	li	t0,2
   105b0:	fe5216e3          	bne	tp,t0,1059c <test_34+0x4>
   105b4:	08000e93          	li	t4,128
   105b8:	02200193          	li	gp,34
   105bc:	15df1663          	bne	t5,t4,10708 <fail>

00000000000105c0 <test_35>:
   105c0:	00000213          	li	tp,0
   105c4:	00e00113          	li	sp,14
   105c8:	00100093          	li	ra,1
   105cc:	00000013          	nop
   105d0:	00209f33          	sll	t5,ra,sp
   105d4:	00120213          	addi	tp,tp,1 # 1 <_start-0xffff>
   105d8:	00200293          	li	t0,2
   105dc:	fe5214e3          	bne	tp,t0,105c4 <test_35+0x4>
   105e0:	00004eb7          	lui	t4,0x4
   105e4:	02300193          	li	gp,35
   105e8:	13df1063          	bne	t5,t4,10708 <fail>

00000000000105ec <test_36>:
   105ec:	00000213          	li	tp,0
   105f0:	01f00113          	li	sp,31
   105f4:	00100093          	li	ra,1
   105f8:	00000013          	nop
   105fc:	00000013          	nop
   10600:	00209f33          	sll	t5,ra,sp
   10604:	00120213          	addi	tp,tp,1 # 1 <_start-0xffff>
   10608:	00200293          	li	t0,2
   1060c:	fe5212e3          	bne	tp,t0,105f0 <test_36+0x4>
   10610:	00100e9b          	addiw	t4,zero,1
   10614:	01fe9e93          	slli	t4,t4,0x1f
   10618:	02400193          	li	gp,36
   1061c:	0fdf1663          	bne	t5,t4,10708 <fail>

0000000000010620 <test_37>:
   10620:	00000213          	li	tp,0
   10624:	00700113          	li	sp,7
   10628:	00000013          	nop
   1062c:	00100093          	li	ra,1
   10630:	00209f33          	sll	t5,ra,sp
   10634:	00120213          	addi	tp,tp,1 # 1 <_start-0xffff>
   10638:	00200293          	li	t0,2
   1063c:	fe5214e3          	bne	tp,t0,10624 <test_37+0x4>
   10640:	08000e93          	li	t4,128
   10644:	02500193          	li	gp,37
   10648:	0ddf1063          	bne	t5,t4,10708 <fail>

000000000001064c <test_38>:
   1064c:	00000213          	li	tp,0
   10650:	00e00113          	li	sp,14
   10654:	00000013          	nop
   10658:	00100093          	li	ra,1
   1065c:	00000013          	nop
   10660:	00209f33          	sll	t5,ra,sp
   10664:	00120213          	addi	tp,tp,1 # 1 <_start-0xffff>
   10668:	00200293          	li	t0,2
   1066c:	fe5212e3          	bne	tp,t0,10650 <test_38+0x4>
   10670:	00004eb7          	lui	t4,0x4
   10674:	02600193          	li	gp,38
   10678:	09df1863          	bne	t5,t4,10708 <fail>

000000000001067c <test_39>:
   1067c:	00000213          	li	tp,0
   10680:	01f00113          	li	sp,31
   10684:	00000013          	nop
   10688:	00000013          	nop
   1068c:	00100093          	li	ra,1
   10690:	00209f33          	sll	t5,ra,sp
   10694:	00120213          	addi	tp,tp,1 # 1 <_start-0xffff>
   10698:	00200293          	li	t0,2
   1069c:	fe5212e3          	bne	tp,t0,10680 <test_39+0x4>
   106a0:	00100e9b          	addiw	t4,zero,1
   106a4:	01fe9e93          	slli	t4,t4,0x1f
   106a8:	02700193          	li	gp,39
   106ac:	05df1e63          	bne	t5,t4,10708 <fail>

00000000000106b0 <test_40>:
   106b0:	00f00093          	li	ra,15
   106b4:	00101133          	sll	sp,zero,ra
   106b8:	00000e93          	li	t4,0
   106bc:	02800193          	li	gp,40
   106c0:	05d11463          	bne	sp,t4,10708 <fail>

00000000000106c4 <test_41>:
   106c4:	02000093          	li	ra,32
   106c8:	00009133          	sll	sp,ra,zero
   106cc:	02000e93          	li	t4,32
   106d0:	02900193          	li	gp,41
   106d4:	03d11a63          	bne	sp,t4,10708 <fail>

00000000000106d8 <test_42>:
   106d8:	000010b3          	sll	ra,zero,zero
   106dc:	00000e93          	li	t4,0
   106e0:	02a00193          	li	gp,42
   106e4:	03d09263          	bne	ra,t4,10708 <fail>

00000000000106e8 <test_43>:
   106e8:	40000093          	li	ra,1024
   106ec:	00001137          	lui	sp,0x1
   106f0:	8001011b          	addiw	sp,sp,-2048
   106f4:	00209033          	sll	zero,ra,sp
   106f8:	00000e93          	li	t4,0
   106fc:	02b00193          	li	gp,43
   10700:	01d01463          	bne	zero,t4,10708 <fail>
   10704:	00301c63          	bne	zero,gp,1071c <pass>

0000000000010708 <fail>:
   10708:	0ff0000f          	fence
   1070c:	00018063          	beqz	gp,1070c <fail+0x4>
   10710:	00119193          	slli	gp,gp,0x1
   10714:	0011e193          	ori	gp,gp,1
   10718:	00000073          	ecall

000000000001071c <pass>:
   1071c:	0ff0000f          	fence
   10720:	00100193          	li	gp,1
   10724:	00000073          	ecall
   10728:	c0001073          	unimp
   1072c:	0000                	unimp
   1072e:	0000                	unimp
   10730:	0000                	unimp
   10732:	0000                	unimp
   10734:	0000                	unimp
   10736:	0000                	unimp
   10738:	0000                	unimp
   1073a:	0000                	unimp
   1073c:	0000                	unimp
   1073e:	0000                	unimp
   10740:	0000                	unimp
   10742:	0000                	unimp
