
rv64uf-p-fcvt_w:     file format elf64-littleriscv


Disassembly of section .text.init:

0000000000010000 <_start>:
   10000:	04c0006f          	j	1004c <reset_vector>

0000000000010004 <trap_vector>:
   10004:	34202f73          	csrr	t5,mcause
   10008:	00800f93          	li	t6,8
   1000c:	03ff0a63          	beq	t5,t6,10040 <write_tohost>
   10010:	00900f93          	li	t6,9
   10014:	03ff0663          	beq	t5,t6,10040 <write_tohost>
   10018:	00b00f93          	li	t6,11
   1001c:	03ff0263          	beq	t5,t6,10040 <write_tohost>
   10020:	ffff0f17          	auipc	t5,0xffff0
   10024:	fe0f0f13          	addi	t5,t5,-32 # 0 <_start-0x10000>
   10028:	000f0463          	beqz	t5,10030 <trap_vector+0x2c>
   1002c:	000f0067          	jr	t5
   10030:	34202f73          	csrr	t5,mcause
   10034:	000f5463          	bgez	t5,1003c <handle_exception>
   10038:	0040006f          	j	1003c <handle_exception>

000000000001003c <handle_exception>:
   1003c:	5391e193          	ori	gp,gp,1337

0000000000010040 <write_tohost>:
   10040:	00001f17          	auipc	t5,0x1
   10044:	fc3f2023          	sw	gp,-64(t5) # 11000 <tohost>
   10048:	ff9ff06f          	j	10040 <write_tohost>

000000000001004c <reset_vector>:
   1004c:	f1402573          	csrr	a0,mhartid
   10050:	00051063          	bnez	a0,10050 <reset_vector+0x4>
   10054:	00000297          	auipc	t0,0x0
   10058:	01028293          	addi	t0,t0,16 # 10064 <reset_vector+0x18>
   1005c:	30529073          	csrw	mtvec,t0
   10060:	18005073          	csrwi	satp,0
   10064:	00000297          	auipc	t0,0x0
   10068:	01c28293          	addi	t0,t0,28 # 10080 <reset_vector+0x34>
   1006c:	30529073          	csrw	mtvec,t0
   10070:	fff00293          	li	t0,-1
   10074:	3b029073          	csrw	pmpaddr0,t0
   10078:	01f00293          	li	t0,31
   1007c:	3a029073          	csrw	pmpcfg0,t0
   10080:	00000297          	auipc	t0,0x0
   10084:	01828293          	addi	t0,t0,24 # 10098 <reset_vector+0x4c>
   10088:	30529073          	csrw	mtvec,t0
   1008c:	30205073          	csrwi	medeleg,0
   10090:	30305073          	csrwi	mideleg,0
   10094:	30405073          	csrwi	mie,0
   10098:	00000193          	li	gp,0
   1009c:	00000297          	auipc	t0,0x0
   100a0:	f6828293          	addi	t0,t0,-152 # 10004 <trap_vector>
   100a4:	30529073          	csrw	mtvec,t0
   100a8:	00100513          	li	a0,1
   100ac:	01f51513          	slli	a0,a0,0x1f
   100b0:	00055863          	bgez	a0,100c0 <reset_vector+0x74>
   100b4:	0ff0000f          	fence
   100b8:	00100193          	li	gp,1
   100bc:	00000073          	ecall
   100c0:	ffff0297          	auipc	t0,0xffff0
   100c4:	f4028293          	addi	t0,t0,-192 # 0 <_start-0x10000>
   100c8:	00028e63          	beqz	t0,100e4 <reset_vector+0x98>
   100cc:	10529073          	csrw	stvec,t0
   100d0:	0000b2b7          	lui	t0,0xb
   100d4:	1092829b          	addiw	t0,t0,265
   100d8:	30229073          	csrw	medeleg,t0
   100dc:	30202373          	csrr	t1,medeleg
   100e0:	f4629ee3          	bne	t0,t1,1003c <handle_exception>
   100e4:	30005073          	csrwi	mstatus,0
   100e8:	00002537          	lui	a0,0x2
   100ec:	30052073          	csrs	mstatus,a0
   100f0:	00305073          	csrwi	fcsr,0
   100f4:	00000297          	auipc	t0,0x0
   100f8:	01428293          	addi	t0,t0,20 # 10108 <test_2>
   100fc:	34129073          	csrw	mepc,t0
   10100:	f1402573          	csrr	a0,mhartid
   10104:	30200073          	mret

0000000000010108 <test_2>:
   10108:	00200193          	li	gp,2
   1010c:	00002517          	auipc	a0,0x2
   10110:	ef450513          	addi	a0,a0,-268 # 12000 <test_2_data>
   10114:	00052007          	flw	ft0,0(a0)
   10118:	00452087          	flw	ft1,4(a0)
   1011c:	00852107          	flw	ft2,8(a0)
   10120:	00c52683          	lw	a3,12(a0)
   10124:	c0001553          	fcvt.w.s	a0,ft0,rtz
   10128:	001015f3          	fsflags	a1,zero
   1012c:	00100613          	li	a2,1
   10130:	72d51a63          	bne	a0,a3,10864 <fail>
   10134:	72c59863          	bne	a1,a2,10864 <fail>

0000000000010138 <test_3>:
   10138:	00300193          	li	gp,3
   1013c:	00002517          	auipc	a0,0x2
   10140:	ed450513          	addi	a0,a0,-300 # 12010 <test_3_data>
   10144:	00052007          	flw	ft0,0(a0)
   10148:	00452087          	flw	ft1,4(a0)
   1014c:	00852107          	flw	ft2,8(a0)
   10150:	00c52683          	lw	a3,12(a0)
   10154:	c0001553          	fcvt.w.s	a0,ft0,rtz
   10158:	001015f3          	fsflags	a1,zero
   1015c:	00000613          	li	a2,0
   10160:	70d51263          	bne	a0,a3,10864 <fail>
   10164:	70c59063          	bne	a1,a2,10864 <fail>

0000000000010168 <test_4>:
   10168:	00400193          	li	gp,4
   1016c:	00002517          	auipc	a0,0x2
   10170:	eb450513          	addi	a0,a0,-332 # 12020 <test_4_data>
   10174:	00052007          	flw	ft0,0(a0)
   10178:	00452087          	flw	ft1,4(a0)
   1017c:	00852107          	flw	ft2,8(a0)
   10180:	00c52683          	lw	a3,12(a0)
   10184:	c0001553          	fcvt.w.s	a0,ft0,rtz
   10188:	001015f3          	fsflags	a1,zero
   1018c:	00100613          	li	a2,1
   10190:	6cd51a63          	bne	a0,a3,10864 <fail>
   10194:	6cc59863          	bne	a1,a2,10864 <fail>

0000000000010198 <test_5>:
   10198:	00500193          	li	gp,5
   1019c:	00002517          	auipc	a0,0x2
   101a0:	e9450513          	addi	a0,a0,-364 # 12030 <test_5_data>
   101a4:	00052007          	flw	ft0,0(a0)
   101a8:	00452087          	flw	ft1,4(a0)
   101ac:	00852107          	flw	ft2,8(a0)
   101b0:	00c52683          	lw	a3,12(a0)
   101b4:	c0001553          	fcvt.w.s	a0,ft0,rtz
   101b8:	001015f3          	fsflags	a1,zero
   101bc:	00100613          	li	a2,1
   101c0:	6ad51263          	bne	a0,a3,10864 <fail>
   101c4:	6ac59063          	bne	a1,a2,10864 <fail>

00000000000101c8 <test_6>:
   101c8:	00600193          	li	gp,6
   101cc:	00002517          	auipc	a0,0x2
   101d0:	e7450513          	addi	a0,a0,-396 # 12040 <test_6_data>
   101d4:	00052007          	flw	ft0,0(a0)
   101d8:	00452087          	flw	ft1,4(a0)
   101dc:	00852107          	flw	ft2,8(a0)
   101e0:	00c52683          	lw	a3,12(a0)
   101e4:	c0001553          	fcvt.w.s	a0,ft0,rtz
   101e8:	001015f3          	fsflags	a1,zero
   101ec:	00000613          	li	a2,0
   101f0:	66d51a63          	bne	a0,a3,10864 <fail>
   101f4:	66c59863          	bne	a1,a2,10864 <fail>

00000000000101f8 <test_7>:
   101f8:	00700193          	li	gp,7
   101fc:	00002517          	auipc	a0,0x2
   10200:	e5450513          	addi	a0,a0,-428 # 12050 <test_7_data>
   10204:	00052007          	flw	ft0,0(a0)
   10208:	00452087          	flw	ft1,4(a0)
   1020c:	00852107          	flw	ft2,8(a0)
   10210:	00c52683          	lw	a3,12(a0)
   10214:	c0001553          	fcvt.w.s	a0,ft0,rtz
   10218:	001015f3          	fsflags	a1,zero
   1021c:	00100613          	li	a2,1
   10220:	64d51263          	bne	a0,a3,10864 <fail>
   10224:	64c59063          	bne	a1,a2,10864 <fail>

0000000000010228 <test_8>:
   10228:	00800193          	li	gp,8
   1022c:	00002517          	auipc	a0,0x2
   10230:	e3450513          	addi	a0,a0,-460 # 12060 <test_8_data>
   10234:	00052007          	flw	ft0,0(a0)
   10238:	00452087          	flw	ft1,4(a0)
   1023c:	00852107          	flw	ft2,8(a0)
   10240:	00c52683          	lw	a3,12(a0)
   10244:	c0001553          	fcvt.w.s	a0,ft0,rtz
   10248:	001015f3          	fsflags	a1,zero
   1024c:	01000613          	li	a2,16
   10250:	60d51a63          	bne	a0,a3,10864 <fail>
   10254:	60c59863          	bne	a1,a2,10864 <fail>

0000000000010258 <test_9>:
   10258:	00900193          	li	gp,9
   1025c:	00002517          	auipc	a0,0x2
   10260:	e1450513          	addi	a0,a0,-492 # 12070 <test_9_data>
   10264:	00052007          	flw	ft0,0(a0)
   10268:	00452087          	flw	ft1,4(a0)
   1026c:	00852107          	flw	ft2,8(a0)
   10270:	00c52683          	lw	a3,12(a0)
   10274:	c0001553          	fcvt.w.s	a0,ft0,rtz
   10278:	001015f3          	fsflags	a1,zero
   1027c:	01000613          	li	a2,16
   10280:	5ed51263          	bne	a0,a3,10864 <fail>
   10284:	5ec59063          	bne	a1,a2,10864 <fail>

0000000000010288 <test_12>:
   10288:	00c00193          	li	gp,12
   1028c:	00002517          	auipc	a0,0x2
   10290:	df450513          	addi	a0,a0,-524 # 12080 <test_12_data>
   10294:	00052007          	flw	ft0,0(a0)
   10298:	00452087          	flw	ft1,4(a0)
   1029c:	00852107          	flw	ft2,8(a0)
   102a0:	00c52683          	lw	a3,12(a0)
   102a4:	c0101553          	fcvt.wu.s	a0,ft0,rtz
   102a8:	001015f3          	fsflags	a1,zero
   102ac:	01000613          	li	a2,16
   102b0:	5ad51a63          	bne	a0,a3,10864 <fail>
   102b4:	5ac59863          	bne	a1,a2,10864 <fail>

00000000000102b8 <test_13>:
   102b8:	00d00193          	li	gp,13
   102bc:	00002517          	auipc	a0,0x2
   102c0:	dd450513          	addi	a0,a0,-556 # 12090 <test_13_data>
   102c4:	00052007          	flw	ft0,0(a0)
   102c8:	00452087          	flw	ft1,4(a0)
   102cc:	00852107          	flw	ft2,8(a0)
   102d0:	00c52683          	lw	a3,12(a0)
   102d4:	c0101553          	fcvt.wu.s	a0,ft0,rtz
   102d8:	001015f3          	fsflags	a1,zero
   102dc:	01000613          	li	a2,16
   102e0:	58d51263          	bne	a0,a3,10864 <fail>
   102e4:	58c59063          	bne	a1,a2,10864 <fail>

00000000000102e8 <test_14>:
   102e8:	00e00193          	li	gp,14
   102ec:	00002517          	auipc	a0,0x2
   102f0:	db450513          	addi	a0,a0,-588 # 120a0 <test_14_data>
   102f4:	00052007          	flw	ft0,0(a0)
   102f8:	00452087          	flw	ft1,4(a0)
   102fc:	00852107          	flw	ft2,8(a0)
   10300:	00c52683          	lw	a3,12(a0)
   10304:	c0101553          	fcvt.wu.s	a0,ft0,rtz
   10308:	001015f3          	fsflags	a1,zero
   1030c:	00100613          	li	a2,1
   10310:	54d51a63          	bne	a0,a3,10864 <fail>
   10314:	54c59863          	bne	a1,a2,10864 <fail>

0000000000010318 <test_15>:
   10318:	00f00193          	li	gp,15
   1031c:	00002517          	auipc	a0,0x2
   10320:	d9450513          	addi	a0,a0,-620 # 120b0 <test_15_data>
   10324:	00052007          	flw	ft0,0(a0)
   10328:	00452087          	flw	ft1,4(a0)
   1032c:	00852107          	flw	ft2,8(a0)
   10330:	00c52683          	lw	a3,12(a0)
   10334:	c0101553          	fcvt.wu.s	a0,ft0,rtz
   10338:	001015f3          	fsflags	a1,zero
   1033c:	00100613          	li	a2,1
   10340:	52d51263          	bne	a0,a3,10864 <fail>
   10344:	52c59063          	bne	a1,a2,10864 <fail>

0000000000010348 <test_16>:
   10348:	01000193          	li	gp,16
   1034c:	00002517          	auipc	a0,0x2
   10350:	d7450513          	addi	a0,a0,-652 # 120c0 <test_16_data>
   10354:	00052007          	flw	ft0,0(a0)
   10358:	00452087          	flw	ft1,4(a0)
   1035c:	00852107          	flw	ft2,8(a0)
   10360:	00c52683          	lw	a3,12(a0)
   10364:	c0101553          	fcvt.wu.s	a0,ft0,rtz
   10368:	001015f3          	fsflags	a1,zero
   1036c:	00000613          	li	a2,0
   10370:	4ed51a63          	bne	a0,a3,10864 <fail>
   10374:	4ec59863          	bne	a1,a2,10864 <fail>

0000000000010378 <test_17>:
   10378:	01100193          	li	gp,17
   1037c:	00002517          	auipc	a0,0x2
   10380:	d5450513          	addi	a0,a0,-684 # 120d0 <test_17_data>
   10384:	00052007          	flw	ft0,0(a0)
   10388:	00452087          	flw	ft1,4(a0)
   1038c:	00852107          	flw	ft2,8(a0)
   10390:	00c52683          	lw	a3,12(a0)
   10394:	c0101553          	fcvt.wu.s	a0,ft0,rtz
   10398:	001015f3          	fsflags	a1,zero
   1039c:	00100613          	li	a2,1
   103a0:	4cd51263          	bne	a0,a3,10864 <fail>
   103a4:	4cc59063          	bne	a1,a2,10864 <fail>

00000000000103a8 <test_18>:
   103a8:	01200193          	li	gp,18
   103ac:	00002517          	auipc	a0,0x2
   103b0:	d3450513          	addi	a0,a0,-716 # 120e0 <test_18_data>
   103b4:	00052007          	flw	ft0,0(a0)
   103b8:	00452087          	flw	ft1,4(a0)
   103bc:	00852107          	flw	ft2,8(a0)
   103c0:	00c52683          	lw	a3,12(a0)
   103c4:	c0101553          	fcvt.wu.s	a0,ft0,rtz
   103c8:	001015f3          	fsflags	a1,zero
   103cc:	01000613          	li	a2,16
   103d0:	48d51a63          	bne	a0,a3,10864 <fail>
   103d4:	48c59863          	bne	a1,a2,10864 <fail>

00000000000103d8 <test_19>:
   103d8:	01300193          	li	gp,19
   103dc:	00002517          	auipc	a0,0x2
   103e0:	d1450513          	addi	a0,a0,-748 # 120f0 <test_19_data>
   103e4:	00052007          	flw	ft0,0(a0)
   103e8:	00452087          	flw	ft1,4(a0)
   103ec:	00852107          	flw	ft2,8(a0)
   103f0:	00c52683          	lw	a3,12(a0)
   103f4:	c0101553          	fcvt.wu.s	a0,ft0,rtz
   103f8:	001015f3          	fsflags	a1,zero
   103fc:	00000613          	li	a2,0
   10400:	46d51263          	bne	a0,a3,10864 <fail>
   10404:	46c59063          	bne	a1,a2,10864 <fail>

0000000000010408 <test_22>:
   10408:	01600193          	li	gp,22
   1040c:	00002517          	auipc	a0,0x2
   10410:	cf450513          	addi	a0,a0,-780 # 12100 <test_22_data>
   10414:	00052007          	flw	ft0,0(a0)
   10418:	00452087          	flw	ft1,4(a0)
   1041c:	00852107          	flw	ft2,8(a0)
   10420:	00c52683          	lw	a3,12(a0)
   10424:	c0201553          	fcvt.l.s	a0,ft0,rtz
   10428:	001015f3          	fsflags	a1,zero
   1042c:	00100613          	li	a2,1
   10430:	42d51a63          	bne	a0,a3,10864 <fail>
   10434:	42c59863          	bne	a1,a2,10864 <fail>

0000000000010438 <test_23>:
   10438:	01700193          	li	gp,23
   1043c:	00002517          	auipc	a0,0x2
   10440:	cd450513          	addi	a0,a0,-812 # 12110 <test_23_data>
   10444:	00052007          	flw	ft0,0(a0)
   10448:	00452087          	flw	ft1,4(a0)
   1044c:	00852107          	flw	ft2,8(a0)
   10450:	00c52683          	lw	a3,12(a0)
   10454:	c0201553          	fcvt.l.s	a0,ft0,rtz
   10458:	001015f3          	fsflags	a1,zero
   1045c:	00000613          	li	a2,0
   10460:	40d51263          	bne	a0,a3,10864 <fail>
   10464:	40c59063          	bne	a1,a2,10864 <fail>

0000000000010468 <test_24>:
   10468:	01800193          	li	gp,24
   1046c:	00002517          	auipc	a0,0x2
   10470:	cb450513          	addi	a0,a0,-844 # 12120 <test_24_data>
   10474:	00052007          	flw	ft0,0(a0)
   10478:	00452087          	flw	ft1,4(a0)
   1047c:	00852107          	flw	ft2,8(a0)
   10480:	00c52683          	lw	a3,12(a0)
   10484:	c0201553          	fcvt.l.s	a0,ft0,rtz
   10488:	001015f3          	fsflags	a1,zero
   1048c:	00100613          	li	a2,1
   10490:	3cd51a63          	bne	a0,a3,10864 <fail>
   10494:	3cc59863          	bne	a1,a2,10864 <fail>

0000000000010498 <test_25>:
   10498:	01900193          	li	gp,25
   1049c:	00002517          	auipc	a0,0x2
   104a0:	c9450513          	addi	a0,a0,-876 # 12130 <test_25_data>
   104a4:	00052007          	flw	ft0,0(a0)
   104a8:	00452087          	flw	ft1,4(a0)
   104ac:	00852107          	flw	ft2,8(a0)
   104b0:	00c52683          	lw	a3,12(a0)
   104b4:	c0201553          	fcvt.l.s	a0,ft0,rtz
   104b8:	001015f3          	fsflags	a1,zero
   104bc:	00100613          	li	a2,1
   104c0:	3ad51263          	bne	a0,a3,10864 <fail>
   104c4:	3ac59063          	bne	a1,a2,10864 <fail>

00000000000104c8 <test_26>:
   104c8:	01a00193          	li	gp,26
   104cc:	00002517          	auipc	a0,0x2
   104d0:	c7450513          	addi	a0,a0,-908 # 12140 <test_26_data>
   104d4:	00052007          	flw	ft0,0(a0)
   104d8:	00452087          	flw	ft1,4(a0)
   104dc:	00852107          	flw	ft2,8(a0)
   104e0:	00c52683          	lw	a3,12(a0)
   104e4:	c0201553          	fcvt.l.s	a0,ft0,rtz
   104e8:	001015f3          	fsflags	a1,zero
   104ec:	00000613          	li	a2,0
   104f0:	36d51a63          	bne	a0,a3,10864 <fail>
   104f4:	36c59863          	bne	a1,a2,10864 <fail>

00000000000104f8 <test_27>:
   104f8:	01b00193          	li	gp,27
   104fc:	00002517          	auipc	a0,0x2
   10500:	c5450513          	addi	a0,a0,-940 # 12150 <test_27_data>
   10504:	00052007          	flw	ft0,0(a0)
   10508:	00452087          	flw	ft1,4(a0)
   1050c:	00852107          	flw	ft2,8(a0)
   10510:	00c52683          	lw	a3,12(a0)
   10514:	c0201553          	fcvt.l.s	a0,ft0,rtz
   10518:	001015f3          	fsflags	a1,zero
   1051c:	00100613          	li	a2,1
   10520:	34d51263          	bne	a0,a3,10864 <fail>
   10524:	34c59063          	bne	a1,a2,10864 <fail>

0000000000010528 <test_32>:
   10528:	02000193          	li	gp,32
   1052c:	00002517          	auipc	a0,0x2
   10530:	c3450513          	addi	a0,a0,-972 # 12160 <test_32_data>
   10534:	00052007          	flw	ft0,0(a0)
   10538:	00452087          	flw	ft1,4(a0)
   1053c:	00852107          	flw	ft2,8(a0)
   10540:	00c52683          	lw	a3,12(a0)
   10544:	c0301553          	fcvt.lu.s	a0,ft0,rtz
   10548:	001015f3          	fsflags	a1,zero
   1054c:	01000613          	li	a2,16
   10550:	30d51a63          	bne	a0,a3,10864 <fail>
   10554:	30c59863          	bne	a1,a2,10864 <fail>

0000000000010558 <test_33>:
   10558:	02100193          	li	gp,33
   1055c:	00002517          	auipc	a0,0x2
   10560:	c1450513          	addi	a0,a0,-1004 # 12170 <test_33_data>
   10564:	00052007          	flw	ft0,0(a0)
   10568:	00452087          	flw	ft1,4(a0)
   1056c:	00852107          	flw	ft2,8(a0)
   10570:	00c52683          	lw	a3,12(a0)
   10574:	c0301553          	fcvt.lu.s	a0,ft0,rtz
   10578:	001015f3          	fsflags	a1,zero
   1057c:	01000613          	li	a2,16
   10580:	2ed51263          	bne	a0,a3,10864 <fail>
   10584:	2ec59063          	bne	a1,a2,10864 <fail>

0000000000010588 <test_34>:
   10588:	02200193          	li	gp,34
   1058c:	00002517          	auipc	a0,0x2
   10590:	bf450513          	addi	a0,a0,-1036 # 12180 <test_34_data>
   10594:	00052007          	flw	ft0,0(a0)
   10598:	00452087          	flw	ft1,4(a0)
   1059c:	00852107          	flw	ft2,8(a0)
   105a0:	00c52683          	lw	a3,12(a0)
   105a4:	c0301553          	fcvt.lu.s	a0,ft0,rtz
   105a8:	001015f3          	fsflags	a1,zero
   105ac:	00100613          	li	a2,1
   105b0:	2ad51a63          	bne	a0,a3,10864 <fail>
   105b4:	2ac59863          	bne	a1,a2,10864 <fail>

00000000000105b8 <test_35>:
   105b8:	02300193          	li	gp,35
   105bc:	00002517          	auipc	a0,0x2
   105c0:	bd450513          	addi	a0,a0,-1068 # 12190 <test_35_data>
   105c4:	00052007          	flw	ft0,0(a0)
   105c8:	00452087          	flw	ft1,4(a0)
   105cc:	00852107          	flw	ft2,8(a0)
   105d0:	00c52683          	lw	a3,12(a0)
   105d4:	c0301553          	fcvt.lu.s	a0,ft0,rtz
   105d8:	001015f3          	fsflags	a1,zero
   105dc:	00100613          	li	a2,1
   105e0:	28d51263          	bne	a0,a3,10864 <fail>
   105e4:	28c59063          	bne	a1,a2,10864 <fail>

00000000000105e8 <test_36>:
   105e8:	02400193          	li	gp,36
   105ec:	00002517          	auipc	a0,0x2
   105f0:	bb450513          	addi	a0,a0,-1100 # 121a0 <test_36_data>
   105f4:	00052007          	flw	ft0,0(a0)
   105f8:	00452087          	flw	ft1,4(a0)
   105fc:	00852107          	flw	ft2,8(a0)
   10600:	00c52683          	lw	a3,12(a0)
   10604:	c0301553          	fcvt.lu.s	a0,ft0,rtz
   10608:	001015f3          	fsflags	a1,zero
   1060c:	00000613          	li	a2,0
   10610:	24d51a63          	bne	a0,a3,10864 <fail>
   10614:	24c59863          	bne	a1,a2,10864 <fail>

0000000000010618 <test_37>:
   10618:	02500193          	li	gp,37
   1061c:	00002517          	auipc	a0,0x2
   10620:	b9450513          	addi	a0,a0,-1132 # 121b0 <test_37_data>
   10624:	00052007          	flw	ft0,0(a0)
   10628:	00452087          	flw	ft1,4(a0)
   1062c:	00852107          	flw	ft2,8(a0)
   10630:	00c52683          	lw	a3,12(a0)
   10634:	c0301553          	fcvt.lu.s	a0,ft0,rtz
   10638:	001015f3          	fsflags	a1,zero
   1063c:	00100613          	li	a2,1
   10640:	22d51263          	bne	a0,a3,10864 <fail>
   10644:	22c59063          	bne	a1,a2,10864 <fail>

0000000000010648 <test_38>:
   10648:	02600193          	li	gp,38
   1064c:	00002517          	auipc	a0,0x2
   10650:	b7450513          	addi	a0,a0,-1164 # 121c0 <test_38_data>
   10654:	00052007          	flw	ft0,0(a0)
   10658:	00452087          	flw	ft1,4(a0)
   1065c:	00852107          	flw	ft2,8(a0)
   10660:	00c52683          	lw	a3,12(a0)
   10664:	c0301553          	fcvt.lu.s	a0,ft0,rtz
   10668:	001015f3          	fsflags	a1,zero
   1066c:	01000613          	li	a2,16
   10670:	1ed51a63          	bne	a0,a3,10864 <fail>
   10674:	1ec59863          	bne	a1,a2,10864 <fail>

0000000000010678 <test_42>:
   10678:	00002097          	auipc	ra,0x2
   1067c:	b5808093          	addi	ra,ra,-1192 # 121d0 <begin_signature>
   10680:	0000a087          	flw	ft1,0(ra)
   10684:	c000f0d3          	fcvt.w.s	ra,ft1
   10688:	80000eb7          	lui	t4,0x80000
   1068c:	fffe8e9b          	addiw	t4,t4,-1
   10690:	02a00193          	li	gp,42
   10694:	1dd09863          	bne	ra,t4,10864 <fail>

0000000000010698 <test_44>:
   10698:	00002097          	auipc	ra,0x2
   1069c:	b3808093          	addi	ra,ra,-1224 # 121d0 <begin_signature>
   106a0:	0080a087          	flw	ft1,8(ra)
   106a4:	c000f0d3          	fcvt.w.s	ra,ft1
   106a8:	80000eb7          	lui	t4,0x80000
   106ac:	02c00193          	li	gp,44
   106b0:	1bd09a63          	bne	ra,t4,10864 <fail>

00000000000106b4 <test_43>:
   106b4:	00002097          	auipc	ra,0x2
   106b8:	b1c08093          	addi	ra,ra,-1252 # 121d0 <begin_signature>
   106bc:	0000a087          	flw	ft1,0(ra)
   106c0:	c020f0d3          	fcvt.l.s	ra,ft1
   106c4:	fff00e9b          	addiw	t4,zero,-1
   106c8:	03fe9e93          	slli	t4,t4,0x3f
   106cc:	fffe8e93          	addi	t4,t4,-1 # ffffffff7fffffff <_end+0xffffffff7ffeddff>
   106d0:	02b00193          	li	gp,43
   106d4:	19d09863          	bne	ra,t4,10864 <fail>

00000000000106d8 <test_45>:
   106d8:	00002097          	auipc	ra,0x2
   106dc:	af808093          	addi	ra,ra,-1288 # 121d0 <begin_signature>
   106e0:	0080a087          	flw	ft1,8(ra)
   106e4:	c020f0d3          	fcvt.l.s	ra,ft1
   106e8:	fff00e9b          	addiw	t4,zero,-1
   106ec:	03fe9e93          	slli	t4,t4,0x3f
   106f0:	02d00193          	li	gp,45
   106f4:	17d09863          	bne	ra,t4,10864 <fail>

00000000000106f8 <test_52>:
   106f8:	00002097          	auipc	ra,0x2
   106fc:	ad808093          	addi	ra,ra,-1320 # 121d0 <begin_signature>
   10700:	0040a087          	flw	ft1,4(ra)
   10704:	c000f0d3          	fcvt.w.s	ra,ft1
   10708:	80000eb7          	lui	t4,0x80000
   1070c:	fffe8e9b          	addiw	t4,t4,-1
   10710:	03400193          	li	gp,52
   10714:	15d09863          	bne	ra,t4,10864 <fail>

0000000000010718 <test_54>:
   10718:	00002097          	auipc	ra,0x2
   1071c:	ab808093          	addi	ra,ra,-1352 # 121d0 <begin_signature>
   10720:	00c0a087          	flw	ft1,12(ra)
   10724:	c000f0d3          	fcvt.w.s	ra,ft1
   10728:	80000eb7          	lui	t4,0x80000
   1072c:	fffe8e9b          	addiw	t4,t4,-1
   10730:	03600193          	li	gp,54
   10734:	13d09863          	bne	ra,t4,10864 <fail>

0000000000010738 <test_53>:
   10738:	00002097          	auipc	ra,0x2
   1073c:	a9808093          	addi	ra,ra,-1384 # 121d0 <begin_signature>
   10740:	0040a087          	flw	ft1,4(ra)
   10744:	c020f0d3          	fcvt.l.s	ra,ft1
   10748:	fff00e9b          	addiw	t4,zero,-1
   1074c:	03fe9e93          	slli	t4,t4,0x3f
   10750:	fffe8e93          	addi	t4,t4,-1 # ffffffff7fffffff <_end+0xffffffff7ffeddff>
   10754:	03500193          	li	gp,53
   10758:	11d09663          	bne	ra,t4,10864 <fail>

000000000001075c <test_55>:
   1075c:	00002097          	auipc	ra,0x2
   10760:	a7408093          	addi	ra,ra,-1420 # 121d0 <begin_signature>
   10764:	00c0a087          	flw	ft1,12(ra)
   10768:	c020f0d3          	fcvt.l.s	ra,ft1
   1076c:	fff00e9b          	addiw	t4,zero,-1
   10770:	03fe9e93          	slli	t4,t4,0x3f
   10774:	fffe8e93          	addi	t4,t4,-1
   10778:	03700193          	li	gp,55
   1077c:	0fd09463          	bne	ra,t4,10864 <fail>

0000000000010780 <test_62>:
   10780:	00002097          	auipc	ra,0x2
   10784:	a5008093          	addi	ra,ra,-1456 # 121d0 <begin_signature>
   10788:	0000a087          	flw	ft1,0(ra)
   1078c:	c010f0d3          	fcvt.wu.s	ra,ft1
   10790:	fff00e93          	li	t4,-1
   10794:	03e00193          	li	gp,62
   10798:	0dd09663          	bne	ra,t4,10864 <fail>

000000000001079c <test_63>:
   1079c:	00002097          	auipc	ra,0x2
   107a0:	a3408093          	addi	ra,ra,-1484 # 121d0 <begin_signature>
   107a4:	0040a087          	flw	ft1,4(ra)
   107a8:	c010f0d3          	fcvt.wu.s	ra,ft1
   107ac:	fff00e93          	li	t4,-1
   107b0:	03f00193          	li	gp,63
   107b4:	0bd09863          	bne	ra,t4,10864 <fail>

00000000000107b8 <test_64>:
   107b8:	00002097          	auipc	ra,0x2
   107bc:	a1808093          	addi	ra,ra,-1512 # 121d0 <begin_signature>
   107c0:	0080a087          	flw	ft1,8(ra)
   107c4:	c010f0d3          	fcvt.wu.s	ra,ft1
   107c8:	00000e93          	li	t4,0
   107cc:	04000193          	li	gp,64
   107d0:	09d09a63          	bne	ra,t4,10864 <fail>

00000000000107d4 <test_65>:
   107d4:	00002097          	auipc	ra,0x2
   107d8:	9fc08093          	addi	ra,ra,-1540 # 121d0 <begin_signature>
   107dc:	00c0a087          	flw	ft1,12(ra)
   107e0:	c010f0d3          	fcvt.wu.s	ra,ft1
   107e4:	fff00e93          	li	t4,-1
   107e8:	04100193          	li	gp,65
   107ec:	07d09c63          	bne	ra,t4,10864 <fail>

00000000000107f0 <test_66>:
   107f0:	00002097          	auipc	ra,0x2
   107f4:	9e008093          	addi	ra,ra,-1568 # 121d0 <begin_signature>
   107f8:	0000a087          	flw	ft1,0(ra)
   107fc:	c030f0d3          	fcvt.lu.s	ra,ft1
   10800:	fff00e93          	li	t4,-1
   10804:	04200193          	li	gp,66
   10808:	05d09e63          	bne	ra,t4,10864 <fail>

000000000001080c <test_67>:
   1080c:	00002097          	auipc	ra,0x2
   10810:	9c408093          	addi	ra,ra,-1596 # 121d0 <begin_signature>
   10814:	0040a087          	flw	ft1,4(ra)
   10818:	c030f0d3          	fcvt.lu.s	ra,ft1
   1081c:	fff00e93          	li	t4,-1
   10820:	04300193          	li	gp,67
   10824:	05d09063          	bne	ra,t4,10864 <fail>

0000000000010828 <test_68>:
   10828:	00002097          	auipc	ra,0x2
   1082c:	9a808093          	addi	ra,ra,-1624 # 121d0 <begin_signature>
   10830:	0080a087          	flw	ft1,8(ra)
   10834:	c030f0d3          	fcvt.lu.s	ra,ft1
   10838:	00000e93          	li	t4,0
   1083c:	04400193          	li	gp,68
   10840:	03d09263          	bne	ra,t4,10864 <fail>

0000000000010844 <test_69>:
   10844:	00002097          	auipc	ra,0x2
   10848:	98c08093          	addi	ra,ra,-1652 # 121d0 <begin_signature>
   1084c:	00c0a087          	flw	ft1,12(ra)
   10850:	c030f0d3          	fcvt.lu.s	ra,ft1
   10854:	fff00e93          	li	t4,-1
   10858:	04500193          	li	gp,69
   1085c:	01d09463          	bne	ra,t4,10864 <fail>
   10860:	00301c63          	bne	zero,gp,10878 <pass>

0000000000010864 <fail>:
   10864:	0ff0000f          	fence
   10868:	00018063          	beqz	gp,10868 <fail+0x4>
   1086c:	00119193          	slli	gp,gp,0x1
   10870:	0011e193          	ori	gp,gp,1
   10874:	00000073          	ecall

0000000000010878 <pass>:
   10878:	0ff0000f          	fence
   1087c:	00100193          	li	gp,1
   10880:	00000073          	ecall
   10884:	c0001073          	unimp
   10888:	0000                	unimp
   1088a:	0000                	unimp
   1088c:	0000                	unimp
   1088e:	0000                	unimp
   10890:	0000                	unimp
   10892:	0000                	unimp
   10894:	0000                	unimp
   10896:	0000                	unimp
   10898:	0000                	unimp
   1089a:	0000                	unimp
   1089c:	0000                	unimp
   1089e:	0000                	unimp
   108a0:	0000                	unimp
   108a2:	0000                	unimp
   108a4:	0000                	unimp
   108a6:	0000                	unimp
   108a8:	0000                	unimp
   108aa:	0000                	unimp
   108ac:	0000                	unimp
   108ae:	0000                	unimp
   108b0:	0000                	unimp
   108b2:	0000                	unimp
   108b4:	0000                	unimp
   108b6:	0000                	unimp
   108b8:	0000                	unimp
   108ba:	0000                	unimp
   108bc:	0000                	unimp
   108be:	0000                	unimp
   108c0:	0000                	unimp
   108c2:	0000                	unimp
