
rv64ui-p-xori:     file format elf64-littleriscv


Disassembly of section .text.init:

0000000000010000 <_start>:
   10000:	04c0006f          	j	1004c <reset_vector>

0000000000010004 <trap_vector>:
   10004:	34202f73          	csrr	t5,mcause
   10008:	00800f93          	li	t6,8
   1000c:	03ff0a63          	beq	t5,t6,10040 <write_tohost>
   10010:	00900f93          	li	t6,9
   10014:	03ff0663          	beq	t5,t6,10040 <write_tohost>
   10018:	00b00f93          	li	t6,11
   1001c:	03ff0263          	beq	t5,t6,10040 <write_tohost>
   10020:	ffff0f17          	auipc	t5,0xffff0
   10024:	fe0f0f13          	addi	t5,t5,-32 # 0 <_start-0x10000>
   10028:	000f0463          	beqz	t5,10030 <trap_vector+0x2c>
   1002c:	000f0067          	jr	t5
   10030:	34202f73          	csrr	t5,mcause
   10034:	000f5463          	bgez	t5,1003c <handle_exception>
   10038:	0040006f          	j	1003c <handle_exception>

000000000001003c <handle_exception>:
   1003c:	5391e193          	ori	gp,gp,1337

0000000000010040 <write_tohost>:
   10040:	00001f17          	auipc	t5,0x1
   10044:	fc3f2023          	sw	gp,-64(t5) # 11000 <tohost>
   10048:	ff9ff06f          	j	10040 <write_tohost>

000000000001004c <reset_vector>:
   1004c:	f1402573          	csrr	a0,mhartid
   10050:	00051063          	bnez	a0,10050 <reset_vector+0x4>
   10054:	00000297          	auipc	t0,0x0
   10058:	01028293          	addi	t0,t0,16 # 10064 <reset_vector+0x18>
   1005c:	30529073          	csrw	mtvec,t0
   10060:	18005073          	csrwi	satp,0
   10064:	00000297          	auipc	t0,0x0
   10068:	01c28293          	addi	t0,t0,28 # 10080 <reset_vector+0x34>
   1006c:	30529073          	csrw	mtvec,t0
   10070:	fff00293          	li	t0,-1
   10074:	3b029073          	csrw	pmpaddr0,t0
   10078:	01f00293          	li	t0,31
   1007c:	3a029073          	csrw	pmpcfg0,t0
   10080:	00000297          	auipc	t0,0x0
   10084:	01828293          	addi	t0,t0,24 # 10098 <reset_vector+0x4c>
   10088:	30529073          	csrw	mtvec,t0
   1008c:	30205073          	csrwi	medeleg,0
   10090:	30305073          	csrwi	mideleg,0
   10094:	30405073          	csrwi	mie,0
   10098:	00000193          	li	gp,0
   1009c:	00000297          	auipc	t0,0x0
   100a0:	f6828293          	addi	t0,t0,-152 # 10004 <trap_vector>
   100a4:	30529073          	csrw	mtvec,t0
   100a8:	00100513          	li	a0,1
   100ac:	01f51513          	slli	a0,a0,0x1f
   100b0:	00055863          	bgez	a0,100c0 <reset_vector+0x74>
   100b4:	0ff0000f          	fence
   100b8:	00100193          	li	gp,1
   100bc:	00000073          	ecall
   100c0:	ffff0297          	auipc	t0,0xffff0
   100c4:	f4028293          	addi	t0,t0,-192 # 0 <_start-0x10000>
   100c8:	00028e63          	beqz	t0,100e4 <reset_vector+0x98>
   100cc:	10529073          	csrw	stvec,t0
   100d0:	0000b2b7          	lui	t0,0xb
   100d4:	1092829b          	addiw	t0,t0,265
   100d8:	30229073          	csrw	medeleg,t0
   100dc:	30202373          	csrr	t1,medeleg
   100e0:	f4629ee3          	bne	t0,t1,1003c <handle_exception>
   100e4:	30005073          	csrwi	mstatus,0
   100e8:	00000297          	auipc	t0,0x0
   100ec:	01428293          	addi	t0,t0,20 # 100fc <test_2>
   100f0:	34129073          	csrw	mepc,t0
   100f4:	f1402573          	csrr	a0,mhartid
   100f8:	30200073          	mret

00000000000100fc <test_2>:
   100fc:	00ff10b7          	lui	ra,0xff1
   10100:	f000809b          	addiw	ra,ra,-256
   10104:	f0f0cf13          	xori	t5,ra,-241
   10108:	ff00feb7          	lui	t4,0xff00f
   1010c:	00fe8e9b          	addiw	t4,t4,15
   10110:	00200193          	li	gp,2
   10114:	1ddf1663          	bne	t5,t4,102e0 <fail>

0000000000010118 <test_3>:
   10118:	0ff010b7          	lui	ra,0xff01
   1011c:	ff00809b          	addiw	ra,ra,-16
   10120:	0f00cf13          	xori	t5,ra,240
   10124:	0ff01eb7          	lui	t4,0xff01
   10128:	f00e8e9b          	addiw	t4,t4,-256
   1012c:	00300193          	li	gp,3
   10130:	1bdf1863          	bne	t5,t4,102e0 <fail>

0000000000010134 <test_4>:
   10134:	00ff10b7          	lui	ra,0xff1
   10138:	8ff0809b          	addiw	ra,ra,-1793
   1013c:	70f0cf13          	xori	t5,ra,1807
   10140:	00ff1eb7          	lui	t4,0xff1
   10144:	ff0e8e9b          	addiw	t4,t4,-16
   10148:	00400193          	li	gp,4
   1014c:	19df1a63          	bne	t5,t4,102e0 <fail>

0000000000010150 <test_5>:
   10150:	f00ff0b7          	lui	ra,0xf00ff
   10154:	00f0809b          	addiw	ra,ra,15
   10158:	0f00cf13          	xori	t5,ra,240
   1015c:	f00ffeb7          	lui	t4,0xf00ff
   10160:	0ffe8e9b          	addiw	t4,t4,255
   10164:	00500193          	li	gp,5
   10168:	17df1c63          	bne	t5,t4,102e0 <fail>

000000000001016c <test_6>:
   1016c:	ff00f0b7          	lui	ra,0xff00f
   10170:	7000809b          	addiw	ra,ra,1792
   10174:	70f0c093          	xori	ra,ra,1807
   10178:	ff00feb7          	lui	t4,0xff00f
   1017c:	00fe8e9b          	addiw	t4,t4,15
   10180:	00600193          	li	gp,6
   10184:	15d09e63          	bne	ra,t4,102e0 <fail>

0000000000010188 <test_7>:
   10188:	00000213          	li	tp,0
   1018c:	0ff010b7          	lui	ra,0xff01
   10190:	ff00809b          	addiw	ra,ra,-16
   10194:	0f00cf13          	xori	t5,ra,240
   10198:	000f0313          	mv	t1,t5
   1019c:	00120213          	addi	tp,tp,1 # 1 <_start-0xffff>
   101a0:	00200293          	li	t0,2
   101a4:	fe5214e3          	bne	tp,t0,1018c <test_7+0x4>
   101a8:	0ff01eb7          	lui	t4,0xff01
   101ac:	f00e8e9b          	addiw	t4,t4,-256
   101b0:	00700193          	li	gp,7
   101b4:	13d31663          	bne	t1,t4,102e0 <fail>

00000000000101b8 <test_8>:
   101b8:	00000213          	li	tp,0
   101bc:	00ff10b7          	lui	ra,0xff1
   101c0:	8ff0809b          	addiw	ra,ra,-1793
   101c4:	70f0cf13          	xori	t5,ra,1807
   101c8:	00000013          	nop
   101cc:	000f0313          	mv	t1,t5
   101d0:	00120213          	addi	tp,tp,1 # 1 <_start-0xffff>
   101d4:	00200293          	li	t0,2
   101d8:	fe5212e3          	bne	tp,t0,101bc <test_8+0x4>
   101dc:	00ff1eb7          	lui	t4,0xff1
   101e0:	ff0e8e9b          	addiw	t4,t4,-16
   101e4:	00800193          	li	gp,8
   101e8:	0fd31c63          	bne	t1,t4,102e0 <fail>

00000000000101ec <test_9>:
   101ec:	00000213          	li	tp,0
   101f0:	f00ff0b7          	lui	ra,0xf00ff
   101f4:	00f0809b          	addiw	ra,ra,15
   101f8:	0f00cf13          	xori	t5,ra,240
   101fc:	00000013          	nop
   10200:	00000013          	nop
   10204:	000f0313          	mv	t1,t5
   10208:	00120213          	addi	tp,tp,1 # 1 <_start-0xffff>
   1020c:	00200293          	li	t0,2
   10210:	fe5210e3          	bne	tp,t0,101f0 <test_9+0x4>
   10214:	f00ffeb7          	lui	t4,0xf00ff
   10218:	0ffe8e9b          	addiw	t4,t4,255
   1021c:	00900193          	li	gp,9
   10220:	0dd31063          	bne	t1,t4,102e0 <fail>

0000000000010224 <test_10>:
   10224:	00000213          	li	tp,0
   10228:	0ff010b7          	lui	ra,0xff01
   1022c:	ff00809b          	addiw	ra,ra,-16
   10230:	0f00cf13          	xori	t5,ra,240
   10234:	00120213          	addi	tp,tp,1 # 1 <_start-0xffff>
   10238:	00200293          	li	t0,2
   1023c:	fe5216e3          	bne	tp,t0,10228 <test_10+0x4>
   10240:	0ff01eb7          	lui	t4,0xff01
   10244:	f00e8e9b          	addiw	t4,t4,-256
   10248:	00a00193          	li	gp,10
   1024c:	09df1a63          	bne	t5,t4,102e0 <fail>

0000000000010250 <test_11>:
   10250:	00000213          	li	tp,0
   10254:	00ff10b7          	lui	ra,0xff1
   10258:	fff0809b          	addiw	ra,ra,-1
   1025c:	00000013          	nop
   10260:	00f0cf13          	xori	t5,ra,15
   10264:	00120213          	addi	tp,tp,1 # 1 <_start-0xffff>
   10268:	00200293          	li	t0,2
   1026c:	fe5214e3          	bne	tp,t0,10254 <test_11+0x4>
   10270:	00ff1eb7          	lui	t4,0xff1
   10274:	ff0e8e9b          	addiw	t4,t4,-16
   10278:	00b00193          	li	gp,11
   1027c:	07df1263          	bne	t5,t4,102e0 <fail>

0000000000010280 <test_12>:
   10280:	00000213          	li	tp,0
   10284:	f00ff0b7          	lui	ra,0xf00ff
   10288:	00f0809b          	addiw	ra,ra,15
   1028c:	00000013          	nop
   10290:	00000013          	nop
   10294:	0f00cf13          	xori	t5,ra,240
   10298:	00120213          	addi	tp,tp,1 # 1 <_start-0xffff>
   1029c:	00200293          	li	t0,2
   102a0:	fe5212e3          	bne	tp,t0,10284 <test_12+0x4>
   102a4:	f00ffeb7          	lui	t4,0xf00ff
   102a8:	0ffe8e9b          	addiw	t4,t4,255
   102ac:	00c00193          	li	gp,12
   102b0:	03df1863          	bne	t5,t4,102e0 <fail>

00000000000102b4 <test_13>:
   102b4:	0f004093          	xori	ra,zero,240
   102b8:	0f000e93          	li	t4,240
   102bc:	00d00193          	li	gp,13
   102c0:	03d09063          	bne	ra,t4,102e0 <fail>

00000000000102c4 <test_14>:
   102c4:	00ff00b7          	lui	ra,0xff0
   102c8:	0ff0809b          	addiw	ra,ra,255
   102cc:	70f0c013          	xori	zero,ra,1807
   102d0:	00000e93          	li	t4,0
   102d4:	00e00193          	li	gp,14
   102d8:	01d01463          	bne	zero,t4,102e0 <fail>
   102dc:	00301c63          	bne	zero,gp,102f4 <pass>

00000000000102e0 <fail>:
   102e0:	0ff0000f          	fence
   102e4:	00018063          	beqz	gp,102e4 <fail+0x4>
   102e8:	00119193          	slli	gp,gp,0x1
   102ec:	0011e193          	ori	gp,gp,1
   102f0:	00000073          	ecall

00000000000102f4 <pass>:
   102f4:	0ff0000f          	fence
   102f8:	00100193          	li	gp,1
   102fc:	00000073          	ecall
   10300:	c0001073          	unimp
