
rv64mi-p-ma_addr:     file format elf64-littleriscv


Disassembly of section .text.init:

0000000000010000 <_start>:
   10000:	04c0006f          	j	1004c <reset_vector>

0000000000010004 <trap_vector>:
   10004:	34202f73          	csrr	t5,mcause
   10008:	00800f93          	li	t6,8
   1000c:	03ff0a63          	beq	t5,t6,10040 <write_tohost>
   10010:	00900f93          	li	t6,9
   10014:	03ff0663          	beq	t5,t6,10040 <write_tohost>
   10018:	00b00f93          	li	t6,11
   1001c:	03ff0263          	beq	t5,t6,10040 <write_tohost>
   10020:	00000f17          	auipc	t5,0x0
   10024:	5e8f0f13          	addi	t5,t5,1512 # 10608 <mtvec_handler>
   10028:	000f0463          	beqz	t5,10030 <trap_vector+0x2c>
   1002c:	000f0067          	jr	t5
   10030:	34202f73          	csrr	t5,mcause
   10034:	000f5463          	bgez	t5,1003c <handle_exception>
   10038:	0040006f          	j	1003c <handle_exception>

000000000001003c <handle_exception>:
   1003c:	5391e193          	ori	gp,gp,1337

0000000000010040 <write_tohost>:
   10040:	00001f17          	auipc	t5,0x1
   10044:	fc3f2023          	sw	gp,-64(t5) # 11000 <tohost>
   10048:	ff9ff06f          	j	10040 <write_tohost>

000000000001004c <reset_vector>:
   1004c:	f1402573          	csrr	a0,mhartid
   10050:	00051063          	bnez	a0,10050 <reset_vector+0x4>
   10054:	00000297          	auipc	t0,0x0
   10058:	01028293          	addi	t0,t0,16 # 10064 <reset_vector+0x18>
   1005c:	30529073          	csrw	mtvec,t0
   10060:	18005073          	csrwi	satp,0
   10064:	00000297          	auipc	t0,0x0
   10068:	01c28293          	addi	t0,t0,28 # 10080 <reset_vector+0x34>
   1006c:	30529073          	csrw	mtvec,t0
   10070:	fff00293          	li	t0,-1
   10074:	3b029073          	csrw	pmpaddr0,t0
   10078:	01f00293          	li	t0,31
   1007c:	3a029073          	csrw	pmpcfg0,t0
   10080:	00000297          	auipc	t0,0x0
   10084:	01828293          	addi	t0,t0,24 # 10098 <reset_vector+0x4c>
   10088:	30529073          	csrw	mtvec,t0
   1008c:	30205073          	csrwi	medeleg,0
   10090:	30305073          	csrwi	mideleg,0
   10094:	30405073          	csrwi	mie,0
   10098:	00000193          	li	gp,0
   1009c:	00000297          	auipc	t0,0x0
   100a0:	f6828293          	addi	t0,t0,-152 # 10004 <trap_vector>
   100a4:	30529073          	csrw	mtvec,t0
   100a8:	00100513          	li	a0,1
   100ac:	01f51513          	slli	a0,a0,0x1f
   100b0:	00055863          	bgez	a0,100c0 <reset_vector+0x74>
   100b4:	0ff0000f          	fence
   100b8:	00100193          	li	gp,1
   100bc:	00000073          	ecall
   100c0:	ffff0297          	auipc	t0,0xffff0
   100c4:	f4028293          	addi	t0,t0,-192 # 0 <_start-0x10000>
   100c8:	00028e63          	beqz	t0,100e4 <reset_vector+0x98>
   100cc:	10529073          	csrw	stvec,t0
   100d0:	0000b2b7          	lui	t0,0xb
   100d4:	1092829b          	addiw	t0,t0,265
   100d8:	30229073          	csrw	medeleg,t0
   100dc:	30202373          	csrr	t1,medeleg
   100e0:	f4629ee3          	bne	t0,t1,1003c <handle_exception>
   100e4:	30005073          	csrwi	mstatus,0
   100e8:	00002537          	lui	a0,0x2
   100ec:	8005051b          	addiw	a0,a0,-2048
   100f0:	30052073          	csrs	mstatus,a0
   100f4:	00000297          	auipc	t0,0x0
   100f8:	01428293          	addi	t0,t0,20 # 10108 <reset_vector+0xbc>
   100fc:	34129073          	csrw	mepc,t0
   10100:	f1402573          	csrr	a0,mhartid
   10104:	30200073          	mret
   10108:	00002417          	auipc	s0,0x2
   1010c:	ef840413          	addi	s0,s0,-264 # 12000 <begin_signature>
   10110:	00400493          	li	s1,4
   10114:	00200193          	li	gp,2
   10118:	00000397          	auipc	t2,0x0
   1011c:	01c38393          	addi	t2,t2,28 # 10134 <reset_vector+0xe8>
   10120:	00140313          	addi	t1,s0,1
   10124:	00141303          	lh	t1,1(s0)
   10128:	ffffc3b7          	lui	t2,0xffffc
   1012c:	bcc3839b          	addiw	t2,t2,-1076
   10130:	4a731c63          	bne	t1,t2,105e8 <fail>
   10134:	00300193          	li	gp,3
   10138:	00000397          	auipc	t2,0x0
   1013c:	01c38393          	addi	t2,t2,28 # 10154 <reset_vector+0x108>
   10140:	00140313          	addi	t1,s0,1
   10144:	00145303          	lhu	t1,1(s0)
   10148:	0000c3b7          	lui	t2,0xc
   1014c:	bcc3839b          	addiw	t2,t2,-1076
   10150:	48731c63          	bne	t1,t2,105e8 <fail>
   10154:	00400193          	li	gp,4
   10158:	00000397          	auipc	t2,0x0
   1015c:	01c38393          	addi	t2,t2,28 # 10174 <reset_vector+0x128>
   10160:	00140313          	addi	t1,s0,1
   10164:	00142303          	lw	t1,1(s0)
   10168:	99aac3b7          	lui	t2,0x99aac
   1016c:	bcc3839b          	addiw	t2,t2,-1076
   10170:	46731c63          	bne	t1,t2,105e8 <fail>
   10174:	00500193          	li	gp,5
   10178:	00000397          	auipc	t2,0x0
   1017c:	01c38393          	addi	t2,t2,28 # 10194 <reset_vector+0x148>
   10180:	00240313          	addi	t1,s0,2
   10184:	00242303          	lw	t1,2(s0)
   10188:	8899b3b7          	lui	t2,0x8899b
   1018c:	abb3839b          	addiw	t2,t2,-1349
   10190:	44731c63          	bne	t1,t2,105e8 <fail>
   10194:	00600193          	li	gp,6
   10198:	00000397          	auipc	t2,0x0
   1019c:	01c38393          	addi	t2,t2,28 # 101b4 <reset_vector+0x168>
   101a0:	00340313          	addi	t1,s0,3
   101a4:	00342303          	lw	t1,3(s0)
   101a8:	7788a3b7          	lui	t2,0x7788a
   101ac:	9aa3839b          	addiw	t2,t2,-1622
   101b0:	42731c63          	bne	t1,t2,105e8 <fail>
   101b4:	00700193          	li	gp,7
   101b8:	00000397          	auipc	t2,0x0
   101bc:	02438393          	addi	t2,t2,36 # 101dc <reset_vector+0x190>
   101c0:	00140313          	addi	t1,s0,1
   101c4:	00146303          	lwu	t1,1(s0)
   101c8:	000263b7          	lui	t2,0x26
   101cc:	6ab3839b          	addiw	t2,t2,1707
   101d0:	00e39393          	slli	t2,t2,0xe
   101d4:	bcc38393          	addi	t2,t2,-1076 # 25bcc <_end+0x13abc>
   101d8:	40731863          	bne	t1,t2,105e8 <fail>
   101dc:	00800193          	li	gp,8
   101e0:	00000397          	auipc	t2,0x0
   101e4:	02438393          	addi	t2,t2,36 # 10204 <reset_vector+0x1b8>
   101e8:	00240313          	addi	t1,s0,2
   101ec:	00246303          	lwu	t1,2(s0)
   101f0:	000893b7          	lui	t2,0x89
   101f4:	99b3839b          	addiw	t2,t2,-1637
   101f8:	00c39393          	slli	t2,t2,0xc
   101fc:	abb38393          	addi	t2,t2,-1349 # 88abb <_end+0x769ab>
   10200:	3e731463          	bne	t1,t2,105e8 <fail>
   10204:	00900193          	li	gp,9
   10208:	00000397          	auipc	t2,0x0
   1020c:	01c38393          	addi	t2,t2,28 # 10224 <reset_vector+0x1d8>
   10210:	00340313          	addi	t1,s0,3
   10214:	00346303          	lwu	t1,3(s0)
   10218:	7788a3b7          	lui	t2,0x7788a
   1021c:	9aa3839b          	addiw	t2,t2,-1622
   10220:	3c731463          	bne	t1,t2,105e8 <fail>
   10224:	00a00193          	li	gp,10
   10228:	00000397          	auipc	t2,0x0
   1022c:	03438393          	addi	t2,t2,52 # 1025c <reset_vector+0x210>
   10230:	00140313          	addi	t1,s0,1
   10234:	00143303          	ld	t1,1(s0)
   10238:	00aad3b7          	lui	t2,0xaad
   1023c:	cef3839b          	addiw	t2,t2,-785
   10240:	00c39393          	slli	t2,t2,0xc
   10244:	11338393          	addi	t2,t2,275 # aad113 <_end+0xa9b003>
   10248:	00d39393          	slli	t2,t2,0xd
   1024c:	6ab38393          	addi	t2,t2,1707
   10250:	00e39393          	slli	t2,t2,0xe
   10254:	bcc38393          	addi	t2,t2,-1076
   10258:	38731863          	bne	t1,t2,105e8 <fail>
   1025c:	00b00193          	li	gp,11
   10260:	00000397          	auipc	t2,0x0
   10264:	03438393          	addi	t2,t2,52 # 10294 <reset_vector+0x248>
   10268:	00240313          	addi	t1,s0,2
   1026c:	00243303          	ld	t1,2(s0)
   10270:	044553b7          	lui	t2,0x4455
   10274:	6673839b          	addiw	t2,t2,1639
   10278:	00c39393          	slli	t2,t2,0xc
   1027c:	78938393          	addi	t2,t2,1929 # 4455789 <_end+0x4443679>
   10280:	00c39393          	slli	t2,t2,0xc
   10284:	99b38393          	addi	t2,t2,-1637
   10288:	00c39393          	slli	t2,t2,0xc
   1028c:	abb38393          	addi	t2,t2,-1349
   10290:	34731c63          	bne	t1,t2,105e8 <fail>
   10294:	00c00193          	li	gp,12
   10298:	00000397          	auipc	t2,0x0
   1029c:	03438393          	addi	t2,t2,52 # 102cc <reset_vector+0x280>
   102a0:	00340313          	addi	t1,s0,3
   102a4:	00343303          	ld	t1,3(s0)
   102a8:	006693b7          	lui	t2,0x669
   102ac:	8ab3839b          	addiw	t2,t2,-1877
   102b0:	00c39393          	slli	t2,t2,0xc
   102b4:	ccf38393          	addi	t2,t2,-817 # 668ccf <_end+0x656bbf>
   102b8:	00e39393          	slli	t2,t2,0xe
   102bc:	c4538393          	addi	t2,t2,-955
   102c0:	00d39393          	slli	t2,t2,0xd
   102c4:	9aa38393          	addi	t2,t2,-1622
   102c8:	32731063          	bne	t1,t2,105e8 <fail>
   102cc:	00d00193          	li	gp,13
   102d0:	00000397          	auipc	t2,0x0
   102d4:	03438393          	addi	t2,t2,52 # 10304 <reset_vector+0x2b8>
   102d8:	00440313          	addi	t1,s0,4
   102dc:	00443303          	ld	t1,4(s0)
   102e0:	0111a3b7          	lui	t2,0x111a
   102e4:	a233839b          	addiw	t2,t2,-1501
   102e8:	00c39393          	slli	t2,t2,0xc
   102ec:	ab338393          	addi	t2,t2,-1357 # 1119ab3 <_end+0x11079a3>
   102f0:	00d39393          	slli	t2,t2,0xd
   102f4:	77938393          	addi	t2,t2,1913
   102f8:	00c39393          	slli	t2,t2,0xc
   102fc:	89938393          	addi	t2,t2,-1895
   10300:	2e731463          	bne	t1,t2,105e8 <fail>
   10304:	00e00193          	li	gp,14
   10308:	00000397          	auipc	t2,0x0
   1030c:	03438393          	addi	t2,t2,52 # 1033c <reset_vector+0x2f0>
   10310:	00540313          	addi	t1,s0,5
   10314:	00543303          	ld	t1,5(s0)
   10318:	004493b7          	lui	t2,0x449
   1031c:	8cd3839b          	addiw	t2,t2,-1843
   10320:	00e39393          	slli	t2,t2,0xe
   10324:	45538393          	addi	t2,t2,1109 # 449455 <_end+0x437345>
   10328:	00c39393          	slli	t2,t2,0xc
   1032c:	66738393          	addi	t2,t2,1639
   10330:	00c39393          	slli	t2,t2,0xc
   10334:	78838393          	addi	t2,t2,1928
   10338:	2a731863          	bne	t1,t2,105e8 <fail>
   1033c:	00f00193          	li	gp,15
   10340:	00000397          	auipc	t2,0x0
   10344:	03438393          	addi	t2,t2,52 # 10374 <reset_vector+0x328>
   10348:	00640313          	addi	t1,s0,6
   1034c:	00643303          	ld	t1,6(s0)
   10350:	ffb843b7          	lui	t2,0xffb84
   10354:	4893839b          	addiw	t2,t2,1161
   10358:	00c39393          	slli	t2,t2,0xc
   1035c:	cd138393          	addi	t2,t2,-815 # ffffffffffb83cd1 <_end+0xffffffffffb71bc1>
   10360:	00d39393          	slli	t2,t2,0xd
   10364:	2ab38393          	addi	t2,t2,683
   10368:	00d39393          	slli	t2,t2,0xd
   1036c:	67738393          	addi	t2,t2,1655
   10370:	26731c63          	bne	t1,t2,105e8 <fail>
   10374:	01000193          	li	gp,16
   10378:	00000397          	auipc	t2,0x0
   1037c:	02c38393          	addi	t2,t2,44 # 103a4 <reset_vector+0x358>
   10380:	00740313          	addi	t1,s0,7
   10384:	00743303          	ld	t1,7(s0)
   10388:	ee1123b7          	lui	t2,0xee112
   1038c:	2333839b          	addiw	t2,t2,563
   10390:	00c39393          	slli	t2,t2,0xc
   10394:	44538393          	addi	t2,t2,1093 # ffffffffee112445 <_end+0xffffffffee100335>
   10398:	00c39393          	slli	t2,t2,0xc
   1039c:	56638393          	addi	t2,t2,1382
   103a0:	24731463          	bne	t1,t2,105e8 <fail>
   103a4:	00600493          	li	s1,6
   103a8:	01600193          	li	gp,22
   103ac:	00000397          	auipc	t2,0x0
   103b0:	03038393          	addi	t2,t2,48 # 103dc <reset_vector+0x390>
   103b4:	00140313          	addi	t1,s0,1
   103b8:	000410a3          	sh	zero,1(s0)
   103bc:	00040303          	lb	t1,0(s0)
   103c0:	22030463          	beqz	t1,105e8 <fail>
   103c4:	00340303          	lb	t1,3(s0)
   103c8:	22030063          	beqz	t1,105e8 <fail>
   103cc:	00140303          	lb	t1,1(s0)
   103d0:	20031c63          	bnez	t1,105e8 <fail>
   103d4:	00240303          	lb	t1,2(s0)
   103d8:	20031863          	bnez	t1,105e8 <fail>
   103dc:	01700193          	li	gp,23
   103e0:	00000397          	auipc	t2,0x0
   103e4:	03038393          	addi	t2,t2,48 # 10410 <reset_vector+0x3c4>
   103e8:	00540313          	addi	t1,s0,5
   103ec:	000422a3          	sw	zero,5(s0)
   103f0:	00440303          	lb	t1,4(s0)
   103f4:	1e030a63          	beqz	t1,105e8 <fail>
   103f8:	00940303          	lb	t1,9(s0)
   103fc:	1e030663          	beqz	t1,105e8 <fail>
   10400:	00540303          	lb	t1,5(s0)
   10404:	1e031263          	bnez	t1,105e8 <fail>
   10408:	00840303          	lb	t1,8(s0)
   1040c:	1c031e63          	bnez	t1,105e8 <fail>
   10410:	01800193          	li	gp,24
   10414:	00000397          	auipc	t2,0x0
   10418:	03038393          	addi	t2,t2,48 # 10444 <reset_vector+0x3f8>
   1041c:	00a40313          	addi	t1,s0,10
   10420:	00042523          	sw	zero,10(s0)
   10424:	00940303          	lb	t1,9(s0)
   10428:	1c030063          	beqz	t1,105e8 <fail>
   1042c:	00e40303          	lb	t1,14(s0)
   10430:	1a030c63          	beqz	t1,105e8 <fail>
   10434:	00a40303          	lb	t1,10(s0)
   10438:	1a031863          	bnez	t1,105e8 <fail>
   1043c:	00d40303          	lb	t1,13(s0)
   10440:	1a031463          	bnez	t1,105e8 <fail>
   10444:	01900193          	li	gp,25
   10448:	00000397          	auipc	t2,0x0
   1044c:	03038393          	addi	t2,t2,48 # 10478 <reset_vector+0x42c>
   10450:	00f40313          	addi	t1,s0,15
   10454:	000427a3          	sw	zero,15(s0)
   10458:	00e40303          	lb	t1,14(s0)
   1045c:	18030663          	beqz	t1,105e8 <fail>
   10460:	01340303          	lb	t1,19(s0)
   10464:	18030263          	beqz	t1,105e8 <fail>
   10468:	00f40303          	lb	t1,15(s0)
   1046c:	16031e63          	bnez	t1,105e8 <fail>
   10470:	01240303          	lb	t1,18(s0)
   10474:	16031a63          	bnez	t1,105e8 <fail>
   10478:	01a00193          	li	gp,26
   1047c:	00000397          	auipc	t2,0x0
   10480:	03038393          	addi	t2,t2,48 # 104ac <reset_vector+0x460>
   10484:	01940313          	addi	t1,s0,25
   10488:	00043ca3          	sd	zero,25(s0)
   1048c:	01840303          	lb	t1,24(s0)
   10490:	14030c63          	beqz	t1,105e8 <fail>
   10494:	02140303          	lb	t1,33(s0)
   10498:	14030863          	beqz	t1,105e8 <fail>
   1049c:	01940303          	lb	t1,25(s0)
   104a0:	14031463          	bnez	t1,105e8 <fail>
   104a4:	02040303          	lb	t1,32(s0)
   104a8:	14031063          	bnez	t1,105e8 <fail>
   104ac:	01b00193          	li	gp,27
   104b0:	00000397          	auipc	t2,0x0
   104b4:	03038393          	addi	t2,t2,48 # 104e0 <reset_vector+0x494>
   104b8:	02240313          	addi	t1,s0,34
   104bc:	02043123          	sd	zero,34(s0)
   104c0:	02140303          	lb	t1,33(s0)
   104c4:	12030263          	beqz	t1,105e8 <fail>
   104c8:	02a40303          	lb	t1,42(s0)
   104cc:	10030e63          	beqz	t1,105e8 <fail>
   104d0:	02240303          	lb	t1,34(s0)
   104d4:	10031a63          	bnez	t1,105e8 <fail>
   104d8:	02940303          	lb	t1,41(s0)
   104dc:	10031663          	bnez	t1,105e8 <fail>
   104e0:	01c00193          	li	gp,28
   104e4:	00000397          	auipc	t2,0x0
   104e8:	03038393          	addi	t2,t2,48 # 10514 <reset_vector+0x4c8>
   104ec:	02b40313          	addi	t1,s0,43
   104f0:	020435a3          	sd	zero,43(s0)
   104f4:	02a40303          	lb	t1,42(s0)
   104f8:	0e030863          	beqz	t1,105e8 <fail>
   104fc:	03340303          	lb	t1,51(s0)
   10500:	0e030463          	beqz	t1,105e8 <fail>
   10504:	02b40303          	lb	t1,43(s0)
   10508:	0e031063          	bnez	t1,105e8 <fail>
   1050c:	03240303          	lb	t1,50(s0)
   10510:	0c031c63          	bnez	t1,105e8 <fail>
   10514:	01d00193          	li	gp,29
   10518:	00000397          	auipc	t2,0x0
   1051c:	03038393          	addi	t2,t2,48 # 10548 <reset_vector+0x4fc>
   10520:	03440313          	addi	t1,s0,52
   10524:	02043a23          	sd	zero,52(s0)
   10528:	03340303          	lb	t1,51(s0)
   1052c:	0a030e63          	beqz	t1,105e8 <fail>
   10530:	03c40303          	lb	t1,60(s0)
   10534:	0a030a63          	beqz	t1,105e8 <fail>
   10538:	03440303          	lb	t1,52(s0)
   1053c:	0a031663          	bnez	t1,105e8 <fail>
   10540:	03b40303          	lb	t1,59(s0)
   10544:	0a031263          	bnez	t1,105e8 <fail>
   10548:	01e00193          	li	gp,30
   1054c:	00000397          	auipc	t2,0x0
   10550:	03038393          	addi	t2,t2,48 # 1057c <reset_vector+0x530>
   10554:	03d40313          	addi	t1,s0,61
   10558:	02043ea3          	sd	zero,61(s0)
   1055c:	03c40303          	lb	t1,60(s0)
   10560:	08030463          	beqz	t1,105e8 <fail>
   10564:	04540303          	lb	t1,69(s0)
   10568:	08030063          	beqz	t1,105e8 <fail>
   1056c:	03d40303          	lb	t1,61(s0)
   10570:	06031c63          	bnez	t1,105e8 <fail>
   10574:	04440303          	lb	t1,68(s0)
   10578:	06031863          	bnez	t1,105e8 <fail>
   1057c:	01f00193          	li	gp,31
   10580:	00000397          	auipc	t2,0x0
   10584:	03038393          	addi	t2,t2,48 # 105b0 <reset_vector+0x564>
   10588:	04640313          	addi	t1,s0,70
   1058c:	04043323          	sd	zero,70(s0)
   10590:	04540303          	lb	t1,69(s0)
   10594:	04030a63          	beqz	t1,105e8 <fail>
   10598:	04e40303          	lb	t1,78(s0)
   1059c:	04030663          	beqz	t1,105e8 <fail>
   105a0:	04640303          	lb	t1,70(s0)
   105a4:	04031263          	bnez	t1,105e8 <fail>
   105a8:	04d40303          	lb	t1,77(s0)
   105ac:	02031e63          	bnez	t1,105e8 <fail>
   105b0:	02000193          	li	gp,32
   105b4:	00000397          	auipc	t2,0x0
   105b8:	03038393          	addi	t2,t2,48 # 105e4 <reset_vector+0x598>
   105bc:	04f40313          	addi	t1,s0,79
   105c0:	040437a3          	sd	zero,79(s0)
   105c4:	04e40303          	lb	t1,78(s0)
   105c8:	02030063          	beqz	t1,105e8 <fail>
   105cc:	05740303          	lb	t1,87(s0)
   105d0:	00030c63          	beqz	t1,105e8 <fail>
   105d4:	04f40303          	lb	t1,79(s0)
   105d8:	00031863          	bnez	t1,105e8 <fail>
   105dc:	05640303          	lb	t1,86(s0)
   105e0:	00031463          	bnez	t1,105e8 <fail>
   105e4:	00301c63          	bne	zero,gp,105fc <pass>

00000000000105e8 <fail>:
   105e8:	0ff0000f          	fence
   105ec:	00018063          	beqz	gp,105ec <fail+0x4>
   105f0:	00119193          	slli	gp,gp,0x1
   105f4:	0011e193          	ori	gp,gp,1
   105f8:	00000073          	ecall

00000000000105fc <pass>:
   105fc:	0ff0000f          	fence
   10600:	00100193          	li	gp,1
   10604:	00000073          	ecall

0000000000010608 <mtvec_handler>:
   10608:	342022f3          	csrr	t0,mcause
   1060c:	fc929ee3          	bne	t0,s1,105e8 <fail>
   10610:	343022f3          	csrr	t0,mbadaddr
   10614:	fc629ae3          	bne	t0,t1,105e8 <fail>
   10618:	00028283          	lb	t0,0(t0)
   1061c:	fc0286e3          	beqz	t0,105e8 <fail>
   10620:	34139073          	csrw	mepc,t2
   10624:	30200073          	mret
   10628:	c0001073          	unimp
   1062c:	0000                	unimp
   1062e:	0000                	unimp
   10630:	0000                	unimp
   10632:	0000                	unimp
   10634:	0000                	unimp
   10636:	0000                	unimp
   10638:	0000                	unimp
   1063a:	0000                	unimp
   1063c:	0000                	unimp
   1063e:	0000                	unimp
