
rv64uc-v-rvc:     file format elf64-littleriscv


Disassembly of section .text.init:

0000000000010000 <_start>:
   10000:	00c0006f          	j	1000c <handle_reset>

0000000000010004 <nmi_vector>:
   10004:	2580206f          	j	1225c <wtf>

0000000000010008 <trap_vector>:
   10008:	2540206f          	j	1225c <wtf>

000000000001000c <handle_reset>:
   1000c:	00000297          	auipc	t0,0x0
   10010:	ffc28293          	addi	t0,t0,-4 # 10008 <trap_vector>
   10014:	30529073          	csrw	mtvec,t0
   10018:	0000c117          	auipc	sp,0xc
   1001c:	6b810113          	addi	sp,sp,1720 # 1c6d0 <_end+0xee0>
   10020:	f14022f3          	csrr	t0,mhartid
   10024:	00c29293          	slli	t0,t0,0xc
   10028:	00510133          	add	sp,sp,t0
   1002c:	34011073          	csrw	mscratch,sp
   10030:	00003517          	auipc	a0,0x3
   10034:	fd050513          	addi	a0,a0,-48 # 13000 <userstart>
   10038:	09d0206f          	j	128d4 <vm_boot>

000000000001003c <pop_tf>:
   1003c:	10853283          	ld	t0,264(a0)
   10040:	14129073          	csrw	sepc,t0
   10044:	00853083          	ld	ra,8(a0)
   10048:	01053103          	ld	sp,16(a0)
   1004c:	01853183          	ld	gp,24(a0)
   10050:	02053203          	ld	tp,32(a0)
   10054:	02853283          	ld	t0,40(a0)
   10058:	03053303          	ld	t1,48(a0)
   1005c:	03853383          	ld	t2,56(a0)
   10060:	04053403          	ld	s0,64(a0)
   10064:	04853483          	ld	s1,72(a0)
   10068:	05853583          	ld	a1,88(a0)
   1006c:	06053603          	ld	a2,96(a0)
   10070:	06853683          	ld	a3,104(a0)
   10074:	07053703          	ld	a4,112(a0)
   10078:	07853783          	ld	a5,120(a0)
   1007c:	08053803          	ld	a6,128(a0)
   10080:	08853883          	ld	a7,136(a0)
   10084:	09053903          	ld	s2,144(a0)
   10088:	09853983          	ld	s3,152(a0)
   1008c:	0a053a03          	ld	s4,160(a0)
   10090:	0a853a83          	ld	s5,168(a0)
   10094:	0b053b03          	ld	s6,176(a0)
   10098:	0b853b83          	ld	s7,184(a0)
   1009c:	0c053c03          	ld	s8,192(a0)
   100a0:	0c853c83          	ld	s9,200(a0)
   100a4:	0d053d03          	ld	s10,208(a0)
   100a8:	0d853d83          	ld	s11,216(a0)
   100ac:	0e053e03          	ld	t3,224(a0)
   100b0:	0e853e83          	ld	t4,232(a0)
   100b4:	0f053f03          	ld	t5,240(a0)
   100b8:	0f853f83          	ld	t6,248(a0)
   100bc:	05053503          	ld	a0,80(a0)
   100c0:	10200073          	sret

00000000000100c4 <trap_entry>:
   100c4:	14011173          	csrrw	sp,sscratch,sp
   100c8:	00113423          	sd	ra,8(sp)
   100cc:	00313c23          	sd	gp,24(sp)
   100d0:	02413023          	sd	tp,32(sp)
   100d4:	02513423          	sd	t0,40(sp)
   100d8:	02613823          	sd	t1,48(sp)
   100dc:	02713c23          	sd	t2,56(sp)
   100e0:	04813023          	sd	s0,64(sp)
   100e4:	04913423          	sd	s1,72(sp)
   100e8:	04a13823          	sd	a0,80(sp)
   100ec:	04b13c23          	sd	a1,88(sp)
   100f0:	06c13023          	sd	a2,96(sp)
   100f4:	06d13423          	sd	a3,104(sp)
   100f8:	06e13823          	sd	a4,112(sp)
   100fc:	06f13c23          	sd	a5,120(sp)
   10100:	09013023          	sd	a6,128(sp)
   10104:	09113423          	sd	a7,136(sp)
   10108:	09213823          	sd	s2,144(sp)
   1010c:	09313c23          	sd	s3,152(sp)
   10110:	0b413023          	sd	s4,160(sp)
   10114:	0b513423          	sd	s5,168(sp)
   10118:	0b613823          	sd	s6,176(sp)
   1011c:	0b713c23          	sd	s7,184(sp)
   10120:	0d813023          	sd	s8,192(sp)
   10124:	0d913423          	sd	s9,200(sp)
   10128:	0da13823          	sd	s10,208(sp)
   1012c:	0db13c23          	sd	s11,216(sp)
   10130:	0fc13023          	sd	t3,224(sp)
   10134:	0fd13423          	sd	t4,232(sp)
   10138:	0fe13823          	sd	t5,240(sp)
   1013c:	0ff13c23          	sd	t6,248(sp)
   10140:	140112f3          	csrrw	t0,sscratch,sp
   10144:	00513823          	sd	t0,16(sp)
   10148:	100022f3          	csrr	t0,sstatus
   1014c:	10513023          	sd	t0,256(sp)
   10150:	141022f3          	csrr	t0,sepc
   10154:	10513423          	sd	t0,264(sp)
   10158:	143022f3          	csrr	t0,sbadaddr
   1015c:	10513823          	sd	t0,272(sp)
   10160:	142022f3          	csrr	t0,scause
   10164:	10513c23          	sd	t0,280(sp)
   10168:	00010513          	mv	a0,sp
   1016c:	4300206f          	j	1259c <handle_trap>

Disassembly of section .text:

0000000000012000 <memcpy>:
   12000:	00c5e7b3          	or	a5,a1,a2
   12004:	00f567b3          	or	a5,a0,a5
   12008:	0077f793          	andi	a5,a5,7
   1200c:	00c506b3          	add	a3,a0,a2
   12010:	02078463          	beqz	a5,12038 <memcpy+0x38>
   12014:	00c58633          	add	a2,a1,a2
   12018:	00050793          	mv	a5,a0
   1201c:	02d57e63          	bleu	a3,a0,12058 <memcpy+0x58>
   12020:	00158593          	addi	a1,a1,1
   12024:	fff5c703          	lbu	a4,-1(a1)
   12028:	00178793          	addi	a5,a5,1
   1202c:	fee78fa3          	sb	a4,-1(a5)
   12030:	feb618e3          	bne	a2,a1,12020 <memcpy+0x20>
   12034:	00008067          	ret
   12038:	fed57ee3          	bleu	a3,a0,12034 <memcpy+0x34>
   1203c:	00050793          	mv	a5,a0
   12040:	00858593          	addi	a1,a1,8
   12044:	ff85b703          	ld	a4,-8(a1)
   12048:	00878793          	addi	a5,a5,8
   1204c:	fee7bc23          	sd	a4,-8(a5)
   12050:	fed7e8e3          	bltu	a5,a3,12040 <memcpy+0x40>
   12054:	00008067          	ret
   12058:	00008067          	ret

000000000001205c <memset>:
   1205c:	00c567b3          	or	a5,a0,a2
   12060:	0077f793          	andi	a5,a5,7
   12064:	00c50633          	add	a2,a0,a2
   12068:	0ff5f593          	andi	a1,a1,255
   1206c:	00078e63          	beqz	a5,12088 <memset+0x2c>
   12070:	00050793          	mv	a5,a0
   12074:	04c57263          	bleu	a2,a0,120b8 <memset+0x5c>
   12078:	00178793          	addi	a5,a5,1
   1207c:	feb78fa3          	sb	a1,-1(a5)
   12080:	fef61ce3          	bne	a2,a5,12078 <memset+0x1c>
   12084:	00008067          	ret
   12088:	00859793          	slli	a5,a1,0x8
   1208c:	00b7e5b3          	or	a1,a5,a1
   12090:	01059793          	slli	a5,a1,0x10
   12094:	00b7e7b3          	or	a5,a5,a1
   12098:	02079593          	slli	a1,a5,0x20
   1209c:	00f5e5b3          	or	a1,a1,a5
   120a0:	fec572e3          	bleu	a2,a0,12084 <memset+0x28>
   120a4:	00050793          	mv	a5,a0
   120a8:	00878793          	addi	a5,a5,8
   120ac:	feb7bc23          	sd	a1,-8(a5)
   120b0:	fec7ece3          	bltu	a5,a2,120a8 <memset+0x4c>
   120b4:	00008067          	ret
   120b8:	00008067          	ret

00000000000120bc <strlen>:
   120bc:	00054783          	lbu	a5,0(a0)
   120c0:	00050713          	mv	a4,a0
   120c4:	00078c63          	beqz	a5,120dc <strlen+0x20>
   120c8:	00150513          	addi	a0,a0,1
   120cc:	00054783          	lbu	a5,0(a0)
   120d0:	fe079ce3          	bnez	a5,120c8 <strlen+0xc>
   120d4:	40e50533          	sub	a0,a0,a4
   120d8:	00008067          	ret
   120dc:	00000513          	li	a0,0
   120e0:	00008067          	ret

00000000000120e4 <strcmp>:
   120e4:	00150513          	addi	a0,a0,1
   120e8:	fff54783          	lbu	a5,-1(a0)
   120ec:	00158593          	addi	a1,a1,1
   120f0:	fff5c703          	lbu	a4,-1(a1)
   120f4:	00078a63          	beqz	a5,12108 <strcmp+0x24>
   120f8:	fee786e3          	beq	a5,a4,120e4 <strcmp>
   120fc:	0007851b          	sext.w	a0,a5
   12100:	40e5053b          	subw	a0,a0,a4
   12104:	00008067          	ret
   12108:	00000513          	li	a0,0
   1210c:	ff5ff06f          	j	12100 <strcmp+0x1c>

0000000000012110 <memcmp>:
   12110:	00b567b3          	or	a5,a0,a1
   12114:	0077f793          	andi	a5,a5,7
   12118:	04079263          	bnez	a5,1215c <memcmp+0x4c>
   1211c:	ff867693          	andi	a3,a2,-8
   12120:	00d506b3          	add	a3,a0,a3
   12124:	00050813          	mv	a6,a0
   12128:	02d57a63          	bleu	a3,a0,1215c <memcmp+0x4c>
   1212c:	00053703          	ld	a4,0(a0)
   12130:	0005b783          	ld	a5,0(a1)
   12134:	00f70a63          	beq	a4,a5,12148 <memcmp+0x38>
   12138:	0240006f          	j	1215c <memcmp+0x4c>
   1213c:	00053703          	ld	a4,0(a0)
   12140:	0005b783          	ld	a5,0(a1)
   12144:	00f71863          	bne	a4,a5,12154 <memcmp+0x44>
   12148:	00850513          	addi	a0,a0,8
   1214c:	00858593          	addi	a1,a1,8
   12150:	fed566e3          	bltu	a0,a3,1213c <memcmp+0x2c>
   12154:	41050833          	sub	a6,a0,a6
   12158:	41060633          	sub	a2,a2,a6
   1215c:	00c58633          	add	a2,a1,a2
   12160:	0140006f          	j	12174 <memcmp+0x64>
   12164:	00158593          	addi	a1,a1,1
   12168:	fff54783          	lbu	a5,-1(a0)
   1216c:	fff5c703          	lbu	a4,-1(a1)
   12170:	00e79a63          	bne	a5,a4,12184 <memcmp+0x74>
   12174:	00150513          	addi	a0,a0,1
   12178:	fec596e3          	bne	a1,a2,12164 <memcmp+0x54>
   1217c:	00000513          	li	a0,0
   12180:	00008067          	ret
   12184:	40e7853b          	subw	a0,a5,a4
   12188:	00008067          	ret

000000000001218c <strcpy>:
   1218c:	00050793          	mv	a5,a0
   12190:	00158593          	addi	a1,a1,1
   12194:	fff5c703          	lbu	a4,-1(a1)
   12198:	00178793          	addi	a5,a5,1
   1219c:	fee78fa3          	sb	a4,-1(a5)
   121a0:	fe0718e3          	bnez	a4,12190 <strcpy+0x4>
   121a4:	00008067          	ret

00000000000121a8 <atol>:
   121a8:	00054783          	lbu	a5,0(a0)
   121ac:	02000713          	li	a4,32
   121b0:	00e79863          	bne	a5,a4,121c0 <atol+0x18>
   121b4:	00150513          	addi	a0,a0,1
   121b8:	00054783          	lbu	a5,0(a0)
   121bc:	fee78ce3          	beq	a5,a4,121b4 <atol+0xc>
   121c0:	fd57871b          	addiw	a4,a5,-43
   121c4:	0fd77713          	andi	a4,a4,253
   121c8:	04070263          	beqz	a4,1220c <atol+0x64>
   121cc:	00054683          	lbu	a3,0(a0)
   121d0:	00050793          	mv	a5,a0
   121d4:	00000613          	li	a2,0
   121d8:	04068863          	beqz	a3,12228 <atol+0x80>
   121dc:	00000513          	li	a0,0
   121e0:	00178793          	addi	a5,a5,1
   121e4:	fd06859b          	addiw	a1,a3,-48
   121e8:	00251713          	slli	a4,a0,0x2
   121ec:	0007c683          	lbu	a3,0(a5)
   121f0:	00a70533          	add	a0,a4,a0
   121f4:	00151513          	slli	a0,a0,0x1
   121f8:	00a58533          	add	a0,a1,a0
   121fc:	fe0692e3          	bnez	a3,121e0 <atol+0x38>
   12200:	00060463          	beqz	a2,12208 <atol+0x60>
   12204:	40a00533          	neg	a0,a0
   12208:	00008067          	ret
   1220c:	00154683          	lbu	a3,1(a0)
   12210:	fd378793          	addi	a5,a5,-45
   12214:	0017b613          	seqz	a2,a5
   12218:	00150793          	addi	a5,a0,1
   1221c:	fc0690e3          	bnez	a3,121dc <atol+0x34>
   12220:	00000513          	li	a0,0
   12224:	fddff06f          	j	12200 <atol+0x58>
   12228:	00000513          	li	a0,0
   1222c:	00008067          	ret

0000000000012230 <terminate>:
   12230:	fffff797          	auipc	a5,0xfffff
   12234:	dd078793          	addi	a5,a5,-560 # 11000 <tohost>
   12238:	0007b703          	ld	a4,0(a5)
   1223c:	00070a63          	beqz	a4,12250 <terminate+0x20>
   12240:	fffff717          	auipc	a4,0xfffff
   12244:	e0073023          	sd	zero,-512(a4) # 11040 <fromhost>
   12248:	0007b703          	ld	a4,0(a5)
   1224c:	fe071ae3          	bnez	a4,12240 <terminate+0x10>
   12250:	fffff797          	auipc	a5,0xfffff
   12254:	daa7b823          	sd	a0,-592(a5) # 11000 <tohost>
   12258:	0000006f          	j	12258 <terminate+0x28>

000000000001225c <wtf>:
   1225c:	ff010113          	addi	sp,sp,-16
   12260:	34900513          	li	a0,841
   12264:	00113423          	sd	ra,8(sp)
   12268:	fc9ff0ef          	jal	ra,12230 <terminate>

000000000001226c <printhex>:
   1226c:	fe010113          	addi	sp,sp,-32
   12270:	01710713          	addi	a4,sp,23
   12274:	00710813          	addi	a6,sp,7
   12278:	00900593          	li	a1,9
   1227c:	00f57793          	andi	a5,a0,15
   12280:	03000613          	li	a2,48
   12284:	0ff7f693          	andi	a3,a5,255
   12288:	00f5f463          	bleu	a5,a1,12290 <printhex+0x24>
   1228c:	05700613          	li	a2,87
   12290:	00c687bb          	addw	a5,a3,a2
   12294:	00f70023          	sb	a5,0(a4)
   12298:	fff70713          	addi	a4,a4,-1
   1229c:	00455513          	srli	a0,a0,0x4
   122a0:	fd071ee3          	bne	a4,a6,1227c <printhex+0x10>
   122a4:	00814783          	lbu	a5,8(sp)
   122a8:	00010c23          	sb	zero,24(sp)
   122ac:	04078463          	beqz	a5,122f4 <printhex+0x88>
   122b0:	10100513          	li	a0,257
   122b4:	00810693          	addi	a3,sp,8
   122b8:	fffff717          	auipc	a4,0xfffff
   122bc:	d4870713          	addi	a4,a4,-696 # 11000 <tohost>
   122c0:	03051513          	slli	a0,a0,0x30
   122c4:	00073583          	ld	a1,0(a4)
   122c8:	00168693          	addi	a3,a3,1
   122cc:	00a7e633          	or	a2,a5,a0
   122d0:	00058a63          	beqz	a1,122e4 <printhex+0x78>
   122d4:	fffff797          	auipc	a5,0xfffff
   122d8:	d607b623          	sd	zero,-660(a5) # 11040 <fromhost>
   122dc:	00073783          	ld	a5,0(a4)
   122e0:	fe079ae3          	bnez	a5,122d4 <printhex+0x68>
   122e4:	0006c783          	lbu	a5,0(a3)
   122e8:	fffff597          	auipc	a1,0xfffff
   122ec:	d0c5bc23          	sd	a2,-744(a1) # 11000 <tohost>
   122f0:	fc079ae3          	bnez	a5,122c4 <printhex+0x58>
   122f4:	02010113          	addi	sp,sp,32
   122f8:	00008067          	ret

00000000000122fc <handle_fault>:
   122fc:	fffff8b7          	lui	a7,0xfffff
   12300:	01150733          	add	a4,a0,a7
   12304:	0003e7b7          	lui	a5,0x3e
   12308:	14f77463          	bleu	a5,a4,12450 <handle_fault+0x154>
   1230c:	00c55693          	srli	a3,a0,0xc
   12310:	60068813          	addi	a6,a3,1536
   12314:	00005617          	auipc	a2,0x5
   12318:	cec60613          	addi	a2,a2,-788 # 17000 <begin_signature>
   1231c:	00381793          	slli	a5,a6,0x3
   12320:	00f607b3          	add	a5,a2,a5
   12324:	0007b703          	ld	a4,0(a5) # 3e000 <_end+0x22810>
   12328:	01157533          	and	a0,a0,a7
   1232c:	0e071063          	bnez	a4,1240c <handle_fault+0x110>
   12330:	00009797          	auipc	a5,0x9
   12334:	4b878793          	addi	a5,a5,1208 # 1b7e8 <freelist_head>
   12338:	0007b583          	ld	a1,0(a5)
   1233c:	16058863          	beqz	a1,124ac <handle_fault+0x1b0>
   12340:	0085b783          	ld	a5,8(a1)
   12344:	00009717          	auipc	a4,0x9
   12348:	49c70713          	addi	a4,a4,1180 # 1b7e0 <freelist_tail>
   1234c:	00073703          	ld	a4,0(a4)
   12350:	00009897          	auipc	a7,0x9
   12354:	48f8bc23          	sd	a5,1176(a7) # 1b7e8 <freelist_head>
   12358:	0ee78663          	beq	a5,a4,12444 <handle_fault+0x148>
   1235c:	0005b783          	ld	a5,0(a1)
   12360:	00381893          	slli	a7,a6,0x3
   12364:	011608b3          	add	a7,a2,a7
   12368:	00c7d793          	srli	a5,a5,0xc
   1236c:	00a79793          	slli	a5,a5,0xa
   12370:	0df7e313          	ori	t1,a5,223
   12374:	01f7e713          	ori	a4,a5,31
   12378:	0068b023          	sd	t1,0(a7)
   1237c:	12050073          	sfence.vma	a0
   12380:	00009797          	auipc	a5,0x9
   12384:	07078793          	addi	a5,a5,112 # 1b3f0 <user_mapping>
   12388:	00469693          	slli	a3,a3,0x4
   1238c:	00d786b3          	add	a3,a5,a3
   12390:	0006b783          	ld	a5,0(a3)
   12394:	16079463          	bnez	a5,124fc <handle_fault+0x200>
   12398:	0005b783          	ld	a5,0(a1)
   1239c:	00f6b023          	sd	a5,0(a3)
   123a0:	0085b783          	ld	a5,8(a1)
   123a4:	00f6b423          	sd	a5,8(a3)
   123a8:	000407b7          	lui	a5,0x40
   123ac:	1007a8f3          	csrrs	a7,sstatus,a5
   123b0:	ffe007b7          	lui	a5,0xffe00
   123b4:	00f507b3          	add	a5,a0,a5
   123b8:	000015b7          	lui	a1,0x1
   123bc:	00050693          	mv	a3,a0
   123c0:	00b785b3          	add	a1,a5,a1
   123c4:	0007bf03          	ld	t5,0(a5) # ffffffffffe00000 <_end+0xffffffffffde4810>
   123c8:	0087be83          	ld	t4,8(a5)
   123cc:	0107be03          	ld	t3,16(a5)
   123d0:	0187b303          	ld	t1,24(a5)
   123d4:	01e6b023          	sd	t5,0(a3)
   123d8:	01d6b423          	sd	t4,8(a3)
   123dc:	01c6b823          	sd	t3,16(a3)
   123e0:	0066bc23          	sd	t1,24(a3)
   123e4:	02078793          	addi	a5,a5,32
   123e8:	02068693          	addi	a3,a3,32
   123ec:	fcb79ce3          	bne	a5,a1,123c4 <handle_fault+0xc8>
   123f0:	10089073          	csrw	sstatus,a7
   123f4:	00381813          	slli	a6,a6,0x3
   123f8:	01060633          	add	a2,a2,a6
   123fc:	00e63023          	sd	a4,0(a2)
   12400:	12050073          	sfence.vma	a0
   12404:	0000100f          	fence.i
   12408:	00008067          	ret
   1240c:	04077693          	andi	a3,a4,64
   12410:	00069a63          	bnez	a3,12424 <handle_fault+0x128>
   12414:	04076713          	ori	a4,a4,64
   12418:	00e7b023          	sd	a4,0(a5)
   1241c:	12050073          	sfence.vma	a0
   12420:	00008067          	ret
   12424:	08077693          	andi	a3,a4,128
   12428:	12069263          	bnez	a3,1254c <handle_fault+0x250>
   1242c:	00f00693          	li	a3,15
   12430:	10d59e63          	bne	a1,a3,1254c <handle_fault+0x250>
   12434:	08076713          	ori	a4,a4,128
   12438:	00e7b023          	sd	a4,0(a5)
   1243c:	12050073          	sfence.vma	a0
   12440:	00008067          	ret
   12444:	00009797          	auipc	a5,0x9
   12448:	3807be23          	sd	zero,924(a5) # 1b7e0 <freelist_tail>
   1244c:	f11ff06f          	j	1235c <handle_fault+0x60>
   12450:	10100613          	li	a2,257
   12454:	04100713          	li	a4,65
   12458:	00004697          	auipc	a3,0x4
   1245c:	b7068693          	addi	a3,a3,-1168 # 15fc8 <pass+0xcec>
   12460:	fffff797          	auipc	a5,0xfffff
   12464:	ba078793          	addi	a5,a5,-1120 # 11000 <tohost>
   12468:	03061613          	slli	a2,a2,0x30
   1246c:	0007b503          	ld	a0,0(a5)
   12470:	00168693          	addi	a3,a3,1
   12474:	00c765b3          	or	a1,a4,a2
   12478:	00050a63          	beqz	a0,1248c <handle_fault+0x190>
   1247c:	fffff717          	auipc	a4,0xfffff
   12480:	bc073223          	sd	zero,-1084(a4) # 11040 <fromhost>
   12484:	0007b703          	ld	a4,0(a5)
   12488:	fe071ae3          	bnez	a4,1247c <handle_fault+0x180>
   1248c:	0006c703          	lbu	a4,0(a3)
   12490:	fffff517          	auipc	a0,0xfffff
   12494:	b6b53823          	sd	a1,-1168(a0) # 11000 <tohost>
   12498:	fc071ae3          	bnez	a4,1246c <handle_fault+0x170>
   1249c:	ff010113          	addi	sp,sp,-16
   124a0:	00300513          	li	a0,3
   124a4:	00113423          	sd	ra,8(sp)
   124a8:	d89ff0ef          	jal	ra,12230 <terminate>
   124ac:	10100693          	li	a3,257
   124b0:	04100713          	li	a4,65
   124b4:	00004617          	auipc	a2,0x4
   124b8:	ba460613          	addi	a2,a2,-1116 # 16058 <pass+0xd7c>
   124bc:	fffff797          	auipc	a5,0xfffff
   124c0:	b4478793          	addi	a5,a5,-1212 # 11000 <tohost>
   124c4:	03069693          	slli	a3,a3,0x30
   124c8:	0007b503          	ld	a0,0(a5)
   124cc:	00160613          	addi	a2,a2,1
   124d0:	00d765b3          	or	a1,a4,a3
   124d4:	00050a63          	beqz	a0,124e8 <handle_fault+0x1ec>
   124d8:	fffff717          	auipc	a4,0xfffff
   124dc:	b6073423          	sd	zero,-1176(a4) # 11040 <fromhost>
   124e0:	0007b703          	ld	a4,0(a5)
   124e4:	fe071ae3          	bnez	a4,124d8 <handle_fault+0x1dc>
   124e8:	00064703          	lbu	a4,0(a2)
   124ec:	fffff517          	auipc	a0,0xfffff
   124f0:	b0b53a23          	sd	a1,-1260(a0) # 11000 <tohost>
   124f4:	fc071ae3          	bnez	a4,124c8 <handle_fault+0x1cc>
   124f8:	fa5ff06f          	j	1249c <handle_fault+0x1a0>
   124fc:	10100693          	li	a3,257
   12500:	04100713          	li	a4,65
   12504:	00004617          	auipc	a2,0x4
   12508:	b6c60613          	addi	a2,a2,-1172 # 16070 <pass+0xd94>
   1250c:	fffff797          	auipc	a5,0xfffff
   12510:	af478793          	addi	a5,a5,-1292 # 11000 <tohost>
   12514:	03069693          	slli	a3,a3,0x30
   12518:	0007b503          	ld	a0,0(a5)
   1251c:	00160613          	addi	a2,a2,1
   12520:	00d765b3          	or	a1,a4,a3
   12524:	00050a63          	beqz	a0,12538 <handle_fault+0x23c>
   12528:	fffff717          	auipc	a4,0xfffff
   1252c:	b0073c23          	sd	zero,-1256(a4) # 11040 <fromhost>
   12530:	0007b703          	ld	a4,0(a5)
   12534:	fe071ae3          	bnez	a4,12528 <handle_fault+0x22c>
   12538:	00064703          	lbu	a4,0(a2)
   1253c:	fffff517          	auipc	a0,0xfffff
   12540:	acb53223          	sd	a1,-1340(a0) # 11000 <tohost>
   12544:	fc071ae3          	bnez	a4,12518 <handle_fault+0x21c>
   12548:	f55ff06f          	j	1249c <handle_fault+0x1a0>
   1254c:	10100613          	li	a2,257
   12550:	04100713          	li	a4,65
   12554:	00004697          	auipc	a3,0x4
   12558:	abc68693          	addi	a3,a3,-1348 # 16010 <pass+0xd34>
   1255c:	fffff797          	auipc	a5,0xfffff
   12560:	aa478793          	addi	a5,a5,-1372 # 11000 <tohost>
   12564:	03061613          	slli	a2,a2,0x30
   12568:	0007b503          	ld	a0,0(a5)
   1256c:	00168693          	addi	a3,a3,1
   12570:	00c765b3          	or	a1,a4,a2
   12574:	00050a63          	beqz	a0,12588 <handle_fault+0x28c>
   12578:	fffff717          	auipc	a4,0xfffff
   1257c:	ac073423          	sd	zero,-1336(a4) # 11040 <fromhost>
   12580:	0007b703          	ld	a4,0(a5)
   12584:	fe071ae3          	bnez	a4,12578 <handle_fault+0x27c>
   12588:	0006c703          	lbu	a4,0(a3)
   1258c:	fffff517          	auipc	a0,0xfffff
   12590:	a6b53a23          	sd	a1,-1420(a0) # 11000 <tohost>
   12594:	fc071ae3          	bnez	a4,12568 <handle_fault+0x26c>
   12598:	f05ff06f          	j	1249c <handle_fault+0x1a0>

000000000001259c <handle_trap>:
   1259c:	11853583          	ld	a1,280(a0)
   125a0:	f9010113          	addi	sp,sp,-112
   125a4:	06813023          	sd	s0,96(sp)
   125a8:	06113423          	sd	ra,104(sp)
   125ac:	04913c23          	sd	s1,88(sp)
   125b0:	05213823          	sd	s2,80(sp)
   125b4:	05313423          	sd	s3,72(sp)
   125b8:	05413023          	sd	s4,64(sp)
   125bc:	03513c23          	sd	s5,56(sp)
   125c0:	03613823          	sd	s6,48(sp)
   125c4:	03713423          	sd	s7,40(sp)
   125c8:	03813023          	sd	s8,32(sp)
   125cc:	01913c23          	sd	s9,24(sp)
   125d0:	01a13823          	sd	s10,16(sp)
   125d4:	01b13423          	sd	s11,8(sp)
   125d8:	00800793          	li	a5,8
   125dc:	00050413          	mv	s0,a0
   125e0:	12f58a63          	beq	a1,a5,12714 <handle_trap+0x178>
   125e4:	00200793          	li	a5,2
   125e8:	06f58063          	beq	a1,a5,12648 <handle_trap+0xac>
   125ec:	ff458793          	addi	a5,a1,-12 # ff4 <_start-0xf00c>
   125f0:	00100713          	li	a4,1
   125f4:	00f77663          	bleu	a5,a4,12600 <handle_trap+0x64>
   125f8:	00f00793          	li	a5,15
   125fc:	1ef59463          	bne	a1,a5,127e4 <handle_trap+0x248>
   12600:	11043503          	ld	a0,272(s0)
   12604:	cf9ff0ef          	jal	ra,122fc <handle_fault>
   12608:	00040513          	mv	a0,s0
   1260c:	06013403          	ld	s0,96(sp)
   12610:	06813083          	ld	ra,104(sp)
   12614:	05813483          	ld	s1,88(sp)
   12618:	05013903          	ld	s2,80(sp)
   1261c:	04813983          	ld	s3,72(sp)
   12620:	04013a03          	ld	s4,64(sp)
   12624:	03813a83          	ld	s5,56(sp)
   12628:	03013b03          	ld	s6,48(sp)
   1262c:	02813b83          	ld	s7,40(sp)
   12630:	02013c03          	ld	s8,32(sp)
   12634:	01813c83          	ld	s9,24(sp)
   12638:	01013d03          	ld	s10,16(sp)
   1263c:	00813d83          	ld	s11,8(sp)
   12640:	07010113          	addi	sp,sp,112
   12644:	9f9fd06f          	j	1003c <pop_tf>
   12648:	10853703          	ld	a4,264(a0)
   1264c:	00377793          	andi	a5,a4,3
   12650:	06079a63          	bnez	a5,126c4 <handle_trap+0x128>
   12654:	008007ef          	jal	a5,1265c <handle_trap+0xc0>
   12658:	00301073          	fssr	zero
   1265c:	00072703          	lw	a4,0(a4)
   12660:	0007a783          	lw	a5,0(a5)
   12664:	04f70c63          	beq	a4,a5,126bc <handle_trap+0x120>
   12668:	10100513          	li	a0,257
   1266c:	04100793          	li	a5,65
   12670:	00004697          	auipc	a3,0x4
   12674:	ad868693          	addi	a3,a3,-1320 # 16148 <pass+0xe6c>
   12678:	fffff717          	auipc	a4,0xfffff
   1267c:	98870713          	addi	a4,a4,-1656 # 11000 <tohost>
   12680:	03051513          	slli	a0,a0,0x30
   12684:	00073583          	ld	a1,0(a4)
   12688:	00168693          	addi	a3,a3,1
   1268c:	00a7e633          	or	a2,a5,a0
   12690:	00058a63          	beqz	a1,126a4 <handle_trap+0x108>
   12694:	fffff797          	auipc	a5,0xfffff
   12698:	9a07b623          	sd	zero,-1620(a5) # 11040 <fromhost>
   1269c:	00073783          	ld	a5,0(a4)
   126a0:	fe079ae3          	bnez	a5,12694 <handle_trap+0xf8>
   126a4:	0006c783          	lbu	a5,0(a3)
   126a8:	fffff597          	auipc	a1,0xfffff
   126ac:	94c5bc23          	sd	a2,-1704(a1) # 11000 <tohost>
   126b0:	fc079ae3          	bnez	a5,12684 <handle_trap+0xe8>
   126b4:	00300513          	li	a0,3
   126b8:	b79ff0ef          	jal	ra,12230 <terminate>
   126bc:	00100513          	li	a0,1
   126c0:	b71ff0ef          	jal	ra,12230 <terminate>
   126c4:	10100793          	li	a5,257
   126c8:	00004617          	auipc	a2,0x4
   126cc:	a5860613          	addi	a2,a2,-1448 # 16120 <pass+0xe44>
   126d0:	04100693          	li	a3,65
   126d4:	fffff717          	auipc	a4,0xfffff
   126d8:	92c70713          	addi	a4,a4,-1748 # 11000 <tohost>
   126dc:	03079793          	slli	a5,a5,0x30
   126e0:	00073503          	ld	a0,0(a4)
   126e4:	00160613          	addi	a2,a2,1
   126e8:	00f6e5b3          	or	a1,a3,a5
   126ec:	00050a63          	beqz	a0,12700 <handle_trap+0x164>
   126f0:	fffff697          	auipc	a3,0xfffff
   126f4:	9406b823          	sd	zero,-1712(a3) # 11040 <fromhost>
   126f8:	00073683          	ld	a3,0(a4)
   126fc:	fe069ae3          	bnez	a3,126f0 <handle_trap+0x154>
   12700:	00064683          	lbu	a3,0(a2)
   12704:	fffff517          	auipc	a0,0xfffff
   12708:	8eb53e23          	sd	a1,-1796(a0) # 11000 <tohost>
   1270c:	fc069ae3          	bnez	a3,126e0 <handle_trap+0x144>
   12710:	fa5ff06f          	j	126b4 <handle_trap+0x118>
   12714:	05052983          	lw	s3,80(a0)
   12718:	00001437          	lui	s0,0x1
   1271c:	00009d17          	auipc	s10,0x9
   12720:	cd4d0d13          	addi	s10,s10,-812 # 1b3f0 <user_mapping>
   12724:	00005b97          	auipc	s7,0x5
   12728:	8dcb8b93          	addi	s7,s7,-1828 # 17000 <begin_signature>
   1272c:	00040b37          	lui	s6,0x40
   12730:	ffe00ab7          	lui	s5,0xffe00
   12734:	00009a17          	auipc	s4,0x9
   12738:	0aca0a13          	addi	s4,s4,172 # 1b7e0 <freelist_tail>
   1273c:	0003f937          	lui	s2,0x3f
   12740:	01c0006f          	j	1275c <handle_trap+0x1c0>
   12744:	00f73423          	sd	a5,8(a4)
   12748:	00009717          	auipc	a4,0x9
   1274c:	08f73c23          	sd	a5,152(a4) # 1b7e0 <freelist_tail>
   12750:	000017b7          	lui	a5,0x1
   12754:	00f40433          	add	s0,s0,a5
   12758:	15240663          	beq	s0,s2,128a4 <handle_trap+0x308>
   1275c:	00c45793          	srli	a5,s0,0xc
   12760:	00479493          	slli	s1,a5,0x4
   12764:	009d0733          	add	a4,s10,s1
   12768:	00073703          	ld	a4,0(a4)
   1276c:	fe0702e3          	beqz	a4,12750 <handle_trap+0x1b4>
   12770:	60078793          	addi	a5,a5,1536 # 1600 <_start-0xea00>
   12774:	00379793          	slli	a5,a5,0x3
   12778:	00fb87b3          	add	a5,s7,a5
   1277c:	0007bc03          	ld	s8,0(a5)
   12780:	040c7793          	andi	a5,s8,64
   12784:	0e078463          	beqz	a5,1286c <handle_trap+0x2d0>
   12788:	100b2cf3          	csrrs	s9,sstatus,s6
   1278c:	01540db3          	add	s11,s0,s5
   12790:	00001637          	lui	a2,0x1
   12794:	000d8593          	mv	a1,s11
   12798:	00040513          	mv	a0,s0
   1279c:	975ff0ef          	jal	ra,12110 <memcmp>
   127a0:	00050e63          	beqz	a0,127bc <handle_trap+0x220>
   127a4:	080c7c13          	andi	s8,s8,128
   127a8:	080c0663          	beqz	s8,12834 <handle_trap+0x298>
   127ac:	00001637          	lui	a2,0x1
   127b0:	000d8593          	mv	a1,s11
   127b4:	00040513          	mv	a0,s0
   127b8:	849ff0ef          	jal	ra,12000 <memcpy>
   127bc:	009d07b3          	add	a5,s10,s1
   127c0:	100c9073          	csrw	sstatus,s9
   127c4:	000a3703          	ld	a4,0(s4)
   127c8:	0007b023          	sd	zero,0(a5)
   127cc:	f6071ce3          	bnez	a4,12744 <handle_trap+0x1a8>
   127d0:	00009717          	auipc	a4,0x9
   127d4:	00f73823          	sd	a5,16(a4) # 1b7e0 <freelist_tail>
   127d8:	00009717          	auipc	a4,0x9
   127dc:	00f73823          	sd	a5,16(a4) # 1b7e8 <freelist_head>
   127e0:	f71ff06f          	j	12750 <handle_trap+0x1b4>
   127e4:	10100793          	li	a5,257
   127e8:	04100613          	li	a2,65
   127ec:	00004697          	auipc	a3,0x4
   127f0:	98c68693          	addi	a3,a3,-1652 # 16178 <pass+0xe9c>
   127f4:	fffff717          	auipc	a4,0xfffff
   127f8:	80c70713          	addi	a4,a4,-2036 # 11000 <tohost>
   127fc:	03079793          	slli	a5,a5,0x30
   12800:	00073503          	ld	a0,0(a4)
   12804:	00168693          	addi	a3,a3,1
   12808:	00f665b3          	or	a1,a2,a5
   1280c:	00050a63          	beqz	a0,12820 <handle_trap+0x284>
   12810:	fffff617          	auipc	a2,0xfffff
   12814:	82063823          	sd	zero,-2000(a2) # 11040 <fromhost>
   12818:	00073603          	ld	a2,0(a4)
   1281c:	fe061ae3          	bnez	a2,12810 <handle_trap+0x274>
   12820:	0006c603          	lbu	a2,0(a3)
   12824:	ffffe517          	auipc	a0,0xffffe
   12828:	7cb53e23          	sd	a1,2012(a0) # 11000 <tohost>
   1282c:	fc061ae3          	bnez	a2,12800 <handle_trap+0x264>
   12830:	e85ff06f          	j	126b4 <handle_trap+0x118>
   12834:	10100793          	li	a5,257
   12838:	04100613          	li	a2,65
   1283c:	00004697          	auipc	a3,0x4
   12840:	8ac68693          	addi	a3,a3,-1876 # 160e8 <pass+0xe0c>
   12844:	ffffe717          	auipc	a4,0xffffe
   12848:	7bc70713          	addi	a4,a4,1980 # 11000 <tohost>
   1284c:	03079793          	slli	a5,a5,0x30
   12850:	00168693          	addi	a3,a3,1
   12854:	00f665b3          	or	a1,a2,a5
   12858:	00073603          	ld	a2,0(a4)
   1285c:	04060863          	beqz	a2,128ac <handle_trap+0x310>
   12860:	ffffe617          	auipc	a2,0xffffe
   12864:	7e063023          	sd	zero,2016(a2) # 11040 <fromhost>
   12868:	ff1ff06f          	j	12858 <handle_trap+0x2bc>
   1286c:	10100793          	li	a5,257
   12870:	04100613          	li	a2,65
   12874:	00004697          	auipc	a3,0x4
   12878:	83c68693          	addi	a3,a3,-1988 # 160b0 <pass+0xdd4>
   1287c:	ffffe717          	auipc	a4,0xffffe
   12880:	78470713          	addi	a4,a4,1924 # 11000 <tohost>
   12884:	03079793          	slli	a5,a5,0x30
   12888:	00168693          	addi	a3,a3,1
   1288c:	00f665b3          	or	a1,a2,a5
   12890:	00073603          	ld	a2,0(a4)
   12894:	02060663          	beqz	a2,128c0 <handle_trap+0x324>
   12898:	ffffe617          	auipc	a2,0xffffe
   1289c:	7a063423          	sd	zero,1960(a2) # 11040 <fromhost>
   128a0:	ff1ff06f          	j	12890 <handle_trap+0x2f4>
   128a4:	00098513          	mv	a0,s3
   128a8:	989ff0ef          	jal	ra,12230 <terminate>
   128ac:	0006c603          	lbu	a2,0(a3)
   128b0:	ffffe517          	auipc	a0,0xffffe
   128b4:	74b53823          	sd	a1,1872(a0) # 11000 <tohost>
   128b8:	f8061ce3          	bnez	a2,12850 <handle_trap+0x2b4>
   128bc:	df9ff06f          	j	126b4 <handle_trap+0x118>
   128c0:	0006c603          	lbu	a2,0(a3)
   128c4:	ffffe517          	auipc	a0,0xffffe
   128c8:	72b53e23          	sd	a1,1852(a0) # 11000 <tohost>
   128cc:	fa061ee3          	bnez	a2,12888 <handle_trap+0x2ec>
   128d0:	de5ff06f          	j	126b4 <handle_trap+0x118>

00000000000128d4 <vm_boot>:
   128d4:	f14027f3          	csrr	a5,mhartid
   128d8:	18079a63          	bnez	a5,12a6c <vm_boot+0x198>
   128dc:	00005697          	auipc	a3,0x5
   128e0:	72468693          	addi	a3,a3,1828 # 18000 <begin_signature+0x1000>
   128e4:	00006717          	auipc	a4,0x6
   128e8:	71c70713          	addi	a4,a4,1820 # 19000 <begin_signature+0x2000>
   128ec:	00c6d693          	srli	a3,a3,0xc
   128f0:	00c75713          	srli	a4,a4,0xc
   128f4:	00007797          	auipc	a5,0x7
   128f8:	70c78793          	addi	a5,a5,1804 # 1a000 <begin_signature+0x3000>
   128fc:	00a69693          	slli	a3,a3,0xa
   12900:	00a71713          	slli	a4,a4,0xa
   12904:	0016e693          	ori	a3,a3,1
   12908:	00176713          	ori	a4,a4,1
   1290c:	00c7d793          	srli	a5,a5,0xc
   12910:	00004897          	auipc	a7,0x4
   12914:	6ed8b823          	sd	a3,1776(a7) # 17000 <begin_signature>
   12918:	00a79793          	slli	a5,a5,0xa
   1291c:	00005697          	auipc	a3,0x5
   12920:	6ce6be23          	sd	a4,1756(a3) # 17ff8 <begin_signature+0xff8>
   12924:	20000737          	lui	a4,0x20000
   12928:	0cf70713          	addi	a4,a4,207 # 200000cf <_end+0x1ffe48df>
   1292c:	fff00593          	li	a1,-1
   12930:	0017e793          	ori	a5,a5,1
   12934:	00004617          	auipc	a2,0x4
   12938:	6cc60613          	addi	a2,a2,1740 # 17000 <begin_signature>
   1293c:	ed010113          	addi	sp,sp,-304
   12940:	03f59813          	slli	a6,a1,0x3f
   12944:	00007697          	auipc	a3,0x7
   12948:	6ae6ba23          	sd	a4,1716(a3) # 19ff8 <begin_signature+0x2ff8>
   1294c:	00005717          	auipc	a4,0x5
   12950:	6af73a23          	sd	a5,1716(a4) # 18000 <begin_signature+0x1000>
   12954:	00c65793          	srli	a5,a2,0xc
   12958:	12113423          	sd	ra,296(sp)
   1295c:	12813023          	sd	s0,288(sp)
   12960:	0107e7b3          	or	a5,a5,a6
   12964:	18079073          	csrw	satp,a5
   12968:	01f00793          	li	a5,31
   1296c:	00000297          	auipc	t0,0x0
   12970:	01428293          	addi	t0,t0,20 # 12980 <vm_boot+0xac>
   12974:	305292f3          	csrrw	t0,mtvec,t0
   12978:	3b059073          	csrw	pmpaddr0,a1
   1297c:	3a079073          	csrw	pmpcfg0,a5
   12980:	bff00813          	li	a6,-1025
   12984:	01581813          	slli	a6,a6,0x15
   12988:	ffffd797          	auipc	a5,0xffffd
   1298c:	73c78793          	addi	a5,a5,1852 # 100c4 <trap_entry>
   12990:	010787b3          	add	a5,a5,a6
   12994:	10579073          	csrw	stvec,a5
   12998:	340027f3          	csrr	a5,mscratch
   1299c:	010787b3          	add	a5,a5,a6
   129a0:	14079073          	csrw	sscratch,a5
   129a4:	0000b7b7          	lui	a5,0xb
   129a8:	1007879b          	addiw	a5,a5,256
   129ac:	30279073          	csrw	medeleg,a5
   129b0:	0001e7b7          	lui	a5,0x1e
   129b4:	30079073          	csrw	mstatus,a5
   129b8:	30405073          	csrwi	mie,0
   129bc:	00008697          	auipc	a3,0x8
   129c0:	64468693          	addi	a3,a3,1604 # 1b000 <freelist_nodes>
   129c4:	010687b3          	add	a5,a3,a6
   129c8:	3e078713          	addi	a4,a5,992 # 1e3e0 <_end+0x2bf0>
   129cc:	00009617          	auipc	a2,0x9
   129d0:	e0f63e23          	sd	a5,-484(a2) # 1b7e8 <freelist_head>
   129d4:	00009797          	auipc	a5,0x9
   129d8:	e0e7b623          	sd	a4,-500(a5) # 1b7e0 <freelist_tail>
   129dc:	00009317          	auipc	t1,0x9
   129e0:	a1430313          	addi	t1,t1,-1516 # 1b3f0 <user_mapping>
   129e4:	03000793          	li	a5,48
   129e8:	000808b7          	lui	a7,0x80
   129ec:	01080813          	addi	a6,a6,16
   129f0:	03f7871b          	addiw	a4,a5,63
   129f4:	02071713          	slli	a4,a4,0x20
   129f8:	0017d61b          	srliw	a2,a5,0x1
   129fc:	02075713          	srli	a4,a4,0x20
   12a00:	00c7c7b3          	xor	a5,a5,a2
   12a04:	01170733          	add	a4,a4,a7
   12a08:	010685b3          	add	a1,a3,a6
   12a0c:	00c71713          	slli	a4,a4,0xc
   12a10:	0057979b          	slliw	a5,a5,0x5
   12a14:	00e6b023          	sd	a4,0(a3)
   12a18:	00b6b423          	sd	a1,8(a3)
   12a1c:	0207f793          	andi	a5,a5,32
   12a20:	01068693          	addi	a3,a3,16
   12a24:	00c7e7b3          	or	a5,a5,a2
   12a28:	fcd314e3          	bne	t1,a3,129f0 <vm_boot+0x11c>
   12a2c:	00050413          	mv	s0,a0
   12a30:	12000613          	li	a2,288
   12a34:	00000593          	li	a1,0
   12a38:	00010513          	mv	a0,sp
   12a3c:	00009797          	auipc	a5,0x9
   12a40:	9a07b623          	sd	zero,-1620(a5) # 1b3e8 <freelist_nodes+0x3e8>
   12a44:	e18ff0ef          	jal	ra,1205c <memset>
   12a48:	800007b7          	lui	a5,0x80000
   12a4c:	00f40433          	add	s0,s0,a5
   12a50:	00010513          	mv	a0,sp
   12a54:	10813423          	sd	s0,264(sp)
   12a58:	de4fd0ef          	jal	ra,1003c <pop_tf>
   12a5c:	12813083          	ld	ra,296(sp)
   12a60:	12013403          	ld	s0,288(sp)
   12a64:	13010113          	addi	sp,sp,304
   12a68:	00008067          	ret
   12a6c:	0db157b7          	lui	a5,0xdb15
   12a70:	000805b7          	lui	a1,0x80
   12a74:	50c78793          	addi	a5,a5,1292 # db1550c <_end+0xdaf9d1c>
   12a78:	ffc58593          	addi	a1,a1,-4 # 7fffc <_end+0x6480c>
   12a7c:	00100613          	li	a2,1
   12a80:	00b7f733          	and	a4,a5,a1
   12a84:	01f61613          	slli	a2,a2,0x1f
   12a88:	0017f693          	andi	a3,a5,1
   12a8c:	02079793          	slli	a5,a5,0x20
   12a90:	0207d793          	srli	a5,a5,0x20
   12a94:	00c70733          	add	a4,a4,a2
   12a98:	02068263          	beqz	a3,12abc <vm_boot+0x1e8>
   12a9c:	0007202f          	amoadd.w	zero,zero,(a4)
   12aa0:	0017d793          	srli	a5,a5,0x1
   12aa4:	00b7f733          	and	a4,a5,a1
   12aa8:	0017f693          	andi	a3,a5,1
   12aac:	02079793          	slli	a5,a5,0x20
   12ab0:	0207d793          	srli	a5,a5,0x20
   12ab4:	00c70733          	add	a4,a4,a2
   12ab8:	fe0692e3          	bnez	a3,12a9c <vm_boot+0x1c8>
   12abc:	00072003          	lw	zero,0(a4)
   12ac0:	0017d793          	srli	a5,a5,0x1
   12ac4:	fe1ff06f          	j	12aa4 <vm_boot+0x1d0>
   12ac8:	0000                	unimp
   12aca:	0000                	unimp
   12acc:	0000                	unimp
   12ace:	0000                	unimp
   12ad0:	0000                	unimp
   12ad2:	0000                	unimp
   12ad4:	0000                	unimp
   12ad6:	0000                	unimp
   12ad8:	0000                	unimp
   12ada:	0000                	unimp
   12adc:	0000                	unimp
   12ade:	0000                	unimp
   12ae0:	0000                	unimp
   12ae2:	0000                	unimp
   12ae4:	0000                	unimp
   12ae6:	0000                	unimp
   12ae8:	0000                	unimp
   12aea:	0000                	unimp
   12aec:	0000                	unimp
   12aee:	0000                	unimp
   12af0:	0000                	unimp
   12af2:	0000                	unimp
   12af4:	0000                	unimp
   12af6:	0000                	unimp
   12af8:	0000                	unimp
   12afa:	0000                	unimp
   12afc:	0000                	unimp
   12afe:	0000                	unimp
   12b00:	0000                	unimp
   12b02:	0000                	unimp
   12b04:	0000                	unimp
   12b06:	0000                	unimp
   12b08:	0000                	unimp
   12b0a:	0000                	unimp
   12b0c:	0000                	unimp
   12b0e:	0000                	unimp
   12b10:	0000                	unimp
   12b12:	0000                	unimp
   12b14:	0000                	unimp
   12b16:	0000                	unimp
   12b18:	0000                	unimp
   12b1a:	0000                	unimp
   12b1c:	0000                	unimp
   12b1e:	0000                	unimp
   12b20:	0000                	unimp
   12b22:	0000                	unimp
   12b24:	0000                	unimp
   12b26:	0000                	unimp
   12b28:	0000                	unimp
   12b2a:	0000                	unimp
   12b2c:	0000                	unimp
   12b2e:	0000                	unimp
   12b30:	0000                	unimp
   12b32:	0000                	unimp
   12b34:	0000                	unimp
   12b36:	0000                	unimp
   12b38:	0000                	unimp
   12b3a:	0000                	unimp
   12b3c:	0000                	unimp
   12b3e:	0000                	unimp
   12b40:	0000                	unimp
   12b42:	0000                	unimp
   12b44:	0000                	unimp
   12b46:	0000                	unimp
   12b48:	0000                	unimp
   12b4a:	0000                	unimp
   12b4c:	0000                	unimp
   12b4e:	0000                	unimp
   12b50:	0000                	unimp
   12b52:	0000                	unimp
   12b54:	0000                	unimp
   12b56:	0000                	unimp
   12b58:	0000                	unimp
   12b5a:	0000                	unimp
   12b5c:	0000                	unimp
   12b5e:	0000                	unimp
   12b60:	0000                	unimp
   12b62:	0000                	unimp
   12b64:	0000                	unimp
   12b66:	0000                	unimp
   12b68:	0000                	unimp
   12b6a:	0000                	unimp
   12b6c:	0000                	unimp
   12b6e:	0000                	unimp
   12b70:	0000                	unimp
   12b72:	0000                	unimp
   12b74:	0000                	unimp
   12b76:	0000                	unimp
   12b78:	0000                	unimp
   12b7a:	0000                	unimp
   12b7c:	0000                	unimp
   12b7e:	0000                	unimp
   12b80:	0000                	unimp
   12b82:	0000                	unimp
   12b84:	0000                	unimp
   12b86:	0000                	unimp
   12b88:	0000                	unimp
   12b8a:	0000                	unimp
   12b8c:	0000                	unimp
   12b8e:	0000                	unimp
   12b90:	0000                	unimp
   12b92:	0000                	unimp
   12b94:	0000                	unimp
   12b96:	0000                	unimp
   12b98:	0000                	unimp
   12b9a:	0000                	unimp
   12b9c:	0000                	unimp
   12b9e:	0000                	unimp
   12ba0:	0000                	unimp
   12ba2:	0000                	unimp
   12ba4:	0000                	unimp
   12ba6:	0000                	unimp
   12ba8:	0000                	unimp
   12baa:	0000                	unimp
   12bac:	0000                	unimp
   12bae:	0000                	unimp
   12bb0:	0000                	unimp
   12bb2:	0000                	unimp
   12bb4:	0000                	unimp
   12bb6:	0000                	unimp
   12bb8:	0000                	unimp
   12bba:	0000                	unimp
   12bbc:	0000                	unimp
   12bbe:	0000                	unimp
   12bc0:	0000                	unimp
   12bc2:	0000                	unimp
   12bc4:	0000                	unimp
   12bc6:	0000                	unimp
   12bc8:	0000                	unimp
   12bca:	0000                	unimp
   12bcc:	0000                	unimp
   12bce:	0000                	unimp
   12bd0:	0000                	unimp
   12bd2:	0000                	unimp
   12bd4:	0000                	unimp
   12bd6:	0000                	unimp
   12bd8:	0000                	unimp
   12bda:	0000                	unimp
   12bdc:	0000                	unimp
   12bde:	0000                	unimp
   12be0:	0000                	unimp
   12be2:	0000                	unimp
   12be4:	0000                	unimp
   12be6:	0000                	unimp
   12be8:	0000                	unimp
   12bea:	0000                	unimp
   12bec:	0000                	unimp
   12bee:	0000                	unimp
   12bf0:	0000                	unimp
   12bf2:	0000                	unimp
   12bf4:	0000                	unimp
   12bf6:	0000                	unimp
   12bf8:	0000                	unimp
   12bfa:	0000                	unimp
   12bfc:	0000                	unimp
   12bfe:	0000                	unimp
   12c00:	0000                	unimp
   12c02:	0000                	unimp
   12c04:	0000                	unimp
   12c06:	0000                	unimp
   12c08:	0000                	unimp
   12c0a:	0000                	unimp
   12c0c:	0000                	unimp
   12c0e:	0000                	unimp
   12c10:	0000                	unimp
   12c12:	0000                	unimp
   12c14:	0000                	unimp
   12c16:	0000                	unimp
   12c18:	0000                	unimp
   12c1a:	0000                	unimp
   12c1c:	0000                	unimp
   12c1e:	0000                	unimp
   12c20:	0000                	unimp
   12c22:	0000                	unimp
   12c24:	0000                	unimp
   12c26:	0000                	unimp
   12c28:	0000                	unimp
   12c2a:	0000                	unimp
   12c2c:	0000                	unimp
   12c2e:	0000                	unimp
   12c30:	0000                	unimp
   12c32:	0000                	unimp
   12c34:	0000                	unimp
   12c36:	0000                	unimp
   12c38:	0000                	unimp
   12c3a:	0000                	unimp
   12c3c:	0000                	unimp
   12c3e:	0000                	unimp
   12c40:	0000                	unimp
   12c42:	0000                	unimp
   12c44:	0000                	unimp
   12c46:	0000                	unimp
   12c48:	0000                	unimp
   12c4a:	0000                	unimp
   12c4c:	0000                	unimp
   12c4e:	0000                	unimp
   12c50:	0000                	unimp
   12c52:	0000                	unimp
   12c54:	0000                	unimp
   12c56:	0000                	unimp
   12c58:	0000                	unimp
   12c5a:	0000                	unimp
   12c5c:	0000                	unimp
   12c5e:	0000                	unimp
   12c60:	0000                	unimp
   12c62:	0000                	unimp
   12c64:	0000                	unimp
   12c66:	0000                	unimp
   12c68:	0000                	unimp
   12c6a:	0000                	unimp
   12c6c:	0000                	unimp
   12c6e:	0000                	unimp
   12c70:	0000                	unimp
   12c72:	0000                	unimp
   12c74:	0000                	unimp
   12c76:	0000                	unimp
   12c78:	0000                	unimp
   12c7a:	0000                	unimp
   12c7c:	0000                	unimp
   12c7e:	0000                	unimp
   12c80:	0000                	unimp
   12c82:	0000                	unimp
   12c84:	0000                	unimp
   12c86:	0000                	unimp
   12c88:	0000                	unimp
   12c8a:	0000                	unimp
   12c8c:	0000                	unimp
   12c8e:	0000                	unimp
   12c90:	0000                	unimp
   12c92:	0000                	unimp
   12c94:	0000                	unimp
   12c96:	0000                	unimp
   12c98:	0000                	unimp
   12c9a:	0000                	unimp
   12c9c:	0000                	unimp
   12c9e:	0000                	unimp
   12ca0:	0000                	unimp
   12ca2:	0000                	unimp
   12ca4:	0000                	unimp
   12ca6:	0000                	unimp
   12ca8:	0000                	unimp
   12caa:	0000                	unimp
   12cac:	0000                	unimp
   12cae:	0000                	unimp
   12cb0:	0000                	unimp
   12cb2:	0000                	unimp
   12cb4:	0000                	unimp
   12cb6:	0000                	unimp
   12cb8:	0000                	unimp
   12cba:	0000                	unimp
   12cbc:	0000                	unimp
   12cbe:	0000                	unimp
   12cc0:	0000                	unimp
   12cc2:	0000                	unimp
   12cc4:	0000                	unimp
   12cc6:	0000                	unimp
   12cc8:	0000                	unimp
   12cca:	0000                	unimp
   12ccc:	0000                	unimp
   12cce:	0000                	unimp
   12cd0:	0000                	unimp
   12cd2:	0000                	unimp
   12cd4:	0000                	unimp
   12cd6:	0000                	unimp
   12cd8:	0000                	unimp
   12cda:	0000                	unimp
   12cdc:	0000                	unimp
   12cde:	0000                	unimp
   12ce0:	0000                	unimp
   12ce2:	0000                	unimp
   12ce4:	0000                	unimp
   12ce6:	0000                	unimp
   12ce8:	0000                	unimp
   12cea:	0000                	unimp
   12cec:	0000                	unimp
   12cee:	0000                	unimp
   12cf0:	0000                	unimp
   12cf2:	0000                	unimp
   12cf4:	0000                	unimp
   12cf6:	0000                	unimp
   12cf8:	0000                	unimp
   12cfa:	0000                	unimp
   12cfc:	0000                	unimp
   12cfe:	0000                	unimp
   12d00:	0000                	unimp
   12d02:	0000                	unimp
   12d04:	0000                	unimp
   12d06:	0000                	unimp
   12d08:	0000                	unimp
   12d0a:	0000                	unimp
   12d0c:	0000                	unimp
   12d0e:	0000                	unimp
   12d10:	0000                	unimp
   12d12:	0000                	unimp
   12d14:	0000                	unimp
   12d16:	0000                	unimp
   12d18:	0000                	unimp
   12d1a:	0000                	unimp
   12d1c:	0000                	unimp
   12d1e:	0000                	unimp
   12d20:	0000                	unimp
   12d22:	0000                	unimp
   12d24:	0000                	unimp
   12d26:	0000                	unimp
   12d28:	0000                	unimp
   12d2a:	0000                	unimp
   12d2c:	0000                	unimp
   12d2e:	0000                	unimp
   12d30:	0000                	unimp
   12d32:	0000                	unimp
   12d34:	0000                	unimp
   12d36:	0000                	unimp
   12d38:	0000                	unimp
   12d3a:	0000                	unimp
   12d3c:	0000                	unimp
   12d3e:	0000                	unimp
   12d40:	0000                	unimp
   12d42:	0000                	unimp
   12d44:	0000                	unimp
   12d46:	0000                	unimp
   12d48:	0000                	unimp
   12d4a:	0000                	unimp
   12d4c:	0000                	unimp
   12d4e:	0000                	unimp
   12d50:	0000                	unimp
   12d52:	0000                	unimp
   12d54:	0000                	unimp
   12d56:	0000                	unimp
   12d58:	0000                	unimp
   12d5a:	0000                	unimp
   12d5c:	0000                	unimp
   12d5e:	0000                	unimp
   12d60:	0000                	unimp
   12d62:	0000                	unimp
   12d64:	0000                	unimp
   12d66:	0000                	unimp
   12d68:	0000                	unimp
   12d6a:	0000                	unimp
   12d6c:	0000                	unimp
   12d6e:	0000                	unimp
   12d70:	0000                	unimp
   12d72:	0000                	unimp
   12d74:	0000                	unimp
   12d76:	0000                	unimp
   12d78:	0000                	unimp
   12d7a:	0000                	unimp
   12d7c:	0000                	unimp
   12d7e:	0000                	unimp
   12d80:	0000                	unimp
   12d82:	0000                	unimp
   12d84:	0000                	unimp
   12d86:	0000                	unimp
   12d88:	0000                	unimp
   12d8a:	0000                	unimp
   12d8c:	0000                	unimp
   12d8e:	0000                	unimp
   12d90:	0000                	unimp
   12d92:	0000                	unimp
   12d94:	0000                	unimp
   12d96:	0000                	unimp
   12d98:	0000                	unimp
   12d9a:	0000                	unimp
   12d9c:	0000                	unimp
   12d9e:	0000                	unimp
   12da0:	0000                	unimp
   12da2:	0000                	unimp
   12da4:	0000                	unimp
   12da6:	0000                	unimp
   12da8:	0000                	unimp
   12daa:	0000                	unimp
   12dac:	0000                	unimp
   12dae:	0000                	unimp
   12db0:	0000                	unimp
   12db2:	0000                	unimp
   12db4:	0000                	unimp
   12db6:	0000                	unimp
   12db8:	0000                	unimp
   12dba:	0000                	unimp
   12dbc:	0000                	unimp
   12dbe:	0000                	unimp
   12dc0:	0000                	unimp
   12dc2:	0000                	unimp
   12dc4:	0000                	unimp
   12dc6:	0000                	unimp
   12dc8:	0000                	unimp
   12dca:	0000                	unimp
   12dcc:	0000                	unimp
   12dce:	0000                	unimp
   12dd0:	0000                	unimp
   12dd2:	0000                	unimp
   12dd4:	0000                	unimp
   12dd6:	0000                	unimp
   12dd8:	0000                	unimp
   12dda:	0000                	unimp
   12ddc:	0000                	unimp
   12dde:	0000                	unimp
   12de0:	0000                	unimp
   12de2:	0000                	unimp
   12de4:	0000                	unimp
   12de6:	0000                	unimp
   12de8:	0000                	unimp
   12dea:	0000                	unimp
   12dec:	0000                	unimp
   12dee:	0000                	unimp
   12df0:	0000                	unimp
   12df2:	0000                	unimp
   12df4:	0000                	unimp
   12df6:	0000                	unimp
   12df8:	0000                	unimp
   12dfa:	0000                	unimp
   12dfc:	0000                	unimp
   12dfe:	0000                	unimp
   12e00:	0000                	unimp
   12e02:	0000                	unimp
   12e04:	0000                	unimp
   12e06:	0000                	unimp
   12e08:	0000                	unimp
   12e0a:	0000                	unimp
   12e0c:	0000                	unimp
   12e0e:	0000                	unimp
   12e10:	0000                	unimp
   12e12:	0000                	unimp
   12e14:	0000                	unimp
   12e16:	0000                	unimp
   12e18:	0000                	unimp
   12e1a:	0000                	unimp
   12e1c:	0000                	unimp
   12e1e:	0000                	unimp
   12e20:	0000                	unimp
   12e22:	0000                	unimp
   12e24:	0000                	unimp
   12e26:	0000                	unimp
   12e28:	0000                	unimp
   12e2a:	0000                	unimp
   12e2c:	0000                	unimp
   12e2e:	0000                	unimp
   12e30:	0000                	unimp
   12e32:	0000                	unimp
   12e34:	0000                	unimp
   12e36:	0000                	unimp
   12e38:	0000                	unimp
   12e3a:	0000                	unimp
   12e3c:	0000                	unimp
   12e3e:	0000                	unimp
   12e40:	0000                	unimp
   12e42:	0000                	unimp
   12e44:	0000                	unimp
   12e46:	0000                	unimp
   12e48:	0000                	unimp
   12e4a:	0000                	unimp
   12e4c:	0000                	unimp
   12e4e:	0000                	unimp
   12e50:	0000                	unimp
   12e52:	0000                	unimp
   12e54:	0000                	unimp
   12e56:	0000                	unimp
   12e58:	0000                	unimp
   12e5a:	0000                	unimp
   12e5c:	0000                	unimp
   12e5e:	0000                	unimp
   12e60:	0000                	unimp
   12e62:	0000                	unimp
   12e64:	0000                	unimp
   12e66:	0000                	unimp
   12e68:	0000                	unimp
   12e6a:	0000                	unimp
   12e6c:	0000                	unimp
   12e6e:	0000                	unimp
   12e70:	0000                	unimp
   12e72:	0000                	unimp
   12e74:	0000                	unimp
   12e76:	0000                	unimp
   12e78:	0000                	unimp
   12e7a:	0000                	unimp
   12e7c:	0000                	unimp
   12e7e:	0000                	unimp
   12e80:	0000                	unimp
   12e82:	0000                	unimp
   12e84:	0000                	unimp
   12e86:	0000                	unimp
   12e88:	0000                	unimp
   12e8a:	0000                	unimp
   12e8c:	0000                	unimp
   12e8e:	0000                	unimp
   12e90:	0000                	unimp
   12e92:	0000                	unimp
   12e94:	0000                	unimp
   12e96:	0000                	unimp
   12e98:	0000                	unimp
   12e9a:	0000                	unimp
   12e9c:	0000                	unimp
   12e9e:	0000                	unimp
   12ea0:	0000                	unimp
   12ea2:	0000                	unimp
   12ea4:	0000                	unimp
   12ea6:	0000                	unimp
   12ea8:	0000                	unimp
   12eaa:	0000                	unimp
   12eac:	0000                	unimp
   12eae:	0000                	unimp
   12eb0:	0000                	unimp
   12eb2:	0000                	unimp
   12eb4:	0000                	unimp
   12eb6:	0000                	unimp
   12eb8:	0000                	unimp
   12eba:	0000                	unimp
   12ebc:	0000                	unimp
   12ebe:	0000                	unimp
   12ec0:	0000                	unimp
   12ec2:	0000                	unimp
   12ec4:	0000                	unimp
   12ec6:	0000                	unimp
   12ec8:	0000                	unimp
   12eca:	0000                	unimp
   12ecc:	0000                	unimp
   12ece:	0000                	unimp
   12ed0:	0000                	unimp
   12ed2:	0000                	unimp
   12ed4:	0000                	unimp
   12ed6:	0000                	unimp
   12ed8:	0000                	unimp
   12eda:	0000                	unimp
   12edc:	0000                	unimp
   12ede:	0000                	unimp
   12ee0:	0000                	unimp
   12ee2:	0000                	unimp
   12ee4:	0000                	unimp
   12ee6:	0000                	unimp
   12ee8:	0000                	unimp
   12eea:	0000                	unimp
   12eec:	0000                	unimp
   12eee:	0000                	unimp
   12ef0:	0000                	unimp
   12ef2:	0000                	unimp
   12ef4:	0000                	unimp
   12ef6:	0000                	unimp
   12ef8:	0000                	unimp
   12efa:	0000                	unimp
   12efc:	0000                	unimp
   12efe:	0000                	unimp
   12f00:	0000                	unimp
   12f02:	0000                	unimp
   12f04:	0000                	unimp
   12f06:	0000                	unimp
   12f08:	0000                	unimp
   12f0a:	0000                	unimp
   12f0c:	0000                	unimp
   12f0e:	0000                	unimp
   12f10:	0000                	unimp
   12f12:	0000                	unimp
   12f14:	0000                	unimp
   12f16:	0000                	unimp
   12f18:	0000                	unimp
   12f1a:	0000                	unimp
   12f1c:	0000                	unimp
   12f1e:	0000                	unimp
   12f20:	0000                	unimp
   12f22:	0000                	unimp
   12f24:	0000                	unimp
   12f26:	0000                	unimp
   12f28:	0000                	unimp
   12f2a:	0000                	unimp
   12f2c:	0000                	unimp
   12f2e:	0000                	unimp
   12f30:	0000                	unimp
   12f32:	0000                	unimp
   12f34:	0000                	unimp
   12f36:	0000                	unimp
   12f38:	0000                	unimp
   12f3a:	0000                	unimp
   12f3c:	0000                	unimp
   12f3e:	0000                	unimp
   12f40:	0000                	unimp
   12f42:	0000                	unimp
   12f44:	0000                	unimp
   12f46:	0000                	unimp
   12f48:	0000                	unimp
   12f4a:	0000                	unimp
   12f4c:	0000                	unimp
   12f4e:	0000                	unimp
   12f50:	0000                	unimp
   12f52:	0000                	unimp
   12f54:	0000                	unimp
   12f56:	0000                	unimp
   12f58:	0000                	unimp
   12f5a:	0000                	unimp
   12f5c:	0000                	unimp
   12f5e:	0000                	unimp
   12f60:	0000                	unimp
   12f62:	0000                	unimp
   12f64:	0000                	unimp
   12f66:	0000                	unimp
   12f68:	0000                	unimp
   12f6a:	0000                	unimp
   12f6c:	0000                	unimp
   12f6e:	0000                	unimp
   12f70:	0000                	unimp
   12f72:	0000                	unimp
   12f74:	0000                	unimp
   12f76:	0000                	unimp
   12f78:	0000                	unimp
   12f7a:	0000                	unimp
   12f7c:	0000                	unimp
   12f7e:	0000                	unimp
   12f80:	0000                	unimp
   12f82:	0000                	unimp
   12f84:	0000                	unimp
   12f86:	0000                	unimp
   12f88:	0000                	unimp
   12f8a:	0000                	unimp
   12f8c:	0000                	unimp
   12f8e:	0000                	unimp
   12f90:	0000                	unimp
   12f92:	0000                	unimp
   12f94:	0000                	unimp
   12f96:	0000                	unimp
   12f98:	0000                	unimp
   12f9a:	0000                	unimp
   12f9c:	0000                	unimp
   12f9e:	0000                	unimp
   12fa0:	0000                	unimp
   12fa2:	0000                	unimp
   12fa4:	0000                	unimp
   12fa6:	0000                	unimp
   12fa8:	0000                	unimp
   12faa:	0000                	unimp
   12fac:	0000                	unimp
   12fae:	0000                	unimp
   12fb0:	0000                	unimp
   12fb2:	0000                	unimp
   12fb4:	0000                	unimp
   12fb6:	0000                	unimp
   12fb8:	0000                	unimp
   12fba:	0000                	unimp
   12fbc:	0000                	unimp
   12fbe:	0000                	unimp
   12fc0:	0000                	unimp
   12fc2:	0000                	unimp
   12fc4:	0000                	unimp
   12fc6:	0000                	unimp
   12fc8:	0000                	unimp
   12fca:	0000                	unimp
   12fcc:	0000                	unimp
   12fce:	0000                	unimp
   12fd0:	0000                	unimp
   12fd2:	0000                	unimp
   12fd4:	0000                	unimp
   12fd6:	0000                	unimp
   12fd8:	0000                	unimp
   12fda:	0000                	unimp
   12fdc:	0000                	unimp
   12fde:	0000                	unimp
   12fe0:	0000                	unimp
   12fe2:	0000                	unimp
   12fe4:	0000                	unimp
   12fe6:	0000                	unimp
   12fe8:	0000                	unimp
   12fea:	0000                	unimp
   12fec:	0000                	unimp
   12fee:	0000                	unimp
   12ff0:	0000                	unimp
   12ff2:	0000                	unimp
   12ff4:	0000                	unimp
   12ff6:	0000                	unimp
   12ff8:	0000                	unimp
   12ffa:	0000                	unimp
   12ffc:	0000                	unimp
   12ffe:	0000                	unimp

0000000000013000 <userstart>:
   13000:	00200193          	li	gp,2
   13004:	29a00593          	li	a1,666

0000000000013008 <test_2>:
   13008:	7f70106f          	j	14ffe <data+0x1fee>
   1300c:	00000013          	nop

0000000000013010 <data>:
   13010:	3210                	fld	fa2,32(a2)
   13012:	7654                	ld	a3,168(a2)
   13014:	ba98                	fsd	fa4,48(a3)
   13016:	fedc                	sd	a5,184(a3)
   13018:	3210                	fld	fa2,32(a2)
   1301a:	7654                	ld	a3,168(a2)
   1301c:	ba98                	fsd	fa4,48(a3)
   1301e:	fedc                	sd	a5,184(a3)
   13020:	00000013          	nop
   13024:	00000013          	nop
   13028:	00000013          	nop
   1302c:	00000013          	nop
   13030:	00000013          	nop
   13034:	00000013          	nop
   13038:	00000013          	nop
   1303c:	00000013          	nop
   13040:	00000013          	nop
   13044:	00000013          	nop
   13048:	00000013          	nop
   1304c:	00000013          	nop
   13050:	00000013          	nop
   13054:	00000013          	nop
   13058:	00000013          	nop
   1305c:	00000013          	nop
   13060:	00000013          	nop
   13064:	00000013          	nop
   13068:	00000013          	nop
   1306c:	00000013          	nop
   13070:	00000013          	nop
   13074:	00000013          	nop
   13078:	00000013          	nop
   1307c:	00000013          	nop
   13080:	00000013          	nop
   13084:	00000013          	nop
   13088:	00000013          	nop
   1308c:	00000013          	nop
   13090:	00000013          	nop
   13094:	00000013          	nop
   13098:	00000013          	nop
   1309c:	00000013          	nop
   130a0:	00000013          	nop
   130a4:	00000013          	nop
   130a8:	00000013          	nop
   130ac:	00000013          	nop
   130b0:	00000013          	nop
   130b4:	00000013          	nop
   130b8:	00000013          	nop
   130bc:	00000013          	nop
   130c0:	00000013          	nop
   130c4:	00000013          	nop
   130c8:	00000013          	nop
   130cc:	00000013          	nop
   130d0:	00000013          	nop
   130d4:	00000013          	nop
   130d8:	00000013          	nop
   130dc:	00000013          	nop
   130e0:	00000013          	nop
   130e4:	00000013          	nop
   130e8:	00000013          	nop
   130ec:	00000013          	nop
   130f0:	00000013          	nop
   130f4:	00000013          	nop
   130f8:	00000013          	nop
   130fc:	00000013          	nop
   13100:	00000013          	nop
   13104:	00000013          	nop
   13108:	00000013          	nop
   1310c:	00000013          	nop
   13110:	00000013          	nop
   13114:	00000013          	nop
   13118:	00000013          	nop
   1311c:	00000013          	nop
   13120:	00000013          	nop
   13124:	00000013          	nop
   13128:	00000013          	nop
   1312c:	00000013          	nop
   13130:	00000013          	nop
   13134:	00000013          	nop
   13138:	00000013          	nop
   1313c:	00000013          	nop
   13140:	00000013          	nop
   13144:	00000013          	nop
   13148:	00000013          	nop
   1314c:	00000013          	nop
   13150:	00000013          	nop
   13154:	00000013          	nop
   13158:	00000013          	nop
   1315c:	00000013          	nop
   13160:	00000013          	nop
   13164:	00000013          	nop
   13168:	00000013          	nop
   1316c:	00000013          	nop
   13170:	00000013          	nop
   13174:	00000013          	nop
   13178:	00000013          	nop
   1317c:	00000013          	nop
   13180:	00000013          	nop
   13184:	00000013          	nop
   13188:	00000013          	nop
   1318c:	00000013          	nop
   13190:	00000013          	nop
   13194:	00000013          	nop
   13198:	00000013          	nop
   1319c:	00000013          	nop
   131a0:	00000013          	nop
   131a4:	00000013          	nop
   131a8:	00000013          	nop
   131ac:	00000013          	nop
   131b0:	00000013          	nop
   131b4:	00000013          	nop
   131b8:	00000013          	nop
   131bc:	00000013          	nop
   131c0:	00000013          	nop
   131c4:	00000013          	nop
   131c8:	00000013          	nop
   131cc:	00000013          	nop
   131d0:	00000013          	nop
   131d4:	00000013          	nop
   131d8:	00000013          	nop
   131dc:	00000013          	nop
   131e0:	00000013          	nop
   131e4:	00000013          	nop
   131e8:	00000013          	nop
   131ec:	00000013          	nop
   131f0:	00000013          	nop
   131f4:	00000013          	nop
   131f8:	00000013          	nop
   131fc:	00000013          	nop
   13200:	00000013          	nop
   13204:	00000013          	nop
   13208:	00000013          	nop
   1320c:	00000013          	nop
   13210:	00000013          	nop
   13214:	00000013          	nop
   13218:	00000013          	nop
   1321c:	00000013          	nop
   13220:	00000013          	nop
   13224:	00000013          	nop
   13228:	00000013          	nop
   1322c:	00000013          	nop
   13230:	00000013          	nop
   13234:	00000013          	nop
   13238:	00000013          	nop
   1323c:	00000013          	nop
   13240:	00000013          	nop
   13244:	00000013          	nop
   13248:	00000013          	nop
   1324c:	00000013          	nop
   13250:	00000013          	nop
   13254:	00000013          	nop
   13258:	00000013          	nop
   1325c:	00000013          	nop
   13260:	00000013          	nop
   13264:	00000013          	nop
   13268:	00000013          	nop
   1326c:	00000013          	nop
   13270:	00000013          	nop
   13274:	00000013          	nop
   13278:	00000013          	nop
   1327c:	00000013          	nop
   13280:	00000013          	nop
   13284:	00000013          	nop
   13288:	00000013          	nop
   1328c:	00000013          	nop
   13290:	00000013          	nop
   13294:	00000013          	nop
   13298:	00000013          	nop
   1329c:	00000013          	nop
   132a0:	00000013          	nop
   132a4:	00000013          	nop
   132a8:	00000013          	nop
   132ac:	00000013          	nop
   132b0:	00000013          	nop
   132b4:	00000013          	nop
   132b8:	00000013          	nop
   132bc:	00000013          	nop
   132c0:	00000013          	nop
   132c4:	00000013          	nop
   132c8:	00000013          	nop
   132cc:	00000013          	nop
   132d0:	00000013          	nop
   132d4:	00000013          	nop
   132d8:	00000013          	nop
   132dc:	00000013          	nop
   132e0:	00000013          	nop
   132e4:	00000013          	nop
   132e8:	00000013          	nop
   132ec:	00000013          	nop
   132f0:	00000013          	nop
   132f4:	00000013          	nop
   132f8:	00000013          	nop
   132fc:	00000013          	nop
   13300:	00000013          	nop
   13304:	00000013          	nop
   13308:	00000013          	nop
   1330c:	00000013          	nop
   13310:	00000013          	nop
   13314:	00000013          	nop
   13318:	00000013          	nop
   1331c:	00000013          	nop
   13320:	00000013          	nop
   13324:	00000013          	nop
   13328:	00000013          	nop
   1332c:	00000013          	nop
   13330:	00000013          	nop
   13334:	00000013          	nop
   13338:	00000013          	nop
   1333c:	00000013          	nop
   13340:	00000013          	nop
   13344:	00000013          	nop
   13348:	00000013          	nop
   1334c:	00000013          	nop
   13350:	00000013          	nop
   13354:	00000013          	nop
   13358:	00000013          	nop
   1335c:	00000013          	nop
   13360:	00000013          	nop
   13364:	00000013          	nop
   13368:	00000013          	nop
   1336c:	00000013          	nop
   13370:	00000013          	nop
   13374:	00000013          	nop
   13378:	00000013          	nop
   1337c:	00000013          	nop
   13380:	00000013          	nop
   13384:	00000013          	nop
   13388:	00000013          	nop
   1338c:	00000013          	nop
   13390:	00000013          	nop
   13394:	00000013          	nop
   13398:	00000013          	nop
   1339c:	00000013          	nop
   133a0:	00000013          	nop
   133a4:	00000013          	nop
   133a8:	00000013          	nop
   133ac:	00000013          	nop
   133b0:	00000013          	nop
   133b4:	00000013          	nop
   133b8:	00000013          	nop
   133bc:	00000013          	nop
   133c0:	00000013          	nop
   133c4:	00000013          	nop
   133c8:	00000013          	nop
   133cc:	00000013          	nop
   133d0:	00000013          	nop
   133d4:	00000013          	nop
   133d8:	00000013          	nop
   133dc:	00000013          	nop
   133e0:	00000013          	nop
   133e4:	00000013          	nop
   133e8:	00000013          	nop
   133ec:	00000013          	nop
   133f0:	00000013          	nop
   133f4:	00000013          	nop
   133f8:	00000013          	nop
   133fc:	00000013          	nop
   13400:	00000013          	nop
   13404:	00000013          	nop
   13408:	00000013          	nop
   1340c:	00000013          	nop
   13410:	00000013          	nop
   13414:	00000013          	nop
   13418:	00000013          	nop
   1341c:	00000013          	nop
   13420:	00000013          	nop
   13424:	00000013          	nop
   13428:	00000013          	nop
   1342c:	00000013          	nop
   13430:	00000013          	nop
   13434:	00000013          	nop
   13438:	00000013          	nop
   1343c:	00000013          	nop
   13440:	00000013          	nop
   13444:	00000013          	nop
   13448:	00000013          	nop
   1344c:	00000013          	nop
   13450:	00000013          	nop
   13454:	00000013          	nop
   13458:	00000013          	nop
   1345c:	00000013          	nop
   13460:	00000013          	nop
   13464:	00000013          	nop
   13468:	00000013          	nop
   1346c:	00000013          	nop
   13470:	00000013          	nop
   13474:	00000013          	nop
   13478:	00000013          	nop
   1347c:	00000013          	nop
   13480:	00000013          	nop
   13484:	00000013          	nop
   13488:	00000013          	nop
   1348c:	00000013          	nop
   13490:	00000013          	nop
   13494:	00000013          	nop
   13498:	00000013          	nop
   1349c:	00000013          	nop
   134a0:	00000013          	nop
   134a4:	00000013          	nop
   134a8:	00000013          	nop
   134ac:	00000013          	nop
   134b0:	00000013          	nop
   134b4:	00000013          	nop
   134b8:	00000013          	nop
   134bc:	00000013          	nop
   134c0:	00000013          	nop
   134c4:	00000013          	nop
   134c8:	00000013          	nop
   134cc:	00000013          	nop
   134d0:	00000013          	nop
   134d4:	00000013          	nop
   134d8:	00000013          	nop
   134dc:	00000013          	nop
   134e0:	00000013          	nop
   134e4:	00000013          	nop
   134e8:	00000013          	nop
   134ec:	00000013          	nop
   134f0:	00000013          	nop
   134f4:	00000013          	nop
   134f8:	00000013          	nop
   134fc:	00000013          	nop
   13500:	00000013          	nop
   13504:	00000013          	nop
   13508:	00000013          	nop
   1350c:	00000013          	nop
   13510:	00000013          	nop
   13514:	00000013          	nop
   13518:	00000013          	nop
   1351c:	00000013          	nop
   13520:	00000013          	nop
   13524:	00000013          	nop
   13528:	00000013          	nop
   1352c:	00000013          	nop
   13530:	00000013          	nop
   13534:	00000013          	nop
   13538:	00000013          	nop
   1353c:	00000013          	nop
   13540:	00000013          	nop
   13544:	00000013          	nop
   13548:	00000013          	nop
   1354c:	00000013          	nop
   13550:	00000013          	nop
   13554:	00000013          	nop
   13558:	00000013          	nop
   1355c:	00000013          	nop
   13560:	00000013          	nop
   13564:	00000013          	nop
   13568:	00000013          	nop
   1356c:	00000013          	nop
   13570:	00000013          	nop
   13574:	00000013          	nop
   13578:	00000013          	nop
   1357c:	00000013          	nop
   13580:	00000013          	nop
   13584:	00000013          	nop
   13588:	00000013          	nop
   1358c:	00000013          	nop
   13590:	00000013          	nop
   13594:	00000013          	nop
   13598:	00000013          	nop
   1359c:	00000013          	nop
   135a0:	00000013          	nop
   135a4:	00000013          	nop
   135a8:	00000013          	nop
   135ac:	00000013          	nop
   135b0:	00000013          	nop
   135b4:	00000013          	nop
   135b8:	00000013          	nop
   135bc:	00000013          	nop
   135c0:	00000013          	nop
   135c4:	00000013          	nop
   135c8:	00000013          	nop
   135cc:	00000013          	nop
   135d0:	00000013          	nop
   135d4:	00000013          	nop
   135d8:	00000013          	nop
   135dc:	00000013          	nop
   135e0:	00000013          	nop
   135e4:	00000013          	nop
   135e8:	00000013          	nop
   135ec:	00000013          	nop
   135f0:	00000013          	nop
   135f4:	00000013          	nop
   135f8:	00000013          	nop
   135fc:	00000013          	nop
   13600:	00000013          	nop
   13604:	00000013          	nop
   13608:	00000013          	nop
   1360c:	00000013          	nop
   13610:	00000013          	nop
   13614:	00000013          	nop
   13618:	00000013          	nop
   1361c:	00000013          	nop
   13620:	00000013          	nop
   13624:	00000013          	nop
   13628:	00000013          	nop
   1362c:	00000013          	nop
   13630:	00000013          	nop
   13634:	00000013          	nop
   13638:	00000013          	nop
   1363c:	00000013          	nop
   13640:	00000013          	nop
   13644:	00000013          	nop
   13648:	00000013          	nop
   1364c:	00000013          	nop
   13650:	00000013          	nop
   13654:	00000013          	nop
   13658:	00000013          	nop
   1365c:	00000013          	nop
   13660:	00000013          	nop
   13664:	00000013          	nop
   13668:	00000013          	nop
   1366c:	00000013          	nop
   13670:	00000013          	nop
   13674:	00000013          	nop
   13678:	00000013          	nop
   1367c:	00000013          	nop
   13680:	00000013          	nop
   13684:	00000013          	nop
   13688:	00000013          	nop
   1368c:	00000013          	nop
   13690:	00000013          	nop
   13694:	00000013          	nop
   13698:	00000013          	nop
   1369c:	00000013          	nop
   136a0:	00000013          	nop
   136a4:	00000013          	nop
   136a8:	00000013          	nop
   136ac:	00000013          	nop
   136b0:	00000013          	nop
   136b4:	00000013          	nop
   136b8:	00000013          	nop
   136bc:	00000013          	nop
   136c0:	00000013          	nop
   136c4:	00000013          	nop
   136c8:	00000013          	nop
   136cc:	00000013          	nop
   136d0:	00000013          	nop
   136d4:	00000013          	nop
   136d8:	00000013          	nop
   136dc:	00000013          	nop
   136e0:	00000013          	nop
   136e4:	00000013          	nop
   136e8:	00000013          	nop
   136ec:	00000013          	nop
   136f0:	00000013          	nop
   136f4:	00000013          	nop
   136f8:	00000013          	nop
   136fc:	00000013          	nop
   13700:	00000013          	nop
   13704:	00000013          	nop
   13708:	00000013          	nop
   1370c:	00000013          	nop
   13710:	00000013          	nop
   13714:	00000013          	nop
   13718:	00000013          	nop
   1371c:	00000013          	nop
   13720:	00000013          	nop
   13724:	00000013          	nop
   13728:	00000013          	nop
   1372c:	00000013          	nop
   13730:	00000013          	nop
   13734:	00000013          	nop
   13738:	00000013          	nop
   1373c:	00000013          	nop
   13740:	00000013          	nop
   13744:	00000013          	nop
   13748:	00000013          	nop
   1374c:	00000013          	nop
   13750:	00000013          	nop
   13754:	00000013          	nop
   13758:	00000013          	nop
   1375c:	00000013          	nop
   13760:	00000013          	nop
   13764:	00000013          	nop
   13768:	00000013          	nop
   1376c:	00000013          	nop
   13770:	00000013          	nop
   13774:	00000013          	nop
   13778:	00000013          	nop
   1377c:	00000013          	nop
   13780:	00000013          	nop
   13784:	00000013          	nop
   13788:	00000013          	nop
   1378c:	00000013          	nop
   13790:	00000013          	nop
   13794:	00000013          	nop
   13798:	00000013          	nop
   1379c:	00000013          	nop
   137a0:	00000013          	nop
   137a4:	00000013          	nop
   137a8:	00000013          	nop
   137ac:	00000013          	nop
   137b0:	00000013          	nop
   137b4:	00000013          	nop
   137b8:	00000013          	nop
   137bc:	00000013          	nop
   137c0:	00000013          	nop
   137c4:	00000013          	nop
   137c8:	00000013          	nop
   137cc:	00000013          	nop
   137d0:	00000013          	nop
   137d4:	00000013          	nop
   137d8:	00000013          	nop
   137dc:	00000013          	nop
   137e0:	00000013          	nop
   137e4:	00000013          	nop
   137e8:	00000013          	nop
   137ec:	00000013          	nop
   137f0:	00000013          	nop
   137f4:	00000013          	nop
   137f8:	00000013          	nop
   137fc:	00000013          	nop
   13800:	00000013          	nop
   13804:	00000013          	nop
   13808:	00000013          	nop
   1380c:	00000013          	nop
   13810:	00000013          	nop
   13814:	00000013          	nop
   13818:	00000013          	nop
   1381c:	00000013          	nop
   13820:	00000013          	nop
   13824:	00000013          	nop
   13828:	00000013          	nop
   1382c:	00000013          	nop
   13830:	00000013          	nop
   13834:	00000013          	nop
   13838:	00000013          	nop
   1383c:	00000013          	nop
   13840:	00000013          	nop
   13844:	00000013          	nop
   13848:	00000013          	nop
   1384c:	00000013          	nop
   13850:	00000013          	nop
   13854:	00000013          	nop
   13858:	00000013          	nop
   1385c:	00000013          	nop
   13860:	00000013          	nop
   13864:	00000013          	nop
   13868:	00000013          	nop
   1386c:	00000013          	nop
   13870:	00000013          	nop
   13874:	00000013          	nop
   13878:	00000013          	nop
   1387c:	00000013          	nop
   13880:	00000013          	nop
   13884:	00000013          	nop
   13888:	00000013          	nop
   1388c:	00000013          	nop
   13890:	00000013          	nop
   13894:	00000013          	nop
   13898:	00000013          	nop
   1389c:	00000013          	nop
   138a0:	00000013          	nop
   138a4:	00000013          	nop
   138a8:	00000013          	nop
   138ac:	00000013          	nop
   138b0:	00000013          	nop
   138b4:	00000013          	nop
   138b8:	00000013          	nop
   138bc:	00000013          	nop
   138c0:	00000013          	nop
   138c4:	00000013          	nop
   138c8:	00000013          	nop
   138cc:	00000013          	nop
   138d0:	00000013          	nop
   138d4:	00000013          	nop
   138d8:	00000013          	nop
   138dc:	00000013          	nop
   138e0:	00000013          	nop
   138e4:	00000013          	nop
   138e8:	00000013          	nop
   138ec:	00000013          	nop
   138f0:	00000013          	nop
   138f4:	00000013          	nop
   138f8:	00000013          	nop
   138fc:	00000013          	nop
   13900:	00000013          	nop
   13904:	00000013          	nop
   13908:	00000013          	nop
   1390c:	00000013          	nop
   13910:	00000013          	nop
   13914:	00000013          	nop
   13918:	00000013          	nop
   1391c:	00000013          	nop
   13920:	00000013          	nop
   13924:	00000013          	nop
   13928:	00000013          	nop
   1392c:	00000013          	nop
   13930:	00000013          	nop
   13934:	00000013          	nop
   13938:	00000013          	nop
   1393c:	00000013          	nop
   13940:	00000013          	nop
   13944:	00000013          	nop
   13948:	00000013          	nop
   1394c:	00000013          	nop
   13950:	00000013          	nop
   13954:	00000013          	nop
   13958:	00000013          	nop
   1395c:	00000013          	nop
   13960:	00000013          	nop
   13964:	00000013          	nop
   13968:	00000013          	nop
   1396c:	00000013          	nop
   13970:	00000013          	nop
   13974:	00000013          	nop
   13978:	00000013          	nop
   1397c:	00000013          	nop
   13980:	00000013          	nop
   13984:	00000013          	nop
   13988:	00000013          	nop
   1398c:	00000013          	nop
   13990:	00000013          	nop
   13994:	00000013          	nop
   13998:	00000013          	nop
   1399c:	00000013          	nop
   139a0:	00000013          	nop
   139a4:	00000013          	nop
   139a8:	00000013          	nop
   139ac:	00000013          	nop
   139b0:	00000013          	nop
   139b4:	00000013          	nop
   139b8:	00000013          	nop
   139bc:	00000013          	nop
   139c0:	00000013          	nop
   139c4:	00000013          	nop
   139c8:	00000013          	nop
   139cc:	00000013          	nop
   139d0:	00000013          	nop
   139d4:	00000013          	nop
   139d8:	00000013          	nop
   139dc:	00000013          	nop
   139e0:	00000013          	nop
   139e4:	00000013          	nop
   139e8:	00000013          	nop
   139ec:	00000013          	nop
   139f0:	00000013          	nop
   139f4:	00000013          	nop
   139f8:	00000013          	nop
   139fc:	00000013          	nop
   13a00:	00000013          	nop
   13a04:	00000013          	nop
   13a08:	00000013          	nop
   13a0c:	00000013          	nop
   13a10:	00000013          	nop
   13a14:	00000013          	nop
   13a18:	00000013          	nop
   13a1c:	00000013          	nop
   13a20:	00000013          	nop
   13a24:	00000013          	nop
   13a28:	00000013          	nop
   13a2c:	00000013          	nop
   13a30:	00000013          	nop
   13a34:	00000013          	nop
   13a38:	00000013          	nop
   13a3c:	00000013          	nop
   13a40:	00000013          	nop
   13a44:	00000013          	nop
   13a48:	00000013          	nop
   13a4c:	00000013          	nop
   13a50:	00000013          	nop
   13a54:	00000013          	nop
   13a58:	00000013          	nop
   13a5c:	00000013          	nop
   13a60:	00000013          	nop
   13a64:	00000013          	nop
   13a68:	00000013          	nop
   13a6c:	00000013          	nop
   13a70:	00000013          	nop
   13a74:	00000013          	nop
   13a78:	00000013          	nop
   13a7c:	00000013          	nop
   13a80:	00000013          	nop
   13a84:	00000013          	nop
   13a88:	00000013          	nop
   13a8c:	00000013          	nop
   13a90:	00000013          	nop
   13a94:	00000013          	nop
   13a98:	00000013          	nop
   13a9c:	00000013          	nop
   13aa0:	00000013          	nop
   13aa4:	00000013          	nop
   13aa8:	00000013          	nop
   13aac:	00000013          	nop
   13ab0:	00000013          	nop
   13ab4:	00000013          	nop
   13ab8:	00000013          	nop
   13abc:	00000013          	nop
   13ac0:	00000013          	nop
   13ac4:	00000013          	nop
   13ac8:	00000013          	nop
   13acc:	00000013          	nop
   13ad0:	00000013          	nop
   13ad4:	00000013          	nop
   13ad8:	00000013          	nop
   13adc:	00000013          	nop
   13ae0:	00000013          	nop
   13ae4:	00000013          	nop
   13ae8:	00000013          	nop
   13aec:	00000013          	nop
   13af0:	00000013          	nop
   13af4:	00000013          	nop
   13af8:	00000013          	nop
   13afc:	00000013          	nop
   13b00:	00000013          	nop
   13b04:	00000013          	nop
   13b08:	00000013          	nop
   13b0c:	00000013          	nop
   13b10:	00000013          	nop
   13b14:	00000013          	nop
   13b18:	00000013          	nop
   13b1c:	00000013          	nop
   13b20:	00000013          	nop
   13b24:	00000013          	nop
   13b28:	00000013          	nop
   13b2c:	00000013          	nop
   13b30:	00000013          	nop
   13b34:	00000013          	nop
   13b38:	00000013          	nop
   13b3c:	00000013          	nop
   13b40:	00000013          	nop
   13b44:	00000013          	nop
   13b48:	00000013          	nop
   13b4c:	00000013          	nop
   13b50:	00000013          	nop
   13b54:	00000013          	nop
   13b58:	00000013          	nop
   13b5c:	00000013          	nop
   13b60:	00000013          	nop
   13b64:	00000013          	nop
   13b68:	00000013          	nop
   13b6c:	00000013          	nop
   13b70:	00000013          	nop
   13b74:	00000013          	nop
   13b78:	00000013          	nop
   13b7c:	00000013          	nop
   13b80:	00000013          	nop
   13b84:	00000013          	nop
   13b88:	00000013          	nop
   13b8c:	00000013          	nop
   13b90:	00000013          	nop
   13b94:	00000013          	nop
   13b98:	00000013          	nop
   13b9c:	00000013          	nop
   13ba0:	00000013          	nop
   13ba4:	00000013          	nop
   13ba8:	00000013          	nop
   13bac:	00000013          	nop
   13bb0:	00000013          	nop
   13bb4:	00000013          	nop
   13bb8:	00000013          	nop
   13bbc:	00000013          	nop
   13bc0:	00000013          	nop
   13bc4:	00000013          	nop
   13bc8:	00000013          	nop
   13bcc:	00000013          	nop
   13bd0:	00000013          	nop
   13bd4:	00000013          	nop
   13bd8:	00000013          	nop
   13bdc:	00000013          	nop
   13be0:	00000013          	nop
   13be4:	00000013          	nop
   13be8:	00000013          	nop
   13bec:	00000013          	nop
   13bf0:	00000013          	nop
   13bf4:	00000013          	nop
   13bf8:	00000013          	nop
   13bfc:	00000013          	nop
   13c00:	00000013          	nop
   13c04:	00000013          	nop
   13c08:	00000013          	nop
   13c0c:	00000013          	nop
   13c10:	00000013          	nop
   13c14:	00000013          	nop
   13c18:	00000013          	nop
   13c1c:	00000013          	nop
   13c20:	00000013          	nop
   13c24:	00000013          	nop
   13c28:	00000013          	nop
   13c2c:	00000013          	nop
   13c30:	00000013          	nop
   13c34:	00000013          	nop
   13c38:	00000013          	nop
   13c3c:	00000013          	nop
   13c40:	00000013          	nop
   13c44:	00000013          	nop
   13c48:	00000013          	nop
   13c4c:	00000013          	nop
   13c50:	00000013          	nop
   13c54:	00000013          	nop
   13c58:	00000013          	nop
   13c5c:	00000013          	nop
   13c60:	00000013          	nop
   13c64:	00000013          	nop
   13c68:	00000013          	nop
   13c6c:	00000013          	nop
   13c70:	00000013          	nop
   13c74:	00000013          	nop
   13c78:	00000013          	nop
   13c7c:	00000013          	nop
   13c80:	00000013          	nop
   13c84:	00000013          	nop
   13c88:	00000013          	nop
   13c8c:	00000013          	nop
   13c90:	00000013          	nop
   13c94:	00000013          	nop
   13c98:	00000013          	nop
   13c9c:	00000013          	nop
   13ca0:	00000013          	nop
   13ca4:	00000013          	nop
   13ca8:	00000013          	nop
   13cac:	00000013          	nop
   13cb0:	00000013          	nop
   13cb4:	00000013          	nop
   13cb8:	00000013          	nop
   13cbc:	00000013          	nop
   13cc0:	00000013          	nop
   13cc4:	00000013          	nop
   13cc8:	00000013          	nop
   13ccc:	00000013          	nop
   13cd0:	00000013          	nop
   13cd4:	00000013          	nop
   13cd8:	00000013          	nop
   13cdc:	00000013          	nop
   13ce0:	00000013          	nop
   13ce4:	00000013          	nop
   13ce8:	00000013          	nop
   13cec:	00000013          	nop
   13cf0:	00000013          	nop
   13cf4:	00000013          	nop
   13cf8:	00000013          	nop
   13cfc:	00000013          	nop
   13d00:	00000013          	nop
   13d04:	00000013          	nop
   13d08:	00000013          	nop
   13d0c:	00000013          	nop
   13d10:	00000013          	nop
   13d14:	00000013          	nop
   13d18:	00000013          	nop
   13d1c:	00000013          	nop
   13d20:	00000013          	nop
   13d24:	00000013          	nop
   13d28:	00000013          	nop
   13d2c:	00000013          	nop
   13d30:	00000013          	nop
   13d34:	00000013          	nop
   13d38:	00000013          	nop
   13d3c:	00000013          	nop
   13d40:	00000013          	nop
   13d44:	00000013          	nop
   13d48:	00000013          	nop
   13d4c:	00000013          	nop
   13d50:	00000013          	nop
   13d54:	00000013          	nop
   13d58:	00000013          	nop
   13d5c:	00000013          	nop
   13d60:	00000013          	nop
   13d64:	00000013          	nop
   13d68:	00000013          	nop
   13d6c:	00000013          	nop
   13d70:	00000013          	nop
   13d74:	00000013          	nop
   13d78:	00000013          	nop
   13d7c:	00000013          	nop
   13d80:	00000013          	nop
   13d84:	00000013          	nop
   13d88:	00000013          	nop
   13d8c:	00000013          	nop
   13d90:	00000013          	nop
   13d94:	00000013          	nop
   13d98:	00000013          	nop
   13d9c:	00000013          	nop
   13da0:	00000013          	nop
   13da4:	00000013          	nop
   13da8:	00000013          	nop
   13dac:	00000013          	nop
   13db0:	00000013          	nop
   13db4:	00000013          	nop
   13db8:	00000013          	nop
   13dbc:	00000013          	nop
   13dc0:	00000013          	nop
   13dc4:	00000013          	nop
   13dc8:	00000013          	nop
   13dcc:	00000013          	nop
   13dd0:	00000013          	nop
   13dd4:	00000013          	nop
   13dd8:	00000013          	nop
   13ddc:	00000013          	nop
   13de0:	00000013          	nop
   13de4:	00000013          	nop
   13de8:	00000013          	nop
   13dec:	00000013          	nop
   13df0:	00000013          	nop
   13df4:	00000013          	nop
   13df8:	00000013          	nop
   13dfc:	00000013          	nop
   13e00:	00000013          	nop
   13e04:	00000013          	nop
   13e08:	00000013          	nop
   13e0c:	00000013          	nop
   13e10:	00000013          	nop
   13e14:	00000013          	nop
   13e18:	00000013          	nop
   13e1c:	00000013          	nop
   13e20:	00000013          	nop
   13e24:	00000013          	nop
   13e28:	00000013          	nop
   13e2c:	00000013          	nop
   13e30:	00000013          	nop
   13e34:	00000013          	nop
   13e38:	00000013          	nop
   13e3c:	00000013          	nop
   13e40:	00000013          	nop
   13e44:	00000013          	nop
   13e48:	00000013          	nop
   13e4c:	00000013          	nop
   13e50:	00000013          	nop
   13e54:	00000013          	nop
   13e58:	00000013          	nop
   13e5c:	00000013          	nop
   13e60:	00000013          	nop
   13e64:	00000013          	nop
   13e68:	00000013          	nop
   13e6c:	00000013          	nop
   13e70:	00000013          	nop
   13e74:	00000013          	nop
   13e78:	00000013          	nop
   13e7c:	00000013          	nop
   13e80:	00000013          	nop
   13e84:	00000013          	nop
   13e88:	00000013          	nop
   13e8c:	00000013          	nop
   13e90:	00000013          	nop
   13e94:	00000013          	nop
   13e98:	00000013          	nop
   13e9c:	00000013          	nop
   13ea0:	00000013          	nop
   13ea4:	00000013          	nop
   13ea8:	00000013          	nop
   13eac:	00000013          	nop
   13eb0:	00000013          	nop
   13eb4:	00000013          	nop
   13eb8:	00000013          	nop
   13ebc:	00000013          	nop
   13ec0:	00000013          	nop
   13ec4:	00000013          	nop
   13ec8:	00000013          	nop
   13ecc:	00000013          	nop
   13ed0:	00000013          	nop
   13ed4:	00000013          	nop
   13ed8:	00000013          	nop
   13edc:	00000013          	nop
   13ee0:	00000013          	nop
   13ee4:	00000013          	nop
   13ee8:	00000013          	nop
   13eec:	00000013          	nop
   13ef0:	00000013          	nop
   13ef4:	00000013          	nop
   13ef8:	00000013          	nop
   13efc:	00000013          	nop
   13f00:	00000013          	nop
   13f04:	00000013          	nop
   13f08:	00000013          	nop
   13f0c:	00000013          	nop
   13f10:	00000013          	nop
   13f14:	00000013          	nop
   13f18:	00000013          	nop
   13f1c:	00000013          	nop
   13f20:	00000013          	nop
   13f24:	00000013          	nop
   13f28:	00000013          	nop
   13f2c:	00000013          	nop
   13f30:	00000013          	nop
   13f34:	00000013          	nop
   13f38:	00000013          	nop
   13f3c:	00000013          	nop
   13f40:	00000013          	nop
   13f44:	00000013          	nop
   13f48:	00000013          	nop
   13f4c:	00000013          	nop
   13f50:	00000013          	nop
   13f54:	00000013          	nop
   13f58:	00000013          	nop
   13f5c:	00000013          	nop
   13f60:	00000013          	nop
   13f64:	00000013          	nop
   13f68:	00000013          	nop
   13f6c:	00000013          	nop
   13f70:	00000013          	nop
   13f74:	00000013          	nop
   13f78:	00000013          	nop
   13f7c:	00000013          	nop
   13f80:	00000013          	nop
   13f84:	00000013          	nop
   13f88:	00000013          	nop
   13f8c:	00000013          	nop
   13f90:	00000013          	nop
   13f94:	00000013          	nop
   13f98:	00000013          	nop
   13f9c:	00000013          	nop
   13fa0:	00000013          	nop
   13fa4:	00000013          	nop
   13fa8:	00000013          	nop
   13fac:	00000013          	nop
   13fb0:	00000013          	nop
   13fb4:	00000013          	nop
   13fb8:	00000013          	nop
   13fbc:	00000013          	nop
   13fc0:	00000013          	nop
   13fc4:	00000013          	nop
   13fc8:	00000013          	nop
   13fcc:	00000013          	nop
   13fd0:	00000013          	nop
   13fd4:	00000013          	nop
   13fd8:	00000013          	nop
   13fdc:	00000013          	nop
   13fe0:	00000013          	nop
   13fe4:	00000013          	nop
   13fe8:	00000013          	nop
   13fec:	00000013          	nop
   13ff0:	00000013          	nop
   13ff4:	00000013          	nop
   13ff8:	00000013          	nop
   13ffc:	00000013          	nop
   14000:	0000                	unimp
   14002:	0000                	unimp
   14004:	0000                	unimp
   14006:	0000                	unimp
   14008:	0000                	unimp
   1400a:	0000                	unimp
   1400c:	0000                	unimp
   1400e:	0000                	unimp
   14010:	0000                	unimp
   14012:	0000                	unimp
   14014:	0000                	unimp
   14016:	0000                	unimp
   14018:	0000                	unimp
   1401a:	0000                	unimp
   1401c:	0000                	unimp
   1401e:	0000                	unimp
   14020:	0000                	unimp
   14022:	0000                	unimp
   14024:	0000                	unimp
   14026:	0000                	unimp
   14028:	0000                	unimp
   1402a:	0000                	unimp
   1402c:	0000                	unimp
   1402e:	0000                	unimp
   14030:	0000                	unimp
   14032:	0000                	unimp
   14034:	0000                	unimp
   14036:	0000                	unimp
   14038:	0000                	unimp
   1403a:	0000                	unimp
   1403c:	0000                	unimp
   1403e:	0000                	unimp
   14040:	0000                	unimp
   14042:	0000                	unimp
   14044:	0000                	unimp
   14046:	0000                	unimp
   14048:	0000                	unimp
   1404a:	0000                	unimp
   1404c:	0000                	unimp
   1404e:	0000                	unimp
   14050:	0000                	unimp
   14052:	0000                	unimp
   14054:	0000                	unimp
   14056:	0000                	unimp
   14058:	0000                	unimp
   1405a:	0000                	unimp
   1405c:	0000                	unimp
   1405e:	0000                	unimp
   14060:	0000                	unimp
   14062:	0000                	unimp
   14064:	0000                	unimp
   14066:	0000                	unimp
   14068:	0000                	unimp
   1406a:	0000                	unimp
   1406c:	0000                	unimp
   1406e:	0000                	unimp
   14070:	0000                	unimp
   14072:	0000                	unimp
   14074:	0000                	unimp
   14076:	0000                	unimp
   14078:	0000                	unimp
   1407a:	0000                	unimp
   1407c:	0000                	unimp
   1407e:	0000                	unimp
   14080:	0000                	unimp
   14082:	0000                	unimp
   14084:	0000                	unimp
   14086:	0000                	unimp
   14088:	0000                	unimp
   1408a:	0000                	unimp
   1408c:	0000                	unimp
   1408e:	0000                	unimp
   14090:	0000                	unimp
   14092:	0000                	unimp
   14094:	0000                	unimp
   14096:	0000                	unimp
   14098:	0000                	unimp
   1409a:	0000                	unimp
   1409c:	0000                	unimp
   1409e:	0000                	unimp
   140a0:	0000                	unimp
   140a2:	0000                	unimp
   140a4:	0000                	unimp
   140a6:	0000                	unimp
   140a8:	0000                	unimp
   140aa:	0000                	unimp
   140ac:	0000                	unimp
   140ae:	0000                	unimp
   140b0:	0000                	unimp
   140b2:	0000                	unimp
   140b4:	0000                	unimp
   140b6:	0000                	unimp
   140b8:	0000                	unimp
   140ba:	0000                	unimp
   140bc:	0000                	unimp
   140be:	0000                	unimp
   140c0:	0000                	unimp
   140c2:	0000                	unimp
   140c4:	0000                	unimp
   140c6:	0000                	unimp
   140c8:	0000                	unimp
   140ca:	0000                	unimp
   140cc:	0000                	unimp
   140ce:	0000                	unimp
   140d0:	0000                	unimp
   140d2:	0000                	unimp
   140d4:	0000                	unimp
   140d6:	0000                	unimp
   140d8:	0000                	unimp
   140da:	0000                	unimp
   140dc:	0000                	unimp
   140de:	0000                	unimp
   140e0:	0000                	unimp
   140e2:	0000                	unimp
   140e4:	0000                	unimp
   140e6:	0000                	unimp
   140e8:	0000                	unimp
   140ea:	0000                	unimp
   140ec:	0000                	unimp
   140ee:	0000                	unimp
   140f0:	0000                	unimp
   140f2:	0000                	unimp
   140f4:	0000                	unimp
   140f6:	0000                	unimp
   140f8:	0000                	unimp
   140fa:	0000                	unimp
   140fc:	0000                	unimp
   140fe:	0000                	unimp
   14100:	0000                	unimp
   14102:	0000                	unimp
   14104:	0000                	unimp
   14106:	0000                	unimp
   14108:	0000                	unimp
   1410a:	0000                	unimp
   1410c:	0000                	unimp
   1410e:	0000                	unimp
   14110:	0000                	unimp
   14112:	0000                	unimp
   14114:	0000                	unimp
   14116:	0000                	unimp
   14118:	0000                	unimp
   1411a:	0000                	unimp
   1411c:	0000                	unimp
   1411e:	0000                	unimp
   14120:	0000                	unimp
   14122:	0000                	unimp
   14124:	0000                	unimp
   14126:	0000                	unimp
   14128:	0000                	unimp
   1412a:	0000                	unimp
   1412c:	0000                	unimp
   1412e:	0000                	unimp
   14130:	0000                	unimp
   14132:	0000                	unimp
   14134:	0000                	unimp
   14136:	0000                	unimp
   14138:	0000                	unimp
   1413a:	0000                	unimp
   1413c:	0000                	unimp
   1413e:	0000                	unimp
   14140:	0000                	unimp
   14142:	0000                	unimp
   14144:	0000                	unimp
   14146:	0000                	unimp
   14148:	0000                	unimp
   1414a:	0000                	unimp
   1414c:	0000                	unimp
   1414e:	0000                	unimp
   14150:	0000                	unimp
   14152:	0000                	unimp
   14154:	0000                	unimp
   14156:	0000                	unimp
   14158:	0000                	unimp
   1415a:	0000                	unimp
   1415c:	0000                	unimp
   1415e:	0000                	unimp
   14160:	0000                	unimp
   14162:	0000                	unimp
   14164:	0000                	unimp
   14166:	0000                	unimp
   14168:	0000                	unimp
   1416a:	0000                	unimp
   1416c:	0000                	unimp
   1416e:	0000                	unimp
   14170:	0000                	unimp
   14172:	0000                	unimp
   14174:	0000                	unimp
   14176:	0000                	unimp
   14178:	0000                	unimp
   1417a:	0000                	unimp
   1417c:	0000                	unimp
   1417e:	0000                	unimp
   14180:	0000                	unimp
   14182:	0000                	unimp
   14184:	0000                	unimp
   14186:	0000                	unimp
   14188:	0000                	unimp
   1418a:	0000                	unimp
   1418c:	0000                	unimp
   1418e:	0000                	unimp
   14190:	0000                	unimp
   14192:	0000                	unimp
   14194:	0000                	unimp
   14196:	0000                	unimp
   14198:	0000                	unimp
   1419a:	0000                	unimp
   1419c:	0000                	unimp
   1419e:	0000                	unimp
   141a0:	0000                	unimp
   141a2:	0000                	unimp
   141a4:	0000                	unimp
   141a6:	0000                	unimp
   141a8:	0000                	unimp
   141aa:	0000                	unimp
   141ac:	0000                	unimp
   141ae:	0000                	unimp
   141b0:	0000                	unimp
   141b2:	0000                	unimp
   141b4:	0000                	unimp
   141b6:	0000                	unimp
   141b8:	0000                	unimp
   141ba:	0000                	unimp
   141bc:	0000                	unimp
   141be:	0000                	unimp
   141c0:	0000                	unimp
   141c2:	0000                	unimp
   141c4:	0000                	unimp
   141c6:	0000                	unimp
   141c8:	0000                	unimp
   141ca:	0000                	unimp
   141cc:	0000                	unimp
   141ce:	0000                	unimp
   141d0:	0000                	unimp
   141d2:	0000                	unimp
   141d4:	0000                	unimp
   141d6:	0000                	unimp
   141d8:	0000                	unimp
   141da:	0000                	unimp
   141dc:	0000                	unimp
   141de:	0000                	unimp
   141e0:	0000                	unimp
   141e2:	0000                	unimp
   141e4:	0000                	unimp
   141e6:	0000                	unimp
   141e8:	0000                	unimp
   141ea:	0000                	unimp
   141ec:	0000                	unimp
   141ee:	0000                	unimp
   141f0:	0000                	unimp
   141f2:	0000                	unimp
   141f4:	0000                	unimp
   141f6:	0000                	unimp
   141f8:	0000                	unimp
   141fa:	0000                	unimp
   141fc:	0000                	unimp
   141fe:	0000                	unimp
   14200:	0000                	unimp
   14202:	0000                	unimp
   14204:	0000                	unimp
   14206:	0000                	unimp
   14208:	0000                	unimp
   1420a:	0000                	unimp
   1420c:	0000                	unimp
   1420e:	0000                	unimp
   14210:	0000                	unimp
   14212:	0000                	unimp
   14214:	0000                	unimp
   14216:	0000                	unimp
   14218:	0000                	unimp
   1421a:	0000                	unimp
   1421c:	0000                	unimp
   1421e:	0000                	unimp
   14220:	0000                	unimp
   14222:	0000                	unimp
   14224:	0000                	unimp
   14226:	0000                	unimp
   14228:	0000                	unimp
   1422a:	0000                	unimp
   1422c:	0000                	unimp
   1422e:	0000                	unimp
   14230:	0000                	unimp
   14232:	0000                	unimp
   14234:	0000                	unimp
   14236:	0000                	unimp
   14238:	0000                	unimp
   1423a:	0000                	unimp
   1423c:	0000                	unimp
   1423e:	0000                	unimp
   14240:	0000                	unimp
   14242:	0000                	unimp
   14244:	0000                	unimp
   14246:	0000                	unimp
   14248:	0000                	unimp
   1424a:	0000                	unimp
   1424c:	0000                	unimp
   1424e:	0000                	unimp
   14250:	0000                	unimp
   14252:	0000                	unimp
   14254:	0000                	unimp
   14256:	0000                	unimp
   14258:	0000                	unimp
   1425a:	0000                	unimp
   1425c:	0000                	unimp
   1425e:	0000                	unimp
   14260:	0000                	unimp
   14262:	0000                	unimp
   14264:	0000                	unimp
   14266:	0000                	unimp
   14268:	0000                	unimp
   1426a:	0000                	unimp
   1426c:	0000                	unimp
   1426e:	0000                	unimp
   14270:	0000                	unimp
   14272:	0000                	unimp
   14274:	0000                	unimp
   14276:	0000                	unimp
   14278:	0000                	unimp
   1427a:	0000                	unimp
   1427c:	0000                	unimp
   1427e:	0000                	unimp
   14280:	0000                	unimp
   14282:	0000                	unimp
   14284:	0000                	unimp
   14286:	0000                	unimp
   14288:	0000                	unimp
   1428a:	0000                	unimp
   1428c:	0000                	unimp
   1428e:	0000                	unimp
   14290:	0000                	unimp
   14292:	0000                	unimp
   14294:	0000                	unimp
   14296:	0000                	unimp
   14298:	0000                	unimp
   1429a:	0000                	unimp
   1429c:	0000                	unimp
   1429e:	0000                	unimp
   142a0:	0000                	unimp
   142a2:	0000                	unimp
   142a4:	0000                	unimp
   142a6:	0000                	unimp
   142a8:	0000                	unimp
   142aa:	0000                	unimp
   142ac:	0000                	unimp
   142ae:	0000                	unimp
   142b0:	0000                	unimp
   142b2:	0000                	unimp
   142b4:	0000                	unimp
   142b6:	0000                	unimp
   142b8:	0000                	unimp
   142ba:	0000                	unimp
   142bc:	0000                	unimp
   142be:	0000                	unimp
   142c0:	0000                	unimp
   142c2:	0000                	unimp
   142c4:	0000                	unimp
   142c6:	0000                	unimp
   142c8:	0000                	unimp
   142ca:	0000                	unimp
   142cc:	0000                	unimp
   142ce:	0000                	unimp
   142d0:	0000                	unimp
   142d2:	0000                	unimp
   142d4:	0000                	unimp
   142d6:	0000                	unimp
   142d8:	0000                	unimp
   142da:	0000                	unimp
   142dc:	0000                	unimp
   142de:	0000                	unimp
   142e0:	0000                	unimp
   142e2:	0000                	unimp
   142e4:	0000                	unimp
   142e6:	0000                	unimp
   142e8:	0000                	unimp
   142ea:	0000                	unimp
   142ec:	0000                	unimp
   142ee:	0000                	unimp
   142f0:	0000                	unimp
   142f2:	0000                	unimp
   142f4:	0000                	unimp
   142f6:	0000                	unimp
   142f8:	0000                	unimp
   142fa:	0000                	unimp
   142fc:	0000                	unimp
   142fe:	0000                	unimp
   14300:	0000                	unimp
   14302:	0000                	unimp
   14304:	0000                	unimp
   14306:	0000                	unimp
   14308:	0000                	unimp
   1430a:	0000                	unimp
   1430c:	0000                	unimp
   1430e:	0000                	unimp
   14310:	0000                	unimp
   14312:	0000                	unimp
   14314:	0000                	unimp
   14316:	0000                	unimp
   14318:	0000                	unimp
   1431a:	0000                	unimp
   1431c:	0000                	unimp
   1431e:	0000                	unimp
   14320:	0000                	unimp
   14322:	0000                	unimp
   14324:	0000                	unimp
   14326:	0000                	unimp
   14328:	0000                	unimp
   1432a:	0000                	unimp
   1432c:	0000                	unimp
   1432e:	0000                	unimp
   14330:	0000                	unimp
   14332:	0000                	unimp
   14334:	0000                	unimp
   14336:	0000                	unimp
   14338:	0000                	unimp
   1433a:	0000                	unimp
   1433c:	0000                	unimp
   1433e:	0000                	unimp
   14340:	0000                	unimp
   14342:	0000                	unimp
   14344:	0000                	unimp
   14346:	0000                	unimp
   14348:	0000                	unimp
   1434a:	0000                	unimp
   1434c:	0000                	unimp
   1434e:	0000                	unimp
   14350:	0000                	unimp
   14352:	0000                	unimp
   14354:	0000                	unimp
   14356:	0000                	unimp
   14358:	0000                	unimp
   1435a:	0000                	unimp
   1435c:	0000                	unimp
   1435e:	0000                	unimp
   14360:	0000                	unimp
   14362:	0000                	unimp
   14364:	0000                	unimp
   14366:	0000                	unimp
   14368:	0000                	unimp
   1436a:	0000                	unimp
   1436c:	0000                	unimp
   1436e:	0000                	unimp
   14370:	0000                	unimp
   14372:	0000                	unimp
   14374:	0000                	unimp
   14376:	0000                	unimp
   14378:	0000                	unimp
   1437a:	0000                	unimp
   1437c:	0000                	unimp
   1437e:	0000                	unimp
   14380:	0000                	unimp
   14382:	0000                	unimp
   14384:	0000                	unimp
   14386:	0000                	unimp
   14388:	0000                	unimp
   1438a:	0000                	unimp
   1438c:	0000                	unimp
   1438e:	0000                	unimp
   14390:	0000                	unimp
   14392:	0000                	unimp
   14394:	0000                	unimp
   14396:	0000                	unimp
   14398:	0000                	unimp
   1439a:	0000                	unimp
   1439c:	0000                	unimp
   1439e:	0000                	unimp
   143a0:	0000                	unimp
   143a2:	0000                	unimp
   143a4:	0000                	unimp
   143a6:	0000                	unimp
   143a8:	0000                	unimp
   143aa:	0000                	unimp
   143ac:	0000                	unimp
   143ae:	0000                	unimp
   143b0:	0000                	unimp
   143b2:	0000                	unimp
   143b4:	0000                	unimp
   143b6:	0000                	unimp
   143b8:	0000                	unimp
   143ba:	0000                	unimp
   143bc:	0000                	unimp
   143be:	0000                	unimp
   143c0:	0000                	unimp
   143c2:	0000                	unimp
   143c4:	0000                	unimp
   143c6:	0000                	unimp
   143c8:	0000                	unimp
   143ca:	0000                	unimp
   143cc:	0000                	unimp
   143ce:	0000                	unimp
   143d0:	0000                	unimp
   143d2:	0000                	unimp
   143d4:	0000                	unimp
   143d6:	0000                	unimp
   143d8:	0000                	unimp
   143da:	0000                	unimp
   143dc:	0000                	unimp
   143de:	0000                	unimp
   143e0:	0000                	unimp
   143e2:	0000                	unimp
   143e4:	0000                	unimp
   143e6:	0000                	unimp
   143e8:	0000                	unimp
   143ea:	0000                	unimp
   143ec:	0000                	unimp
   143ee:	0000                	unimp
   143f0:	0000                	unimp
   143f2:	0000                	unimp
   143f4:	0000                	unimp
   143f6:	0000                	unimp
   143f8:	0000                	unimp
   143fa:	0000                	unimp
   143fc:	0000                	unimp
   143fe:	0000                	unimp
   14400:	0000                	unimp
   14402:	0000                	unimp
   14404:	0000                	unimp
   14406:	0000                	unimp
   14408:	0000                	unimp
   1440a:	0000                	unimp
   1440c:	0000                	unimp
   1440e:	0000                	unimp
   14410:	0000                	unimp
   14412:	0000                	unimp
   14414:	0000                	unimp
   14416:	0000                	unimp
   14418:	0000                	unimp
   1441a:	0000                	unimp
   1441c:	0000                	unimp
   1441e:	0000                	unimp
   14420:	0000                	unimp
   14422:	0000                	unimp
   14424:	0000                	unimp
   14426:	0000                	unimp
   14428:	0000                	unimp
   1442a:	0000                	unimp
   1442c:	0000                	unimp
   1442e:	0000                	unimp
   14430:	0000                	unimp
   14432:	0000                	unimp
   14434:	0000                	unimp
   14436:	0000                	unimp
   14438:	0000                	unimp
   1443a:	0000                	unimp
   1443c:	0000                	unimp
   1443e:	0000                	unimp
   14440:	0000                	unimp
   14442:	0000                	unimp
   14444:	0000                	unimp
   14446:	0000                	unimp
   14448:	0000                	unimp
   1444a:	0000                	unimp
   1444c:	0000                	unimp
   1444e:	0000                	unimp
   14450:	0000                	unimp
   14452:	0000                	unimp
   14454:	0000                	unimp
   14456:	0000                	unimp
   14458:	0000                	unimp
   1445a:	0000                	unimp
   1445c:	0000                	unimp
   1445e:	0000                	unimp
   14460:	0000                	unimp
   14462:	0000                	unimp
   14464:	0000                	unimp
   14466:	0000                	unimp
   14468:	0000                	unimp
   1446a:	0000                	unimp
   1446c:	0000                	unimp
   1446e:	0000                	unimp
   14470:	0000                	unimp
   14472:	0000                	unimp
   14474:	0000                	unimp
   14476:	0000                	unimp
   14478:	0000                	unimp
   1447a:	0000                	unimp
   1447c:	0000                	unimp
   1447e:	0000                	unimp
   14480:	0000                	unimp
   14482:	0000                	unimp
   14484:	0000                	unimp
   14486:	0000                	unimp
   14488:	0000                	unimp
   1448a:	0000                	unimp
   1448c:	0000                	unimp
   1448e:	0000                	unimp
   14490:	0000                	unimp
   14492:	0000                	unimp
   14494:	0000                	unimp
   14496:	0000                	unimp
   14498:	0000                	unimp
   1449a:	0000                	unimp
   1449c:	0000                	unimp
   1449e:	0000                	unimp
   144a0:	0000                	unimp
   144a2:	0000                	unimp
   144a4:	0000                	unimp
   144a6:	0000                	unimp
   144a8:	0000                	unimp
   144aa:	0000                	unimp
   144ac:	0000                	unimp
   144ae:	0000                	unimp
   144b0:	0000                	unimp
   144b2:	0000                	unimp
   144b4:	0000                	unimp
   144b6:	0000                	unimp
   144b8:	0000                	unimp
   144ba:	0000                	unimp
   144bc:	0000                	unimp
   144be:	0000                	unimp
   144c0:	0000                	unimp
   144c2:	0000                	unimp
   144c4:	0000                	unimp
   144c6:	0000                	unimp
   144c8:	0000                	unimp
   144ca:	0000                	unimp
   144cc:	0000                	unimp
   144ce:	0000                	unimp
   144d0:	0000                	unimp
   144d2:	0000                	unimp
   144d4:	0000                	unimp
   144d6:	0000                	unimp
   144d8:	0000                	unimp
   144da:	0000                	unimp
   144dc:	0000                	unimp
   144de:	0000                	unimp
   144e0:	0000                	unimp
   144e2:	0000                	unimp
   144e4:	0000                	unimp
   144e6:	0000                	unimp
   144e8:	0000                	unimp
   144ea:	0000                	unimp
   144ec:	0000                	unimp
   144ee:	0000                	unimp
   144f0:	0000                	unimp
   144f2:	0000                	unimp
   144f4:	0000                	unimp
   144f6:	0000                	unimp
   144f8:	0000                	unimp
   144fa:	0000                	unimp
   144fc:	0000                	unimp
   144fe:	0000                	unimp
   14500:	0000                	unimp
   14502:	0000                	unimp
   14504:	0000                	unimp
   14506:	0000                	unimp
   14508:	0000                	unimp
   1450a:	0000                	unimp
   1450c:	0000                	unimp
   1450e:	0000                	unimp
   14510:	0000                	unimp
   14512:	0000                	unimp
   14514:	0000                	unimp
   14516:	0000                	unimp
   14518:	0000                	unimp
   1451a:	0000                	unimp
   1451c:	0000                	unimp
   1451e:	0000                	unimp
   14520:	0000                	unimp
   14522:	0000                	unimp
   14524:	0000                	unimp
   14526:	0000                	unimp
   14528:	0000                	unimp
   1452a:	0000                	unimp
   1452c:	0000                	unimp
   1452e:	0000                	unimp
   14530:	0000                	unimp
   14532:	0000                	unimp
   14534:	0000                	unimp
   14536:	0000                	unimp
   14538:	0000                	unimp
   1453a:	0000                	unimp
   1453c:	0000                	unimp
   1453e:	0000                	unimp
   14540:	0000                	unimp
   14542:	0000                	unimp
   14544:	0000                	unimp
   14546:	0000                	unimp
   14548:	0000                	unimp
   1454a:	0000                	unimp
   1454c:	0000                	unimp
   1454e:	0000                	unimp
   14550:	0000                	unimp
   14552:	0000                	unimp
   14554:	0000                	unimp
   14556:	0000                	unimp
   14558:	0000                	unimp
   1455a:	0000                	unimp
   1455c:	0000                	unimp
   1455e:	0000                	unimp
   14560:	0000                	unimp
   14562:	0000                	unimp
   14564:	0000                	unimp
   14566:	0000                	unimp
   14568:	0000                	unimp
   1456a:	0000                	unimp
   1456c:	0000                	unimp
   1456e:	0000                	unimp
   14570:	0000                	unimp
   14572:	0000                	unimp
   14574:	0000                	unimp
   14576:	0000                	unimp
   14578:	0000                	unimp
   1457a:	0000                	unimp
   1457c:	0000                	unimp
   1457e:	0000                	unimp
   14580:	0000                	unimp
   14582:	0000                	unimp
   14584:	0000                	unimp
   14586:	0000                	unimp
   14588:	0000                	unimp
   1458a:	0000                	unimp
   1458c:	0000                	unimp
   1458e:	0000                	unimp
   14590:	0000                	unimp
   14592:	0000                	unimp
   14594:	0000                	unimp
   14596:	0000                	unimp
   14598:	0000                	unimp
   1459a:	0000                	unimp
   1459c:	0000                	unimp
   1459e:	0000                	unimp
   145a0:	0000                	unimp
   145a2:	0000                	unimp
   145a4:	0000                	unimp
   145a6:	0000                	unimp
   145a8:	0000                	unimp
   145aa:	0000                	unimp
   145ac:	0000                	unimp
   145ae:	0000                	unimp
   145b0:	0000                	unimp
   145b2:	0000                	unimp
   145b4:	0000                	unimp
   145b6:	0000                	unimp
   145b8:	0000                	unimp
   145ba:	0000                	unimp
   145bc:	0000                	unimp
   145be:	0000                	unimp
   145c0:	0000                	unimp
   145c2:	0000                	unimp
   145c4:	0000                	unimp
   145c6:	0000                	unimp
   145c8:	0000                	unimp
   145ca:	0000                	unimp
   145cc:	0000                	unimp
   145ce:	0000                	unimp
   145d0:	0000                	unimp
   145d2:	0000                	unimp
   145d4:	0000                	unimp
   145d6:	0000                	unimp
   145d8:	0000                	unimp
   145da:	0000                	unimp
   145dc:	0000                	unimp
   145de:	0000                	unimp
   145e0:	0000                	unimp
   145e2:	0000                	unimp
   145e4:	0000                	unimp
   145e6:	0000                	unimp
   145e8:	0000                	unimp
   145ea:	0000                	unimp
   145ec:	0000                	unimp
   145ee:	0000                	unimp
   145f0:	0000                	unimp
   145f2:	0000                	unimp
   145f4:	0000                	unimp
   145f6:	0000                	unimp
   145f8:	0000                	unimp
   145fa:	0000                	unimp
   145fc:	0000                	unimp
   145fe:	0000                	unimp
   14600:	0000                	unimp
   14602:	0000                	unimp
   14604:	0000                	unimp
   14606:	0000                	unimp
   14608:	0000                	unimp
   1460a:	0000                	unimp
   1460c:	0000                	unimp
   1460e:	0000                	unimp
   14610:	0000                	unimp
   14612:	0000                	unimp
   14614:	0000                	unimp
   14616:	0000                	unimp
   14618:	0000                	unimp
   1461a:	0000                	unimp
   1461c:	0000                	unimp
   1461e:	0000                	unimp
   14620:	0000                	unimp
   14622:	0000                	unimp
   14624:	0000                	unimp
   14626:	0000                	unimp
   14628:	0000                	unimp
   1462a:	0000                	unimp
   1462c:	0000                	unimp
   1462e:	0000                	unimp
   14630:	0000                	unimp
   14632:	0000                	unimp
   14634:	0000                	unimp
   14636:	0000                	unimp
   14638:	0000                	unimp
   1463a:	0000                	unimp
   1463c:	0000                	unimp
   1463e:	0000                	unimp
   14640:	0000                	unimp
   14642:	0000                	unimp
   14644:	0000                	unimp
   14646:	0000                	unimp
   14648:	0000                	unimp
   1464a:	0000                	unimp
   1464c:	0000                	unimp
   1464e:	0000                	unimp
   14650:	0000                	unimp
   14652:	0000                	unimp
   14654:	0000                	unimp
   14656:	0000                	unimp
   14658:	0000                	unimp
   1465a:	0000                	unimp
   1465c:	0000                	unimp
   1465e:	0000                	unimp
   14660:	0000                	unimp
   14662:	0000                	unimp
   14664:	0000                	unimp
   14666:	0000                	unimp
   14668:	0000                	unimp
   1466a:	0000                	unimp
   1466c:	0000                	unimp
   1466e:	0000                	unimp
   14670:	0000                	unimp
   14672:	0000                	unimp
   14674:	0000                	unimp
   14676:	0000                	unimp
   14678:	0000                	unimp
   1467a:	0000                	unimp
   1467c:	0000                	unimp
   1467e:	0000                	unimp
   14680:	0000                	unimp
   14682:	0000                	unimp
   14684:	0000                	unimp
   14686:	0000                	unimp
   14688:	0000                	unimp
   1468a:	0000                	unimp
   1468c:	0000                	unimp
   1468e:	0000                	unimp
   14690:	0000                	unimp
   14692:	0000                	unimp
   14694:	0000                	unimp
   14696:	0000                	unimp
   14698:	0000                	unimp
   1469a:	0000                	unimp
   1469c:	0000                	unimp
   1469e:	0000                	unimp
   146a0:	0000                	unimp
   146a2:	0000                	unimp
   146a4:	0000                	unimp
   146a6:	0000                	unimp
   146a8:	0000                	unimp
   146aa:	0000                	unimp
   146ac:	0000                	unimp
   146ae:	0000                	unimp
   146b0:	0000                	unimp
   146b2:	0000                	unimp
   146b4:	0000                	unimp
   146b6:	0000                	unimp
   146b8:	0000                	unimp
   146ba:	0000                	unimp
   146bc:	0000                	unimp
   146be:	0000                	unimp
   146c0:	0000                	unimp
   146c2:	0000                	unimp
   146c4:	0000                	unimp
   146c6:	0000                	unimp
   146c8:	0000                	unimp
   146ca:	0000                	unimp
   146cc:	0000                	unimp
   146ce:	0000                	unimp
   146d0:	0000                	unimp
   146d2:	0000                	unimp
   146d4:	0000                	unimp
   146d6:	0000                	unimp
   146d8:	0000                	unimp
   146da:	0000                	unimp
   146dc:	0000                	unimp
   146de:	0000                	unimp
   146e0:	0000                	unimp
   146e2:	0000                	unimp
   146e4:	0000                	unimp
   146e6:	0000                	unimp
   146e8:	0000                	unimp
   146ea:	0000                	unimp
   146ec:	0000                	unimp
   146ee:	0000                	unimp
   146f0:	0000                	unimp
   146f2:	0000                	unimp
   146f4:	0000                	unimp
   146f6:	0000                	unimp
   146f8:	0000                	unimp
   146fa:	0000                	unimp
   146fc:	0000                	unimp
   146fe:	0000                	unimp
   14700:	0000                	unimp
   14702:	0000                	unimp
   14704:	0000                	unimp
   14706:	0000                	unimp
   14708:	0000                	unimp
   1470a:	0000                	unimp
   1470c:	0000                	unimp
   1470e:	0000                	unimp
   14710:	0000                	unimp
   14712:	0000                	unimp
   14714:	0000                	unimp
   14716:	0000                	unimp
   14718:	0000                	unimp
   1471a:	0000                	unimp
   1471c:	0000                	unimp
   1471e:	0000                	unimp
   14720:	0000                	unimp
   14722:	0000                	unimp
   14724:	0000                	unimp
   14726:	0000                	unimp
   14728:	0000                	unimp
   1472a:	0000                	unimp
   1472c:	0000                	unimp
   1472e:	0000                	unimp
   14730:	0000                	unimp
   14732:	0000                	unimp
   14734:	0000                	unimp
   14736:	0000                	unimp
   14738:	0000                	unimp
   1473a:	0000                	unimp
   1473c:	0000                	unimp
   1473e:	0000                	unimp
   14740:	0000                	unimp
   14742:	0000                	unimp
   14744:	0000                	unimp
   14746:	0000                	unimp
   14748:	0000                	unimp
   1474a:	0000                	unimp
   1474c:	0000                	unimp
   1474e:	0000                	unimp
   14750:	0000                	unimp
   14752:	0000                	unimp
   14754:	0000                	unimp
   14756:	0000                	unimp
   14758:	0000                	unimp
   1475a:	0000                	unimp
   1475c:	0000                	unimp
   1475e:	0000                	unimp
   14760:	0000                	unimp
   14762:	0000                	unimp
   14764:	0000                	unimp
   14766:	0000                	unimp
   14768:	0000                	unimp
   1476a:	0000                	unimp
   1476c:	0000                	unimp
   1476e:	0000                	unimp
   14770:	0000                	unimp
   14772:	0000                	unimp
   14774:	0000                	unimp
   14776:	0000                	unimp
   14778:	0000                	unimp
   1477a:	0000                	unimp
   1477c:	0000                	unimp
   1477e:	0000                	unimp
   14780:	0000                	unimp
   14782:	0000                	unimp
   14784:	0000                	unimp
   14786:	0000                	unimp
   14788:	0000                	unimp
   1478a:	0000                	unimp
   1478c:	0000                	unimp
   1478e:	0000                	unimp
   14790:	0000                	unimp
   14792:	0000                	unimp
   14794:	0000                	unimp
   14796:	0000                	unimp
   14798:	0000                	unimp
   1479a:	0000                	unimp
   1479c:	0000                	unimp
   1479e:	0000                	unimp
   147a0:	0000                	unimp
   147a2:	0000                	unimp
   147a4:	0000                	unimp
   147a6:	0000                	unimp
   147a8:	0000                	unimp
   147aa:	0000                	unimp
   147ac:	0000                	unimp
   147ae:	0000                	unimp
   147b0:	0000                	unimp
   147b2:	0000                	unimp
   147b4:	0000                	unimp
   147b6:	0000                	unimp
   147b8:	0000                	unimp
   147ba:	0000                	unimp
   147bc:	0000                	unimp
   147be:	0000                	unimp
   147c0:	0000                	unimp
   147c2:	0000                	unimp
   147c4:	0000                	unimp
   147c6:	0000                	unimp
   147c8:	0000                	unimp
   147ca:	0000                	unimp
   147cc:	0000                	unimp
   147ce:	0000                	unimp
   147d0:	0000                	unimp
   147d2:	0000                	unimp
   147d4:	0000                	unimp
   147d6:	0000                	unimp
   147d8:	0000                	unimp
   147da:	0000                	unimp
   147dc:	0000                	unimp
   147de:	0000                	unimp
   147e0:	0000                	unimp
   147e2:	0000                	unimp
   147e4:	0000                	unimp
   147e6:	0000                	unimp
   147e8:	0000                	unimp
   147ea:	0000                	unimp
   147ec:	0000                	unimp
   147ee:	0000                	unimp
   147f0:	0000                	unimp
   147f2:	0000                	unimp
   147f4:	0000                	unimp
   147f6:	0000                	unimp
   147f8:	0000                	unimp
   147fa:	0000                	unimp
   147fc:	0000                	unimp
   147fe:	0000                	unimp
   14800:	0000                	unimp
   14802:	0000                	unimp
   14804:	0000                	unimp
   14806:	0000                	unimp
   14808:	0000                	unimp
   1480a:	0000                	unimp
   1480c:	0000                	unimp
   1480e:	0000                	unimp
   14810:	0000                	unimp
   14812:	0000                	unimp
   14814:	0000                	unimp
   14816:	0000                	unimp
   14818:	0000                	unimp
   1481a:	0000                	unimp
   1481c:	0000                	unimp
   1481e:	0000                	unimp
   14820:	0000                	unimp
   14822:	0000                	unimp
   14824:	0000                	unimp
   14826:	0000                	unimp
   14828:	0000                	unimp
   1482a:	0000                	unimp
   1482c:	0000                	unimp
   1482e:	0000                	unimp
   14830:	0000                	unimp
   14832:	0000                	unimp
   14834:	0000                	unimp
   14836:	0000                	unimp
   14838:	0000                	unimp
   1483a:	0000                	unimp
   1483c:	0000                	unimp
   1483e:	0000                	unimp
   14840:	0000                	unimp
   14842:	0000                	unimp
   14844:	0000                	unimp
   14846:	0000                	unimp
   14848:	0000                	unimp
   1484a:	0000                	unimp
   1484c:	0000                	unimp
   1484e:	0000                	unimp
   14850:	0000                	unimp
   14852:	0000                	unimp
   14854:	0000                	unimp
   14856:	0000                	unimp
   14858:	0000                	unimp
   1485a:	0000                	unimp
   1485c:	0000                	unimp
   1485e:	0000                	unimp
   14860:	0000                	unimp
   14862:	0000                	unimp
   14864:	0000                	unimp
   14866:	0000                	unimp
   14868:	0000                	unimp
   1486a:	0000                	unimp
   1486c:	0000                	unimp
   1486e:	0000                	unimp
   14870:	0000                	unimp
   14872:	0000                	unimp
   14874:	0000                	unimp
   14876:	0000                	unimp
   14878:	0000                	unimp
   1487a:	0000                	unimp
   1487c:	0000                	unimp
   1487e:	0000                	unimp
   14880:	0000                	unimp
   14882:	0000                	unimp
   14884:	0000                	unimp
   14886:	0000                	unimp
   14888:	0000                	unimp
   1488a:	0000                	unimp
   1488c:	0000                	unimp
   1488e:	0000                	unimp
   14890:	0000                	unimp
   14892:	0000                	unimp
   14894:	0000                	unimp
   14896:	0000                	unimp
   14898:	0000                	unimp
   1489a:	0000                	unimp
   1489c:	0000                	unimp
   1489e:	0000                	unimp
   148a0:	0000                	unimp
   148a2:	0000                	unimp
   148a4:	0000                	unimp
   148a6:	0000                	unimp
   148a8:	0000                	unimp
   148aa:	0000                	unimp
   148ac:	0000                	unimp
   148ae:	0000                	unimp
   148b0:	0000                	unimp
   148b2:	0000                	unimp
   148b4:	0000                	unimp
   148b6:	0000                	unimp
   148b8:	0000                	unimp
   148ba:	0000                	unimp
   148bc:	0000                	unimp
   148be:	0000                	unimp
   148c0:	0000                	unimp
   148c2:	0000                	unimp
   148c4:	0000                	unimp
   148c6:	0000                	unimp
   148c8:	0000                	unimp
   148ca:	0000                	unimp
   148cc:	0000                	unimp
   148ce:	0000                	unimp
   148d0:	0000                	unimp
   148d2:	0000                	unimp
   148d4:	0000                	unimp
   148d6:	0000                	unimp
   148d8:	0000                	unimp
   148da:	0000                	unimp
   148dc:	0000                	unimp
   148de:	0000                	unimp
   148e0:	0000                	unimp
   148e2:	0000                	unimp
   148e4:	0000                	unimp
   148e6:	0000                	unimp
   148e8:	0000                	unimp
   148ea:	0000                	unimp
   148ec:	0000                	unimp
   148ee:	0000                	unimp
   148f0:	0000                	unimp
   148f2:	0000                	unimp
   148f4:	0000                	unimp
   148f6:	0000                	unimp
   148f8:	0000                	unimp
   148fa:	0000                	unimp
   148fc:	0000                	unimp
   148fe:	0000                	unimp
   14900:	0000                	unimp
   14902:	0000                	unimp
   14904:	0000                	unimp
   14906:	0000                	unimp
   14908:	0000                	unimp
   1490a:	0000                	unimp
   1490c:	0000                	unimp
   1490e:	0000                	unimp
   14910:	0000                	unimp
   14912:	0000                	unimp
   14914:	0000                	unimp
   14916:	0000                	unimp
   14918:	0000                	unimp
   1491a:	0000                	unimp
   1491c:	0000                	unimp
   1491e:	0000                	unimp
   14920:	0000                	unimp
   14922:	0000                	unimp
   14924:	0000                	unimp
   14926:	0000                	unimp
   14928:	0000                	unimp
   1492a:	0000                	unimp
   1492c:	0000                	unimp
   1492e:	0000                	unimp
   14930:	0000                	unimp
   14932:	0000                	unimp
   14934:	0000                	unimp
   14936:	0000                	unimp
   14938:	0000                	unimp
   1493a:	0000                	unimp
   1493c:	0000                	unimp
   1493e:	0000                	unimp
   14940:	0000                	unimp
   14942:	0000                	unimp
   14944:	0000                	unimp
   14946:	0000                	unimp
   14948:	0000                	unimp
   1494a:	0000                	unimp
   1494c:	0000                	unimp
   1494e:	0000                	unimp
   14950:	0000                	unimp
   14952:	0000                	unimp
   14954:	0000                	unimp
   14956:	0000                	unimp
   14958:	0000                	unimp
   1495a:	0000                	unimp
   1495c:	0000                	unimp
   1495e:	0000                	unimp
   14960:	0000                	unimp
   14962:	0000                	unimp
   14964:	0000                	unimp
   14966:	0000                	unimp
   14968:	0000                	unimp
   1496a:	0000                	unimp
   1496c:	0000                	unimp
   1496e:	0000                	unimp
   14970:	0000                	unimp
   14972:	0000                	unimp
   14974:	0000                	unimp
   14976:	0000                	unimp
   14978:	0000                	unimp
   1497a:	0000                	unimp
   1497c:	0000                	unimp
   1497e:	0000                	unimp
   14980:	0000                	unimp
   14982:	0000                	unimp
   14984:	0000                	unimp
   14986:	0000                	unimp
   14988:	0000                	unimp
   1498a:	0000                	unimp
   1498c:	0000                	unimp
   1498e:	0000                	unimp
   14990:	0000                	unimp
   14992:	0000                	unimp
   14994:	0000                	unimp
   14996:	0000                	unimp
   14998:	0000                	unimp
   1499a:	0000                	unimp
   1499c:	0000                	unimp
   1499e:	0000                	unimp
   149a0:	0000                	unimp
   149a2:	0000                	unimp
   149a4:	0000                	unimp
   149a6:	0000                	unimp
   149a8:	0000                	unimp
   149aa:	0000                	unimp
   149ac:	0000                	unimp
   149ae:	0000                	unimp
   149b0:	0000                	unimp
   149b2:	0000                	unimp
   149b4:	0000                	unimp
   149b6:	0000                	unimp
   149b8:	0000                	unimp
   149ba:	0000                	unimp
   149bc:	0000                	unimp
   149be:	0000                	unimp
   149c0:	0000                	unimp
   149c2:	0000                	unimp
   149c4:	0000                	unimp
   149c6:	0000                	unimp
   149c8:	0000                	unimp
   149ca:	0000                	unimp
   149cc:	0000                	unimp
   149ce:	0000                	unimp
   149d0:	0000                	unimp
   149d2:	0000                	unimp
   149d4:	0000                	unimp
   149d6:	0000                	unimp
   149d8:	0000                	unimp
   149da:	0000                	unimp
   149dc:	0000                	unimp
   149de:	0000                	unimp
   149e0:	0000                	unimp
   149e2:	0000                	unimp
   149e4:	0000                	unimp
   149e6:	0000                	unimp
   149e8:	0000                	unimp
   149ea:	0000                	unimp
   149ec:	0000                	unimp
   149ee:	0000                	unimp
   149f0:	0000                	unimp
   149f2:	0000                	unimp
   149f4:	0000                	unimp
   149f6:	0000                	unimp
   149f8:	0000                	unimp
   149fa:	0000                	unimp
   149fc:	0000                	unimp
   149fe:	0000                	unimp
   14a00:	0000                	unimp
   14a02:	0000                	unimp
   14a04:	0000                	unimp
   14a06:	0000                	unimp
   14a08:	0000                	unimp
   14a0a:	0000                	unimp
   14a0c:	0000                	unimp
   14a0e:	0000                	unimp
   14a10:	0000                	unimp
   14a12:	0000                	unimp
   14a14:	0000                	unimp
   14a16:	0000                	unimp
   14a18:	0000                	unimp
   14a1a:	0000                	unimp
   14a1c:	0000                	unimp
   14a1e:	0000                	unimp
   14a20:	0000                	unimp
   14a22:	0000                	unimp
   14a24:	0000                	unimp
   14a26:	0000                	unimp
   14a28:	0000                	unimp
   14a2a:	0000                	unimp
   14a2c:	0000                	unimp
   14a2e:	0000                	unimp
   14a30:	0000                	unimp
   14a32:	0000                	unimp
   14a34:	0000                	unimp
   14a36:	0000                	unimp
   14a38:	0000                	unimp
   14a3a:	0000                	unimp
   14a3c:	0000                	unimp
   14a3e:	0000                	unimp
   14a40:	0000                	unimp
   14a42:	0000                	unimp
   14a44:	0000                	unimp
   14a46:	0000                	unimp
   14a48:	0000                	unimp
   14a4a:	0000                	unimp
   14a4c:	0000                	unimp
   14a4e:	0000                	unimp
   14a50:	0000                	unimp
   14a52:	0000                	unimp
   14a54:	0000                	unimp
   14a56:	0000                	unimp
   14a58:	0000                	unimp
   14a5a:	0000                	unimp
   14a5c:	0000                	unimp
   14a5e:	0000                	unimp
   14a60:	0000                	unimp
   14a62:	0000                	unimp
   14a64:	0000                	unimp
   14a66:	0000                	unimp
   14a68:	0000                	unimp
   14a6a:	0000                	unimp
   14a6c:	0000                	unimp
   14a6e:	0000                	unimp
   14a70:	0000                	unimp
   14a72:	0000                	unimp
   14a74:	0000                	unimp
   14a76:	0000                	unimp
   14a78:	0000                	unimp
   14a7a:	0000                	unimp
   14a7c:	0000                	unimp
   14a7e:	0000                	unimp
   14a80:	0000                	unimp
   14a82:	0000                	unimp
   14a84:	0000                	unimp
   14a86:	0000                	unimp
   14a88:	0000                	unimp
   14a8a:	0000                	unimp
   14a8c:	0000                	unimp
   14a8e:	0000                	unimp
   14a90:	0000                	unimp
   14a92:	0000                	unimp
   14a94:	0000                	unimp
   14a96:	0000                	unimp
   14a98:	0000                	unimp
   14a9a:	0000                	unimp
   14a9c:	0000                	unimp
   14a9e:	0000                	unimp
   14aa0:	0000                	unimp
   14aa2:	0000                	unimp
   14aa4:	0000                	unimp
   14aa6:	0000                	unimp
   14aa8:	0000                	unimp
   14aaa:	0000                	unimp
   14aac:	0000                	unimp
   14aae:	0000                	unimp
   14ab0:	0000                	unimp
   14ab2:	0000                	unimp
   14ab4:	0000                	unimp
   14ab6:	0000                	unimp
   14ab8:	0000                	unimp
   14aba:	0000                	unimp
   14abc:	0000                	unimp
   14abe:	0000                	unimp
   14ac0:	0000                	unimp
   14ac2:	0000                	unimp
   14ac4:	0000                	unimp
   14ac6:	0000                	unimp
   14ac8:	0000                	unimp
   14aca:	0000                	unimp
   14acc:	0000                	unimp
   14ace:	0000                	unimp
   14ad0:	0000                	unimp
   14ad2:	0000                	unimp
   14ad4:	0000                	unimp
   14ad6:	0000                	unimp
   14ad8:	0000                	unimp
   14ada:	0000                	unimp
   14adc:	0000                	unimp
   14ade:	0000                	unimp
   14ae0:	0000                	unimp
   14ae2:	0000                	unimp
   14ae4:	0000                	unimp
   14ae6:	0000                	unimp
   14ae8:	0000                	unimp
   14aea:	0000                	unimp
   14aec:	0000                	unimp
   14aee:	0000                	unimp
   14af0:	0000                	unimp
   14af2:	0000                	unimp
   14af4:	0000                	unimp
   14af6:	0000                	unimp
   14af8:	0000                	unimp
   14afa:	0000                	unimp
   14afc:	0000                	unimp
   14afe:	0000                	unimp
   14b00:	0000                	unimp
   14b02:	0000                	unimp
   14b04:	0000                	unimp
   14b06:	0000                	unimp
   14b08:	0000                	unimp
   14b0a:	0000                	unimp
   14b0c:	0000                	unimp
   14b0e:	0000                	unimp
   14b10:	0000                	unimp
   14b12:	0000                	unimp
   14b14:	0000                	unimp
   14b16:	0000                	unimp
   14b18:	0000                	unimp
   14b1a:	0000                	unimp
   14b1c:	0000                	unimp
   14b1e:	0000                	unimp
   14b20:	0000                	unimp
   14b22:	0000                	unimp
   14b24:	0000                	unimp
   14b26:	0000                	unimp
   14b28:	0000                	unimp
   14b2a:	0000                	unimp
   14b2c:	0000                	unimp
   14b2e:	0000                	unimp
   14b30:	0000                	unimp
   14b32:	0000                	unimp
   14b34:	0000                	unimp
   14b36:	0000                	unimp
   14b38:	0000                	unimp
   14b3a:	0000                	unimp
   14b3c:	0000                	unimp
   14b3e:	0000                	unimp
   14b40:	0000                	unimp
   14b42:	0000                	unimp
   14b44:	0000                	unimp
   14b46:	0000                	unimp
   14b48:	0000                	unimp
   14b4a:	0000                	unimp
   14b4c:	0000                	unimp
   14b4e:	0000                	unimp
   14b50:	0000                	unimp
   14b52:	0000                	unimp
   14b54:	0000                	unimp
   14b56:	0000                	unimp
   14b58:	0000                	unimp
   14b5a:	0000                	unimp
   14b5c:	0000                	unimp
   14b5e:	0000                	unimp
   14b60:	0000                	unimp
   14b62:	0000                	unimp
   14b64:	0000                	unimp
   14b66:	0000                	unimp
   14b68:	0000                	unimp
   14b6a:	0000                	unimp
   14b6c:	0000                	unimp
   14b6e:	0000                	unimp
   14b70:	0000                	unimp
   14b72:	0000                	unimp
   14b74:	0000                	unimp
   14b76:	0000                	unimp
   14b78:	0000                	unimp
   14b7a:	0000                	unimp
   14b7c:	0000                	unimp
   14b7e:	0000                	unimp
   14b80:	0000                	unimp
   14b82:	0000                	unimp
   14b84:	0000                	unimp
   14b86:	0000                	unimp
   14b88:	0000                	unimp
   14b8a:	0000                	unimp
   14b8c:	0000                	unimp
   14b8e:	0000                	unimp
   14b90:	0000                	unimp
   14b92:	0000                	unimp
   14b94:	0000                	unimp
   14b96:	0000                	unimp
   14b98:	0000                	unimp
   14b9a:	0000                	unimp
   14b9c:	0000                	unimp
   14b9e:	0000                	unimp
   14ba0:	0000                	unimp
   14ba2:	0000                	unimp
   14ba4:	0000                	unimp
   14ba6:	0000                	unimp
   14ba8:	0000                	unimp
   14baa:	0000                	unimp
   14bac:	0000                	unimp
   14bae:	0000                	unimp
   14bb0:	0000                	unimp
   14bb2:	0000                	unimp
   14bb4:	0000                	unimp
   14bb6:	0000                	unimp
   14bb8:	0000                	unimp
   14bba:	0000                	unimp
   14bbc:	0000                	unimp
   14bbe:	0000                	unimp
   14bc0:	0000                	unimp
   14bc2:	0000                	unimp
   14bc4:	0000                	unimp
   14bc6:	0000                	unimp
   14bc8:	0000                	unimp
   14bca:	0000                	unimp
   14bcc:	0000                	unimp
   14bce:	0000                	unimp
   14bd0:	0000                	unimp
   14bd2:	0000                	unimp
   14bd4:	0000                	unimp
   14bd6:	0000                	unimp
   14bd8:	0000                	unimp
   14bda:	0000                	unimp
   14bdc:	0000                	unimp
   14bde:	0000                	unimp
   14be0:	0000                	unimp
   14be2:	0000                	unimp
   14be4:	0000                	unimp
   14be6:	0000                	unimp
   14be8:	0000                	unimp
   14bea:	0000                	unimp
   14bec:	0000                	unimp
   14bee:	0000                	unimp
   14bf0:	0000                	unimp
   14bf2:	0000                	unimp
   14bf4:	0000                	unimp
   14bf6:	0000                	unimp
   14bf8:	0000                	unimp
   14bfa:	0000                	unimp
   14bfc:	0000                	unimp
   14bfe:	0000                	unimp
   14c00:	0000                	unimp
   14c02:	0000                	unimp
   14c04:	0000                	unimp
   14c06:	0000                	unimp
   14c08:	0000                	unimp
   14c0a:	0000                	unimp
   14c0c:	0000                	unimp
   14c0e:	0000                	unimp
   14c10:	0000                	unimp
   14c12:	0000                	unimp
   14c14:	0000                	unimp
   14c16:	0000                	unimp
   14c18:	0000                	unimp
   14c1a:	0000                	unimp
   14c1c:	0000                	unimp
   14c1e:	0000                	unimp
   14c20:	0000                	unimp
   14c22:	0000                	unimp
   14c24:	0000                	unimp
   14c26:	0000                	unimp
   14c28:	0000                	unimp
   14c2a:	0000                	unimp
   14c2c:	0000                	unimp
   14c2e:	0000                	unimp
   14c30:	0000                	unimp
   14c32:	0000                	unimp
   14c34:	0000                	unimp
   14c36:	0000                	unimp
   14c38:	0000                	unimp
   14c3a:	0000                	unimp
   14c3c:	0000                	unimp
   14c3e:	0000                	unimp
   14c40:	0000                	unimp
   14c42:	0000                	unimp
   14c44:	0000                	unimp
   14c46:	0000                	unimp
   14c48:	0000                	unimp
   14c4a:	0000                	unimp
   14c4c:	0000                	unimp
   14c4e:	0000                	unimp
   14c50:	0000                	unimp
   14c52:	0000                	unimp
   14c54:	0000                	unimp
   14c56:	0000                	unimp
   14c58:	0000                	unimp
   14c5a:	0000                	unimp
   14c5c:	0000                	unimp
   14c5e:	0000                	unimp
   14c60:	0000                	unimp
   14c62:	0000                	unimp
   14c64:	0000                	unimp
   14c66:	0000                	unimp
   14c68:	0000                	unimp
   14c6a:	0000                	unimp
   14c6c:	0000                	unimp
   14c6e:	0000                	unimp
   14c70:	0000                	unimp
   14c72:	0000                	unimp
   14c74:	0000                	unimp
   14c76:	0000                	unimp
   14c78:	0000                	unimp
   14c7a:	0000                	unimp
   14c7c:	0000                	unimp
   14c7e:	0000                	unimp
   14c80:	0000                	unimp
   14c82:	0000                	unimp
   14c84:	0000                	unimp
   14c86:	0000                	unimp
   14c88:	0000                	unimp
   14c8a:	0000                	unimp
   14c8c:	0000                	unimp
   14c8e:	0000                	unimp
   14c90:	0000                	unimp
   14c92:	0000                	unimp
   14c94:	0000                	unimp
   14c96:	0000                	unimp
   14c98:	0000                	unimp
   14c9a:	0000                	unimp
   14c9c:	0000                	unimp
   14c9e:	0000                	unimp
   14ca0:	0000                	unimp
   14ca2:	0000                	unimp
   14ca4:	0000                	unimp
   14ca6:	0000                	unimp
   14ca8:	0000                	unimp
   14caa:	0000                	unimp
   14cac:	0000                	unimp
   14cae:	0000                	unimp
   14cb0:	0000                	unimp
   14cb2:	0000                	unimp
   14cb4:	0000                	unimp
   14cb6:	0000                	unimp
   14cb8:	0000                	unimp
   14cba:	0000                	unimp
   14cbc:	0000                	unimp
   14cbe:	0000                	unimp
   14cc0:	0000                	unimp
   14cc2:	0000                	unimp
   14cc4:	0000                	unimp
   14cc6:	0000                	unimp
   14cc8:	0000                	unimp
   14cca:	0000                	unimp
   14ccc:	0000                	unimp
   14cce:	0000                	unimp
   14cd0:	0000                	unimp
   14cd2:	0000                	unimp
   14cd4:	0000                	unimp
   14cd6:	0000                	unimp
   14cd8:	0000                	unimp
   14cda:	0000                	unimp
   14cdc:	0000                	unimp
   14cde:	0000                	unimp
   14ce0:	0000                	unimp
   14ce2:	0000                	unimp
   14ce4:	0000                	unimp
   14ce6:	0000                	unimp
   14ce8:	0000                	unimp
   14cea:	0000                	unimp
   14cec:	0000                	unimp
   14cee:	0000                	unimp
   14cf0:	0000                	unimp
   14cf2:	0000                	unimp
   14cf4:	0000                	unimp
   14cf6:	0000                	unimp
   14cf8:	0000                	unimp
   14cfa:	0000                	unimp
   14cfc:	0000                	unimp
   14cfe:	0000                	unimp
   14d00:	0000                	unimp
   14d02:	0000                	unimp
   14d04:	0000                	unimp
   14d06:	0000                	unimp
   14d08:	0000                	unimp
   14d0a:	0000                	unimp
   14d0c:	0000                	unimp
   14d0e:	0000                	unimp
   14d10:	0000                	unimp
   14d12:	0000                	unimp
   14d14:	0000                	unimp
   14d16:	0000                	unimp
   14d18:	0000                	unimp
   14d1a:	0000                	unimp
   14d1c:	0000                	unimp
   14d1e:	0000                	unimp
   14d20:	0000                	unimp
   14d22:	0000                	unimp
   14d24:	0000                	unimp
   14d26:	0000                	unimp
   14d28:	0000                	unimp
   14d2a:	0000                	unimp
   14d2c:	0000                	unimp
   14d2e:	0000                	unimp
   14d30:	0000                	unimp
   14d32:	0000                	unimp
   14d34:	0000                	unimp
   14d36:	0000                	unimp
   14d38:	0000                	unimp
   14d3a:	0000                	unimp
   14d3c:	0000                	unimp
   14d3e:	0000                	unimp
   14d40:	0000                	unimp
   14d42:	0000                	unimp
   14d44:	0000                	unimp
   14d46:	0000                	unimp
   14d48:	0000                	unimp
   14d4a:	0000                	unimp
   14d4c:	0000                	unimp
   14d4e:	0000                	unimp
   14d50:	0000                	unimp
   14d52:	0000                	unimp
   14d54:	0000                	unimp
   14d56:	0000                	unimp
   14d58:	0000                	unimp
   14d5a:	0000                	unimp
   14d5c:	0000                	unimp
   14d5e:	0000                	unimp
   14d60:	0000                	unimp
   14d62:	0000                	unimp
   14d64:	0000                	unimp
   14d66:	0000                	unimp
   14d68:	0000                	unimp
   14d6a:	0000                	unimp
   14d6c:	0000                	unimp
   14d6e:	0000                	unimp
   14d70:	0000                	unimp
   14d72:	0000                	unimp
   14d74:	0000                	unimp
   14d76:	0000                	unimp
   14d78:	0000                	unimp
   14d7a:	0000                	unimp
   14d7c:	0000                	unimp
   14d7e:	0000                	unimp
   14d80:	0000                	unimp
   14d82:	0000                	unimp
   14d84:	0000                	unimp
   14d86:	0000                	unimp
   14d88:	0000                	unimp
   14d8a:	0000                	unimp
   14d8c:	0000                	unimp
   14d8e:	0000                	unimp
   14d90:	0000                	unimp
   14d92:	0000                	unimp
   14d94:	0000                	unimp
   14d96:	0000                	unimp
   14d98:	0000                	unimp
   14d9a:	0000                	unimp
   14d9c:	0000                	unimp
   14d9e:	0000                	unimp
   14da0:	0000                	unimp
   14da2:	0000                	unimp
   14da4:	0000                	unimp
   14da6:	0000                	unimp
   14da8:	0000                	unimp
   14daa:	0000                	unimp
   14dac:	0000                	unimp
   14dae:	0000                	unimp
   14db0:	0000                	unimp
   14db2:	0000                	unimp
   14db4:	0000                	unimp
   14db6:	0000                	unimp
   14db8:	0000                	unimp
   14dba:	0000                	unimp
   14dbc:	0000                	unimp
   14dbe:	0000                	unimp
   14dc0:	0000                	unimp
   14dc2:	0000                	unimp
   14dc4:	0000                	unimp
   14dc6:	0000                	unimp
   14dc8:	0000                	unimp
   14dca:	0000                	unimp
   14dcc:	0000                	unimp
   14dce:	0000                	unimp
   14dd0:	0000                	unimp
   14dd2:	0000                	unimp
   14dd4:	0000                	unimp
   14dd6:	0000                	unimp
   14dd8:	0000                	unimp
   14dda:	0000                	unimp
   14ddc:	0000                	unimp
   14dde:	0000                	unimp
   14de0:	0000                	unimp
   14de2:	0000                	unimp
   14de4:	0000                	unimp
   14de6:	0000                	unimp
   14de8:	0000                	unimp
   14dea:	0000                	unimp
   14dec:	0000                	unimp
   14dee:	0000                	unimp
   14df0:	0000                	unimp
   14df2:	0000                	unimp
   14df4:	0000                	unimp
   14df6:	0000                	unimp
   14df8:	0000                	unimp
   14dfa:	0000                	unimp
   14dfc:	0000                	unimp
   14dfe:	0000                	unimp
   14e00:	0000                	unimp
   14e02:	0000                	unimp
   14e04:	0000                	unimp
   14e06:	0000                	unimp
   14e08:	0000                	unimp
   14e0a:	0000                	unimp
   14e0c:	0000                	unimp
   14e0e:	0000                	unimp
   14e10:	0000                	unimp
   14e12:	0000                	unimp
   14e14:	0000                	unimp
   14e16:	0000                	unimp
   14e18:	0000                	unimp
   14e1a:	0000                	unimp
   14e1c:	0000                	unimp
   14e1e:	0000                	unimp
   14e20:	0000                	unimp
   14e22:	0000                	unimp
   14e24:	0000                	unimp
   14e26:	0000                	unimp
   14e28:	0000                	unimp
   14e2a:	0000                	unimp
   14e2c:	0000                	unimp
   14e2e:	0000                	unimp
   14e30:	0000                	unimp
   14e32:	0000                	unimp
   14e34:	0000                	unimp
   14e36:	0000                	unimp
   14e38:	0000                	unimp
   14e3a:	0000                	unimp
   14e3c:	0000                	unimp
   14e3e:	0000                	unimp
   14e40:	0000                	unimp
   14e42:	0000                	unimp
   14e44:	0000                	unimp
   14e46:	0000                	unimp
   14e48:	0000                	unimp
   14e4a:	0000                	unimp
   14e4c:	0000                	unimp
   14e4e:	0000                	unimp
   14e50:	0000                	unimp
   14e52:	0000                	unimp
   14e54:	0000                	unimp
   14e56:	0000                	unimp
   14e58:	0000                	unimp
   14e5a:	0000                	unimp
   14e5c:	0000                	unimp
   14e5e:	0000                	unimp
   14e60:	0000                	unimp
   14e62:	0000                	unimp
   14e64:	0000                	unimp
   14e66:	0000                	unimp
   14e68:	0000                	unimp
   14e6a:	0000                	unimp
   14e6c:	0000                	unimp
   14e6e:	0000                	unimp
   14e70:	0000                	unimp
   14e72:	0000                	unimp
   14e74:	0000                	unimp
   14e76:	0000                	unimp
   14e78:	0000                	unimp
   14e7a:	0000                	unimp
   14e7c:	0000                	unimp
   14e7e:	0000                	unimp
   14e80:	0000                	unimp
   14e82:	0000                	unimp
   14e84:	0000                	unimp
   14e86:	0000                	unimp
   14e88:	0000                	unimp
   14e8a:	0000                	unimp
   14e8c:	0000                	unimp
   14e8e:	0000                	unimp
   14e90:	0000                	unimp
   14e92:	0000                	unimp
   14e94:	0000                	unimp
   14e96:	0000                	unimp
   14e98:	0000                	unimp
   14e9a:	0000                	unimp
   14e9c:	0000                	unimp
   14e9e:	0000                	unimp
   14ea0:	0000                	unimp
   14ea2:	0000                	unimp
   14ea4:	0000                	unimp
   14ea6:	0000                	unimp
   14ea8:	0000                	unimp
   14eaa:	0000                	unimp
   14eac:	0000                	unimp
   14eae:	0000                	unimp
   14eb0:	0000                	unimp
   14eb2:	0000                	unimp
   14eb4:	0000                	unimp
   14eb6:	0000                	unimp
   14eb8:	0000                	unimp
   14eba:	0000                	unimp
   14ebc:	0000                	unimp
   14ebe:	0000                	unimp
   14ec0:	0000                	unimp
   14ec2:	0000                	unimp
   14ec4:	0000                	unimp
   14ec6:	0000                	unimp
   14ec8:	0000                	unimp
   14eca:	0000                	unimp
   14ecc:	0000                	unimp
   14ece:	0000                	unimp
   14ed0:	0000                	unimp
   14ed2:	0000                	unimp
   14ed4:	0000                	unimp
   14ed6:	0000                	unimp
   14ed8:	0000                	unimp
   14eda:	0000                	unimp
   14edc:	0000                	unimp
   14ede:	0000                	unimp
   14ee0:	0000                	unimp
   14ee2:	0000                	unimp
   14ee4:	0000                	unimp
   14ee6:	0000                	unimp
   14ee8:	0000                	unimp
   14eea:	0000                	unimp
   14eec:	0000                	unimp
   14eee:	0000                	unimp
   14ef0:	0000                	unimp
   14ef2:	0000                	unimp
   14ef4:	0000                	unimp
   14ef6:	0000                	unimp
   14ef8:	0000                	unimp
   14efa:	0000                	unimp
   14efc:	0000                	unimp
   14efe:	0000                	unimp
   14f00:	0000                	unimp
   14f02:	0000                	unimp
   14f04:	0000                	unimp
   14f06:	0000                	unimp
   14f08:	0000                	unimp
   14f0a:	0000                	unimp
   14f0c:	0000                	unimp
   14f0e:	0000                	unimp
   14f10:	0000                	unimp
   14f12:	0000                	unimp
   14f14:	0000                	unimp
   14f16:	0000                	unimp
   14f18:	0000                	unimp
   14f1a:	0000                	unimp
   14f1c:	0000                	unimp
   14f1e:	0000                	unimp
   14f20:	0000                	unimp
   14f22:	0000                	unimp
   14f24:	0000                	unimp
   14f26:	0000                	unimp
   14f28:	0000                	unimp
   14f2a:	0000                	unimp
   14f2c:	0000                	unimp
   14f2e:	0000                	unimp
   14f30:	0000                	unimp
   14f32:	0000                	unimp
   14f34:	0000                	unimp
   14f36:	0000                	unimp
   14f38:	0000                	unimp
   14f3a:	0000                	unimp
   14f3c:	0000                	unimp
   14f3e:	0000                	unimp
   14f40:	0000                	unimp
   14f42:	0000                	unimp
   14f44:	0000                	unimp
   14f46:	0000                	unimp
   14f48:	0000                	unimp
   14f4a:	0000                	unimp
   14f4c:	0000                	unimp
   14f4e:	0000                	unimp
   14f50:	0000                	unimp
   14f52:	0000                	unimp
   14f54:	0000                	unimp
   14f56:	0000                	unimp
   14f58:	0000                	unimp
   14f5a:	0000                	unimp
   14f5c:	0000                	unimp
   14f5e:	0000                	unimp
   14f60:	0000                	unimp
   14f62:	0000                	unimp
   14f64:	0000                	unimp
   14f66:	0000                	unimp
   14f68:	0000                	unimp
   14f6a:	0000                	unimp
   14f6c:	0000                	unimp
   14f6e:	0000                	unimp
   14f70:	0000                	unimp
   14f72:	0000                	unimp
   14f74:	0000                	unimp
   14f76:	0000                	unimp
   14f78:	0000                	unimp
   14f7a:	0000                	unimp
   14f7c:	0000                	unimp
   14f7e:	0000                	unimp
   14f80:	0000                	unimp
   14f82:	0000                	unimp
   14f84:	0000                	unimp
   14f86:	0000                	unimp
   14f88:	0000                	unimp
   14f8a:	0000                	unimp
   14f8c:	0000                	unimp
   14f8e:	0000                	unimp
   14f90:	0000                	unimp
   14f92:	0000                	unimp
   14f94:	0000                	unimp
   14f96:	0000                	unimp
   14f98:	0000                	unimp
   14f9a:	0000                	unimp
   14f9c:	0000                	unimp
   14f9e:	0000                	unimp
   14fa0:	0000                	unimp
   14fa2:	0000                	unimp
   14fa4:	0000                	unimp
   14fa6:	0000                	unimp
   14fa8:	0000                	unimp
   14faa:	0000                	unimp
   14fac:	0000                	unimp
   14fae:	0000                	unimp
   14fb0:	0000                	unimp
   14fb2:	0000                	unimp
   14fb4:	0000                	unimp
   14fb6:	0000                	unimp
   14fb8:	0000                	unimp
   14fba:	0000                	unimp
   14fbc:	0000                	unimp
   14fbe:	0000                	unimp
   14fc0:	0000                	unimp
   14fc2:	0000                	unimp
   14fc4:	0000                	unimp
   14fc6:	0000                	unimp
   14fc8:	0000                	unimp
   14fca:	0000                	unimp
   14fcc:	0000                	unimp
   14fce:	0000                	unimp
   14fd0:	0000                	unimp
   14fd2:	0000                	unimp
   14fd4:	0000                	unimp
   14fd6:	0000                	unimp
   14fd8:	0000                	unimp
   14fda:	0000                	unimp
   14fdc:	0000                	unimp
   14fde:	0000                	unimp
   14fe0:	0000                	unimp
   14fe2:	0000                	unimp
   14fe4:	0000                	unimp
   14fe6:	0000                	unimp
   14fe8:	0000                	unimp
   14fea:	0000                	unimp
   14fec:	0000                	unimp
   14fee:	0000                	unimp
   14ff0:	0000                	unimp
   14ff2:	0000                	unimp
   14ff4:	0000                	unimp
   14ff6:	0000                	unimp
   14ff8:	0000                	unimp
   14ffa:	0000                	unimp
   14ffc:	0000                	unimp
   14ffe:	00158593          	addi	a1,a1,1
   15002:	29b00e93          	li	t4,667
   15006:	00200193          	li	gp,2
   1500a:	2dd59163          	bne	a1,t4,152cc <fail>
   1500e:	00001137          	lui	sp,0x1
   15012:	2341011b          	addiw	sp,sp,564

0000000000015016 <test_3>:
   15016:	1fe8                	addi	a0,sp,1020
   15018:	00001eb7          	lui	t4,0x1
   1501c:	630e8e9b          	addiw	t4,t4,1584
   15020:	00300193          	li	gp,3
   15024:	2bd51463          	bne	a0,t4,152cc <fail>

0000000000015028 <test_4>:
   15028:	617d                	addi	sp,sp,496
   1502a:	0001                	nop
   1502c:	00001eb7          	lui	t4,0x1
   15030:	424e8e9b          	addiw	t4,t4,1060
   15034:	00400193          	li	gp,4
   15038:	29d11a63          	bne	sp,t4,152cc <fail>

000000000001503c <test_5>:
   1503c:	7101                	addi	sp,sp,-512
   1503e:	0001                	nop
   15040:	00001eb7          	lui	t4,0x1
   15044:	224e8e9b          	addiw	t4,t4,548
   15048:	00500193          	li	gp,5
   1504c:	29d11063          	bne	sp,t4,152cc <fail>
   15050:	ffffe597          	auipc	a1,0xffffe
   15054:	fc058593          	addi	a1,a1,-64 # 13010 <data>

0000000000015058 <test_6>:
   15058:	41c8                	lw	a0,4(a1)
   1505a:	0505                	addi	a0,a0,1
   1505c:	c1c8                	sw	a0,4(a1)
   1505e:	41d0                	lw	a2,4(a1)
   15060:	fedcceb7          	lui	t4,0xfedcc
   15064:	a99e8e9b          	addiw	t4,t4,-1383
   15068:	00600193          	li	gp,6
   1506c:	27d61063          	bne	a2,t4,152cc <fail>

0000000000015070 <test_7>:
   15070:	6188                	ld	a0,0(a1)
   15072:	0505                	addi	a0,a0,1
   15074:	e188                	sd	a0,0(a1)
   15076:	6190                	ld	a2,0(a1)
   15078:	fff6eeb7          	lui	t4,0xfff6e
   1507c:	5d5e8e9b          	addiw	t4,t4,1493
   15080:	00ce9e93          	slli	t4,t4,0xc
   15084:	cbbe8e93          	addi	t4,t4,-837 # fffffffffff6dcbb <_end+0xfffffffffff524cb>
   15088:	00de9e93          	slli	t4,t4,0xd
   1508c:	543e8e93          	addi	t4,t4,1347
   15090:	00ce9e93          	slli	t4,t4,0xc
   15094:	211e8e93          	addi	t4,t4,529
   15098:	00700193          	li	gp,7
   1509c:	23d61863          	bne	a2,t4,152cc <fail>

00000000000150a0 <test_8>:
   150a0:	00106513          	ori	a0,zero,1
   150a4:	1541                	addi	a0,a0,-16
   150a6:	0001                	nop
   150a8:	ff100e93          	li	t4,-15
   150ac:	00800193          	li	gp,8
   150b0:	21d51e63          	bne	a0,t4,152cc <fail>

00000000000150b4 <test_9>:
   150b4:	00106793          	ori	a5,zero,1
   150b8:	57c1                	li	a5,-16
   150ba:	0001                	nop
   150bc:	ff000e93          	li	t4,-16
   150c0:	00900193          	li	gp,9
   150c4:	21d79463          	bne	a5,t4,152cc <fail>

00000000000150c8 <test_10>:
   150c8:	6188                	ld	a0,0(a1)
   150ca:	357d                	addiw	a0,a0,-1
   150cc:	76543eb7          	lui	t4,0x76543
   150d0:	210e8e9b          	addiw	t4,t4,528
   150d4:	00a00193          	li	gp,10
   150d8:	1fd51a63          	bne	a0,t4,152cc <fail>

00000000000150dc <test_11>:
   150dc:	7405                	lui	s0,0xfffe1
   150de:	8431                	srai	s0,s0,0xc
   150e0:	fe100e93          	li	t4,-31
   150e4:	00b00193          	li	gp,11
   150e8:	1fd41263          	bne	s0,t4,152cc <fail>

00000000000150ec <test_12>:
   150ec:	7405                	lui	s0,0xfffe1
   150ee:	8031                	srli	s0,s0,0xc
   150f0:	00100e9b          	addiw	t4,zero,1
   150f4:	034e9e93          	slli	t4,t4,0x34
   150f8:	fe1e8e93          	addi	t4,t4,-31 # 76542fe1 <_end+0x765277f1>
   150fc:	00c00193          	li	gp,12
   15100:	1dd41663          	bne	s0,t4,152cc <fail>

0000000000015104 <test_14>:
   15104:	5479                	li	s0,-2
   15106:	983d                	andi	s0,s0,-17
   15108:	fee00e93          	li	t4,-18
   1510c:	00e00193          	li	gp,14
   15110:	1bd41e63          	bne	s0,t4,152cc <fail>

0000000000015114 <test_15>:
   15114:	44d1                	li	s1,20
   15116:	4519                	li	a0,6
   15118:	8c89                	sub	s1,s1,a0
   1511a:	0001                	nop
   1511c:	00e00e93          	li	t4,14
   15120:	00f00193          	li	gp,15
   15124:	1bd49463          	bne	s1,t4,152cc <fail>

0000000000015128 <test_16>:
   15128:	44d1                	li	s1,20
   1512a:	4519                	li	a0,6
   1512c:	8ca9                	xor	s1,s1,a0
   1512e:	0001                	nop
   15130:	01200e93          	li	t4,18
   15134:	01000193          	li	gp,16
   15138:	19d49a63          	bne	s1,t4,152cc <fail>

000000000001513c <test_17>:
   1513c:	44d1                	li	s1,20
   1513e:	4519                	li	a0,6
   15140:	8cc9                	or	s1,s1,a0
   15142:	0001                	nop
   15144:	01600e93          	li	t4,22
   15148:	01100193          	li	gp,17
   1514c:	19d49063          	bne	s1,t4,152cc <fail>

0000000000015150 <test_18>:
   15150:	44d1                	li	s1,20
   15152:	4519                	li	a0,6
   15154:	8ce9                	and	s1,s1,a0
   15156:	0001                	nop
   15158:	00400e93          	li	t4,4
   1515c:	01200193          	li	gp,18
   15160:	17d49663          	bne	s1,t4,152cc <fail>

0000000000015164 <test_19>:
   15164:	800004b7          	lui	s1,0x80000
   15168:	fff4849b          	addiw	s1,s1,-1
   1516c:	557d                	li	a0,-1
   1516e:	9c89                	subw	s1,s1,a0
   15170:	80000eb7          	lui	t4,0x80000
   15174:	01300193          	li	gp,19
   15178:	15d49a63          	bne	s1,t4,152cc <fail>

000000000001517c <test_20>:
   1517c:	800004b7          	lui	s1,0x80000
   15180:	fff4849b          	addiw	s1,s1,-1
   15184:	4505                	li	a0,1
   15186:	9ca9                	addw	s1,s1,a0
   15188:	80000eb7          	lui	t4,0x80000
   1518c:	01400193          	li	gp,20
   15190:	13d49e63          	bne	s1,t4,152cc <fail>

0000000000015194 <test_21>:
   15194:	00001437          	lui	s0,0x1
   15198:	2344041b          	addiw	s0,s0,564
   1519c:	0412                	slli	s0,s0,0x4
   1519e:	0001                	nop
   151a0:	00012eb7          	lui	t4,0x12
   151a4:	340e8e9b          	addiw	t4,t4,832
   151a8:	01500193          	li	gp,21
   151ac:	13d41063          	bne	s0,t4,152cc <fail>

00000000000151b0 <test_30>:
   151b0:	4081                	li	ra,0
   151b2:	a011                	j	151b6 <test_30+0x6>
   151b4:	a011                	j	151b8 <test_30+0x8>
   151b6:	a011                	j	151ba <test_30+0xa>
   151b8:	aa11                	j	152cc <fail>
   151ba:	0001                	nop
   151bc:	00000e93          	li	t4,0
   151c0:	01e00193          	li	gp,30
   151c4:	11d09463          	bne	ra,t4,152cc <fail>

00000000000151c8 <test_31>:
   151c8:	4501                	li	a0,0
   151ca:	c111                	beqz	a0,151ce <test_31+0x6>
   151cc:	a011                	j	151d0 <test_31+0x8>
   151ce:	a011                	j	151d2 <test_31+0xa>
   151d0:	a8f5                	j	152cc <fail>
   151d2:	0001                	nop
   151d4:	00000e93          	li	t4,0
   151d8:	01f00193          	li	gp,31
   151dc:	0fd01863          	bne	zero,t4,152cc <fail>

00000000000151e0 <test_32>:
   151e0:	4505                	li	a0,1
   151e2:	e111                	bnez	a0,151e6 <test_32+0x6>
   151e4:	a011                	j	151e8 <test_32+0x8>
   151e6:	a011                	j	151ea <test_32+0xa>
   151e8:	a0d5                	j	152cc <fail>
   151ea:	0001                	nop
   151ec:	00000e93          	li	t4,0
   151f0:	02000193          	li	gp,32
   151f4:	0dd01c63          	bne	zero,t4,152cc <fail>

00000000000151f8 <test_33>:
   151f8:	4505                	li	a0,1
   151fa:	c111                	beqz	a0,151fe <test_33+0x6>
   151fc:	a011                	j	15200 <test_33+0x8>
   151fe:	a0f9                	j	152cc <fail>
   15200:	00000e93          	li	t4,0
   15204:	02100193          	li	gp,33
   15208:	0dd01263          	bne	zero,t4,152cc <fail>

000000000001520c <test_34>:
   1520c:	4501                	li	a0,0
   1520e:	e111                	bnez	a0,15212 <test_34+0x6>
   15210:	a011                	j	15214 <test_34+0x8>
   15212:	a86d                	j	152cc <fail>
   15214:	00000e93          	li	t4,0
   15218:	02200193          	li	gp,34
   1521c:	0bd01863          	bne	zero,t4,152cc <fail>

0000000000015220 <test_35>:
   15220:	00000297          	auipc	t0,0x0
   15224:	00e28293          	addi	t0,t0,14 # 1522e <test_35+0xe>
   15228:	4081                	li	ra,0
   1522a:	8282                	jr	t0
   1522c:	a011                	j	15230 <test_35+0x10>
   1522e:	a011                	j	15232 <test_35+0x12>
   15230:	a871                	j	152cc <fail>
   15232:	0001                	nop
   15234:	00000e93          	li	t4,0
   15238:	02300193          	li	gp,35
   1523c:	09d09863          	bne	ra,t4,152cc <fail>

0000000000015240 <test_36>:
   15240:	00000297          	auipc	t0,0x0
   15244:	00e28293          	addi	t0,t0,14 # 1524e <test_36+0xe>
   15248:	4081                	li	ra,0
   1524a:	9282                	jalr	t0
   1524c:	a011                	j	15250 <test_36+0x10>
   1524e:	a011                	j	15252 <test_36+0x12>
   15250:	a8b5                	j	152cc <fail>
   15252:	405080b3          	sub	ra,ra,t0
   15256:	0001                	nop
   15258:	ffe00e93          	li	t4,-2
   1525c:	02400193          	li	gp,36
   15260:	07d09663          	bne	ra,t4,152cc <fail>
   15264:	ffffe117          	auipc	sp,0xffffe
   15268:	dac10113          	addi	sp,sp,-596 # 13010 <data>

000000000001526c <test_40>:
   1526c:	4532                	lw	a0,12(sp)
   1526e:	0505                	addi	a0,a0,1
   15270:	c62a                	sw	a0,12(sp)
   15272:	4632                	lw	a2,12(sp)
   15274:	fedcceb7          	lui	t4,0xfedcc
   15278:	a99e8e9b          	addiw	t4,t4,-1383
   1527c:	02800193          	li	gp,40
   15280:	05d61663          	bne	a2,t4,152cc <fail>

0000000000015284 <test_41>:
   15284:	6522                	ld	a0,8(sp)
   15286:	0505                	addi	a0,a0,1
   15288:	e42a                	sd	a0,8(sp)
   1528a:	6622                	ld	a2,8(sp)
   1528c:	fff6eeb7          	lui	t4,0xfff6e
   15290:	5d5e8e9b          	addiw	t4,t4,1493
   15294:	00ce9e93          	slli	t4,t4,0xc
   15298:	cbbe8e93          	addi	t4,t4,-837 # fffffffffff6dcbb <_end+0xfffffffffff524cb>
   1529c:	00de9e93          	slli	t4,t4,0xd
   152a0:	543e8e93          	addi	t4,t4,1347
   152a4:	00ce9e93          	slli	t4,t4,0xc
   152a8:	211e8e93          	addi	t4,t4,529
   152ac:	02900193          	li	gp,41
   152b0:	01d61e63          	bne	a2,t4,152cc <fail>

00000000000152b4 <test_42>:
   152b4:	12300513          	li	a0,291
   152b8:	82aa                	mv	t0,a0
   152ba:	92aa                	add	t0,t0,a0
   152bc:	24600e93          	li	t4,582
   152c0:	02a00193          	li	gp,42
   152c4:	01d29463          	bne	t0,t4,152cc <fail>
   152c8:	00301a63          	bne	zero,gp,152dc <pass>

00000000000152cc <fail>:
   152cc:	00119513          	slli	a0,gp,0x1
   152d0:	00050063          	beqz	a0,152d0 <fail+0x4>
   152d4:	00156513          	ori	a0,a0,1
   152d8:	00000073          	ecall

00000000000152dc <pass>:
   152dc:	00100513          	li	a0,1
   152e0:	00000073          	ecall
   152e4:	c0001073          	unimp
   152e8:	0000                	unimp
   152ea:	0000                	unimp
   152ec:	0000                	unimp
   152ee:	0000                	unimp
   152f0:	0000                	unimp
   152f2:	0000                	unimp
   152f4:	0000                	unimp
   152f6:	0000                	unimp
   152f8:	0000                	unimp
   152fa:	0000                	unimp
   152fc:	0000                	unimp
   152fe:	0000                	unimp
   15300:	0000                	unimp
   15302:	0000                	unimp
   15304:	0000                	unimp
   15306:	0000                	unimp
   15308:	0000                	unimp
   1530a:	0000                	unimp
   1530c:	0000                	unimp
   1530e:	0000                	unimp
   15310:	0000                	unimp
   15312:	0000                	unimp
   15314:	0000                	unimp
   15316:	0000                	unimp
   15318:	0000                	unimp
   1531a:	0000                	unimp
   1531c:	0000                	unimp
   1531e:	0000                	unimp
   15320:	0000                	unimp
   15322:	0000                	unimp
   15324:	0000                	unimp
   15326:	0000                	unimp
   15328:	0000                	unimp
   1532a:	0000                	unimp
   1532c:	0000                	unimp
   1532e:	0000                	unimp
   15330:	0000                	unimp
   15332:	0000                	unimp
   15334:	0000                	unimp
   15336:	0000                	unimp
   15338:	0000                	unimp
   1533a:	0000                	unimp
   1533c:	0000                	unimp
   1533e:	0000                	unimp
   15340:	0000                	unimp
   15342:	0000                	unimp
   15344:	0000                	unimp
   15346:	0000                	unimp
   15348:	0000                	unimp
   1534a:	0000                	unimp
   1534c:	0000                	unimp
   1534e:	0000                	unimp
   15350:	0000                	unimp
   15352:	0000                	unimp
   15354:	0000                	unimp
   15356:	0000                	unimp
   15358:	0000                	unimp
   1535a:	0000                	unimp
   1535c:	0000                	unimp
   1535e:	0000                	unimp
   15360:	0000                	unimp
   15362:	0000                	unimp
   15364:	0000                	unimp
   15366:	0000                	unimp
   15368:	0000                	unimp
   1536a:	0000                	unimp
   1536c:	0000                	unimp
   1536e:	0000                	unimp
   15370:	0000                	unimp
   15372:	0000                	unimp
   15374:	0000                	unimp
   15376:	0000                	unimp
   15378:	0000                	unimp
   1537a:	0000                	unimp
   1537c:	0000                	unimp
   1537e:	0000                	unimp
   15380:	0000                	unimp
   15382:	0000                	unimp
   15384:	0000                	unimp
   15386:	0000                	unimp
   15388:	0000                	unimp
   1538a:	0000                	unimp
   1538c:	0000                	unimp
   1538e:	0000                	unimp
   15390:	0000                	unimp
   15392:	0000                	unimp
   15394:	0000                	unimp
   15396:	0000                	unimp
   15398:	0000                	unimp
   1539a:	0000                	unimp
   1539c:	0000                	unimp
   1539e:	0000                	unimp
   153a0:	0000                	unimp
   153a2:	0000                	unimp
   153a4:	0000                	unimp
   153a6:	0000                	unimp
   153a8:	0000                	unimp
   153aa:	0000                	unimp
   153ac:	0000                	unimp
   153ae:	0000                	unimp
   153b0:	0000                	unimp
   153b2:	0000                	unimp
   153b4:	0000                	unimp
   153b6:	0000                	unimp
   153b8:	0000                	unimp
   153ba:	0000                	unimp
   153bc:	0000                	unimp
   153be:	0000                	unimp
   153c0:	0000                	unimp
   153c2:	0000                	unimp
   153c4:	0000                	unimp
   153c6:	0000                	unimp
   153c8:	0000                	unimp
   153ca:	0000                	unimp
   153cc:	0000                	unimp
   153ce:	0000                	unimp
   153d0:	0000                	unimp
   153d2:	0000                	unimp
   153d4:	0000                	unimp
   153d6:	0000                	unimp
   153d8:	0000                	unimp
   153da:	0000                	unimp
   153dc:	0000                	unimp
   153de:	0000                	unimp
   153e0:	0000                	unimp
   153e2:	0000                	unimp
   153e4:	0000                	unimp
   153e6:	0000                	unimp
   153e8:	0000                	unimp
   153ea:	0000                	unimp
   153ec:	0000                	unimp
   153ee:	0000                	unimp
   153f0:	0000                	unimp
   153f2:	0000                	unimp
   153f4:	0000                	unimp
   153f6:	0000                	unimp
   153f8:	0000                	unimp
   153fa:	0000                	unimp
   153fc:	0000                	unimp
   153fe:	0000                	unimp
   15400:	0000                	unimp
   15402:	0000                	unimp
   15404:	0000                	unimp
   15406:	0000                	unimp
   15408:	0000                	unimp
   1540a:	0000                	unimp
   1540c:	0000                	unimp
   1540e:	0000                	unimp
   15410:	0000                	unimp
   15412:	0000                	unimp
   15414:	0000                	unimp
   15416:	0000                	unimp
   15418:	0000                	unimp
   1541a:	0000                	unimp
   1541c:	0000                	unimp
   1541e:	0000                	unimp
   15420:	0000                	unimp
   15422:	0000                	unimp
   15424:	0000                	unimp
   15426:	0000                	unimp
   15428:	0000                	unimp
   1542a:	0000                	unimp
   1542c:	0000                	unimp
   1542e:	0000                	unimp
   15430:	0000                	unimp
   15432:	0000                	unimp
   15434:	0000                	unimp
   15436:	0000                	unimp
   15438:	0000                	unimp
   1543a:	0000                	unimp
   1543c:	0000                	unimp
   1543e:	0000                	unimp
   15440:	0000                	unimp
   15442:	0000                	unimp
   15444:	0000                	unimp
   15446:	0000                	unimp
   15448:	0000                	unimp
   1544a:	0000                	unimp
   1544c:	0000                	unimp
   1544e:	0000                	unimp
   15450:	0000                	unimp
   15452:	0000                	unimp
   15454:	0000                	unimp
   15456:	0000                	unimp
   15458:	0000                	unimp
   1545a:	0000                	unimp
   1545c:	0000                	unimp
   1545e:	0000                	unimp
   15460:	0000                	unimp
   15462:	0000                	unimp
   15464:	0000                	unimp
   15466:	0000                	unimp
   15468:	0000                	unimp
   1546a:	0000                	unimp
   1546c:	0000                	unimp
   1546e:	0000                	unimp
   15470:	0000                	unimp
   15472:	0000                	unimp
   15474:	0000                	unimp
   15476:	0000                	unimp
   15478:	0000                	unimp
   1547a:	0000                	unimp
   1547c:	0000                	unimp
   1547e:	0000                	unimp
   15480:	0000                	unimp
   15482:	0000                	unimp
   15484:	0000                	unimp
   15486:	0000                	unimp
   15488:	0000                	unimp
   1548a:	0000                	unimp
   1548c:	0000                	unimp
   1548e:	0000                	unimp
   15490:	0000                	unimp
   15492:	0000                	unimp
   15494:	0000                	unimp
   15496:	0000                	unimp
   15498:	0000                	unimp
   1549a:	0000                	unimp
   1549c:	0000                	unimp
   1549e:	0000                	unimp
   154a0:	0000                	unimp
   154a2:	0000                	unimp
   154a4:	0000                	unimp
   154a6:	0000                	unimp
   154a8:	0000                	unimp
   154aa:	0000                	unimp
   154ac:	0000                	unimp
   154ae:	0000                	unimp
   154b0:	0000                	unimp
   154b2:	0000                	unimp
   154b4:	0000                	unimp
   154b6:	0000                	unimp
   154b8:	0000                	unimp
   154ba:	0000                	unimp
   154bc:	0000                	unimp
   154be:	0000                	unimp
   154c0:	0000                	unimp
   154c2:	0000                	unimp
   154c4:	0000                	unimp
   154c6:	0000                	unimp
   154c8:	0000                	unimp
   154ca:	0000                	unimp
   154cc:	0000                	unimp
   154ce:	0000                	unimp
   154d0:	0000                	unimp
   154d2:	0000                	unimp
   154d4:	0000                	unimp
   154d6:	0000                	unimp
   154d8:	0000                	unimp
   154da:	0000                	unimp
   154dc:	0000                	unimp
   154de:	0000                	unimp
   154e0:	0000                	unimp
   154e2:	0000                	unimp
   154e4:	0000                	unimp
   154e6:	0000                	unimp
   154e8:	0000                	unimp
   154ea:	0000                	unimp
   154ec:	0000                	unimp
   154ee:	0000                	unimp
   154f0:	0000                	unimp
   154f2:	0000                	unimp
   154f4:	0000                	unimp
   154f6:	0000                	unimp
   154f8:	0000                	unimp
   154fa:	0000                	unimp
   154fc:	0000                	unimp
   154fe:	0000                	unimp
   15500:	0000                	unimp
   15502:	0000                	unimp
   15504:	0000                	unimp
   15506:	0000                	unimp
   15508:	0000                	unimp
   1550a:	0000                	unimp
   1550c:	0000                	unimp
   1550e:	0000                	unimp
   15510:	0000                	unimp
   15512:	0000                	unimp
   15514:	0000                	unimp
   15516:	0000                	unimp
   15518:	0000                	unimp
   1551a:	0000                	unimp
   1551c:	0000                	unimp
   1551e:	0000                	unimp
   15520:	0000                	unimp
   15522:	0000                	unimp
   15524:	0000                	unimp
   15526:	0000                	unimp
   15528:	0000                	unimp
   1552a:	0000                	unimp
   1552c:	0000                	unimp
   1552e:	0000                	unimp
   15530:	0000                	unimp
   15532:	0000                	unimp
   15534:	0000                	unimp
   15536:	0000                	unimp
   15538:	0000                	unimp
   1553a:	0000                	unimp
   1553c:	0000                	unimp
   1553e:	0000                	unimp
   15540:	0000                	unimp
   15542:	0000                	unimp
   15544:	0000                	unimp
   15546:	0000                	unimp
   15548:	0000                	unimp
   1554a:	0000                	unimp
   1554c:	0000                	unimp
   1554e:	0000                	unimp
   15550:	0000                	unimp
   15552:	0000                	unimp
   15554:	0000                	unimp
   15556:	0000                	unimp
   15558:	0000                	unimp
   1555a:	0000                	unimp
   1555c:	0000                	unimp
   1555e:	0000                	unimp
   15560:	0000                	unimp
   15562:	0000                	unimp
   15564:	0000                	unimp
   15566:	0000                	unimp
   15568:	0000                	unimp
   1556a:	0000                	unimp
   1556c:	0000                	unimp
   1556e:	0000                	unimp
   15570:	0000                	unimp
   15572:	0000                	unimp
   15574:	0000                	unimp
   15576:	0000                	unimp
   15578:	0000                	unimp
   1557a:	0000                	unimp
   1557c:	0000                	unimp
   1557e:	0000                	unimp
   15580:	0000                	unimp
   15582:	0000                	unimp
   15584:	0000                	unimp
   15586:	0000                	unimp
   15588:	0000                	unimp
   1558a:	0000                	unimp
   1558c:	0000                	unimp
   1558e:	0000                	unimp
   15590:	0000                	unimp
   15592:	0000                	unimp
   15594:	0000                	unimp
   15596:	0000                	unimp
   15598:	0000                	unimp
   1559a:	0000                	unimp
   1559c:	0000                	unimp
   1559e:	0000                	unimp
   155a0:	0000                	unimp
   155a2:	0000                	unimp
   155a4:	0000                	unimp
   155a6:	0000                	unimp
   155a8:	0000                	unimp
   155aa:	0000                	unimp
   155ac:	0000                	unimp
   155ae:	0000                	unimp
   155b0:	0000                	unimp
   155b2:	0000                	unimp
   155b4:	0000                	unimp
   155b6:	0000                	unimp
   155b8:	0000                	unimp
   155ba:	0000                	unimp
   155bc:	0000                	unimp
   155be:	0000                	unimp
   155c0:	0000                	unimp
   155c2:	0000                	unimp
   155c4:	0000                	unimp
   155c6:	0000                	unimp
   155c8:	0000                	unimp
   155ca:	0000                	unimp
   155cc:	0000                	unimp
   155ce:	0000                	unimp
   155d0:	0000                	unimp
   155d2:	0000                	unimp
   155d4:	0000                	unimp
   155d6:	0000                	unimp
   155d8:	0000                	unimp
   155da:	0000                	unimp
   155dc:	0000                	unimp
   155de:	0000                	unimp
   155e0:	0000                	unimp
   155e2:	0000                	unimp
   155e4:	0000                	unimp
   155e6:	0000                	unimp
   155e8:	0000                	unimp
   155ea:	0000                	unimp
   155ec:	0000                	unimp
   155ee:	0000                	unimp
   155f0:	0000                	unimp
   155f2:	0000                	unimp
   155f4:	0000                	unimp
   155f6:	0000                	unimp
   155f8:	0000                	unimp
   155fa:	0000                	unimp
   155fc:	0000                	unimp
   155fe:	0000                	unimp
   15600:	0000                	unimp
   15602:	0000                	unimp
   15604:	0000                	unimp
   15606:	0000                	unimp
   15608:	0000                	unimp
   1560a:	0000                	unimp
   1560c:	0000                	unimp
   1560e:	0000                	unimp
   15610:	0000                	unimp
   15612:	0000                	unimp
   15614:	0000                	unimp
   15616:	0000                	unimp
   15618:	0000                	unimp
   1561a:	0000                	unimp
   1561c:	0000                	unimp
   1561e:	0000                	unimp
   15620:	0000                	unimp
   15622:	0000                	unimp
   15624:	0000                	unimp
   15626:	0000                	unimp
   15628:	0000                	unimp
   1562a:	0000                	unimp
   1562c:	0000                	unimp
   1562e:	0000                	unimp
   15630:	0000                	unimp
   15632:	0000                	unimp
   15634:	0000                	unimp
   15636:	0000                	unimp
   15638:	0000                	unimp
   1563a:	0000                	unimp
   1563c:	0000                	unimp
   1563e:	0000                	unimp
   15640:	0000                	unimp
   15642:	0000                	unimp
   15644:	0000                	unimp
   15646:	0000                	unimp
   15648:	0000                	unimp
   1564a:	0000                	unimp
   1564c:	0000                	unimp
   1564e:	0000                	unimp
   15650:	0000                	unimp
   15652:	0000                	unimp
   15654:	0000                	unimp
   15656:	0000                	unimp
   15658:	0000                	unimp
   1565a:	0000                	unimp
   1565c:	0000                	unimp
   1565e:	0000                	unimp
   15660:	0000                	unimp
   15662:	0000                	unimp
   15664:	0000                	unimp
   15666:	0000                	unimp
   15668:	0000                	unimp
   1566a:	0000                	unimp
   1566c:	0000                	unimp
   1566e:	0000                	unimp
   15670:	0000                	unimp
   15672:	0000                	unimp
   15674:	0000                	unimp
   15676:	0000                	unimp
   15678:	0000                	unimp
   1567a:	0000                	unimp
   1567c:	0000                	unimp
   1567e:	0000                	unimp
   15680:	0000                	unimp
   15682:	0000                	unimp
   15684:	0000                	unimp
   15686:	0000                	unimp
   15688:	0000                	unimp
   1568a:	0000                	unimp
   1568c:	0000                	unimp
   1568e:	0000                	unimp
   15690:	0000                	unimp
   15692:	0000                	unimp
   15694:	0000                	unimp
   15696:	0000                	unimp
   15698:	0000                	unimp
   1569a:	0000                	unimp
   1569c:	0000                	unimp
   1569e:	0000                	unimp
   156a0:	0000                	unimp
   156a2:	0000                	unimp
   156a4:	0000                	unimp
   156a6:	0000                	unimp
   156a8:	0000                	unimp
   156aa:	0000                	unimp
   156ac:	0000                	unimp
   156ae:	0000                	unimp
   156b0:	0000                	unimp
   156b2:	0000                	unimp
   156b4:	0000                	unimp
   156b6:	0000                	unimp
   156b8:	0000                	unimp
   156ba:	0000                	unimp
   156bc:	0000                	unimp
   156be:	0000                	unimp
   156c0:	0000                	unimp
   156c2:	0000                	unimp
   156c4:	0000                	unimp
   156c6:	0000                	unimp
   156c8:	0000                	unimp
   156ca:	0000                	unimp
   156cc:	0000                	unimp
   156ce:	0000                	unimp
   156d0:	0000                	unimp
   156d2:	0000                	unimp
   156d4:	0000                	unimp
   156d6:	0000                	unimp
   156d8:	0000                	unimp
   156da:	0000                	unimp
   156dc:	0000                	unimp
   156de:	0000                	unimp
   156e0:	0000                	unimp
   156e2:	0000                	unimp
   156e4:	0000                	unimp
   156e6:	0000                	unimp
   156e8:	0000                	unimp
   156ea:	0000                	unimp
   156ec:	0000                	unimp
   156ee:	0000                	unimp
   156f0:	0000                	unimp
   156f2:	0000                	unimp
   156f4:	0000                	unimp
   156f6:	0000                	unimp
   156f8:	0000                	unimp
   156fa:	0000                	unimp
   156fc:	0000                	unimp
   156fe:	0000                	unimp
   15700:	0000                	unimp
   15702:	0000                	unimp
   15704:	0000                	unimp
   15706:	0000                	unimp
   15708:	0000                	unimp
   1570a:	0000                	unimp
   1570c:	0000                	unimp
   1570e:	0000                	unimp
   15710:	0000                	unimp
   15712:	0000                	unimp
   15714:	0000                	unimp
   15716:	0000                	unimp
   15718:	0000                	unimp
   1571a:	0000                	unimp
   1571c:	0000                	unimp
   1571e:	0000                	unimp
   15720:	0000                	unimp
   15722:	0000                	unimp
   15724:	0000                	unimp
   15726:	0000                	unimp
   15728:	0000                	unimp
   1572a:	0000                	unimp
   1572c:	0000                	unimp
   1572e:	0000                	unimp
   15730:	0000                	unimp
   15732:	0000                	unimp
   15734:	0000                	unimp
   15736:	0000                	unimp
   15738:	0000                	unimp
   1573a:	0000                	unimp
   1573c:	0000                	unimp
   1573e:	0000                	unimp
   15740:	0000                	unimp
   15742:	0000                	unimp
   15744:	0000                	unimp
   15746:	0000                	unimp
   15748:	0000                	unimp
   1574a:	0000                	unimp
   1574c:	0000                	unimp
   1574e:	0000                	unimp
   15750:	0000                	unimp
   15752:	0000                	unimp
   15754:	0000                	unimp
   15756:	0000                	unimp
   15758:	0000                	unimp
   1575a:	0000                	unimp
   1575c:	0000                	unimp
   1575e:	0000                	unimp
   15760:	0000                	unimp
   15762:	0000                	unimp
   15764:	0000                	unimp
   15766:	0000                	unimp
   15768:	0000                	unimp
   1576a:	0000                	unimp
   1576c:	0000                	unimp
   1576e:	0000                	unimp
   15770:	0000                	unimp
   15772:	0000                	unimp
   15774:	0000                	unimp
   15776:	0000                	unimp
   15778:	0000                	unimp
   1577a:	0000                	unimp
   1577c:	0000                	unimp
   1577e:	0000                	unimp
   15780:	0000                	unimp
   15782:	0000                	unimp
   15784:	0000                	unimp
   15786:	0000                	unimp
   15788:	0000                	unimp
   1578a:	0000                	unimp
   1578c:	0000                	unimp
   1578e:	0000                	unimp
   15790:	0000                	unimp
   15792:	0000                	unimp
   15794:	0000                	unimp
   15796:	0000                	unimp
   15798:	0000                	unimp
   1579a:	0000                	unimp
   1579c:	0000                	unimp
   1579e:	0000                	unimp
   157a0:	0000                	unimp
   157a2:	0000                	unimp
   157a4:	0000                	unimp
   157a6:	0000                	unimp
   157a8:	0000                	unimp
   157aa:	0000                	unimp
   157ac:	0000                	unimp
   157ae:	0000                	unimp
   157b0:	0000                	unimp
   157b2:	0000                	unimp
   157b4:	0000                	unimp
   157b6:	0000                	unimp
   157b8:	0000                	unimp
   157ba:	0000                	unimp
   157bc:	0000                	unimp
   157be:	0000                	unimp
   157c0:	0000                	unimp
   157c2:	0000                	unimp
   157c4:	0000                	unimp
   157c6:	0000                	unimp
   157c8:	0000                	unimp
   157ca:	0000                	unimp
   157cc:	0000                	unimp
   157ce:	0000                	unimp
   157d0:	0000                	unimp
   157d2:	0000                	unimp
   157d4:	0000                	unimp
   157d6:	0000                	unimp
   157d8:	0000                	unimp
   157da:	0000                	unimp
   157dc:	0000                	unimp
   157de:	0000                	unimp
   157e0:	0000                	unimp
   157e2:	0000                	unimp
   157e4:	0000                	unimp
   157e6:	0000                	unimp
   157e8:	0000                	unimp
   157ea:	0000                	unimp
   157ec:	0000                	unimp
   157ee:	0000                	unimp
   157f0:	0000                	unimp
   157f2:	0000                	unimp
   157f4:	0000                	unimp
   157f6:	0000                	unimp
   157f8:	0000                	unimp
   157fa:	0000                	unimp
   157fc:	0000                	unimp
   157fe:	0000                	unimp
   15800:	0000                	unimp
   15802:	0000                	unimp
   15804:	0000                	unimp
   15806:	0000                	unimp
   15808:	0000                	unimp
   1580a:	0000                	unimp
   1580c:	0000                	unimp
   1580e:	0000                	unimp
   15810:	0000                	unimp
   15812:	0000                	unimp
   15814:	0000                	unimp
   15816:	0000                	unimp
   15818:	0000                	unimp
   1581a:	0000                	unimp
   1581c:	0000                	unimp
   1581e:	0000                	unimp
   15820:	0000                	unimp
   15822:	0000                	unimp
   15824:	0000                	unimp
   15826:	0000                	unimp
   15828:	0000                	unimp
   1582a:	0000                	unimp
   1582c:	0000                	unimp
   1582e:	0000                	unimp
   15830:	0000                	unimp
   15832:	0000                	unimp
   15834:	0000                	unimp
   15836:	0000                	unimp
   15838:	0000                	unimp
   1583a:	0000                	unimp
   1583c:	0000                	unimp
   1583e:	0000                	unimp
   15840:	0000                	unimp
   15842:	0000                	unimp
   15844:	0000                	unimp
   15846:	0000                	unimp
   15848:	0000                	unimp
   1584a:	0000                	unimp
   1584c:	0000                	unimp
   1584e:	0000                	unimp
   15850:	0000                	unimp
   15852:	0000                	unimp
   15854:	0000                	unimp
   15856:	0000                	unimp
   15858:	0000                	unimp
   1585a:	0000                	unimp
   1585c:	0000                	unimp
   1585e:	0000                	unimp
   15860:	0000                	unimp
   15862:	0000                	unimp
   15864:	0000                	unimp
   15866:	0000                	unimp
   15868:	0000                	unimp
   1586a:	0000                	unimp
   1586c:	0000                	unimp
   1586e:	0000                	unimp
   15870:	0000                	unimp
   15872:	0000                	unimp
   15874:	0000                	unimp
   15876:	0000                	unimp
   15878:	0000                	unimp
   1587a:	0000                	unimp
   1587c:	0000                	unimp
   1587e:	0000                	unimp
   15880:	0000                	unimp
   15882:	0000                	unimp
   15884:	0000                	unimp
   15886:	0000                	unimp
   15888:	0000                	unimp
   1588a:	0000                	unimp
   1588c:	0000                	unimp
   1588e:	0000                	unimp
   15890:	0000                	unimp
   15892:	0000                	unimp
   15894:	0000                	unimp
   15896:	0000                	unimp
   15898:	0000                	unimp
   1589a:	0000                	unimp
   1589c:	0000                	unimp
   1589e:	0000                	unimp
   158a0:	0000                	unimp
   158a2:	0000                	unimp
   158a4:	0000                	unimp
   158a6:	0000                	unimp
   158a8:	0000                	unimp
   158aa:	0000                	unimp
   158ac:	0000                	unimp
   158ae:	0000                	unimp
   158b0:	0000                	unimp
   158b2:	0000                	unimp
   158b4:	0000                	unimp
   158b6:	0000                	unimp
   158b8:	0000                	unimp
   158ba:	0000                	unimp
   158bc:	0000                	unimp
   158be:	0000                	unimp
   158c0:	0000                	unimp
   158c2:	0000                	unimp
   158c4:	0000                	unimp
   158c6:	0000                	unimp
   158c8:	0000                	unimp
   158ca:	0000                	unimp
   158cc:	0000                	unimp
   158ce:	0000                	unimp
   158d0:	0000                	unimp
   158d2:	0000                	unimp
   158d4:	0000                	unimp
   158d6:	0000                	unimp
   158d8:	0000                	unimp
   158da:	0000                	unimp
   158dc:	0000                	unimp
   158de:	0000                	unimp
   158e0:	0000                	unimp
   158e2:	0000                	unimp
   158e4:	0000                	unimp
   158e6:	0000                	unimp
   158e8:	0000                	unimp
   158ea:	0000                	unimp
   158ec:	0000                	unimp
   158ee:	0000                	unimp
   158f0:	0000                	unimp
   158f2:	0000                	unimp
   158f4:	0000                	unimp
   158f6:	0000                	unimp
   158f8:	0000                	unimp
   158fa:	0000                	unimp
   158fc:	0000                	unimp
   158fe:	0000                	unimp
   15900:	0000                	unimp
   15902:	0000                	unimp
   15904:	0000                	unimp
   15906:	0000                	unimp
   15908:	0000                	unimp
   1590a:	0000                	unimp
   1590c:	0000                	unimp
   1590e:	0000                	unimp
   15910:	0000                	unimp
   15912:	0000                	unimp
   15914:	0000                	unimp
   15916:	0000                	unimp
   15918:	0000                	unimp
   1591a:	0000                	unimp
   1591c:	0000                	unimp
   1591e:	0000                	unimp
   15920:	0000                	unimp
   15922:	0000                	unimp
   15924:	0000                	unimp
   15926:	0000                	unimp
   15928:	0000                	unimp
   1592a:	0000                	unimp
   1592c:	0000                	unimp
   1592e:	0000                	unimp
   15930:	0000                	unimp
   15932:	0000                	unimp
   15934:	0000                	unimp
   15936:	0000                	unimp
   15938:	0000                	unimp
   1593a:	0000                	unimp
   1593c:	0000                	unimp
   1593e:	0000                	unimp
   15940:	0000                	unimp
   15942:	0000                	unimp
   15944:	0000                	unimp
   15946:	0000                	unimp
   15948:	0000                	unimp
   1594a:	0000                	unimp
   1594c:	0000                	unimp
   1594e:	0000                	unimp
   15950:	0000                	unimp
   15952:	0000                	unimp
   15954:	0000                	unimp
   15956:	0000                	unimp
   15958:	0000                	unimp
   1595a:	0000                	unimp
   1595c:	0000                	unimp
   1595e:	0000                	unimp
   15960:	0000                	unimp
   15962:	0000                	unimp
   15964:	0000                	unimp
   15966:	0000                	unimp
   15968:	0000                	unimp
   1596a:	0000                	unimp
   1596c:	0000                	unimp
   1596e:	0000                	unimp
   15970:	0000                	unimp
   15972:	0000                	unimp
   15974:	0000                	unimp
   15976:	0000                	unimp
   15978:	0000                	unimp
   1597a:	0000                	unimp
   1597c:	0000                	unimp
   1597e:	0000                	unimp
   15980:	0000                	unimp
   15982:	0000                	unimp
   15984:	0000                	unimp
   15986:	0000                	unimp
   15988:	0000                	unimp
   1598a:	0000                	unimp
   1598c:	0000                	unimp
   1598e:	0000                	unimp
   15990:	0000                	unimp
   15992:	0000                	unimp
   15994:	0000                	unimp
   15996:	0000                	unimp
   15998:	0000                	unimp
   1599a:	0000                	unimp
   1599c:	0000                	unimp
   1599e:	0000                	unimp
   159a0:	0000                	unimp
   159a2:	0000                	unimp
   159a4:	0000                	unimp
   159a6:	0000                	unimp
   159a8:	0000                	unimp
   159aa:	0000                	unimp
   159ac:	0000                	unimp
   159ae:	0000                	unimp
   159b0:	0000                	unimp
   159b2:	0000                	unimp
   159b4:	0000                	unimp
   159b6:	0000                	unimp
   159b8:	0000                	unimp
   159ba:	0000                	unimp
   159bc:	0000                	unimp
   159be:	0000                	unimp
   159c0:	0000                	unimp
   159c2:	0000                	unimp
   159c4:	0000                	unimp
   159c6:	0000                	unimp
   159c8:	0000                	unimp
   159ca:	0000                	unimp
   159cc:	0000                	unimp
   159ce:	0000                	unimp
   159d0:	0000                	unimp
   159d2:	0000                	unimp
   159d4:	0000                	unimp
   159d6:	0000                	unimp
   159d8:	0000                	unimp
   159da:	0000                	unimp
   159dc:	0000                	unimp
   159de:	0000                	unimp
   159e0:	0000                	unimp
   159e2:	0000                	unimp
   159e4:	0000                	unimp
   159e6:	0000                	unimp
   159e8:	0000                	unimp
   159ea:	0000                	unimp
   159ec:	0000                	unimp
   159ee:	0000                	unimp
   159f0:	0000                	unimp
   159f2:	0000                	unimp
   159f4:	0000                	unimp
   159f6:	0000                	unimp
   159f8:	0000                	unimp
   159fa:	0000                	unimp
   159fc:	0000                	unimp
   159fe:	0000                	unimp
   15a00:	0000                	unimp
   15a02:	0000                	unimp
   15a04:	0000                	unimp
   15a06:	0000                	unimp
   15a08:	0000                	unimp
   15a0a:	0000                	unimp
   15a0c:	0000                	unimp
   15a0e:	0000                	unimp
   15a10:	0000                	unimp
   15a12:	0000                	unimp
   15a14:	0000                	unimp
   15a16:	0000                	unimp
   15a18:	0000                	unimp
   15a1a:	0000                	unimp
   15a1c:	0000                	unimp
   15a1e:	0000                	unimp
   15a20:	0000                	unimp
   15a22:	0000                	unimp
   15a24:	0000                	unimp
   15a26:	0000                	unimp
   15a28:	0000                	unimp
   15a2a:	0000                	unimp
   15a2c:	0000                	unimp
   15a2e:	0000                	unimp
   15a30:	0000                	unimp
   15a32:	0000                	unimp
   15a34:	0000                	unimp
   15a36:	0000                	unimp
   15a38:	0000                	unimp
   15a3a:	0000                	unimp
   15a3c:	0000                	unimp
   15a3e:	0000                	unimp
   15a40:	0000                	unimp
   15a42:	0000                	unimp
   15a44:	0000                	unimp
   15a46:	0000                	unimp
   15a48:	0000                	unimp
   15a4a:	0000                	unimp
   15a4c:	0000                	unimp
   15a4e:	0000                	unimp
   15a50:	0000                	unimp
   15a52:	0000                	unimp
   15a54:	0000                	unimp
   15a56:	0000                	unimp
   15a58:	0000                	unimp
   15a5a:	0000                	unimp
   15a5c:	0000                	unimp
   15a5e:	0000                	unimp
   15a60:	0000                	unimp
   15a62:	0000                	unimp
   15a64:	0000                	unimp
   15a66:	0000                	unimp
   15a68:	0000                	unimp
   15a6a:	0000                	unimp
   15a6c:	0000                	unimp
   15a6e:	0000                	unimp
   15a70:	0000                	unimp
   15a72:	0000                	unimp
   15a74:	0000                	unimp
   15a76:	0000                	unimp
   15a78:	0000                	unimp
   15a7a:	0000                	unimp
   15a7c:	0000                	unimp
   15a7e:	0000                	unimp
   15a80:	0000                	unimp
   15a82:	0000                	unimp
   15a84:	0000                	unimp
   15a86:	0000                	unimp
   15a88:	0000                	unimp
   15a8a:	0000                	unimp
   15a8c:	0000                	unimp
   15a8e:	0000                	unimp
   15a90:	0000                	unimp
   15a92:	0000                	unimp
   15a94:	0000                	unimp
   15a96:	0000                	unimp
   15a98:	0000                	unimp
   15a9a:	0000                	unimp
   15a9c:	0000                	unimp
   15a9e:	0000                	unimp
   15aa0:	0000                	unimp
   15aa2:	0000                	unimp
   15aa4:	0000                	unimp
   15aa6:	0000                	unimp
   15aa8:	0000                	unimp
   15aaa:	0000                	unimp
   15aac:	0000                	unimp
   15aae:	0000                	unimp
   15ab0:	0000                	unimp
   15ab2:	0000                	unimp
   15ab4:	0000                	unimp
   15ab6:	0000                	unimp
   15ab8:	0000                	unimp
   15aba:	0000                	unimp
   15abc:	0000                	unimp
   15abe:	0000                	unimp
   15ac0:	0000                	unimp
   15ac2:	0000                	unimp
   15ac4:	0000                	unimp
   15ac6:	0000                	unimp
   15ac8:	0000                	unimp
   15aca:	0000                	unimp
   15acc:	0000                	unimp
   15ace:	0000                	unimp
   15ad0:	0000                	unimp
   15ad2:	0000                	unimp
   15ad4:	0000                	unimp
   15ad6:	0000                	unimp
   15ad8:	0000                	unimp
   15ada:	0000                	unimp
   15adc:	0000                	unimp
   15ade:	0000                	unimp
   15ae0:	0000                	unimp
   15ae2:	0000                	unimp
   15ae4:	0000                	unimp
   15ae6:	0000                	unimp
   15ae8:	0000                	unimp
   15aea:	0000                	unimp
   15aec:	0000                	unimp
   15aee:	0000                	unimp
   15af0:	0000                	unimp
   15af2:	0000                	unimp
   15af4:	0000                	unimp
   15af6:	0000                	unimp
   15af8:	0000                	unimp
   15afa:	0000                	unimp
   15afc:	0000                	unimp
   15afe:	0000                	unimp
   15b00:	0000                	unimp
   15b02:	0000                	unimp
   15b04:	0000                	unimp
   15b06:	0000                	unimp
   15b08:	0000                	unimp
   15b0a:	0000                	unimp
   15b0c:	0000                	unimp
   15b0e:	0000                	unimp
   15b10:	0000                	unimp
   15b12:	0000                	unimp
   15b14:	0000                	unimp
   15b16:	0000                	unimp
   15b18:	0000                	unimp
   15b1a:	0000                	unimp
   15b1c:	0000                	unimp
   15b1e:	0000                	unimp
   15b20:	0000                	unimp
   15b22:	0000                	unimp
   15b24:	0000                	unimp
   15b26:	0000                	unimp
   15b28:	0000                	unimp
   15b2a:	0000                	unimp
   15b2c:	0000                	unimp
   15b2e:	0000                	unimp
   15b30:	0000                	unimp
   15b32:	0000                	unimp
   15b34:	0000                	unimp
   15b36:	0000                	unimp
   15b38:	0000                	unimp
   15b3a:	0000                	unimp
   15b3c:	0000                	unimp
   15b3e:	0000                	unimp
   15b40:	0000                	unimp
   15b42:	0000                	unimp
   15b44:	0000                	unimp
   15b46:	0000                	unimp
   15b48:	0000                	unimp
   15b4a:	0000                	unimp
   15b4c:	0000                	unimp
   15b4e:	0000                	unimp
   15b50:	0000                	unimp
   15b52:	0000                	unimp
   15b54:	0000                	unimp
   15b56:	0000                	unimp
   15b58:	0000                	unimp
   15b5a:	0000                	unimp
   15b5c:	0000                	unimp
   15b5e:	0000                	unimp
   15b60:	0000                	unimp
   15b62:	0000                	unimp
   15b64:	0000                	unimp
   15b66:	0000                	unimp
   15b68:	0000                	unimp
   15b6a:	0000                	unimp
   15b6c:	0000                	unimp
   15b6e:	0000                	unimp
   15b70:	0000                	unimp
   15b72:	0000                	unimp
   15b74:	0000                	unimp
   15b76:	0000                	unimp
   15b78:	0000                	unimp
   15b7a:	0000                	unimp
   15b7c:	0000                	unimp
   15b7e:	0000                	unimp
   15b80:	0000                	unimp
   15b82:	0000                	unimp
   15b84:	0000                	unimp
   15b86:	0000                	unimp
   15b88:	0000                	unimp
   15b8a:	0000                	unimp
   15b8c:	0000                	unimp
   15b8e:	0000                	unimp
   15b90:	0000                	unimp
   15b92:	0000                	unimp
   15b94:	0000                	unimp
   15b96:	0000                	unimp
   15b98:	0000                	unimp
   15b9a:	0000                	unimp
   15b9c:	0000                	unimp
   15b9e:	0000                	unimp
   15ba0:	0000                	unimp
   15ba2:	0000                	unimp
   15ba4:	0000                	unimp
   15ba6:	0000                	unimp
   15ba8:	0000                	unimp
   15baa:	0000                	unimp
   15bac:	0000                	unimp
   15bae:	0000                	unimp
   15bb0:	0000                	unimp
   15bb2:	0000                	unimp
   15bb4:	0000                	unimp
   15bb6:	0000                	unimp
   15bb8:	0000                	unimp
   15bba:	0000                	unimp
   15bbc:	0000                	unimp
   15bbe:	0000                	unimp
   15bc0:	0000                	unimp
   15bc2:	0000                	unimp
   15bc4:	0000                	unimp
   15bc6:	0000                	unimp
   15bc8:	0000                	unimp
   15bca:	0000                	unimp
   15bcc:	0000                	unimp
   15bce:	0000                	unimp
   15bd0:	0000                	unimp
   15bd2:	0000                	unimp
   15bd4:	0000                	unimp
   15bd6:	0000                	unimp
   15bd8:	0000                	unimp
   15bda:	0000                	unimp
   15bdc:	0000                	unimp
   15bde:	0000                	unimp
   15be0:	0000                	unimp
   15be2:	0000                	unimp
   15be4:	0000                	unimp
   15be6:	0000                	unimp
   15be8:	0000                	unimp
   15bea:	0000                	unimp
   15bec:	0000                	unimp
   15bee:	0000                	unimp
   15bf0:	0000                	unimp
   15bf2:	0000                	unimp
   15bf4:	0000                	unimp
   15bf6:	0000                	unimp
   15bf8:	0000                	unimp
   15bfa:	0000                	unimp
   15bfc:	0000                	unimp
   15bfe:	0000                	unimp
   15c00:	0000                	unimp
   15c02:	0000                	unimp
   15c04:	0000                	unimp
   15c06:	0000                	unimp
   15c08:	0000                	unimp
   15c0a:	0000                	unimp
   15c0c:	0000                	unimp
   15c0e:	0000                	unimp
   15c10:	0000                	unimp
   15c12:	0000                	unimp
   15c14:	0000                	unimp
   15c16:	0000                	unimp
   15c18:	0000                	unimp
   15c1a:	0000                	unimp
   15c1c:	0000                	unimp
   15c1e:	0000                	unimp
   15c20:	0000                	unimp
   15c22:	0000                	unimp
   15c24:	0000                	unimp
   15c26:	0000                	unimp
   15c28:	0000                	unimp
   15c2a:	0000                	unimp
   15c2c:	0000                	unimp
   15c2e:	0000                	unimp
   15c30:	0000                	unimp
   15c32:	0000                	unimp
   15c34:	0000                	unimp
   15c36:	0000                	unimp
   15c38:	0000                	unimp
   15c3a:	0000                	unimp
   15c3c:	0000                	unimp
   15c3e:	0000                	unimp
   15c40:	0000                	unimp
   15c42:	0000                	unimp
   15c44:	0000                	unimp
   15c46:	0000                	unimp
   15c48:	0000                	unimp
   15c4a:	0000                	unimp
   15c4c:	0000                	unimp
   15c4e:	0000                	unimp
   15c50:	0000                	unimp
   15c52:	0000                	unimp
   15c54:	0000                	unimp
   15c56:	0000                	unimp
   15c58:	0000                	unimp
   15c5a:	0000                	unimp
   15c5c:	0000                	unimp
   15c5e:	0000                	unimp
   15c60:	0000                	unimp
   15c62:	0000                	unimp
   15c64:	0000                	unimp
   15c66:	0000                	unimp
   15c68:	0000                	unimp
   15c6a:	0000                	unimp
   15c6c:	0000                	unimp
   15c6e:	0000                	unimp
   15c70:	0000                	unimp
   15c72:	0000                	unimp
   15c74:	0000                	unimp
   15c76:	0000                	unimp
   15c78:	0000                	unimp
   15c7a:	0000                	unimp
   15c7c:	0000                	unimp
   15c7e:	0000                	unimp
   15c80:	0000                	unimp
   15c82:	0000                	unimp
   15c84:	0000                	unimp
   15c86:	0000                	unimp
   15c88:	0000                	unimp
   15c8a:	0000                	unimp
   15c8c:	0000                	unimp
   15c8e:	0000                	unimp
   15c90:	0000                	unimp
   15c92:	0000                	unimp
   15c94:	0000                	unimp
   15c96:	0000                	unimp
   15c98:	0000                	unimp
   15c9a:	0000                	unimp
   15c9c:	0000                	unimp
   15c9e:	0000                	unimp
   15ca0:	0000                	unimp
   15ca2:	0000                	unimp
   15ca4:	0000                	unimp
   15ca6:	0000                	unimp
   15ca8:	0000                	unimp
   15caa:	0000                	unimp
   15cac:	0000                	unimp
   15cae:	0000                	unimp
   15cb0:	0000                	unimp
   15cb2:	0000                	unimp
   15cb4:	0000                	unimp
   15cb6:	0000                	unimp
   15cb8:	0000                	unimp
   15cba:	0000                	unimp
   15cbc:	0000                	unimp
   15cbe:	0000                	unimp
   15cc0:	0000                	unimp
   15cc2:	0000                	unimp
   15cc4:	0000                	unimp
   15cc6:	0000                	unimp
   15cc8:	0000                	unimp
   15cca:	0000                	unimp
   15ccc:	0000                	unimp
   15cce:	0000                	unimp
   15cd0:	0000                	unimp
   15cd2:	0000                	unimp
   15cd4:	0000                	unimp
   15cd6:	0000                	unimp
   15cd8:	0000                	unimp
   15cda:	0000                	unimp
   15cdc:	0000                	unimp
   15cde:	0000                	unimp
   15ce0:	0000                	unimp
   15ce2:	0000                	unimp
   15ce4:	0000                	unimp
   15ce6:	0000                	unimp
   15ce8:	0000                	unimp
   15cea:	0000                	unimp
   15cec:	0000                	unimp
   15cee:	0000                	unimp
   15cf0:	0000                	unimp
   15cf2:	0000                	unimp
   15cf4:	0000                	unimp
   15cf6:	0000                	unimp
   15cf8:	0000                	unimp
   15cfa:	0000                	unimp
   15cfc:	0000                	unimp
   15cfe:	0000                	unimp
   15d00:	0000                	unimp
   15d02:	0000                	unimp
   15d04:	0000                	unimp
   15d06:	0000                	unimp
   15d08:	0000                	unimp
   15d0a:	0000                	unimp
   15d0c:	0000                	unimp
   15d0e:	0000                	unimp
   15d10:	0000                	unimp
   15d12:	0000                	unimp
   15d14:	0000                	unimp
   15d16:	0000                	unimp
   15d18:	0000                	unimp
   15d1a:	0000                	unimp
   15d1c:	0000                	unimp
   15d1e:	0000                	unimp
   15d20:	0000                	unimp
   15d22:	0000                	unimp
   15d24:	0000                	unimp
   15d26:	0000                	unimp
   15d28:	0000                	unimp
   15d2a:	0000                	unimp
   15d2c:	0000                	unimp
   15d2e:	0000                	unimp
   15d30:	0000                	unimp
   15d32:	0000                	unimp
   15d34:	0000                	unimp
   15d36:	0000                	unimp
   15d38:	0000                	unimp
   15d3a:	0000                	unimp
   15d3c:	0000                	unimp
   15d3e:	0000                	unimp
   15d40:	0000                	unimp
   15d42:	0000                	unimp
   15d44:	0000                	unimp
   15d46:	0000                	unimp
   15d48:	0000                	unimp
   15d4a:	0000                	unimp
   15d4c:	0000                	unimp
   15d4e:	0000                	unimp
   15d50:	0000                	unimp
   15d52:	0000                	unimp
   15d54:	0000                	unimp
   15d56:	0000                	unimp
   15d58:	0000                	unimp
   15d5a:	0000                	unimp
   15d5c:	0000                	unimp
   15d5e:	0000                	unimp
   15d60:	0000                	unimp
   15d62:	0000                	unimp
   15d64:	0000                	unimp
   15d66:	0000                	unimp
   15d68:	0000                	unimp
   15d6a:	0000                	unimp
   15d6c:	0000                	unimp
   15d6e:	0000                	unimp
   15d70:	0000                	unimp
   15d72:	0000                	unimp
   15d74:	0000                	unimp
   15d76:	0000                	unimp
   15d78:	0000                	unimp
   15d7a:	0000                	unimp
   15d7c:	0000                	unimp
   15d7e:	0000                	unimp
   15d80:	0000                	unimp
   15d82:	0000                	unimp
   15d84:	0000                	unimp
   15d86:	0000                	unimp
   15d88:	0000                	unimp
   15d8a:	0000                	unimp
   15d8c:	0000                	unimp
   15d8e:	0000                	unimp
   15d90:	0000                	unimp
   15d92:	0000                	unimp
   15d94:	0000                	unimp
   15d96:	0000                	unimp
   15d98:	0000                	unimp
   15d9a:	0000                	unimp
   15d9c:	0000                	unimp
   15d9e:	0000                	unimp
   15da0:	0000                	unimp
   15da2:	0000                	unimp
   15da4:	0000                	unimp
   15da6:	0000                	unimp
   15da8:	0000                	unimp
   15daa:	0000                	unimp
   15dac:	0000                	unimp
   15dae:	0000                	unimp
   15db0:	0000                	unimp
   15db2:	0000                	unimp
   15db4:	0000                	unimp
   15db6:	0000                	unimp
   15db8:	0000                	unimp
   15dba:	0000                	unimp
   15dbc:	0000                	unimp
   15dbe:	0000                	unimp
   15dc0:	0000                	unimp
   15dc2:	0000                	unimp
   15dc4:	0000                	unimp
   15dc6:	0000                	unimp
   15dc8:	0000                	unimp
   15dca:	0000                	unimp
   15dcc:	0000                	unimp
   15dce:	0000                	unimp
   15dd0:	0000                	unimp
   15dd2:	0000                	unimp
   15dd4:	0000                	unimp
   15dd6:	0000                	unimp
   15dd8:	0000                	unimp
   15dda:	0000                	unimp
   15ddc:	0000                	unimp
   15dde:	0000                	unimp
   15de0:	0000                	unimp
   15de2:	0000                	unimp
   15de4:	0000                	unimp
   15de6:	0000                	unimp
   15de8:	0000                	unimp
   15dea:	0000                	unimp
   15dec:	0000                	unimp
   15dee:	0000                	unimp
   15df0:	0000                	unimp
   15df2:	0000                	unimp
   15df4:	0000                	unimp
   15df6:	0000                	unimp
   15df8:	0000                	unimp
   15dfa:	0000                	unimp
   15dfc:	0000                	unimp
   15dfe:	0000                	unimp
   15e00:	0000                	unimp
   15e02:	0000                	unimp
   15e04:	0000                	unimp
   15e06:	0000                	unimp
   15e08:	0000                	unimp
   15e0a:	0000                	unimp
   15e0c:	0000                	unimp
   15e0e:	0000                	unimp
   15e10:	0000                	unimp
   15e12:	0000                	unimp
   15e14:	0000                	unimp
   15e16:	0000                	unimp
   15e18:	0000                	unimp
   15e1a:	0000                	unimp
   15e1c:	0000                	unimp
   15e1e:	0000                	unimp
   15e20:	0000                	unimp
   15e22:	0000                	unimp
   15e24:	0000                	unimp
   15e26:	0000                	unimp
   15e28:	0000                	unimp
   15e2a:	0000                	unimp
   15e2c:	0000                	unimp
   15e2e:	0000                	unimp
   15e30:	0000                	unimp
   15e32:	0000                	unimp
   15e34:	0000                	unimp
   15e36:	0000                	unimp
   15e38:	0000                	unimp
   15e3a:	0000                	unimp
   15e3c:	0000                	unimp
   15e3e:	0000                	unimp
   15e40:	0000                	unimp
   15e42:	0000                	unimp
   15e44:	0000                	unimp
   15e46:	0000                	unimp
   15e48:	0000                	unimp
   15e4a:	0000                	unimp
   15e4c:	0000                	unimp
   15e4e:	0000                	unimp
   15e50:	0000                	unimp
   15e52:	0000                	unimp
   15e54:	0000                	unimp
   15e56:	0000                	unimp
   15e58:	0000                	unimp
   15e5a:	0000                	unimp
   15e5c:	0000                	unimp
   15e5e:	0000                	unimp
   15e60:	0000                	unimp
   15e62:	0000                	unimp
   15e64:	0000                	unimp
   15e66:	0000                	unimp
   15e68:	0000                	unimp
   15e6a:	0000                	unimp
   15e6c:	0000                	unimp
   15e6e:	0000                	unimp
   15e70:	0000                	unimp
   15e72:	0000                	unimp
   15e74:	0000                	unimp
   15e76:	0000                	unimp
   15e78:	0000                	unimp
   15e7a:	0000                	unimp
   15e7c:	0000                	unimp
   15e7e:	0000                	unimp
   15e80:	0000                	unimp
   15e82:	0000                	unimp
   15e84:	0000                	unimp
   15e86:	0000                	unimp
   15e88:	0000                	unimp
   15e8a:	0000                	unimp
   15e8c:	0000                	unimp
   15e8e:	0000                	unimp
   15e90:	0000                	unimp
   15e92:	0000                	unimp
   15e94:	0000                	unimp
   15e96:	0000                	unimp
   15e98:	0000                	unimp
   15e9a:	0000                	unimp
   15e9c:	0000                	unimp
   15e9e:	0000                	unimp
   15ea0:	0000                	unimp
   15ea2:	0000                	unimp
   15ea4:	0000                	unimp
   15ea6:	0000                	unimp
   15ea8:	0000                	unimp
   15eaa:	0000                	unimp
   15eac:	0000                	unimp
   15eae:	0000                	unimp
   15eb0:	0000                	unimp
   15eb2:	0000                	unimp
   15eb4:	0000                	unimp
   15eb6:	0000                	unimp
   15eb8:	0000                	unimp
   15eba:	0000                	unimp
   15ebc:	0000                	unimp
   15ebe:	0000                	unimp
   15ec0:	0000                	unimp
   15ec2:	0000                	unimp
   15ec4:	0000                	unimp
   15ec6:	0000                	unimp
   15ec8:	0000                	unimp
   15eca:	0000                	unimp
   15ecc:	0000                	unimp
   15ece:	0000                	unimp
   15ed0:	0000                	unimp
   15ed2:	0000                	unimp
   15ed4:	0000                	unimp
   15ed6:	0000                	unimp
   15ed8:	0000                	unimp
   15eda:	0000                	unimp
   15edc:	0000                	unimp
   15ede:	0000                	unimp
   15ee0:	0000                	unimp
   15ee2:	0000                	unimp
   15ee4:	0000                	unimp
   15ee6:	0000                	unimp
   15ee8:	0000                	unimp
   15eea:	0000                	unimp
   15eec:	0000                	unimp
   15eee:	0000                	unimp
   15ef0:	0000                	unimp
   15ef2:	0000                	unimp
   15ef4:	0000                	unimp
   15ef6:	0000                	unimp
   15ef8:	0000                	unimp
   15efa:	0000                	unimp
   15efc:	0000                	unimp
   15efe:	0000                	unimp
   15f00:	0000                	unimp
   15f02:	0000                	unimp
   15f04:	0000                	unimp
   15f06:	0000                	unimp
   15f08:	0000                	unimp
   15f0a:	0000                	unimp
   15f0c:	0000                	unimp
   15f0e:	0000                	unimp
   15f10:	0000                	unimp
   15f12:	0000                	unimp
   15f14:	0000                	unimp
   15f16:	0000                	unimp
   15f18:	0000                	unimp
   15f1a:	0000                	unimp
   15f1c:	0000                	unimp
   15f1e:	0000                	unimp
   15f20:	0000                	unimp
   15f22:	0000                	unimp
   15f24:	0000                	unimp
   15f26:	0000                	unimp
   15f28:	0000                	unimp
   15f2a:	0000                	unimp
   15f2c:	0000                	unimp
   15f2e:	0000                	unimp
   15f30:	0000                	unimp
   15f32:	0000                	unimp
   15f34:	0000                	unimp
   15f36:	0000                	unimp
   15f38:	0000                	unimp
   15f3a:	0000                	unimp
   15f3c:	0000                	unimp
   15f3e:	0000                	unimp
   15f40:	0000                	unimp
   15f42:	0000                	unimp
   15f44:	0000                	unimp
   15f46:	0000                	unimp
   15f48:	0000                	unimp
   15f4a:	0000                	unimp
   15f4c:	0000                	unimp
   15f4e:	0000                	unimp
   15f50:	0000                	unimp
   15f52:	0000                	unimp
   15f54:	0000                	unimp
   15f56:	0000                	unimp
   15f58:	0000                	unimp
   15f5a:	0000                	unimp
   15f5c:	0000                	unimp
   15f5e:	0000                	unimp
   15f60:	0000                	unimp
   15f62:	0000                	unimp
   15f64:	0000                	unimp
   15f66:	0000                	unimp
   15f68:	0000                	unimp
   15f6a:	0000                	unimp
   15f6c:	0000                	unimp
   15f6e:	0000                	unimp
   15f70:	0000                	unimp
   15f72:	0000                	unimp
   15f74:	0000                	unimp
   15f76:	0000                	unimp
   15f78:	0000                	unimp
   15f7a:	0000                	unimp
   15f7c:	0000                	unimp
   15f7e:	0000                	unimp
   15f80:	0000                	unimp
   15f82:	0000                	unimp
   15f84:	0000                	unimp
   15f86:	0000                	unimp
   15f88:	0000                	unimp
   15f8a:	0000                	unimp
   15f8c:	0000                	unimp
   15f8e:	0000                	unimp
   15f90:	0000                	unimp
   15f92:	0000                	unimp
   15f94:	0000                	unimp
   15f96:	0000                	unimp
   15f98:	0000                	unimp
   15f9a:	0000                	unimp
   15f9c:	0000                	unimp
   15f9e:	0000                	unimp
   15fa0:	0000                	unimp
   15fa2:	0000                	unimp
   15fa4:	0000                	unimp
   15fa6:	0000                	unimp
   15fa8:	0000                	unimp
   15faa:	0000                	unimp
   15fac:	0000                	unimp
   15fae:	0000                	unimp
   15fb0:	0000                	unimp
   15fb2:	0000                	unimp
   15fb4:	0000                	unimp
   15fb6:	0000                	unimp
   15fb8:	0000                	unimp
   15fba:	0000                	unimp
   15fbc:	0000                	unimp
   15fbe:	0000                	unimp
   15fc0:	0000                	unimp
   15fc2:	0000                	unimp
   15fc4:	0000                	unimp
   15fc6:	0000                	unimp
