
rv64ui-p-lwu:     file format elf64-littleriscv


Disassembly of section .text.init:

0000000000010000 <_start>:
   10000:	04c0006f          	j	1004c <reset_vector>

0000000000010004 <trap_vector>:
   10004:	34202f73          	csrr	t5,mcause
   10008:	00800f93          	li	t6,8
   1000c:	03ff0a63          	beq	t5,t6,10040 <write_tohost>
   10010:	00900f93          	li	t6,9
   10014:	03ff0663          	beq	t5,t6,10040 <write_tohost>
   10018:	00b00f93          	li	t6,11
   1001c:	03ff0263          	beq	t5,t6,10040 <write_tohost>
   10020:	ffff0f17          	auipc	t5,0xffff0
   10024:	fe0f0f13          	addi	t5,t5,-32 # 0 <_start-0x10000>
   10028:	000f0463          	beqz	t5,10030 <trap_vector+0x2c>
   1002c:	000f0067          	jr	t5
   10030:	34202f73          	csrr	t5,mcause
   10034:	000f5463          	bgez	t5,1003c <handle_exception>
   10038:	0040006f          	j	1003c <handle_exception>

000000000001003c <handle_exception>:
   1003c:	5391e193          	ori	gp,gp,1337

0000000000010040 <write_tohost>:
   10040:	00001f17          	auipc	t5,0x1
   10044:	fc3f2023          	sw	gp,-64(t5) # 11000 <tohost>
   10048:	ff9ff06f          	j	10040 <write_tohost>

000000000001004c <reset_vector>:
   1004c:	f1402573          	csrr	a0,mhartid
   10050:	00051063          	bnez	a0,10050 <reset_vector+0x4>
   10054:	00000297          	auipc	t0,0x0
   10058:	01028293          	addi	t0,t0,16 # 10064 <reset_vector+0x18>
   1005c:	30529073          	csrw	mtvec,t0
   10060:	18005073          	csrwi	satp,0
   10064:	00000297          	auipc	t0,0x0
   10068:	01c28293          	addi	t0,t0,28 # 10080 <reset_vector+0x34>
   1006c:	30529073          	csrw	mtvec,t0
   10070:	fff00293          	li	t0,-1
   10074:	3b029073          	csrw	pmpaddr0,t0
   10078:	01f00293          	li	t0,31
   1007c:	3a029073          	csrw	pmpcfg0,t0
   10080:	00000297          	auipc	t0,0x0
   10084:	01828293          	addi	t0,t0,24 # 10098 <reset_vector+0x4c>
   10088:	30529073          	csrw	mtvec,t0
   1008c:	30205073          	csrwi	medeleg,0
   10090:	30305073          	csrwi	mideleg,0
   10094:	30405073          	csrwi	mie,0
   10098:	00000193          	li	gp,0
   1009c:	00000297          	auipc	t0,0x0
   100a0:	f6828293          	addi	t0,t0,-152 # 10004 <trap_vector>
   100a4:	30529073          	csrw	mtvec,t0
   100a8:	00100513          	li	a0,1
   100ac:	01f51513          	slli	a0,a0,0x1f
   100b0:	00055863          	bgez	a0,100c0 <reset_vector+0x74>
   100b4:	0ff0000f          	fence
   100b8:	00100193          	li	gp,1
   100bc:	00000073          	ecall
   100c0:	ffff0297          	auipc	t0,0xffff0
   100c4:	f4028293          	addi	t0,t0,-192 # 0 <_start-0x10000>
   100c8:	00028e63          	beqz	t0,100e4 <reset_vector+0x98>
   100cc:	10529073          	csrw	stvec,t0
   100d0:	0000b2b7          	lui	t0,0xb
   100d4:	1092829b          	addiw	t0,t0,265
   100d8:	30229073          	csrw	medeleg,t0
   100dc:	30202373          	csrr	t1,medeleg
   100e0:	f4629ee3          	bne	t0,t1,1003c <handle_exception>
   100e4:	30005073          	csrwi	mstatus,0
   100e8:	00000297          	auipc	t0,0x0
   100ec:	01428293          	addi	t0,t0,20 # 100fc <test_2>
   100f0:	34129073          	csrw	mepc,t0
   100f4:	f1402573          	csrr	a0,mhartid
   100f8:	30200073          	mret

00000000000100fc <test_2>:
   100fc:	00002097          	auipc	ra,0x2
   10100:	f0408093          	addi	ra,ra,-252 # 12000 <begin_signature>
   10104:	0000ef03          	lwu	t5,0(ra)
   10108:	00ff0eb7          	lui	t4,0xff0
   1010c:	0ffe8e9b          	addiw	t4,t4,255
   10110:	00200193          	li	gp,2
   10114:	2bdf1e63          	bne	t5,t4,103d0 <fail>

0000000000010118 <test_3>:
   10118:	00002097          	auipc	ra,0x2
   1011c:	ee808093          	addi	ra,ra,-280 # 12000 <begin_signature>
   10120:	0040ef03          	lwu	t5,4(ra)
   10124:	00010eb7          	lui	t4,0x10
   10128:	f01e8e9b          	addiw	t4,t4,-255
   1012c:	010e9e93          	slli	t4,t4,0x10
   10130:	f00e8e93          	addi	t4,t4,-256 # ff00 <_start-0x100>
   10134:	00300193          	li	gp,3
   10138:	29df1c63          	bne	t5,t4,103d0 <fail>

000000000001013c <test_4>:
   1013c:	00002097          	auipc	ra,0x2
   10140:	ec408093          	addi	ra,ra,-316 # 12000 <begin_signature>
   10144:	0080ef03          	lwu	t5,8(ra)
   10148:	0ff01eb7          	lui	t4,0xff01
   1014c:	ff0e8e9b          	addiw	t4,t4,-16
   10150:	00400193          	li	gp,4
   10154:	27df1e63          	bne	t5,t4,103d0 <fail>

0000000000010158 <test_5>:
   10158:	00002097          	auipc	ra,0x2
   1015c:	ea808093          	addi	ra,ra,-344 # 12000 <begin_signature>
   10160:	00c0ef03          	lwu	t5,12(ra)
   10164:	000f0eb7          	lui	t4,0xf0
   10168:	0ffe8e9b          	addiw	t4,t4,255
   1016c:	00ce9e93          	slli	t4,t4,0xc
   10170:	00fe8e93          	addi	t4,t4,15 # f000f <_end+0xddfff>
   10174:	00500193          	li	gp,5
   10178:	25df1c63          	bne	t5,t4,103d0 <fail>

000000000001017c <test_6>:
   1017c:	00002097          	auipc	ra,0x2
   10180:	e9008093          	addi	ra,ra,-368 # 1200c <tdat4>
   10184:	ff40ef03          	lwu	t5,-12(ra)
   10188:	00ff0eb7          	lui	t4,0xff0
   1018c:	0ffe8e9b          	addiw	t4,t4,255
   10190:	00600193          	li	gp,6
   10194:	23df1e63          	bne	t5,t4,103d0 <fail>

0000000000010198 <test_7>:
   10198:	00002097          	auipc	ra,0x2
   1019c:	e7408093          	addi	ra,ra,-396 # 1200c <tdat4>
   101a0:	ff80ef03          	lwu	t5,-8(ra)
   101a4:	00010eb7          	lui	t4,0x10
   101a8:	f01e8e9b          	addiw	t4,t4,-255
   101ac:	010e9e93          	slli	t4,t4,0x10
   101b0:	f00e8e93          	addi	t4,t4,-256 # ff00 <_start-0x100>
   101b4:	00700193          	li	gp,7
   101b8:	21df1c63          	bne	t5,t4,103d0 <fail>

00000000000101bc <test_8>:
   101bc:	00002097          	auipc	ra,0x2
   101c0:	e5008093          	addi	ra,ra,-432 # 1200c <tdat4>
   101c4:	ffc0ef03          	lwu	t5,-4(ra)
   101c8:	0ff01eb7          	lui	t4,0xff01
   101cc:	ff0e8e9b          	addiw	t4,t4,-16
   101d0:	00800193          	li	gp,8
   101d4:	1fdf1e63          	bne	t5,t4,103d0 <fail>

00000000000101d8 <test_9>:
   101d8:	00002097          	auipc	ra,0x2
   101dc:	e3408093          	addi	ra,ra,-460 # 1200c <tdat4>
   101e0:	0000ef03          	lwu	t5,0(ra)
   101e4:	000f0eb7          	lui	t4,0xf0
   101e8:	0ffe8e9b          	addiw	t4,t4,255
   101ec:	00ce9e93          	slli	t4,t4,0xc
   101f0:	00fe8e93          	addi	t4,t4,15 # f000f <_end+0xddfff>
   101f4:	00900193          	li	gp,9
   101f8:	1ddf1c63          	bne	t5,t4,103d0 <fail>

00000000000101fc <test_10>:
   101fc:	00002097          	auipc	ra,0x2
   10200:	e0408093          	addi	ra,ra,-508 # 12000 <begin_signature>
   10204:	fe008093          	addi	ra,ra,-32
   10208:	0200e283          	lwu	t0,32(ra)
   1020c:	00ff0eb7          	lui	t4,0xff0
   10210:	0ffe8e9b          	addiw	t4,t4,255
   10214:	00a00193          	li	gp,10
   10218:	1bd29c63          	bne	t0,t4,103d0 <fail>

000000000001021c <test_11>:
   1021c:	00002097          	auipc	ra,0x2
   10220:	de408093          	addi	ra,ra,-540 # 12000 <begin_signature>
   10224:	ffd08093          	addi	ra,ra,-3
   10228:	0070e283          	lwu	t0,7(ra)
   1022c:	00010eb7          	lui	t4,0x10
   10230:	f01e8e9b          	addiw	t4,t4,-255
   10234:	010e9e93          	slli	t4,t4,0x10
   10238:	f00e8e93          	addi	t4,t4,-256 # ff00 <_start-0x100>
   1023c:	00b00193          	li	gp,11
   10240:	19d29863          	bne	t0,t4,103d0 <fail>

0000000000010244 <test_12>:
   10244:	00c00193          	li	gp,12
   10248:	00000213          	li	tp,0
   1024c:	00002097          	auipc	ra,0x2
   10250:	db808093          	addi	ra,ra,-584 # 12004 <tdat2>
   10254:	0040ef03          	lwu	t5,4(ra)
   10258:	000f0313          	mv	t1,t5
   1025c:	0ff01eb7          	lui	t4,0xff01
   10260:	ff0e8e9b          	addiw	t4,t4,-16
   10264:	17d31663          	bne	t1,t4,103d0 <fail>
   10268:	00120213          	addi	tp,tp,1 # 1 <_start-0xffff>
   1026c:	00200293          	li	t0,2
   10270:	fc521ee3          	bne	tp,t0,1024c <test_12+0x8>

0000000000010274 <test_13>:
   10274:	00d00193          	li	gp,13
   10278:	00000213          	li	tp,0
   1027c:	00002097          	auipc	ra,0x2
   10280:	d8c08093          	addi	ra,ra,-628 # 12008 <tdat3>
   10284:	0040ef03          	lwu	t5,4(ra)
   10288:	00000013          	nop
   1028c:	000f0313          	mv	t1,t5
   10290:	000f0eb7          	lui	t4,0xf0
   10294:	0ffe8e9b          	addiw	t4,t4,255
   10298:	00ce9e93          	slli	t4,t4,0xc
   1029c:	00fe8e93          	addi	t4,t4,15 # f000f <_end+0xddfff>
   102a0:	13d31863          	bne	t1,t4,103d0 <fail>
   102a4:	00120213          	addi	tp,tp,1 # 1 <_start-0xffff>
   102a8:	00200293          	li	t0,2
   102ac:	fc5218e3          	bne	tp,t0,1027c <test_13+0x8>

00000000000102b0 <test_14>:
   102b0:	00e00193          	li	gp,14
   102b4:	00000213          	li	tp,0
   102b8:	00002097          	auipc	ra,0x2
   102bc:	d4808093          	addi	ra,ra,-696 # 12000 <begin_signature>
   102c0:	0040ef03          	lwu	t5,4(ra)
   102c4:	00000013          	nop
   102c8:	00000013          	nop
   102cc:	000f0313          	mv	t1,t5
   102d0:	00010eb7          	lui	t4,0x10
   102d4:	f01e8e9b          	addiw	t4,t4,-255
   102d8:	010e9e93          	slli	t4,t4,0x10
   102dc:	f00e8e93          	addi	t4,t4,-256 # ff00 <_start-0x100>
   102e0:	0fd31863          	bne	t1,t4,103d0 <fail>
   102e4:	00120213          	addi	tp,tp,1 # 1 <_start-0xffff>
   102e8:	00200293          	li	t0,2
   102ec:	fc5216e3          	bne	tp,t0,102b8 <test_14+0x8>

00000000000102f0 <test_15>:
   102f0:	00f00193          	li	gp,15
   102f4:	00000213          	li	tp,0
   102f8:	00002097          	auipc	ra,0x2
   102fc:	d0c08093          	addi	ra,ra,-756 # 12004 <tdat2>
   10300:	0040ef03          	lwu	t5,4(ra)
   10304:	0ff01eb7          	lui	t4,0xff01
   10308:	ff0e8e9b          	addiw	t4,t4,-16
   1030c:	0ddf1263          	bne	t5,t4,103d0 <fail>
   10310:	00120213          	addi	tp,tp,1 # 1 <_start-0xffff>
   10314:	00200293          	li	t0,2
   10318:	fe5210e3          	bne	tp,t0,102f8 <test_15+0x8>

000000000001031c <test_16>:
   1031c:	01000193          	li	gp,16
   10320:	00000213          	li	tp,0
   10324:	00002097          	auipc	ra,0x2
   10328:	ce408093          	addi	ra,ra,-796 # 12008 <tdat3>
   1032c:	00000013          	nop
   10330:	0040ef03          	lwu	t5,4(ra)
   10334:	000f0eb7          	lui	t4,0xf0
   10338:	0ffe8e9b          	addiw	t4,t4,255
   1033c:	00ce9e93          	slli	t4,t4,0xc
   10340:	00fe8e93          	addi	t4,t4,15 # f000f <_end+0xddfff>
   10344:	09df1663          	bne	t5,t4,103d0 <fail>
   10348:	00120213          	addi	tp,tp,1 # 1 <_start-0xffff>
   1034c:	00200293          	li	t0,2
   10350:	fc521ae3          	bne	tp,t0,10324 <test_16+0x8>

0000000000010354 <test_17>:
   10354:	01100193          	li	gp,17
   10358:	00000213          	li	tp,0
   1035c:	00002097          	auipc	ra,0x2
   10360:	ca408093          	addi	ra,ra,-860 # 12000 <begin_signature>
   10364:	00000013          	nop
   10368:	00000013          	nop
   1036c:	0040ef03          	lwu	t5,4(ra)
   10370:	00010eb7          	lui	t4,0x10
   10374:	f01e8e9b          	addiw	t4,t4,-255
   10378:	010e9e93          	slli	t4,t4,0x10
   1037c:	f00e8e93          	addi	t4,t4,-256 # ff00 <_start-0x100>
   10380:	05df1863          	bne	t5,t4,103d0 <fail>
   10384:	00120213          	addi	tp,tp,1 # 1 <_start-0xffff>
   10388:	00200293          	li	t0,2
   1038c:	fc5218e3          	bne	tp,t0,1035c <test_17+0x8>

0000000000010390 <test_18>:
   10390:	00002297          	auipc	t0,0x2
   10394:	c7028293          	addi	t0,t0,-912 # 12000 <begin_signature>
   10398:	0002e103          	lwu	sp,0(t0)
   1039c:	00200113          	li	sp,2
   103a0:	00200e93          	li	t4,2
   103a4:	01200193          	li	gp,18
   103a8:	03d11463          	bne	sp,t4,103d0 <fail>

00000000000103ac <test_19>:
   103ac:	00002297          	auipc	t0,0x2
   103b0:	c5428293          	addi	t0,t0,-940 # 12000 <begin_signature>
   103b4:	0002e103          	lwu	sp,0(t0)
   103b8:	00000013          	nop
   103bc:	00200113          	li	sp,2
   103c0:	00200e93          	li	t4,2
   103c4:	01300193          	li	gp,19
   103c8:	01d11463          	bne	sp,t4,103d0 <fail>
   103cc:	00301c63          	bne	zero,gp,103e4 <pass>

00000000000103d0 <fail>:
   103d0:	0ff0000f          	fence
   103d4:	00018063          	beqz	gp,103d4 <fail+0x4>
   103d8:	00119193          	slli	gp,gp,0x1
   103dc:	0011e193          	ori	gp,gp,1
   103e0:	00000073          	ecall

00000000000103e4 <pass>:
   103e4:	0ff0000f          	fence
   103e8:	00100193          	li	gp,1
   103ec:	00000073          	ecall
   103f0:	c0001073          	unimp
   103f4:	0000                	unimp
   103f6:	0000                	unimp
   103f8:	0000                	unimp
   103fa:	0000                	unimp
   103fc:	0000                	unimp
   103fe:	0000                	unimp
   10400:	0000                	unimp
   10402:	0000                	unimp
