
rv64um-p-mul:     file format elf64-littleriscv


Disassembly of section .text.init:

0000000000010000 <_start>:
   10000:	04c0006f          	j	1004c <reset_vector>

0000000000010004 <trap_vector>:
   10004:	34202f73          	csrr	t5,mcause
   10008:	00800f93          	li	t6,8
   1000c:	03ff0a63          	beq	t5,t6,10040 <write_tohost>
   10010:	00900f93          	li	t6,9
   10014:	03ff0663          	beq	t5,t6,10040 <write_tohost>
   10018:	00b00f93          	li	t6,11
   1001c:	03ff0263          	beq	t5,t6,10040 <write_tohost>
   10020:	ffff0f17          	auipc	t5,0xffff0
   10024:	fe0f0f13          	addi	t5,t5,-32 # 0 <_start-0x10000>
   10028:	000f0463          	beqz	t5,10030 <trap_vector+0x2c>
   1002c:	000f0067          	jr	t5
   10030:	34202f73          	csrr	t5,mcause
   10034:	000f5463          	bgez	t5,1003c <handle_exception>
   10038:	0040006f          	j	1003c <handle_exception>

000000000001003c <handle_exception>:
   1003c:	5391e193          	ori	gp,gp,1337

0000000000010040 <write_tohost>:
   10040:	00001f17          	auipc	t5,0x1
   10044:	fc3f2023          	sw	gp,-64(t5) # 11000 <tohost>
   10048:	ff9ff06f          	j	10040 <write_tohost>

000000000001004c <reset_vector>:
   1004c:	f1402573          	csrr	a0,mhartid
   10050:	00051063          	bnez	a0,10050 <reset_vector+0x4>
   10054:	00000297          	auipc	t0,0x0
   10058:	01028293          	addi	t0,t0,16 # 10064 <reset_vector+0x18>
   1005c:	30529073          	csrw	mtvec,t0
   10060:	18005073          	csrwi	satp,0
   10064:	00000297          	auipc	t0,0x0
   10068:	01c28293          	addi	t0,t0,28 # 10080 <reset_vector+0x34>
   1006c:	30529073          	csrw	mtvec,t0
   10070:	fff00293          	li	t0,-1
   10074:	3b029073          	csrw	pmpaddr0,t0
   10078:	01f00293          	li	t0,31
   1007c:	3a029073          	csrw	pmpcfg0,t0
   10080:	00000297          	auipc	t0,0x0
   10084:	01828293          	addi	t0,t0,24 # 10098 <reset_vector+0x4c>
   10088:	30529073          	csrw	mtvec,t0
   1008c:	30205073          	csrwi	medeleg,0
   10090:	30305073          	csrwi	mideleg,0
   10094:	30405073          	csrwi	mie,0
   10098:	00000193          	li	gp,0
   1009c:	00000297          	auipc	t0,0x0
   100a0:	f6828293          	addi	t0,t0,-152 # 10004 <trap_vector>
   100a4:	30529073          	csrw	mtvec,t0
   100a8:	00100513          	li	a0,1
   100ac:	01f51513          	slli	a0,a0,0x1f
   100b0:	00055863          	bgez	a0,100c0 <reset_vector+0x74>
   100b4:	0ff0000f          	fence
   100b8:	00100193          	li	gp,1
   100bc:	00000073          	ecall
   100c0:	ffff0297          	auipc	t0,0xffff0
   100c4:	f4028293          	addi	t0,t0,-192 # 0 <_start-0x10000>
   100c8:	00028e63          	beqz	t0,100e4 <reset_vector+0x98>
   100cc:	10529073          	csrw	stvec,t0
   100d0:	0000b2b7          	lui	t0,0xb
   100d4:	1092829b          	addiw	t0,t0,265
   100d8:	30229073          	csrw	medeleg,t0
   100dc:	30202373          	csrr	t1,medeleg
   100e0:	f4629ee3          	bne	t0,t1,1003c <handle_exception>
   100e4:	30005073          	csrwi	mstatus,0
   100e8:	00000297          	auipc	t0,0x0
   100ec:	01428293          	addi	t0,t0,20 # 100fc <test_32>
   100f0:	34129073          	csrw	mepc,t0
   100f4:	f1402573          	csrr	a0,mhartid
   100f8:	30200073          	mret

00000000000100fc <test_32>:
   100fc:	000080b7          	lui	ra,0x8
   10100:	e000809b          	addiw	ra,ra,-512
   10104:	06db7137          	lui	sp,0x6db7
   10108:	db71011b          	addiw	sp,sp,-585
   1010c:	00c11113          	slli	sp,sp,0xc
   10110:	db710113          	addi	sp,sp,-585 # 6db6db7 <_end+0x6da4db7>
   10114:	00c11113          	slli	sp,sp,0xc
   10118:	db710113          	addi	sp,sp,-585
   1011c:	00c11113          	slli	sp,sp,0xc
   10120:	db710113          	addi	sp,sp,-585
   10124:	02208f33          	mul	t5,ra,sp
   10128:	00001eb7          	lui	t4,0x1
   1012c:	200e8e9b          	addiw	t4,t4,512
   10130:	02000193          	li	gp,32
   10134:	49df1a63          	bne	t5,t4,105c8 <fail>

0000000000010138 <test_33>:
   10138:	000080b7          	lui	ra,0x8
   1013c:	fc00809b          	addiw	ra,ra,-64
   10140:	06db7137          	lui	sp,0x6db7
   10144:	db71011b          	addiw	sp,sp,-585
   10148:	00c11113          	slli	sp,sp,0xc
   1014c:	db710113          	addi	sp,sp,-585 # 6db6db7 <_end+0x6da4db7>
   10150:	00c11113          	slli	sp,sp,0xc
   10154:	db710113          	addi	sp,sp,-585
   10158:	00c11113          	slli	sp,sp,0xc
   1015c:	db710113          	addi	sp,sp,-585
   10160:	02208f33          	mul	t5,ra,sp
   10164:	00001eb7          	lui	t4,0x1
   10168:	240e8e9b          	addiw	t4,t4,576
   1016c:	02100193          	li	gp,33
   10170:	45df1c63          	bne	t5,t4,105c8 <fail>

0000000000010174 <test_2>:
   10174:	00000093          	li	ra,0
   10178:	00000113          	li	sp,0
   1017c:	02208f33          	mul	t5,ra,sp
   10180:	00000e93          	li	t4,0
   10184:	00200193          	li	gp,2
   10188:	45df1063          	bne	t5,t4,105c8 <fail>

000000000001018c <test_3>:
   1018c:	00100093          	li	ra,1
   10190:	00100113          	li	sp,1
   10194:	02208f33          	mul	t5,ra,sp
   10198:	00100e93          	li	t4,1
   1019c:	00300193          	li	gp,3
   101a0:	43df1463          	bne	t5,t4,105c8 <fail>

00000000000101a4 <test_4>:
   101a4:	00300093          	li	ra,3
   101a8:	00700113          	li	sp,7
   101ac:	02208f33          	mul	t5,ra,sp
   101b0:	01500e93          	li	t4,21
   101b4:	00400193          	li	gp,4
   101b8:	41df1863          	bne	t5,t4,105c8 <fail>

00000000000101bc <test_5>:
   101bc:	00000093          	li	ra,0
   101c0:	ffff8137          	lui	sp,0xffff8
   101c4:	02208f33          	mul	t5,ra,sp
   101c8:	00000e93          	li	t4,0
   101cc:	00500193          	li	gp,5
   101d0:	3fdf1c63          	bne	t5,t4,105c8 <fail>

00000000000101d4 <test_6>:
   101d4:	800000b7          	lui	ra,0x80000
   101d8:	00000113          	li	sp,0
   101dc:	02208f33          	mul	t5,ra,sp
   101e0:	00000e93          	li	t4,0
   101e4:	00600193          	li	gp,6
   101e8:	3fdf1063          	bne	t5,t4,105c8 <fail>

00000000000101ec <test_7>:
   101ec:	800000b7          	lui	ra,0x80000
   101f0:	ffff8137          	lui	sp,0xffff8
   101f4:	02208f33          	mul	t5,ra,sp
   101f8:	00100e9b          	addiw	t4,zero,1
   101fc:	02ee9e93          	slli	t4,t4,0x2e
   10200:	00700193          	li	gp,7
   10204:	3ddf1263          	bne	t5,t4,105c8 <fail>

0000000000010208 <test_30>:
   10208:	faaab0b7          	lui	ra,0xfaaab
   1020c:	aab0809b          	addiw	ra,ra,-1365
   10210:	00c09093          	slli	ra,ra,0xc
   10214:	aab08093          	addi	ra,ra,-1365 # fffffffffaaaaaab <_end+0xfffffffffaa98aab>
   10218:	00c09093          	slli	ra,ra,0xc
   1021c:	aab08093          	addi	ra,ra,-1365
   10220:	00c09093          	slli	ra,ra,0xc
   10224:	aab08093          	addi	ra,ra,-1365
   10228:	00030137          	lui	sp,0x30
   1022c:	e7d1011b          	addiw	sp,sp,-387
   10230:	02208f33          	mul	t5,ra,sp
   10234:	00010eb7          	lui	t4,0x10
   10238:	f7fe8e9b          	addiw	t4,t4,-129
   1023c:	01e00193          	li	gp,30
   10240:	39df1463          	bne	t5,t4,105c8 <fail>

0000000000010244 <test_31>:
   10244:	000300b7          	lui	ra,0x30
   10248:	e7d0809b          	addiw	ra,ra,-387
   1024c:	faaab137          	lui	sp,0xfaaab
   10250:	aab1011b          	addiw	sp,sp,-1365
   10254:	00c11113          	slli	sp,sp,0xc
   10258:	aab10113          	addi	sp,sp,-1365 # fffffffffaaaaaab <_end+0xfffffffffaa98aab>
   1025c:	00c11113          	slli	sp,sp,0xc
   10260:	aab10113          	addi	sp,sp,-1365
   10264:	00c11113          	slli	sp,sp,0xc
   10268:	aab10113          	addi	sp,sp,-1365
   1026c:	02208f33          	mul	t5,ra,sp
   10270:	00010eb7          	lui	t4,0x10
   10274:	f7fe8e9b          	addiw	t4,t4,-129
   10278:	01f00193          	li	gp,31
   1027c:	35df1663          	bne	t5,t4,105c8 <fail>

0000000000010280 <test_8>:
   10280:	00d00093          	li	ra,13
   10284:	00b00113          	li	sp,11
   10288:	022080b3          	mul	ra,ra,sp
   1028c:	08f00e93          	li	t4,143
   10290:	00800193          	li	gp,8
   10294:	33d09a63          	bne	ra,t4,105c8 <fail>

0000000000010298 <test_9>:
   10298:	00e00093          	li	ra,14
   1029c:	00b00113          	li	sp,11
   102a0:	02208133          	mul	sp,ra,sp
   102a4:	09a00e93          	li	t4,154
   102a8:	00900193          	li	gp,9
   102ac:	31d11e63          	bne	sp,t4,105c8 <fail>

00000000000102b0 <test_10>:
   102b0:	00d00093          	li	ra,13
   102b4:	021080b3          	mul	ra,ra,ra
   102b8:	0a900e93          	li	t4,169
   102bc:	00a00193          	li	gp,10
   102c0:	31d09463          	bne	ra,t4,105c8 <fail>

00000000000102c4 <test_11>:
   102c4:	00000213          	li	tp,0
   102c8:	00d00093          	li	ra,13
   102cc:	00b00113          	li	sp,11
   102d0:	02208f33          	mul	t5,ra,sp
   102d4:	000f0313          	mv	t1,t5
   102d8:	00120213          	addi	tp,tp,1 # 1 <_start-0xffff>
   102dc:	00200293          	li	t0,2
   102e0:	fe5214e3          	bne	tp,t0,102c8 <test_11+0x4>
   102e4:	08f00e93          	li	t4,143
   102e8:	00b00193          	li	gp,11
   102ec:	2dd31e63          	bne	t1,t4,105c8 <fail>

00000000000102f0 <test_12>:
   102f0:	00000213          	li	tp,0
   102f4:	00e00093          	li	ra,14
   102f8:	00b00113          	li	sp,11
   102fc:	02208f33          	mul	t5,ra,sp
   10300:	00000013          	nop
   10304:	000f0313          	mv	t1,t5
   10308:	00120213          	addi	tp,tp,1 # 1 <_start-0xffff>
   1030c:	00200293          	li	t0,2
   10310:	fe5212e3          	bne	tp,t0,102f4 <test_12+0x4>
   10314:	09a00e93          	li	t4,154
   10318:	00c00193          	li	gp,12
   1031c:	2bd31663          	bne	t1,t4,105c8 <fail>

0000000000010320 <test_13>:
   10320:	00000213          	li	tp,0
   10324:	00f00093          	li	ra,15
   10328:	00b00113          	li	sp,11
   1032c:	02208f33          	mul	t5,ra,sp
   10330:	00000013          	nop
   10334:	00000013          	nop
   10338:	000f0313          	mv	t1,t5
   1033c:	00120213          	addi	tp,tp,1 # 1 <_start-0xffff>
   10340:	00200293          	li	t0,2
   10344:	fe5210e3          	bne	tp,t0,10324 <test_13+0x4>
   10348:	0a500e93          	li	t4,165
   1034c:	00d00193          	li	gp,13
   10350:	27d31c63          	bne	t1,t4,105c8 <fail>

0000000000010354 <test_14>:
   10354:	00000213          	li	tp,0
   10358:	00d00093          	li	ra,13
   1035c:	00b00113          	li	sp,11
   10360:	02208f33          	mul	t5,ra,sp
   10364:	00120213          	addi	tp,tp,1 # 1 <_start-0xffff>
   10368:	00200293          	li	t0,2
   1036c:	fe5216e3          	bne	tp,t0,10358 <test_14+0x4>
   10370:	08f00e93          	li	t4,143
   10374:	00e00193          	li	gp,14
   10378:	25df1863          	bne	t5,t4,105c8 <fail>

000000000001037c <test_15>:
   1037c:	00000213          	li	tp,0
   10380:	00e00093          	li	ra,14
   10384:	00b00113          	li	sp,11
   10388:	00000013          	nop
   1038c:	02208f33          	mul	t5,ra,sp
   10390:	00120213          	addi	tp,tp,1 # 1 <_start-0xffff>
   10394:	00200293          	li	t0,2
   10398:	fe5214e3          	bne	tp,t0,10380 <test_15+0x4>
   1039c:	09a00e93          	li	t4,154
   103a0:	00f00193          	li	gp,15
   103a4:	23df1263          	bne	t5,t4,105c8 <fail>

00000000000103a8 <test_16>:
   103a8:	00000213          	li	tp,0
   103ac:	00f00093          	li	ra,15
   103b0:	00b00113          	li	sp,11
   103b4:	00000013          	nop
   103b8:	00000013          	nop
   103bc:	02208f33          	mul	t5,ra,sp
   103c0:	00120213          	addi	tp,tp,1 # 1 <_start-0xffff>
   103c4:	00200293          	li	t0,2
   103c8:	fe5212e3          	bne	tp,t0,103ac <test_16+0x4>
   103cc:	0a500e93          	li	t4,165
   103d0:	01000193          	li	gp,16
   103d4:	1fdf1a63          	bne	t5,t4,105c8 <fail>

00000000000103d8 <test_17>:
   103d8:	00000213          	li	tp,0
   103dc:	00d00093          	li	ra,13
   103e0:	00000013          	nop
   103e4:	00b00113          	li	sp,11
   103e8:	02208f33          	mul	t5,ra,sp
   103ec:	00120213          	addi	tp,tp,1 # 1 <_start-0xffff>
   103f0:	00200293          	li	t0,2
   103f4:	fe5214e3          	bne	tp,t0,103dc <test_17+0x4>
   103f8:	08f00e93          	li	t4,143
   103fc:	01100193          	li	gp,17
   10400:	1ddf1463          	bne	t5,t4,105c8 <fail>

0000000000010404 <test_18>:
   10404:	00000213          	li	tp,0
   10408:	00e00093          	li	ra,14
   1040c:	00000013          	nop
   10410:	00b00113          	li	sp,11
   10414:	00000013          	nop
   10418:	02208f33          	mul	t5,ra,sp
   1041c:	00120213          	addi	tp,tp,1 # 1 <_start-0xffff>
   10420:	00200293          	li	t0,2
   10424:	fe5212e3          	bne	tp,t0,10408 <test_18+0x4>
   10428:	09a00e93          	li	t4,154
   1042c:	01200193          	li	gp,18
   10430:	19df1c63          	bne	t5,t4,105c8 <fail>

0000000000010434 <test_19>:
   10434:	00000213          	li	tp,0
   10438:	00f00093          	li	ra,15
   1043c:	00000013          	nop
   10440:	00000013          	nop
   10444:	00b00113          	li	sp,11
   10448:	02208f33          	mul	t5,ra,sp
   1044c:	00120213          	addi	tp,tp,1 # 1 <_start-0xffff>
   10450:	00200293          	li	t0,2
   10454:	fe5212e3          	bne	tp,t0,10438 <test_19+0x4>
   10458:	0a500e93          	li	t4,165
   1045c:	01300193          	li	gp,19
   10460:	17df1463          	bne	t5,t4,105c8 <fail>

0000000000010464 <test_20>:
   10464:	00000213          	li	tp,0
   10468:	00b00113          	li	sp,11
   1046c:	00d00093          	li	ra,13
   10470:	02208f33          	mul	t5,ra,sp
   10474:	00120213          	addi	tp,tp,1 # 1 <_start-0xffff>
   10478:	00200293          	li	t0,2
   1047c:	fe5216e3          	bne	tp,t0,10468 <test_20+0x4>
   10480:	08f00e93          	li	t4,143
   10484:	01400193          	li	gp,20
   10488:	15df1063          	bne	t5,t4,105c8 <fail>

000000000001048c <test_21>:
   1048c:	00000213          	li	tp,0
   10490:	00b00113          	li	sp,11
   10494:	00e00093          	li	ra,14
   10498:	00000013          	nop
   1049c:	02208f33          	mul	t5,ra,sp
   104a0:	00120213          	addi	tp,tp,1 # 1 <_start-0xffff>
   104a4:	00200293          	li	t0,2
   104a8:	fe5214e3          	bne	tp,t0,10490 <test_21+0x4>
   104ac:	09a00e93          	li	t4,154
   104b0:	01500193          	li	gp,21
   104b4:	11df1a63          	bne	t5,t4,105c8 <fail>

00000000000104b8 <test_22>:
   104b8:	00000213          	li	tp,0
   104bc:	00b00113          	li	sp,11
   104c0:	00f00093          	li	ra,15
   104c4:	00000013          	nop
   104c8:	00000013          	nop
   104cc:	02208f33          	mul	t5,ra,sp
   104d0:	00120213          	addi	tp,tp,1 # 1 <_start-0xffff>
   104d4:	00200293          	li	t0,2
   104d8:	fe5212e3          	bne	tp,t0,104bc <test_22+0x4>
   104dc:	0a500e93          	li	t4,165
   104e0:	01600193          	li	gp,22
   104e4:	0fdf1263          	bne	t5,t4,105c8 <fail>

00000000000104e8 <test_23>:
   104e8:	00000213          	li	tp,0
   104ec:	00b00113          	li	sp,11
   104f0:	00000013          	nop
   104f4:	00d00093          	li	ra,13
   104f8:	02208f33          	mul	t5,ra,sp
   104fc:	00120213          	addi	tp,tp,1 # 1 <_start-0xffff>
   10500:	00200293          	li	t0,2
   10504:	fe5214e3          	bne	tp,t0,104ec <test_23+0x4>
   10508:	08f00e93          	li	t4,143
   1050c:	01700193          	li	gp,23
   10510:	0bdf1c63          	bne	t5,t4,105c8 <fail>

0000000000010514 <test_24>:
   10514:	00000213          	li	tp,0
   10518:	00b00113          	li	sp,11
   1051c:	00000013          	nop
   10520:	00e00093          	li	ra,14
   10524:	00000013          	nop
   10528:	02208f33          	mul	t5,ra,sp
   1052c:	00120213          	addi	tp,tp,1 # 1 <_start-0xffff>
   10530:	00200293          	li	t0,2
   10534:	fe5212e3          	bne	tp,t0,10518 <test_24+0x4>
   10538:	09a00e93          	li	t4,154
   1053c:	01800193          	li	gp,24
   10540:	09df1463          	bne	t5,t4,105c8 <fail>

0000000000010544 <test_25>:
   10544:	00000213          	li	tp,0
   10548:	00b00113          	li	sp,11
   1054c:	00000013          	nop
   10550:	00000013          	nop
   10554:	00f00093          	li	ra,15
   10558:	02208f33          	mul	t5,ra,sp
   1055c:	00120213          	addi	tp,tp,1 # 1 <_start-0xffff>
   10560:	00200293          	li	t0,2
   10564:	fe5212e3          	bne	tp,t0,10548 <test_25+0x4>
   10568:	0a500e93          	li	t4,165
   1056c:	01900193          	li	gp,25
   10570:	05df1c63          	bne	t5,t4,105c8 <fail>

0000000000010574 <test_26>:
   10574:	01f00093          	li	ra,31
   10578:	02100133          	mul	sp,zero,ra
   1057c:	00000e93          	li	t4,0
   10580:	01a00193          	li	gp,26
   10584:	05d11263          	bne	sp,t4,105c8 <fail>

0000000000010588 <test_27>:
   10588:	02000093          	li	ra,32
   1058c:	02008133          	mul	sp,ra,zero
   10590:	00000e93          	li	t4,0
   10594:	01b00193          	li	gp,27
   10598:	03d11863          	bne	sp,t4,105c8 <fail>

000000000001059c <test_28>:
   1059c:	020000b3          	mul	ra,zero,zero
   105a0:	00000e93          	li	t4,0
   105a4:	01c00193          	li	gp,28
   105a8:	03d09063          	bne	ra,t4,105c8 <fail>

00000000000105ac <test_29>:
   105ac:	02100093          	li	ra,33
   105b0:	02200113          	li	sp,34
   105b4:	02208033          	mul	zero,ra,sp
   105b8:	00000e93          	li	t4,0
   105bc:	01d00193          	li	gp,29
   105c0:	01d01463          	bne	zero,t4,105c8 <fail>
   105c4:	00301c63          	bne	zero,gp,105dc <pass>

00000000000105c8 <fail>:
   105c8:	0ff0000f          	fence
   105cc:	00018063          	beqz	gp,105cc <fail+0x4>
   105d0:	00119193          	slli	gp,gp,0x1
   105d4:	0011e193          	ori	gp,gp,1
   105d8:	00000073          	ecall

00000000000105dc <pass>:
   105dc:	0ff0000f          	fence
   105e0:	00100193          	li	gp,1
   105e4:	00000073          	ecall
   105e8:	c0001073          	unimp
   105ec:	0000                	unimp
   105ee:	0000                	unimp
   105f0:	0000                	unimp
   105f2:	0000                	unimp
   105f4:	0000                	unimp
   105f6:	0000                	unimp
   105f8:	0000                	unimp
   105fa:	0000                	unimp
   105fc:	0000                	unimp
   105fe:	0000                	unimp
   10600:	0000                	unimp
   10602:	0000                	unimp
