
rv64mi-p-access:     file format elf64-littleriscv


Disassembly of section .text.init:

0000000000010000 <_start>:
   10000:	04c0006f          	j	1004c <reset_vector>

0000000000010004 <trap_vector>:
   10004:	34202f73          	csrr	t5,mcause
   10008:	00800f93          	li	t6,8
   1000c:	03ff0a63          	beq	t5,t6,10040 <write_tohost>
   10010:	00900f93          	li	t6,9
   10014:	03ff0663          	beq	t5,t6,10040 <write_tohost>
   10018:	00b00f93          	li	t6,11
   1001c:	03ff0263          	beq	t5,t6,10040 <write_tohost>
   10020:	00000f17          	auipc	t5,0x0
   10024:	158f0f13          	addi	t5,t5,344 # 10178 <mtvec_handler>
   10028:	000f0463          	beqz	t5,10030 <trap_vector+0x2c>
   1002c:	000f0067          	jr	t5
   10030:	34202f73          	csrr	t5,mcause
   10034:	000f5463          	bgez	t5,1003c <handle_exception>
   10038:	0040006f          	j	1003c <handle_exception>

000000000001003c <handle_exception>:
   1003c:	5391e193          	ori	gp,gp,1337

0000000000010040 <write_tohost>:
   10040:	00001f17          	auipc	t5,0x1
   10044:	fc3f2023          	sw	gp,-64(t5) # 11000 <tohost>
   10048:	ff9ff06f          	j	10040 <write_tohost>

000000000001004c <reset_vector>:
   1004c:	f1402573          	csrr	a0,mhartid
   10050:	00051063          	bnez	a0,10050 <reset_vector+0x4>
   10054:	00000297          	auipc	t0,0x0
   10058:	01028293          	addi	t0,t0,16 # 10064 <reset_vector+0x18>
   1005c:	30529073          	csrw	mtvec,t0
   10060:	18005073          	csrwi	satp,0
   10064:	00000297          	auipc	t0,0x0
   10068:	01c28293          	addi	t0,t0,28 # 10080 <reset_vector+0x34>
   1006c:	30529073          	csrw	mtvec,t0
   10070:	fff00293          	li	t0,-1
   10074:	3b029073          	csrw	pmpaddr0,t0
   10078:	01f00293          	li	t0,31
   1007c:	3a029073          	csrw	pmpcfg0,t0
   10080:	00000297          	auipc	t0,0x0
   10084:	01828293          	addi	t0,t0,24 # 10098 <reset_vector+0x4c>
   10088:	30529073          	csrw	mtvec,t0
   1008c:	30205073          	csrwi	medeleg,0
   10090:	30305073          	csrwi	mideleg,0
   10094:	30405073          	csrwi	mie,0
   10098:	00000193          	li	gp,0
   1009c:	00000297          	auipc	t0,0x0
   100a0:	f6828293          	addi	t0,t0,-152 # 10004 <trap_vector>
   100a4:	30529073          	csrw	mtvec,t0
   100a8:	00100513          	li	a0,1
   100ac:	01f51513          	slli	a0,a0,0x1f
   100b0:	00055863          	bgez	a0,100c0 <reset_vector+0x74>
   100b4:	0ff0000f          	fence
   100b8:	00100193          	li	gp,1
   100bc:	00000073          	ecall
   100c0:	ffff0297          	auipc	t0,0xffff0
   100c4:	f4028293          	addi	t0,t0,-192 # 0 <_start-0x10000>
   100c8:	00028e63          	beqz	t0,100e4 <reset_vector+0x98>
   100cc:	10529073          	csrw	stvec,t0
   100d0:	0000b2b7          	lui	t0,0xb
   100d4:	1092829b          	addiw	t0,t0,265
   100d8:	30229073          	csrw	medeleg,t0
   100dc:	30202373          	csrr	t1,medeleg
   100e0:	f4629ee3          	bne	t0,t1,1003c <handle_exception>
   100e4:	30005073          	csrwi	mstatus,0
   100e8:	00002537          	lui	a0,0x2
   100ec:	8005051b          	addiw	a0,a0,-2048
   100f0:	30052073          	csrs	mstatus,a0
   100f4:	00000297          	auipc	t0,0x0
   100f8:	01428293          	addi	t0,t0,20 # 10108 <reset_vector+0xbc>
   100fc:	34129073          	csrw	mepc,t0
   10100:	f1402573          	csrr	a0,mhartid
   10104:	30200073          	mret
   10108:	00000397          	auipc	t2,0x0
   1010c:	05038393          	addi	t2,t2,80 # 10158 <fail>
   10110:	fff0029b          	addiw	t0,zero,-1
   10114:	03f29293          	slli	t0,t0,0x3f
   10118:	0072c2b3          	xor	t0,t0,t2
   1011c:	00200193          	li	gp,2
   10120:	00100313          	li	t1,1
   10124:	00000e17          	auipc	t3,0x0
   10128:	010e0e13          	addi	t3,t3,16 # 10134 <reset_vector+0xe8>
   1012c:	00000393          	li	t2,0
   10130:	000283e7          	jalr	t2,t0
   10134:	00300193          	li	gp,3
   10138:	00500313          	li	t1,5
   1013c:	00000e17          	auipc	t3,0x0
   10140:	014e0e13          	addi	t3,t3,20 # 10150 <reset_vector+0x104>
   10144:	000e0393          	mv	t2,t3
   10148:	00028383          	lb	t2,0(t0)
   1014c:	00c0006f          	j	10158 <fail>
   10150:	01c0006f          	j	1016c <pass>
   10154:	00301c63          	bne	zero,gp,1016c <pass>

0000000000010158 <fail>:
   10158:	0ff0000f          	fence
   1015c:	00018063          	beqz	gp,1015c <fail+0x4>
   10160:	00119193          	slli	gp,gp,0x1
   10164:	0011e193          	ori	gp,gp,1
   10168:	00000073          	ecall

000000000001016c <pass>:
   1016c:	0ff0000f          	fence
   10170:	00100193          	li	gp,1
   10174:	00000073          	ecall

0000000000010178 <mtvec_handler>:
   10178:	00200513          	li	a0,2
   1017c:	00a18863          	beq	gp,a0,1018c <mtvec_handler+0x14>
   10180:	00300513          	li	a0,3
   10184:	00a18463          	beq	gp,a0,1018c <mtvec_handler+0x14>
   10188:	fd1ff06f          	j	10158 <fail>
   1018c:	fdc396e3          	bne	t2,t3,10158 <fail>
   10190:	342023f3          	csrr	t2,mcause
   10194:	fc6392e3          	bne	t2,t1,10158 <fail>
   10198:	341e1073          	csrw	mepc,t3
   1019c:	30200073          	mret
   101a0:	c0001073          	unimp
   101a4:	0000                	unimp
   101a6:	0000                	unimp
   101a8:	0000                	unimp
   101aa:	0000                	unimp
   101ac:	0000                	unimp
   101ae:	0000                	unimp
   101b0:	0000                	unimp
   101b2:	0000                	unimp
   101b4:	0000                	unimp
   101b6:	0000                	unimp
   101b8:	0000                	unimp
   101ba:	0000                	unimp
   101bc:	0000                	unimp
   101be:	0000                	unimp
   101c0:	0000                	unimp
   101c2:	0000                	unimp
