
rv64um-p-mulw:     file format elf64-littleriscv


Disassembly of section .text.init:

0000000000010000 <_start>:
   10000:	04c0006f          	j	1004c <reset_vector>

0000000000010004 <trap_vector>:
   10004:	34202f73          	csrr	t5,mcause
   10008:	00800f93          	li	t6,8
   1000c:	03ff0a63          	beq	t5,t6,10040 <write_tohost>
   10010:	00900f93          	li	t6,9
   10014:	03ff0663          	beq	t5,t6,10040 <write_tohost>
   10018:	00b00f93          	li	t6,11
   1001c:	03ff0263          	beq	t5,t6,10040 <write_tohost>
   10020:	ffff0f17          	auipc	t5,0xffff0
   10024:	fe0f0f13          	addi	t5,t5,-32 # 0 <_start-0x10000>
   10028:	000f0463          	beqz	t5,10030 <trap_vector+0x2c>
   1002c:	000f0067          	jr	t5
   10030:	34202f73          	csrr	t5,mcause
   10034:	000f5463          	bgez	t5,1003c <handle_exception>
   10038:	0040006f          	j	1003c <handle_exception>

000000000001003c <handle_exception>:
   1003c:	5391e193          	ori	gp,gp,1337

0000000000010040 <write_tohost>:
   10040:	00001f17          	auipc	t5,0x1
   10044:	fc3f2023          	sw	gp,-64(t5) # 11000 <tohost>
   10048:	ff9ff06f          	j	10040 <write_tohost>

000000000001004c <reset_vector>:
   1004c:	f1402573          	csrr	a0,mhartid
   10050:	00051063          	bnez	a0,10050 <reset_vector+0x4>
   10054:	00000297          	auipc	t0,0x0
   10058:	01028293          	addi	t0,t0,16 # 10064 <reset_vector+0x18>
   1005c:	30529073          	csrw	mtvec,t0
   10060:	18005073          	csrwi	satp,0
   10064:	00000297          	auipc	t0,0x0
   10068:	01c28293          	addi	t0,t0,28 # 10080 <reset_vector+0x34>
   1006c:	30529073          	csrw	mtvec,t0
   10070:	fff00293          	li	t0,-1
   10074:	3b029073          	csrw	pmpaddr0,t0
   10078:	01f00293          	li	t0,31
   1007c:	3a029073          	csrw	pmpcfg0,t0
   10080:	00000297          	auipc	t0,0x0
   10084:	01828293          	addi	t0,t0,24 # 10098 <reset_vector+0x4c>
   10088:	30529073          	csrw	mtvec,t0
   1008c:	30205073          	csrwi	medeleg,0
   10090:	30305073          	csrwi	mideleg,0
   10094:	30405073          	csrwi	mie,0
   10098:	00000193          	li	gp,0
   1009c:	00000297          	auipc	t0,0x0
   100a0:	f6828293          	addi	t0,t0,-152 # 10004 <trap_vector>
   100a4:	30529073          	csrw	mtvec,t0
   100a8:	00100513          	li	a0,1
   100ac:	01f51513          	slli	a0,a0,0x1f
   100b0:	00055863          	bgez	a0,100c0 <reset_vector+0x74>
   100b4:	0ff0000f          	fence
   100b8:	00100193          	li	gp,1
   100bc:	00000073          	ecall
   100c0:	ffff0297          	auipc	t0,0xffff0
   100c4:	f4028293          	addi	t0,t0,-192 # 0 <_start-0x10000>
   100c8:	00028e63          	beqz	t0,100e4 <reset_vector+0x98>
   100cc:	10529073          	csrw	stvec,t0
   100d0:	0000b2b7          	lui	t0,0xb
   100d4:	1092829b          	addiw	t0,t0,265
   100d8:	30229073          	csrw	medeleg,t0
   100dc:	30202373          	csrr	t1,medeleg
   100e0:	f4629ee3          	bne	t0,t1,1003c <handle_exception>
   100e4:	30005073          	csrwi	mstatus,0
   100e8:	00000297          	auipc	t0,0x0
   100ec:	01428293          	addi	t0,t0,20 # 100fc <test_2>
   100f0:	34129073          	csrw	mepc,t0
   100f4:	f1402573          	csrr	a0,mhartid
   100f8:	30200073          	mret

00000000000100fc <test_2>:
   100fc:	00000093          	li	ra,0
   10100:	00000113          	li	sp,0
   10104:	02208f3b          	mulw	t5,ra,sp
   10108:	00000e93          	li	t4,0
   1010c:	00200193          	li	gp,2
   10110:	3ddf1263          	bne	t5,t4,104d4 <fail>

0000000000010114 <test_3>:
   10114:	00100093          	li	ra,1
   10118:	00100113          	li	sp,1
   1011c:	02208f3b          	mulw	t5,ra,sp
   10120:	00100e93          	li	t4,1
   10124:	00300193          	li	gp,3
   10128:	3bdf1663          	bne	t5,t4,104d4 <fail>

000000000001012c <test_4>:
   1012c:	00300093          	li	ra,3
   10130:	00700113          	li	sp,7
   10134:	02208f3b          	mulw	t5,ra,sp
   10138:	01500e93          	li	t4,21
   1013c:	00400193          	li	gp,4
   10140:	39df1a63          	bne	t5,t4,104d4 <fail>

0000000000010144 <test_5>:
   10144:	00000093          	li	ra,0
   10148:	ffff8137          	lui	sp,0xffff8
   1014c:	02208f3b          	mulw	t5,ra,sp
   10150:	00000e93          	li	t4,0
   10154:	00500193          	li	gp,5
   10158:	37df1e63          	bne	t5,t4,104d4 <fail>

000000000001015c <test_6>:
   1015c:	800000b7          	lui	ra,0x80000
   10160:	00000113          	li	sp,0
   10164:	02208f3b          	mulw	t5,ra,sp
   10168:	00000e93          	li	t4,0
   1016c:	00600193          	li	gp,6
   10170:	37df1263          	bne	t5,t4,104d4 <fail>

0000000000010174 <test_7>:
   10174:	800000b7          	lui	ra,0x80000
   10178:	ffff8137          	lui	sp,0xffff8
   1017c:	02208f3b          	mulw	t5,ra,sp
   10180:	00000e93          	li	t4,0
   10184:	00700193          	li	gp,7
   10188:	35df1663          	bne	t5,t4,104d4 <fail>

000000000001018c <test_8>:
   1018c:	00d00093          	li	ra,13
   10190:	00b00113          	li	sp,11
   10194:	022080bb          	mulw	ra,ra,sp
   10198:	08f00e93          	li	t4,143
   1019c:	00800193          	li	gp,8
   101a0:	33d09a63          	bne	ra,t4,104d4 <fail>

00000000000101a4 <test_9>:
   101a4:	00e00093          	li	ra,14
   101a8:	00b00113          	li	sp,11
   101ac:	0220813b          	mulw	sp,ra,sp
   101b0:	09a00e93          	li	t4,154
   101b4:	00900193          	li	gp,9
   101b8:	31d11e63          	bne	sp,t4,104d4 <fail>

00000000000101bc <test_10>:
   101bc:	00d00093          	li	ra,13
   101c0:	021080bb          	mulw	ra,ra,ra
   101c4:	0a900e93          	li	t4,169
   101c8:	00a00193          	li	gp,10
   101cc:	31d09463          	bne	ra,t4,104d4 <fail>

00000000000101d0 <test_11>:
   101d0:	00000213          	li	tp,0
   101d4:	00d00093          	li	ra,13
   101d8:	00b00113          	li	sp,11
   101dc:	02208f3b          	mulw	t5,ra,sp
   101e0:	000f0313          	mv	t1,t5
   101e4:	00120213          	addi	tp,tp,1 # 1 <_start-0xffff>
   101e8:	00200293          	li	t0,2
   101ec:	fe5214e3          	bne	tp,t0,101d4 <test_11+0x4>
   101f0:	08f00e93          	li	t4,143
   101f4:	00b00193          	li	gp,11
   101f8:	2dd31e63          	bne	t1,t4,104d4 <fail>

00000000000101fc <test_12>:
   101fc:	00000213          	li	tp,0
   10200:	00e00093          	li	ra,14
   10204:	00b00113          	li	sp,11
   10208:	02208f3b          	mulw	t5,ra,sp
   1020c:	00000013          	nop
   10210:	000f0313          	mv	t1,t5
   10214:	00120213          	addi	tp,tp,1 # 1 <_start-0xffff>
   10218:	00200293          	li	t0,2
   1021c:	fe5212e3          	bne	tp,t0,10200 <test_12+0x4>
   10220:	09a00e93          	li	t4,154
   10224:	00c00193          	li	gp,12
   10228:	2bd31663          	bne	t1,t4,104d4 <fail>

000000000001022c <test_13>:
   1022c:	00000213          	li	tp,0
   10230:	00f00093          	li	ra,15
   10234:	00b00113          	li	sp,11
   10238:	02208f3b          	mulw	t5,ra,sp
   1023c:	00000013          	nop
   10240:	00000013          	nop
   10244:	000f0313          	mv	t1,t5
   10248:	00120213          	addi	tp,tp,1 # 1 <_start-0xffff>
   1024c:	00200293          	li	t0,2
   10250:	fe5210e3          	bne	tp,t0,10230 <test_13+0x4>
   10254:	0a500e93          	li	t4,165
   10258:	00d00193          	li	gp,13
   1025c:	27d31c63          	bne	t1,t4,104d4 <fail>

0000000000010260 <test_14>:
   10260:	00000213          	li	tp,0
   10264:	00d00093          	li	ra,13
   10268:	00b00113          	li	sp,11
   1026c:	02208f3b          	mulw	t5,ra,sp
   10270:	00120213          	addi	tp,tp,1 # 1 <_start-0xffff>
   10274:	00200293          	li	t0,2
   10278:	fe5216e3          	bne	tp,t0,10264 <test_14+0x4>
   1027c:	08f00e93          	li	t4,143
   10280:	00e00193          	li	gp,14
   10284:	25df1863          	bne	t5,t4,104d4 <fail>

0000000000010288 <test_15>:
   10288:	00000213          	li	tp,0
   1028c:	00e00093          	li	ra,14
   10290:	00b00113          	li	sp,11
   10294:	00000013          	nop
   10298:	02208f3b          	mulw	t5,ra,sp
   1029c:	00120213          	addi	tp,tp,1 # 1 <_start-0xffff>
   102a0:	00200293          	li	t0,2
   102a4:	fe5214e3          	bne	tp,t0,1028c <test_15+0x4>
   102a8:	09a00e93          	li	t4,154
   102ac:	00f00193          	li	gp,15
   102b0:	23df1263          	bne	t5,t4,104d4 <fail>

00000000000102b4 <test_16>:
   102b4:	00000213          	li	tp,0
   102b8:	00f00093          	li	ra,15
   102bc:	00b00113          	li	sp,11
   102c0:	00000013          	nop
   102c4:	00000013          	nop
   102c8:	02208f3b          	mulw	t5,ra,sp
   102cc:	00120213          	addi	tp,tp,1 # 1 <_start-0xffff>
   102d0:	00200293          	li	t0,2
   102d4:	fe5212e3          	bne	tp,t0,102b8 <test_16+0x4>
   102d8:	0a500e93          	li	t4,165
   102dc:	01000193          	li	gp,16
   102e0:	1fdf1a63          	bne	t5,t4,104d4 <fail>

00000000000102e4 <test_17>:
   102e4:	00000213          	li	tp,0
   102e8:	00d00093          	li	ra,13
   102ec:	00000013          	nop
   102f0:	00b00113          	li	sp,11
   102f4:	02208f3b          	mulw	t5,ra,sp
   102f8:	00120213          	addi	tp,tp,1 # 1 <_start-0xffff>
   102fc:	00200293          	li	t0,2
   10300:	fe5214e3          	bne	tp,t0,102e8 <test_17+0x4>
   10304:	08f00e93          	li	t4,143
   10308:	01100193          	li	gp,17
   1030c:	1ddf1463          	bne	t5,t4,104d4 <fail>

0000000000010310 <test_18>:
   10310:	00000213          	li	tp,0
   10314:	00e00093          	li	ra,14
   10318:	00000013          	nop
   1031c:	00b00113          	li	sp,11
   10320:	00000013          	nop
   10324:	02208f3b          	mulw	t5,ra,sp
   10328:	00120213          	addi	tp,tp,1 # 1 <_start-0xffff>
   1032c:	00200293          	li	t0,2
   10330:	fe5212e3          	bne	tp,t0,10314 <test_18+0x4>
   10334:	09a00e93          	li	t4,154
   10338:	01200193          	li	gp,18
   1033c:	19df1c63          	bne	t5,t4,104d4 <fail>

0000000000010340 <test_19>:
   10340:	00000213          	li	tp,0
   10344:	00f00093          	li	ra,15
   10348:	00000013          	nop
   1034c:	00000013          	nop
   10350:	00b00113          	li	sp,11
   10354:	02208f3b          	mulw	t5,ra,sp
   10358:	00120213          	addi	tp,tp,1 # 1 <_start-0xffff>
   1035c:	00200293          	li	t0,2
   10360:	fe5212e3          	bne	tp,t0,10344 <test_19+0x4>
   10364:	0a500e93          	li	t4,165
   10368:	01300193          	li	gp,19
   1036c:	17df1463          	bne	t5,t4,104d4 <fail>

0000000000010370 <test_20>:
   10370:	00000213          	li	tp,0
   10374:	00b00113          	li	sp,11
   10378:	00d00093          	li	ra,13
   1037c:	02208f3b          	mulw	t5,ra,sp
   10380:	00120213          	addi	tp,tp,1 # 1 <_start-0xffff>
   10384:	00200293          	li	t0,2
   10388:	fe5216e3          	bne	tp,t0,10374 <test_20+0x4>
   1038c:	08f00e93          	li	t4,143
   10390:	01400193          	li	gp,20
   10394:	15df1063          	bne	t5,t4,104d4 <fail>

0000000000010398 <test_21>:
   10398:	00000213          	li	tp,0
   1039c:	00b00113          	li	sp,11
   103a0:	00e00093          	li	ra,14
   103a4:	00000013          	nop
   103a8:	02208f3b          	mulw	t5,ra,sp
   103ac:	00120213          	addi	tp,tp,1 # 1 <_start-0xffff>
   103b0:	00200293          	li	t0,2
   103b4:	fe5214e3          	bne	tp,t0,1039c <test_21+0x4>
   103b8:	09a00e93          	li	t4,154
   103bc:	01500193          	li	gp,21
   103c0:	11df1a63          	bne	t5,t4,104d4 <fail>

00000000000103c4 <test_22>:
   103c4:	00000213          	li	tp,0
   103c8:	00b00113          	li	sp,11
   103cc:	00f00093          	li	ra,15
   103d0:	00000013          	nop
   103d4:	00000013          	nop
   103d8:	02208f3b          	mulw	t5,ra,sp
   103dc:	00120213          	addi	tp,tp,1 # 1 <_start-0xffff>
   103e0:	00200293          	li	t0,2
   103e4:	fe5212e3          	bne	tp,t0,103c8 <test_22+0x4>
   103e8:	0a500e93          	li	t4,165
   103ec:	01600193          	li	gp,22
   103f0:	0fdf1263          	bne	t5,t4,104d4 <fail>

00000000000103f4 <test_23>:
   103f4:	00000213          	li	tp,0
   103f8:	00b00113          	li	sp,11
   103fc:	00000013          	nop
   10400:	00d00093          	li	ra,13
   10404:	02208f3b          	mulw	t5,ra,sp
   10408:	00120213          	addi	tp,tp,1 # 1 <_start-0xffff>
   1040c:	00200293          	li	t0,2
   10410:	fe5214e3          	bne	tp,t0,103f8 <test_23+0x4>
   10414:	08f00e93          	li	t4,143
   10418:	01700193          	li	gp,23
   1041c:	0bdf1c63          	bne	t5,t4,104d4 <fail>

0000000000010420 <test_24>:
   10420:	00000213          	li	tp,0
   10424:	00b00113          	li	sp,11
   10428:	00000013          	nop
   1042c:	00e00093          	li	ra,14
   10430:	00000013          	nop
   10434:	02208f3b          	mulw	t5,ra,sp
   10438:	00120213          	addi	tp,tp,1 # 1 <_start-0xffff>
   1043c:	00200293          	li	t0,2
   10440:	fe5212e3          	bne	tp,t0,10424 <test_24+0x4>
   10444:	09a00e93          	li	t4,154
   10448:	01800193          	li	gp,24
   1044c:	09df1463          	bne	t5,t4,104d4 <fail>

0000000000010450 <test_25>:
   10450:	00000213          	li	tp,0
   10454:	00b00113          	li	sp,11
   10458:	00000013          	nop
   1045c:	00000013          	nop
   10460:	00f00093          	li	ra,15
   10464:	02208f3b          	mulw	t5,ra,sp
   10468:	00120213          	addi	tp,tp,1 # 1 <_start-0xffff>
   1046c:	00200293          	li	t0,2
   10470:	fe5212e3          	bne	tp,t0,10454 <test_25+0x4>
   10474:	0a500e93          	li	t4,165
   10478:	01900193          	li	gp,25
   1047c:	05df1c63          	bne	t5,t4,104d4 <fail>

0000000000010480 <test_26>:
   10480:	01f00093          	li	ra,31
   10484:	0210013b          	mulw	sp,zero,ra
   10488:	00000e93          	li	t4,0
   1048c:	01a00193          	li	gp,26
   10490:	05d11263          	bne	sp,t4,104d4 <fail>

0000000000010494 <test_27>:
   10494:	02000093          	li	ra,32
   10498:	0200813b          	mulw	sp,ra,zero
   1049c:	00000e93          	li	t4,0
   104a0:	01b00193          	li	gp,27
   104a4:	03d11863          	bne	sp,t4,104d4 <fail>

00000000000104a8 <test_28>:
   104a8:	020000bb          	mulw	ra,zero,zero
   104ac:	00000e93          	li	t4,0
   104b0:	01c00193          	li	gp,28
   104b4:	03d09063          	bne	ra,t4,104d4 <fail>

00000000000104b8 <test_29>:
   104b8:	02100093          	li	ra,33
   104bc:	02200113          	li	sp,34
   104c0:	0220803b          	mulw	zero,ra,sp
   104c4:	00000e93          	li	t4,0
   104c8:	01d00193          	li	gp,29
   104cc:	01d01463          	bne	zero,t4,104d4 <fail>
   104d0:	00301c63          	bne	zero,gp,104e8 <pass>

00000000000104d4 <fail>:
   104d4:	0ff0000f          	fence
   104d8:	00018063          	beqz	gp,104d8 <fail+0x4>
   104dc:	00119193          	slli	gp,gp,0x1
   104e0:	0011e193          	ori	gp,gp,1
   104e4:	00000073          	ecall

00000000000104e8 <pass>:
   104e8:	0ff0000f          	fence
   104ec:	00100193          	li	gp,1
   104f0:	00000073          	ecall
   104f4:	c0001073          	unimp
   104f8:	0000                	unimp
   104fa:	0000                	unimp
   104fc:	0000                	unimp
   104fe:	0000                	unimp
   10500:	0000                	unimp
   10502:	0000                	unimp
